

Microchip MPLAB XC8 Assembler V2.41 build 20230208172133 
                                                                                               Sun Dec 17 20:28:25 2023

Microchip MPLAB XC8 C Compiler v2.41 (Free license) build 20230208172133 Og1 
     1                           	processor	16F1788
     2                           	pagewidth 120
     3                           	opt	flic
     4                           	psect	stringtext1,global,class=STRCODE,delta=2,noexec
     5                           	psect	stringtext2,global,class=STRCODE,delta=2,noexec
     6                           	psect	stringtext3,global,class=STRCODE,delta=2,noexec
     7                           	psect	stringtext4,global,class=STRCODE,delta=2,noexec
     8                           	psect	stringtext5,global,class=STRCODE,delta=2,noexec
     9                           	psect	stringtext6,global,class=STRCODE,delta=2,noexec
    10                           	psect	stringtext7,global,class=STRCODE,delta=2,noexec
    11                           	psect	stringtext8,global,class=STRCODE,delta=2,noexec
    12                           	psect	stringtext9,global,class=STRCODE,delta=2,noexec
    13                           	psect	stringtext10,global,class=STRCODE,delta=2,noexec
    14                           	psect	stringtext11,global,class=STRCODE,delta=2,noexec
    15                           	psect	stringtext12,global,class=STRCODE,delta=2,noexec
    16                           	psect	stringtext13,global,class=STRCODE,delta=2,noexec
    17                           	psect	stringtext14,global,class=STRCODE,delta=2,noexec
    18                           	psect	stringtext15,global,class=STRCODE,delta=2,noexec
    19                           	psect	stringtext16,global,class=STRCODE,delta=2,noexec
    20                           	psect	stringtext17,global,class=STRCODE,delta=2,noexec
    21                           	psect	stringtext18,global,class=STRCODE,delta=2,noexec
    22                           	psect	stringtext19,global,class=STRCODE,delta=2,noexec
    23                           	psect	stringtext20,global,class=STRCODE,delta=2,noexec
    24                           	psect	stringtext21,global,class=STRCODE,delta=2,noexec
    25                           	psect	stringtext22,global,class=STRCODE,delta=2,noexec
    26                           	psect	stringtext23,global,class=STRCODE,delta=2,noexec
    27                           	psect	stringtext24,global,class=STRCODE,delta=2,noexec
    28                           	psect	stringtext25,global,class=STRCODE,delta=2,noexec
    29                           	psect	stringtext26,global,class=STRCODE,delta=2,noexec
    30                           	psect	stringtext27,global,class=STRCODE,delta=2,noexec
    31                           	psect	cinit,global,class=CODE,merge=1,delta=2
    32                           	psect	bssBANK0,global,class=BANK0,space=1,delta=1,noexec
    33                           	psect	cstackCOMMON,global,class=COMMON,space=1,delta=1,noexec
    34                           	psect	cstackBANK0,global,class=BANK0,space=1,delta=1,noexec
    35                           	psect	maintext,global,class=CODE,merge=1,split=1,delta=2
    36                           	psect	text1,local,class=CODE,merge=1,delta=2,group=3
    37                           	psect	text2,local,class=CODE,merge=1,delta=2,group=3
    38                           	psect	text3,local,class=CODE,merge=1,delta=2,group=3
    39                           	psect	text4,local,class=CODE,merge=1,delta=2,group=3
    40                           	psect	text5,local,class=CODE,merge=1,delta=2,group=3
    41                           	psect	text6,local,class=CODE,merge=1,delta=2,group=1
    42                           	psect	text7,local,class=CODE,merge=1,delta=2
    43                           	psect	text8,local,class=CODE,merge=1,delta=2,group=3
    44                           	psect	text9,local,class=CODE,merge=1,delta=2,group=3
    45                           	psect	text10,local,class=CODE,merge=1,delta=2
    46                           	psect	text11,local,class=CODE,merge=1,delta=2
    47                           	psect	text12,local,class=CODE,merge=1,delta=2
    48                           	psect	text13,local,class=CODE,merge=1,delta=2,group=3
    49                           	psect	text14,local,class=CODE,merge=1,delta=2,group=3
    50                           	psect	text15,local,class=CODE,merge=1,delta=2,group=2
    51                           	psect	text16,local,class=CODE,merge=1,delta=2,group=2
    52                           	psect	idloc,global,abs,ovrld,class=IDLOC,space=5,delta=2,noexec
    53                           	psect	config,global,abs,ovrld,class=CONFIG,space=4,delta=2,noexec
    54                           	dabs	1,0x7E,2
    55     0000                     
    56                           ; Generated 09/02/2023 GMT
    57                           ; 
    58                           ; Copyright © 2023, Microchip Technology Inc. and its subsidiaries ("Microchip")
    59                           ; All rights reserved.
    60                           ; 
    61                           ; This software is developed by Microchip Technology Inc. and its subsidiaries ("Microch
      +                          ip").
    62                           ; 
    63                           ; Redistribution and use in source and binary forms, with or without modification, are
    64                           ; permitted provided that the following conditions are met:
    65                           ; 
    66                           ;     1. Redistributions of source code must retain the above copyright notice, this lis
      +                          t of
    67                           ;        conditions and the following disclaimer.
    68                           ; 
    69                           ;     2. Redistributions in binary form must reproduce the above copyright notice, this 
      +                          list
    70                           ;        of conditions and the following disclaimer in the documentation and/or other
    71                           ;        materials provided with the distribution. Publication is not required when
    72                           ;        this file is used in an embedded application.
    73                           ; 
    74                           ;     3. Microchip's name may not be used to endorse or promote products derived from th
      +                          is
    75                           ;        software without specific prior written permission.
    76                           ; 
    77                           ; THIS SOFTWARE IS PROVIDED BY MICROCHIP "AS IS" AND ANY EXPRESS OR IMPLIED WARRANTIES,
    78                           ; INCLUDING, BUT NOT LIMITED TO, THE IMPLIED WARRANTIES OF MERCHANTABILITY AND FITNESS F
      +                          OR
    79                           ; PURPOSE ARE DISCLAIMED.  IN NO EVENT SHALL MICROCHIP BE LIABLE FOR ANY DIRECT, INDIREC
      +                          T,
    80                           ; INCIDENTAL, SPECIAL, EXEMPLARY, OR CONSEQUENTIAL DAMAGES (INCLUDING BUT NOT LIMITED TO
    81                           ; PROCUREMENT OF SUBSTITUTE GOODS OR SERVICES; LOSS OF USE, DATA OR PROFITS; OR BUSINESS
    82                           ; INTERRUPTION) HOWSOEVER CAUSED AND ON ANY THEORY OF LIABILITY, WHETHER IN CONTRACT, ST
      +                          RICT
    83                           ; LIABILITY, OR TORT (INCLUDING NEGLIGENCE OR OTHERWISE) ARISING IN ANY WAY OUT OF THE U
      +                          SE OF
    84                           ; THIS SOFTWARE, EVEN IF ADVISED OF THE POSSIBILITY OF SUCH DAMAGE.
    85                           ; 
    86                           ; 
    87                           ; Code-generator required, PIC16F1788 Definitions
    88                           ; 
    89                           ; SFR Addresses
    90     0000                     	;# 
    91     0001                     	;# 
    92     0002                     	;# 
    93     0003                     	;# 
    94     0004                     	;# 
    95     0005                     	;# 
    96     0006                     	;# 
    97     0007                     	;# 
    98     0008                     	;# 
    99     0009                     	;# 
   100     000A                     	;# 
   101     000B                     	;# 
   102     000C                     	;# 
   103     000D                     	;# 
   104     000E                     	;# 
   105     0010                     	;# 
   106     0011                     	;# 
   107     0012                     	;# 
   108     0013                     	;# 
   109     0014                     	;# 
   110     0015                     	;# 
   111     0016                     	;# 
   112     0016                     	;# 
   113     0017                     	;# 
   114     0018                     	;# 
   115     0019                     	;# 
   116     001A                     	;# 
   117     001B                     	;# 
   118     001C                     	;# 
   119     008C                     	;# 
   120     008D                     	;# 
   121     008E                     	;# 
   122     0090                     	;# 
   123     0091                     	;# 
   124     0092                     	;# 
   125     0093                     	;# 
   126     0094                     	;# 
   127     0095                     	;# 
   128     0096                     	;# 
   129     0097                     	;# 
   130     0098                     	;# 
   131     0099                     	;# 
   132     009A                     	;# 
   133     009B                     	;# 
   134     009B                     	;# 
   135     009C                     	;# 
   136     009D                     	;# 
   137     009E                     	;# 
   138     009F                     	;# 
   139     010C                     	;# 
   140     010D                     	;# 
   141     010E                     	;# 
   142     0111                     	;# 
   143     0112                     	;# 
   144     0113                     	;# 
   145     0114                     	;# 
   146     0115                     	;# 
   147     0116                     	;# 
   148     0117                     	;# 
   149     0118                     	;# 
   150     0119                     	;# 
   151     011A                     	;# 
   152     011B                     	;# 
   153     011C                     	;# 
   154     011D                     	;# 
   155     011D                     	;# 
   156     011D                     	;# 
   157     011E                     	;# 
   158     011F                     	;# 
   159     018C                     	;# 
   160     018D                     	;# 
   161     018E                     	;# 
   162     0191                     	;# 
   163     0191                     	;# 
   164     0192                     	;# 
   165     0193                     	;# 
   166     0193                     	;# 
   167     0193                     	;# 
   168     0194                     	;# 
   169     0195                     	;# 
   170     0196                     	;# 
   171     0197                     	;# 
   172     0199                     	;# 
   173     0199                     	;# 
   174     0199                     	;# 
   175     019A                     	;# 
   176     019A                     	;# 
   177     019A                     	;# 
   178     019B                     	;# 
   179     019B                     	;# 
   180     019B                     	;# 
   181     019B                     	;# 
   182     019B                     	;# 
   183     019C                     	;# 
   184     019C                     	;# 
   185     019C                     	;# 
   186     019D                     	;# 
   187     019D                     	;# 
   188     019D                     	;# 
   189     019E                     	;# 
   190     019E                     	;# 
   191     019E                     	;# 
   192     019F                     	;# 
   193     019F                     	;# 
   194     019F                     	;# 
   195     019F                     	;# 
   196     019F                     	;# 
   197     020C                     	;# 
   198     020D                     	;# 
   199     020E                     	;# 
   200     0210                     	;# 
   201     0211                     	;# 
   202     0211                     	;# 
   203     0212                     	;# 
   204     0212                     	;# 
   205     0213                     	;# 
   206     0213                     	;# 
   207     0214                     	;# 
   208     0214                     	;# 
   209     0215                     	;# 
   210     0215                     	;# 
   211     0215                     	;# 
   212     0215                     	;# 
   213     0216                     	;# 
   214     0216                     	;# 
   215     0217                     	;# 
   216     0217                     	;# 
   217     028C                     	;# 
   218     028D                     	;# 
   219     028E                     	;# 
   220     0291                     	;# 
   221     0291                     	;# 
   222     0292                     	;# 
   223     0293                     	;# 
   224     0298                     	;# 
   225     0298                     	;# 
   226     0299                     	;# 
   227     029A                     	;# 
   228     030C                     	;# 
   229     030D                     	;# 
   230     030E                     	;# 
   231     0311                     	;# 
   232     0311                     	;# 
   233     0312                     	;# 
   234     0313                     	;# 
   235     038C                     	;# 
   236     038D                     	;# 
   237     038E                     	;# 
   238     0390                     	;# 
   239     0391                     	;# 
   240     0392                     	;# 
   241     0393                     	;# 
   242     0394                     	;# 
   243     0395                     	;# 
   244     0396                     	;# 
   245     0397                     	;# 
   246     0398                     	;# 
   247     0399                     	;# 
   248     039D                     	;# 
   249     039E                     	;# 
   250     039F                     	;# 
   251     0511                     	;# 
   252     0513                     	;# 
   253     051A                     	;# 
   254     0591                     	;# 
   255     0592                     	;# 
   256     0592                     	;# 
   257     0593                     	;# 
   258     0594                     	;# 
   259     0594                     	;# 
   260     0595                     	;# 
   261     0596                     	;# 
   262     0596                     	;# 
   263     0E91                     	;# 
   264     0E92                     	;# 
   265     0E93                     	;# 
   266     0E94                     	;# 
   267     0E95                     	;# 
   268     0E96                     	;# 
   269     0E97                     	;# 
   270     0E98                     	;# 
   271     0E99                     	;# 
   272     0E9A                     	;# 
   273     0E9B                     	;# 
   274     0E9C                     	;# 
   275     0E9D                     	;# 
   276     0E9E                     	;# 
   277     0E9F                     	;# 
   278     0EA0                     	;# 
   279     0EA1                     	;# 
   280     0EA1                     	;# 
   281     0EA2                     	;# 
   282     0EA3                     	;# 
   283     0EA3                     	;# 
   284     0EA4                     	;# 
   285     0EA5                     	;# 
   286     0EA5                     	;# 
   287     0EA6                     	;# 
   288     0EA7                     	;# 
   289     0EA7                     	;# 
   290     0EA8                     	;# 
   291     0EA9                     	;# 
   292     0EAA                     	;# 
   293     0EAB                     	;# 
   294     0EAC                     	;# 
   295     0EAD                     	;# 
   296     0EAE                     	;# 
   297     0EAF                     	;# 
   298     0EB1                     	;# 
   299     0EB2                     	;# 
   300     0EB3                     	;# 
   301     0EB4                     	;# 
   302     0EB5                     	;# 
   303     0EB6                     	;# 
   304     0EB7                     	;# 
   305     0EB8                     	;# 
   306     0EB9                     	;# 
   307     0EBA                     	;# 
   308     0EBB                     	;# 
   309     0EBC                     	;# 
   310     0EBD                     	;# 
   311     0EBE                     	;# 
   312     0EBF                     	;# 
   313     0EC0                     	;# 
   314     0EC1                     	;# 
   315     0EC1                     	;# 
   316     0EC2                     	;# 
   317     0EC3                     	;# 
   318     0EC3                     	;# 
   319     0EC4                     	;# 
   320     0EC5                     	;# 
   321     0EC5                     	;# 
   322     0EC6                     	;# 
   323     0EC7                     	;# 
   324     0EC7                     	;# 
   325     0EC8                     	;# 
   326     0EC9                     	;# 
   327     0ECA                     	;# 
   328     0ECB                     	;# 
   329     0ECC                     	;# 
   330     0ECD                     	;# 
   331     0ECE                     	;# 
   332     0ECF                     	;# 
   333     0ED1                     	;# 
   334     0ED2                     	;# 
   335     0ED3                     	;# 
   336     0ED4                     	;# 
   337     0ED5                     	;# 
   338     0ED6                     	;# 
   339     0ED7                     	;# 
   340     0ED8                     	;# 
   341     0ED9                     	;# 
   342     0EDA                     	;# 
   343     0EDB                     	;# 
   344     0EDC                     	;# 
   345     0EDD                     	;# 
   346     0EDE                     	;# 
   347     0EDF                     	;# 
   348     0EE0                     	;# 
   349     0EE1                     	;# 
   350     0EE1                     	;# 
   351     0EE2                     	;# 
   352     0EE3                     	;# 
   353     0EE3                     	;# 
   354     0EE4                     	;# 
   355     0EE5                     	;# 
   356     0EE5                     	;# 
   357     0EE6                     	;# 
   358     0EE7                     	;# 
   359     0EE7                     	;# 
   360     0EE8                     	;# 
   361     0EE9                     	;# 
   362     0EEA                     	;# 
   363     0EEB                     	;# 
   364     0EEC                     	;# 
   365     0EED                     	;# 
   366     0EEE                     	;# 
   367     0EEF                     	;# 
   368     0F11                     	;# 
   369     0F12                     	;# 
   370     0F13                     	;# 
   371     0F14                     	;# 
   372     0F15                     	;# 
   373     0F16                     	;# 
   374     0F17                     	;# 
   375     0F18                     	;# 
   376     0F19                     	;# 
   377     0F1A                     	;# 
   378     0F1B                     	;# 
   379     0F1C                     	;# 
   380     0F1D                     	;# 
   381     0F1E                     	;# 
   382     0F1F                     	;# 
   383     0F20                     	;# 
   384     0F21                     	;# 
   385     0F21                     	;# 
   386     0F22                     	;# 
   387     0F23                     	;# 
   388     0F23                     	;# 
   389     0F24                     	;# 
   390     0F25                     	;# 
   391     0F25                     	;# 
   392     0F26                     	;# 
   393     0F27                     	;# 
   394     0F27                     	;# 
   395     0F28                     	;# 
   396     0F29                     	;# 
   397     0F2A                     	;# 
   398     0F2B                     	;# 
   399     0F2C                     	;# 
   400     0F2D                     	;# 
   401     0F2E                     	;# 
   402     0F2F                     	;# 
   403     0FE4                     	;# 
   404     0FE5                     	;# 
   405     0FE6                     	;# 
   406     0FE7                     	;# 
   407     0FE8                     	;# 
   408     0FE9                     	;# 
   409     0FEA                     	;# 
   410     0FEB                     	;# 
   411     0FED                     	;# 
   412     0FEE                     	;# 
   413     0FEF                     	;# 
   414     0000                     	;# 
   415     0001                     	;# 
   416     0002                     	;# 
   417     0003                     	;# 
   418     0004                     	;# 
   419     0005                     	;# 
   420     0006                     	;# 
   421     0007                     	;# 
   422     0008                     	;# 
   423     0009                     	;# 
   424     000A                     	;# 
   425     000B                     	;# 
   426     000C                     	;# 
   427     000D                     	;# 
   428     000E                     	;# 
   429     0010                     	;# 
   430     0011                     	;# 
   431     0012                     	;# 
   432     0013                     	;# 
   433     0014                     	;# 
   434     0015                     	;# 
   435     0016                     	;# 
   436     0016                     	;# 
   437     0017                     	;# 
   438     0018                     	;# 
   439     0019                     	;# 
   440     001A                     	;# 
   441     001B                     	;# 
   442     001C                     	;# 
   443     008C                     	;# 
   444     008D                     	;# 
   445     008E                     	;# 
   446     0090                     	;# 
   447     0091                     	;# 
   448     0092                     	;# 
   449     0093                     	;# 
   450     0094                     	;# 
   451     0095                     	;# 
   452     0096                     	;# 
   453     0097                     	;# 
   454     0098                     	;# 
   455     0099                     	;# 
   456     009A                     	;# 
   457     009B                     	;# 
   458     009B                     	;# 
   459     009C                     	;# 
   460     009D                     	;# 
   461     009E                     	;# 
   462     009F                     	;# 
   463     010C                     	;# 
   464     010D                     	;# 
   465     010E                     	;# 
   466     0111                     	;# 
   467     0112                     	;# 
   468     0113                     	;# 
   469     0114                     	;# 
   470     0115                     	;# 
   471     0116                     	;# 
   472     0117                     	;# 
   473     0118                     	;# 
   474     0119                     	;# 
   475     011A                     	;# 
   476     011B                     	;# 
   477     011C                     	;# 
   478     011D                     	;# 
   479     011D                     	;# 
   480     011D                     	;# 
   481     011E                     	;# 
   482     011F                     	;# 
   483     018C                     	;# 
   484     018D                     	;# 
   485     018E                     	;# 
   486     0191                     	;# 
   487     0191                     	;# 
   488     0192                     	;# 
   489     0193                     	;# 
   490     0193                     	;# 
   491     0193                     	;# 
   492     0194                     	;# 
   493     0195                     	;# 
   494     0196                     	;# 
   495     0197                     	;# 
   496     0199                     	;# 
   497     0199                     	;# 
   498     0199                     	;# 
   499     019A                     	;# 
   500     019A                     	;# 
   501     019A                     	;# 
   502     019B                     	;# 
   503     019B                     	;# 
   504     019B                     	;# 
   505     019B                     	;# 
   506     019B                     	;# 
   507     019C                     	;# 
   508     019C                     	;# 
   509     019C                     	;# 
   510     019D                     	;# 
   511     019D                     	;# 
   512     019D                     	;# 
   513     019E                     	;# 
   514     019E                     	;# 
   515     019E                     	;# 
   516     019F                     	;# 
   517     019F                     	;# 
   518     019F                     	;# 
   519     019F                     	;# 
   520     019F                     	;# 
   521     020C                     	;# 
   522     020D                     	;# 
   523     020E                     	;# 
   524     0210                     	;# 
   525     0211                     	;# 
   526     0211                     	;# 
   527     0212                     	;# 
   528     0212                     	;# 
   529     0213                     	;# 
   530     0213                     	;# 
   531     0214                     	;# 
   532     0214                     	;# 
   533     0215                     	;# 
   534     0215                     	;# 
   535     0215                     	;# 
   536     0215                     	;# 
   537     0216                     	;# 
   538     0216                     	;# 
   539     0217                     	;# 
   540     0217                     	;# 
   541     028C                     	;# 
   542     028D                     	;# 
   543     028E                     	;# 
   544     0291                     	;# 
   545     0291                     	;# 
   546     0292                     	;# 
   547     0293                     	;# 
   548     0298                     	;# 
   549     0298                     	;# 
   550     0299                     	;# 
   551     029A                     	;# 
   552     030C                     	;# 
   553     030D                     	;# 
   554     030E                     	;# 
   555     0311                     	;# 
   556     0311                     	;# 
   557     0312                     	;# 
   558     0313                     	;# 
   559     038C                     	;# 
   560     038D                     	;# 
   561     038E                     	;# 
   562     0390                     	;# 
   563     0391                     	;# 
   564     0392                     	;# 
   565     0393                     	;# 
   566     0394                     	;# 
   567     0395                     	;# 
   568     0396                     	;# 
   569     0397                     	;# 
   570     0398                     	;# 
   571     0399                     	;# 
   572     039D                     	;# 
   573     039E                     	;# 
   574     039F                     	;# 
   575     0511                     	;# 
   576     0513                     	;# 
   577     051A                     	;# 
   578     0591                     	;# 
   579     0592                     	;# 
   580     0592                     	;# 
   581     0593                     	;# 
   582     0594                     	;# 
   583     0594                     	;# 
   584     0595                     	;# 
   585     0596                     	;# 
   586     0596                     	;# 
   587     0E91                     	;# 
   588     0E92                     	;# 
   589     0E93                     	;# 
   590     0E94                     	;# 
   591     0E95                     	;# 
   592     0E96                     	;# 
   593     0E97                     	;# 
   594     0E98                     	;# 
   595     0E99                     	;# 
   596     0E9A                     	;# 
   597     0E9B                     	;# 
   598     0E9C                     	;# 
   599     0E9D                     	;# 
   600     0E9E                     	;# 
   601     0E9F                     	;# 
   602     0EA0                     	;# 
   603     0EA1                     	;# 
   604     0EA1                     	;# 
   605     0EA2                     	;# 
   606     0EA3                     	;# 
   607     0EA3                     	;# 
   608     0EA4                     	;# 
   609     0EA5                     	;# 
   610     0EA5                     	;# 
   611     0EA6                     	;# 
   612     0EA7                     	;# 
   613     0EA7                     	;# 
   614     0EA8                     	;# 
   615     0EA9                     	;# 
   616     0EAA                     	;# 
   617     0EAB                     	;# 
   618     0EAC                     	;# 
   619     0EAD                     	;# 
   620     0EAE                     	;# 
   621     0EAF                     	;# 
   622     0EB1                     	;# 
   623     0EB2                     	;# 
   624     0EB3                     	;# 
   625     0EB4                     	;# 
   626     0EB5                     	;# 
   627     0EB6                     	;# 
   628     0EB7                     	;# 
   629     0EB8                     	;# 
   630     0EB9                     	;# 
   631     0EBA                     	;# 
   632     0EBB                     	;# 
   633     0EBC                     	;# 
   634     0EBD                     	;# 
   635     0EBE                     	;# 
   636     0EBF                     	;# 
   637     0EC0                     	;# 
   638     0EC1                     	;# 
   639     0EC1                     	;# 
   640     0EC2                     	;# 
   641     0EC3                     	;# 
   642     0EC3                     	;# 
   643     0EC4                     	;# 
   644     0EC5                     	;# 
   645     0EC5                     	;# 
   646     0EC6                     	;# 
   647     0EC7                     	;# 
   648     0EC7                     	;# 
   649     0EC8                     	;# 
   650     0EC9                     	;# 
   651     0ECA                     	;# 
   652     0ECB                     	;# 
   653     0ECC                     	;# 
   654     0ECD                     	;# 
   655     0ECE                     	;# 
   656     0ECF                     	;# 
   657     0ED1                     	;# 
   658     0ED2                     	;# 
   659     0ED3                     	;# 
   660     0ED4                     	;# 
   661     0ED5                     	;# 
   662     0ED6                     	;# 
   663     0ED7                     	;# 
   664     0ED8                     	;# 
   665     0ED9                     	;# 
   666     0EDA                     	;# 
   667     0EDB                     	;# 
   668     0EDC                     	;# 
   669     0EDD                     	;# 
   670     0EDE                     	;# 
   671     0EDF                     	;# 
   672     0EE0                     	;# 
   673     0EE1                     	;# 
   674     0EE1                     	;# 
   675     0EE2                     	;# 
   676     0EE3                     	;# 
   677     0EE3                     	;# 
   678     0EE4                     	;# 
   679     0EE5                     	;# 
   680     0EE5                     	;# 
   681     0EE6                     	;# 
   682     0EE7                     	;# 
   683     0EE7                     	;# 
   684     0EE8                     	;# 
   685     0EE9                     	;# 
   686     0EEA                     	;# 
   687     0EEB                     	;# 
   688     0EEC                     	;# 
   689     0EED                     	;# 
   690     0EEE                     	;# 
   691     0EEF                     	;# 
   692     0F11                     	;# 
   693     0F12                     	;# 
   694     0F13                     	;# 
   695     0F14                     	;# 
   696     0F15                     	;# 
   697     0F16                     	;# 
   698     0F17                     	;# 
   699     0F18                     	;# 
   700     0F19                     	;# 
   701     0F1A                     	;# 
   702     0F1B                     	;# 
   703     0F1C                     	;# 
   704     0F1D                     	;# 
   705     0F1E                     	;# 
   706     0F1F                     	;# 
   707     0F20                     	;# 
   708     0F21                     	;# 
   709     0F21                     	;# 
   710     0F22                     	;# 
   711     0F23                     	;# 
   712     0F23                     	;# 
   713     0F24                     	;# 
   714     0F25                     	;# 
   715     0F25                     	;# 
   716     0F26                     	;# 
   717     0F27                     	;# 
   718     0F27                     	;# 
   719     0F28                     	;# 
   720     0F29                     	;# 
   721     0F2A                     	;# 
   722     0F2B                     	;# 
   723     0F2C                     	;# 
   724     0F2D                     	;# 
   725     0F2E                     	;# 
   726     0F2F                     	;# 
   727     0FE4                     	;# 
   728     0FE5                     	;# 
   729     0FE6                     	;# 
   730     0FE7                     	;# 
   731     0FE8                     	;# 
   732     0FE9                     	;# 
   733     0FEA                     	;# 
   734     0FEB                     	;# 
   735     0FED                     	;# 
   736     0FEE                     	;# 
   737     0FEF                     	;# 
   738     0000                     	;# 
   739     0001                     	;# 
   740     0002                     	;# 
   741     0003                     	;# 
   742     0004                     	;# 
   743     0005                     	;# 
   744     0006                     	;# 
   745     0007                     	;# 
   746     0008                     	;# 
   747     0009                     	;# 
   748     000A                     	;# 
   749     000B                     	;# 
   750     000C                     	;# 
   751     000D                     	;# 
   752     000E                     	;# 
   753     0010                     	;# 
   754     0011                     	;# 
   755     0012                     	;# 
   756     0013                     	;# 
   757     0014                     	;# 
   758     0015                     	;# 
   759     0016                     	;# 
   760     0016                     	;# 
   761     0017                     	;# 
   762     0018                     	;# 
   763     0019                     	;# 
   764     001A                     	;# 
   765     001B                     	;# 
   766     001C                     	;# 
   767     008C                     	;# 
   768     008D                     	;# 
   769     008E                     	;# 
   770     0090                     	;# 
   771     0091                     	;# 
   772     0092                     	;# 
   773     0093                     	;# 
   774     0094                     	;# 
   775     0095                     	;# 
   776     0096                     	;# 
   777     0097                     	;# 
   778     0098                     	;# 
   779     0099                     	;# 
   780     009A                     	;# 
   781     009B                     	;# 
   782     009B                     	;# 
   783     009C                     	;# 
   784     009D                     	;# 
   785     009E                     	;# 
   786     009F                     	;# 
   787     010C                     	;# 
   788     010D                     	;# 
   789     010E                     	;# 
   790     0111                     	;# 
   791     0112                     	;# 
   792     0113                     	;# 
   793     0114                     	;# 
   794     0115                     	;# 
   795     0116                     	;# 
   796     0117                     	;# 
   797     0118                     	;# 
   798     0119                     	;# 
   799     011A                     	;# 
   800     011B                     	;# 
   801     011C                     	;# 
   802     011D                     	;# 
   803     011D                     	;# 
   804     011D                     	;# 
   805     011E                     	;# 
   806     011F                     	;# 
   807     018C                     	;# 
   808     018D                     	;# 
   809     018E                     	;# 
   810     0191                     	;# 
   811     0191                     	;# 
   812     0192                     	;# 
   813     0193                     	;# 
   814     0193                     	;# 
   815     0193                     	;# 
   816     0194                     	;# 
   817     0195                     	;# 
   818     0196                     	;# 
   819     0197                     	;# 
   820     0199                     	;# 
   821     0199                     	;# 
   822     0199                     	;# 
   823     019A                     	;# 
   824     019A                     	;# 
   825     019A                     	;# 
   826     019B                     	;# 
   827     019B                     	;# 
   828     019B                     	;# 
   829     019B                     	;# 
   830     019B                     	;# 
   831     019C                     	;# 
   832     019C                     	;# 
   833     019C                     	;# 
   834     019D                     	;# 
   835     019D                     	;# 
   836     019D                     	;# 
   837     019E                     	;# 
   838     019E                     	;# 
   839     019E                     	;# 
   840     019F                     	;# 
   841     019F                     	;# 
   842     019F                     	;# 
   843     019F                     	;# 
   844     019F                     	;# 
   845     020C                     	;# 
   846     020D                     	;# 
   847     020E                     	;# 
   848     0210                     	;# 
   849     0211                     	;# 
   850     0211                     	;# 
   851     0212                     	;# 
   852     0212                     	;# 
   853     0213                     	;# 
   854     0213                     	;# 
   855     0214                     	;# 
   856     0214                     	;# 
   857     0215                     	;# 
   858     0215                     	;# 
   859     0215                     	;# 
   860     0215                     	;# 
   861     0216                     	;# 
   862     0216                     	;# 
   863     0217                     	;# 
   864     0217                     	;# 
   865     028C                     	;# 
   866     028D                     	;# 
   867     028E                     	;# 
   868     0291                     	;# 
   869     0291                     	;# 
   870     0292                     	;# 
   871     0293                     	;# 
   872     0298                     	;# 
   873     0298                     	;# 
   874     0299                     	;# 
   875     029A                     	;# 
   876     030C                     	;# 
   877     030D                     	;# 
   878     030E                     	;# 
   879     0311                     	;# 
   880     0311                     	;# 
   881     0312                     	;# 
   882     0313                     	;# 
   883     038C                     	;# 
   884     038D                     	;# 
   885     038E                     	;# 
   886     0390                     	;# 
   887     0391                     	;# 
   888     0392                     	;# 
   889     0393                     	;# 
   890     0394                     	;# 
   891     0395                     	;# 
   892     0396                     	;# 
   893     0397                     	;# 
   894     0398                     	;# 
   895     0399                     	;# 
   896     039D                     	;# 
   897     039E                     	;# 
   898     039F                     	;# 
   899     0511                     	;# 
   900     0513                     	;# 
   901     051A                     	;# 
   902     0591                     	;# 
   903     0592                     	;# 
   904     0592                     	;# 
   905     0593                     	;# 
   906     0594                     	;# 
   907     0594                     	;# 
   908     0595                     	;# 
   909     0596                     	;# 
   910     0596                     	;# 
   911     0E91                     	;# 
   912     0E92                     	;# 
   913     0E93                     	;# 
   914     0E94                     	;# 
   915     0E95                     	;# 
   916     0E96                     	;# 
   917     0E97                     	;# 
   918     0E98                     	;# 
   919     0E99                     	;# 
   920     0E9A                     	;# 
   921     0E9B                     	;# 
   922     0E9C                     	;# 
   923     0E9D                     	;# 
   924     0E9E                     	;# 
   925     0E9F                     	;# 
   926     0EA0                     	;# 
   927     0EA1                     	;# 
   928     0EA1                     	;# 
   929     0EA2                     	;# 
   930     0EA3                     	;# 
   931     0EA3                     	;# 
   932     0EA4                     	;# 
   933     0EA5                     	;# 
   934     0EA5                     	;# 
   935     0EA6                     	;# 
   936     0EA7                     	;# 
   937     0EA7                     	;# 
   938     0EA8                     	;# 
   939     0EA9                     	;# 
   940     0EAA                     	;# 
   941     0EAB                     	;# 
   942     0EAC                     	;# 
   943     0EAD                     	;# 
   944     0EAE                     	;# 
   945     0EAF                     	;# 
   946     0EB1                     	;# 
   947     0EB2                     	;# 
   948     0EB3                     	;# 
   949     0EB4                     	;# 
   950     0EB5                     	;# 
   951     0EB6                     	;# 
   952     0EB7                     	;# 
   953     0EB8                     	;# 
   954     0EB9                     	;# 
   955     0EBA                     	;# 
   956     0EBB                     	;# 
   957     0EBC                     	;# 
   958     0EBD                     	;# 
   959     0EBE                     	;# 
   960     0EBF                     	;# 
   961     0EC0                     	;# 
   962     0EC1                     	;# 
   963     0EC1                     	;# 
   964     0EC2                     	;# 
   965     0EC3                     	;# 
   966     0EC3                     	;# 
   967     0EC4                     	;# 
   968     0EC5                     	;# 
   969     0EC5                     	;# 
   970     0EC6                     	;# 
   971     0EC7                     	;# 
   972     0EC7                     	;# 
   973     0EC8                     	;# 
   974     0EC9                     	;# 
   975     0ECA                     	;# 
   976     0ECB                     	;# 
   977     0ECC                     	;# 
   978     0ECD                     	;# 
   979     0ECE                     	;# 
   980     0ECF                     	;# 
   981     0ED1                     	;# 
   982     0ED2                     	;# 
   983     0ED3                     	;# 
   984     0ED4                     	;# 
   985     0ED5                     	;# 
   986     0ED6                     	;# 
   987     0ED7                     	;# 
   988     0ED8                     	;# 
   989     0ED9                     	;# 
   990     0EDA                     	;# 
   991     0EDB                     	;# 
   992     0EDC                     	;# 
   993     0EDD                     	;# 
   994     0EDE                     	;# 
   995     0EDF                     	;# 
   996     0EE0                     	;# 
   997     0EE1                     	;# 
   998     0EE1                     	;# 
   999     0EE2                     	;# 
  1000     0EE3                     	;# 
  1001     0EE3                     	;# 
  1002     0EE4                     	;# 
  1003     0EE5                     	;# 
  1004     0EE5                     	;# 
  1005     0EE6                     	;# 
  1006     0EE7                     	;# 
  1007     0EE7                     	;# 
  1008     0EE8                     	;# 
  1009     0EE9                     	;# 
  1010     0EEA                     	;# 
  1011     0EEB                     	;# 
  1012     0EEC                     	;# 
  1013     0EED                     	;# 
  1014     0EEE                     	;# 
  1015     0EEF                     	;# 
  1016     0F11                     	;# 
  1017     0F12                     	;# 
  1018     0F13                     	;# 
  1019     0F14                     	;# 
  1020     0F15                     	;# 
  1021     0F16                     	;# 
  1022     0F17                     	;# 
  1023     0F18                     	;# 
  1024     0F19                     	;# 
  1025     0F1A                     	;# 
  1026     0F1B                     	;# 
  1027     0F1C                     	;# 
  1028     0F1D                     	;# 
  1029     0F1E                     	;# 
  1030     0F1F                     	;# 
  1031     0F20                     	;# 
  1032     0F21                     	;# 
  1033     0F21                     	;# 
  1034     0F22                     	;# 
  1035     0F23                     	;# 
  1036     0F23                     	;# 
  1037     0F24                     	;# 
  1038     0F25                     	;# 
  1039     0F25                     	;# 
  1040     0F26                     	;# 
  1041     0F27                     	;# 
  1042     0F27                     	;# 
  1043     0F28                     	;# 
  1044     0F29                     	;# 
  1045     0F2A                     	;# 
  1046     0F2B                     	;# 
  1047     0F2C                     	;# 
  1048     0F2D                     	;# 
  1049     0F2E                     	;# 
  1050     0F2F                     	;# 
  1051     0FE4                     	;# 
  1052     0FE5                     	;# 
  1053     0FE6                     	;# 
  1054     0FE7                     	;# 
  1055     0FE8                     	;# 
  1056     0FE9                     	;# 
  1057     0FEA                     	;# 
  1058     0FEB                     	;# 
  1059     0FED                     	;# 
  1060     0FEE                     	;# 
  1061     0FEF                     	;# 
  1062     000D                     _PORTB	set	13
  1063     000C                     _PORTA	set	12
  1064     008D                     _RCIF	set	141
  1065     008C                     _TXIF	set	140
  1066     0061                     _RA1	set	97
  1067     0060                     _RA0	set	96
  1068     0063                     _RA3	set	99
  1069     0068                     _RB0	set	104
  1070     006B                     _RB3	set	107
  1071     006C                     _RB4	set	108
  1072     006D                     _RB5	set	109
  1073     0069                     _RB1	set	105
  1074     0099                     _OSCCON	set	153
  1075     0091                     _PIE1	set	145
  1076     008D                     _TRISB	set	141
  1077     008C                     _TRISA	set	140
  1078     0119                     _DAC1CON1	set	281
  1079     0118                     _DAC1CON0	set	280
  1080     0117                     _FVRCON	set	279
  1081     011D                     _APFCON1	set	285
  1082     0199                     _RCREG	set	409
  1083     019A                     _TXREG	set	410
  1084     019E                     _TXSTA	set	414
  1085     019D                     _RCSTA	set	413
  1086     019B                     _SPBRG	set	411
  1087     018D                     _ANSELB	set	397
  1088                           
  1089                           	psect	stringtext1
  1090     1000                     __pstringtext1:
  1091     1000                     STR_41:
  1092     1000  3443               	retlw	67	;'C'
  1093     1001  3409               	retlw	9
  1094     1002  3456               	retlw	86	;'V'
  1095     1003  3445               	retlw	69	;'E'
  1096     1004  3452               	retlw	82	;'R'
  1097     1005  3453               	retlw	83	;'S'
  1098     1006  3449               	retlw	73	;'I'
  1099     1007  344F               	retlw	79	;'O'
  1100     1008  344E               	retlw	78	;'N'
  1101     1009  3420               	retlw	32	;' '
  1102     100A  3433               	retlw	51	;'3'
  1103     100B  340D               	retlw	13
  1104     100C  340A               	retlw	10
  1105     100D  3400               	retlw	0
  1106                           
  1107                           	psect	stringtext2
  1108     100E                     __pstringtext2:
  1109     100E                     STR_40:
  1110     100E  3443               	retlw	67	;'C'
  1111     100F  3409               	retlw	9
  1112     1010  3452               	retlw	82	;'R'
  1113     1011  3445               	retlw	69	;'E'
  1114     1012  3441               	retlw	65	;'A'
  1115     1013  3444               	retlw	68	;'D'
  1116     1014  3459               	retlw	89	;'Y'
  1117     1015  340D               	retlw	13
  1118     1016  340A               	retlw	10
  1119     1017  3400               	retlw	0
  1120                           
  1121                           	psect	stringtext3
  1122     1018                     __pstringtext3:
  1123     1018                     STR_24:
  1124     1018  3443               	retlw	67	;'C'
  1125     1019  3409               	retlw	9
  1126     101A  3457               	retlw	87	;'W'
  1127     101B  3454               	retlw	84	;'T'
  1128     101C  3442               	retlw	66	;'B'
  1129     101D  340D               	retlw	13
  1130     101E  340A               	retlw	10
  1131     101F  3400               	retlw	0
  1132                           
  1133                           	psect	stringtext4
  1134     1020                     __pstringtext4:
  1135     1020                     STR_30:
  1136     1020  3443               	retlw	67	;'C'
  1137     1021  3409               	retlw	9
  1138     1022  344F               	retlw	79	;'O'
  1139     1023  3453               	retlw	83	;'S'
  1140     1024  3443               	retlw	67	;'C'
  1141     1025  340D               	retlw	13
  1142     1026  340A               	retlw	10
  1143     1027  3400               	retlw	0
  1144                           
  1145                           	psect	stringtext5
  1146     1028                     __pstringtext5:
  1147     1028                     STR_34:
  1148     1028  3443               	retlw	67	;'C'
  1149     1029  3409               	retlw	9
  1150     102A  344E               	retlw	78	;'N'
  1151     102B  3444               	retlw	68	;'D'
  1152     102C  3444               	retlw	68	;'D'
  1153     102D  340D               	retlw	13
  1154     102E  340A               	retlw	10
  1155     102F  3400               	retlw	0
  1156                           
  1157                           	psect	stringtext6
  1158     1030                     __pstringtext6:
  1159     1030                     STR_37:
  1160     1030  3443               	retlw	67	;'C'
  1161     1031  3409               	retlw	9
  1162     1032  344E               	retlw	78	;'N'
  1163     1033  3450               	retlw	80	;'P'
  1164     1034  3444               	retlw	68	;'D'
  1165     1035  340D               	retlw	13
  1166     1036  340A               	retlw	10
  1167     1037  3400               	retlw	0
  1168                           
  1169                           	psect	stringtext7
  1170     1038                     __pstringtext7:
  1171     1038                     STR_35:
  1172     1038  3443               	retlw	67	;'C'
  1173     1039  3409               	retlw	9
  1174     103A  344E               	retlw	78	;'N'
  1175     103B  3453               	retlw	83	;'S'
  1176     103C  3444               	retlw	68	;'D'
  1177     103D  340D               	retlw	13
  1178     103E  340A               	retlw	10
  1179     103F  3400               	retlw	0
  1180                           
  1181                           	psect	stringtext8
  1182     1040                     __pstringtext8:
  1183     1040                     STR_31:
  1184     1040  3443               	retlw	67	;'C'
  1185     1041  3409               	retlw	9
  1186     1042  344E               	retlw	78	;'N'
  1187     1043  3454               	retlw	84	;'T'
  1188     1044  3444               	retlw	68	;'D'
  1189     1045  340D               	retlw	13
  1190     1046  340A               	retlw	10
  1191     1047  3400               	retlw	0
  1192                           
  1193                           	psect	stringtext9
  1194     1048                     __pstringtext9:
  1195     1048                     STR_33:
  1196     1048  3443               	retlw	67	;'C'
  1197     1049  3409               	retlw	9
  1198     104A  344E               	retlw	78	;'N'
  1199     104B  3444               	retlw	68	;'D'
  1200     104C  344F               	retlw	79	;'O'
  1201     104D  340D               	retlw	13
  1202     104E  340A               	retlw	10
  1203     104F  3400               	retlw	0
  1204                           
  1205                           	psect	stringtext10
  1206     1050                     __pstringtext10:
  1207     1050                     STR_39:
  1208     1050  3443               	retlw	67	;'C'
  1209     1051  3409               	retlw	9
  1210     1052  344E               	retlw	78	;'N'
  1211     1053  3453               	retlw	83	;'S'
  1212     1054  3450               	retlw	80	;'P'
  1213     1055  340D               	retlw	13
  1214     1056  340A               	retlw	10
  1215     1057  3400               	retlw	0
  1216                           
  1217                           	psect	stringtext11
  1218     1058                     __pstringtext11:
  1219     1058                     STR_20:
  1220     1058  3443               	retlw	67	;'C'
  1221     1059  3409               	retlw	9
  1222     105A  3452               	retlw	82	;'R'
  1223     105B  3450               	retlw	80	;'P'
  1224     105C  3453               	retlw	83	;'S'
  1225     105D  340D               	retlw	13
  1226     105E  340A               	retlw	10
  1227     105F  3400               	retlw	0
  1228                           
  1229                           	psect	stringtext12
  1230     1060                     __pstringtext12:
  1231     1060                     STR_11:
  1232     1060  3444               	retlw	68	;'D'
  1233     1061  3441               	retlw	65	;'A'
  1234     1062  3430               	retlw	48	;'0'
  1235     1063  3400               	retlw	0
  1236                           
  1237                           	psect	stringtext13
  1238     1064                     __pstringtext13:
  1239     1064                     STR_12:
  1240     1064  3444               	retlw	68	;'D'
  1241     1065  3441               	retlw	65	;'A'
  1242     1066  3431               	retlw	49	;'1'
  1243     1067  3400               	retlw	0
  1244                           
  1245                           	psect	stringtext14
  1246     1068                     __pstringtext14:
  1247     1068                     STR_13:
  1248     1068  3444               	retlw	68	;'D'
  1249     1069  3441               	retlw	65	;'A'
  1250     106A  3432               	retlw	50	;'2'
  1251     106B  3400               	retlw	0
  1252                           
  1253                           	psect	stringtext15
  1254     106C                     __pstringtext15:
  1255     106C                     STR_2:
  1256     106C  3457               	retlw	87	;'W'
  1257     106D  3454               	retlw	84	;'T'
  1258     106E  3442               	retlw	66	;'B'
  1259     106F  3400               	retlw	0
  1260                           
  1261                           	psect	stringtext16
  1262     1070                     __pstringtext16:
  1263     1070                     STR_3:
  1264     1070  344F               	retlw	79	;'O'
  1265     1071  3453               	retlw	83	;'S'
  1266     1072  3443               	retlw	67	;'C'
  1267     1073  3400               	retlw	0
  1268                           
  1269                           	psect	stringtext17
  1270     1074                     __pstringtext17:
  1271     1074                     STR_6:
  1272     1074  344E               	retlw	78	;'N'
  1273     1075  3444               	retlw	68	;'D'
  1274     1076  3444               	retlw	68	;'D'
  1275     1077  3400               	retlw	0
  1276                           
  1277                           	psect	stringtext18
  1278     1078                     __pstringtext18:
  1279     1078                     STR_9:
  1280     1078  344E               	retlw	78	;'N'
  1281     1079  3450               	retlw	80	;'P'
  1282     107A  3444               	retlw	68	;'D'
  1283     107B  3400               	retlw	0
  1284                           
  1285                           	psect	stringtext19
  1286     107C                     __pstringtext19:
  1287     107C                     STR_14:
  1288     107C  344E               	retlw	78	;'N'
  1289     107D  3453               	retlw	83	;'S'
  1290     107E  3444               	retlw	68	;'D'
  1291     107F  3400               	retlw	0
  1292                           
  1293                           	psect	stringtext20
  1294     1080                     __pstringtext20:
  1295     1080                     STR_4:
  1296     1080  344E               	retlw	78	;'N'
  1297     1081  3454               	retlw	84	;'T'
  1298     1082  3444               	retlw	68	;'D'
  1299     1083  3400               	retlw	0
  1300                           
  1301                           	psect	stringtext21
  1302     1084                     __pstringtext21:
  1303     1084                     STR_5:
  1304     1084  344E               	retlw	78	;'N'
  1305     1085  3444               	retlw	68	;'D'
  1306     1086  344F               	retlw	79	;'O'
  1307     1087  3400               	retlw	0
  1308                           
  1309                           	psect	stringtext22
  1310     1088                     __pstringtext22:
  1311     1088                     STR_10:
  1312     1088  344E               	retlw	78	;'N'
  1313     1089  3453               	retlw	83	;'S'
  1314     108A  3450               	retlw	80	;'P'
  1315     108B  3400               	retlw	0
  1316                           
  1317                           	psect	stringtext23
  1318     108C                     __pstringtext23:
  1319     108C                     STR_7:
  1320     108C  3456               	retlw	86	;'V'
  1321     108D  3445               	retlw	69	;'E'
  1322     108E  3452               	retlw	82	;'R'
  1323     108F  3400               	retlw	0
  1324                           
  1325                           	psect	stringtext24
  1326     1090                     __pstringtext24:
  1327     1090                     STR_1:
  1328     1090  3452               	retlw	82	;'R'
  1329     1091  3450               	retlw	80	;'P'
  1330     1092  3453               	retlw	83	;'S'
  1331     1093  3400               	retlw	0
  1332                           
  1333                           	psect	stringtext25
  1334     1094                     __pstringtext25:
  1335     1094                     STR_8:
  1336     1094  3453               	retlw	83	;'S'
  1337     1095  3454               	retlw	84	;'T'
  1338     1096  3453               	retlw	83	;'S'
  1339     1097  3400               	retlw	0
  1340                           
  1341                           	psect	stringtext26
  1342     1098                     __pstringtext26:
  1343     1098                     STR_15:
  1344     1098  342F               	retlw	47	;'/'
  1345     1099  3400               	retlw	0
  1346                           
  1347                           	psect	stringtext27
  1348     0000                     __pstringtext27:
  1349     1098                     
  1350                           	psect	cinit
  1351     07FB                     start_initialization:	
  1352                           ; #config settings
  1353                           
  1354     07FB                     __initialization:
  1355                           
  1356                           ; Clear objects allocated to BANK0
  1357     07FB  0020               	movlb	0	; select bank0
  1358     07FC  01E4               	clrf	__pbssBANK0& (0+127)
  1359     07FD                     end_of_initialization:	
  1360                           ;End of C runtime variable initialization code
  1361                           
  1362     07FD                     __end_of__initialization:
  1363     07FD  0020               	movlb	0
  1364     07FE  3181  2954         	ljmp	_main	;jump to C main() function
  1365                           
  1366                           	psect	bssBANK0
  1367     0064                     __pbssBANK0:
  1368     0064                     strtok@sp:
  1369     0064                     	ds	1
  1370                           
  1371                           	psect	cstackCOMMON
  1372     0070                     __pcstackCOMMON:
  1373     0070                     ?_isdigit:
  1374     0070                     ?_initUART:	
  1375                           ; 1 bit 
  1376                           
  1377     0070                     ??_initUART:	
  1378                           ; 1 bytes @ 0x0
  1379                           
  1380     0070                     ?_gets:	
  1381                           ; 1 bytes @ 0x0
  1382                           
  1383     0070                     ??_isdigit:	
  1384                           ; 1 bytes @ 0x0
  1385                           
  1386     0070                     ?_main:	
  1387                           ; 1 bytes @ 0x0
  1388                           
  1389     0070                     ?_putch:	
  1390                           ; 1 bytes @ 0x0
  1391                           
  1392     0070                     ??_putch:	
  1393                           ; 1 bytes @ 0x0
  1394                           
  1395     0070                     ?_getch:	
  1396                           ; 1 bytes @ 0x0
  1397                           
  1398     0070                     ??_getch:	
  1399                           ; 1 bytes @ 0x0
  1400                           
  1401     0070                     ?_getche:	
  1402                           ; 1 bytes @ 0x0
  1403                           
  1404     0070                     ?_strcmp:	
  1405                           ; 1 bytes @ 0x0
  1406                           
  1407     0070                     ?_strchr:	
  1408                           ; 2 bytes @ 0x0
  1409                           
  1410     0070                     ?___wmul:	
  1411                           ; 2 bytes @ 0x0
  1412                           
  1413     0070                     ?___awdiv:	
  1414                           ; 2 bytes @ 0x0
  1415                           
  1416     0070                     putch@byte:	
  1417                           ; 2 bytes @ 0x0
  1418                           
  1419     0070                     _isdigit$681:	
  1420                           ; 1 bytes @ 0x0
  1421                           
  1422     0070                     ___wmul@multiplier:	
  1423                           ; 1 bytes @ 0x0
  1424                           
  1425     0070                     ___awdiv@divisor:	
  1426                           ; 2 bytes @ 0x0
  1427                           
  1428     0070                     strcmp@s2:	
  1429                           ; 2 bytes @ 0x0
  1430                           
  1431     0070                     strchr@ptr:	
  1432                           ; 2 bytes @ 0x0
  1433                           
  1434                           
  1435                           ; 2 bytes @ 0x0
  1436     0070                     	ds	1
  1437     0071                     ??_getche:
  1438     0071                     ?_printf:	
  1439                           ; 1 bytes @ 0x1
  1440                           
  1441     0071                     getche@c:	
  1442                           ; 2 bytes @ 0x1
  1443                           
  1444     0071                     isdigit@c:	
  1445                           ; 1 bytes @ 0x1
  1446                           
  1447     0071                     printf@f:	
  1448                           ; 1 bytes @ 0x1
  1449                           
  1450                           
  1451                           ; 2 bytes @ 0x1
  1452     0071                     	ds	1
  1453     0072                     ??_strcmp:
  1454     0072                     ?_cgets:	
  1455                           ; 1 bytes @ 0x2
  1456                           
  1457     0072                     ___wmul@multiplicand:	
  1458                           ; 1 bytes @ 0x2
  1459                           
  1460     0072                     ___awdiv@dividend:	
  1461                           ; 2 bytes @ 0x2
  1462                           
  1463     0072                     strchr@chr:	
  1464                           ; 2 bytes @ 0x2
  1465                           
  1466                           
  1467                           ; 2 bytes @ 0x2
  1468     0072                     	ds	1
  1469     0073                     ??_printf:
  1470     0073                     strcmp@r:	
  1471                           ; 1 bytes @ 0x3
  1472                           
  1473                           
  1474                           ; 1 bytes @ 0x3
  1475     0073                     	ds	1
  1476     0074                     ??_cgets:
  1477     0074                     ??_strchr:	
  1478                           ; 1 bytes @ 0x4
  1479                           
  1480     0074                     ??___wmul:	
  1481                           ; 1 bytes @ 0x4
  1482                           
  1483     0074                     ??___awdiv:	
  1484                           ; 1 bytes @ 0x4
  1485                           
  1486     0074                     strcmp@s1:	
  1487                           ; 1 bytes @ 0x4
  1488                           
  1489     0074                     ___wmul@product:	
  1490                           ; 1 bytes @ 0x4
  1491                           
  1492                           
  1493                           ; 2 bytes @ 0x4
  1494     0074                     	ds	1
  1495     0075                     printf@ap:
  1496     0075                     ___awdiv@counter:	
  1497                           ; 1 bytes @ 0x5
  1498                           
  1499                           
  1500                           ; 1 bytes @ 0x5
  1501     0075                     	ds	1
  1502     0076                     ?_atoi:
  1503     0076                     printf@c:	
  1504                           ; 2 bytes @ 0x6
  1505                           
  1506     0076                     ___awdiv@sign:	
  1507                           ; 1 bytes @ 0x6
  1508                           
  1509     0076                     cgets@c:	
  1510                           ; 1 bytes @ 0x6
  1511                           
  1512                           
  1513                           ; 2 bytes @ 0x6
  1514     0076                     	ds	1
  1515     0077                     ?_strspn:
  1516     0077                     ?_strcspn:	
  1517                           ; 2 bytes @ 0x7
  1518                           
  1519     0077                     ___awdiv@quotient:	
  1520                           ; 2 bytes @ 0x7
  1521                           
  1522     0077                     strcspn@s2:	
  1523                           ; 2 bytes @ 0x7
  1524                           
  1525     0077                     strspn@s2:	
  1526                           ; 2 bytes @ 0x7
  1527                           
  1528                           
  1529                           ; 2 bytes @ 0x7
  1530     0077                     	ds	1
  1531     0078                     ??_atoi:
  1532     0078                     cgets@s:	
  1533                           ; 1 bytes @ 0x8
  1534                           
  1535                           
  1536                           ; 1 bytes @ 0x8
  1537     0078                     	ds	1
  1538     0079                     ??_strspn:
  1539     0079                     ??_strcspn:	
  1540                           ; 1 bytes @ 0x9
  1541                           
  1542     0079                     cgets@s1:	
  1543                           ; 1 bytes @ 0x9
  1544                           
  1545                           
  1546                           ; 1 bytes @ 0x9
  1547     0079                     	ds	1
  1548     007A                     ??_gets:
  1549     007A                     gets@s:	
  1550                           ; 1 bytes @ 0xA
  1551                           
  1552                           
  1553                           ; 1 bytes @ 0xA
  1554     007A                     	ds	1
  1555     007B                     strcspn@i:
  1556     007B                     strspn@i:	
  1557                           ; 2 bytes @ 0xB
  1558                           
  1559                           
  1560                           ; 2 bytes @ 0xB
  1561     007B                     	ds	2
  1562     007D                     strcspn@s1:
  1563     007D                     strspn@s1:	
  1564                           ; 1 bytes @ 0xD
  1565                           
  1566                           
  1567                           ; 1 bytes @ 0xD
  1568     007D                     	ds	1
  1569                           
  1570                           	psect	cstackBANK0
  1571     0020                     __pcstackBANK0:
  1572     0020                     ?_strtok:
  1573     0020                     atoi@sign:	
  1574                           ; 1 bytes @ 0x0
  1575                           
  1576     0020                     strtok@s2:	
  1577                           ; 1 bytes @ 0x0
  1578                           
  1579                           
  1580                           ; 2 bytes @ 0x0
  1581     0020                     	ds	1
  1582     0021                     atoi@a:
  1583                           
  1584                           ; 2 bytes @ 0x1
  1585     0021                     	ds	1
  1586     0022                     ??_strtok:
  1587                           
  1588                           ; 1 bytes @ 0x2
  1589     0022                     	ds	1
  1590     0023                     atoi@s:
  1591                           
  1592                           ; 1 bytes @ 0x3
  1593     0023                     	ds	1
  1594     0024                     strtok@s1:
  1595                           
  1596                           ; 1 bytes @ 0x4
  1597     0024                     	ds	1
  1598     0025                     ??_main:
  1599                           
  1600                           ; 1 bytes @ 0x5
  1601     0025                     	ds	1
  1602     0026                     main@tmp:
  1603                           
  1604                           ; 40 bytes @ 0x6
  1605     0026                     	ds	40
  1606     004E                     main@mx_spd:
  1607                           
  1608                           ; 2 bytes @ 0x2E
  1609     004E                     	ds	2
  1610     0050                     main@set_spd:
  1611                           
  1612                           ; 2 bytes @ 0x30
  1613     0050                     	ds	2
  1614     0052                     main@npd:
  1615                           
  1616                           ; 2 bytes @ 0x32
  1617     0052                     	ds	2
  1618     0054                     main@nsp:
  1619                           
  1620                           ; 2 bytes @ 0x34
  1621     0054                     	ds	2
  1622     0056                     main@cmd:
  1623                           
  1624                           ; 1 bytes @ 0x36
  1625     0056                     	ds	1
  1626     0057                     main@rcmd:
  1627                           
  1628                           ; 4 bytes @ 0x37
  1629     0057                     	ds	4
  1630     005B                     main@dist:
  1631                           
  1632                           ; 2 bytes @ 0x3B
  1633     005B                     	ds	2
  1634     005D                     main@ptr:
  1635                           
  1636                           ; 1 bytes @ 0x3D
  1637     005D                     	ds	1
  1638     005E                     main@k:
  1639                           
  1640                           ; 2 bytes @ 0x3E
  1641     005E                     	ds	2
  1642     0060                     main@intvl:
  1643                           
  1644                           ; 2 bytes @ 0x40
  1645     0060                     	ds	2
  1646     0062                     main@j:
  1647                           
  1648                           ; 2 bytes @ 0x42
  1649     0062                     	ds	2
  1650                           
  1651                           	psect	maintext
  1652     0154                     __pmaintext:	
  1653 ;;
  1654 ;;Main: autosize = 0, tempsize = 1, incstack = 0, save=0
  1655 ;;
  1656 ;; *************** function _main *****************
  1657 ;; Defined at:
  1658 ;;		line 66 in file "main.c"
  1659 ;; Parameters:    Size  Location     Type
  1660 ;;		None
  1661 ;; Auto vars:     Size  Location     Type
  1662 ;;  tmp            40    6[BANK0 ] unsigned char [40]
  1663 ;;  rcmd            4   55[BANK0 ] unsigned char [4]
  1664 ;;  ln              4    0        unsigned char [4]
  1665 ;;  j               2   66[BANK0 ] int 
  1666 ;;  intvl           2   64[BANK0 ] int 
  1667 ;;  k               2   62[BANK0 ] int 
  1668 ;;  dist            2   59[BANK0 ] int 
  1669 ;;  nsp             2   52[BANK0 ] int 
  1670 ;;  npd             2   50[BANK0 ] int 
  1671 ;;  set_spd         2   48[BANK0 ] int 
  1672 ;;  mx_spd          2   46[BANK0 ] int 
  1673 ;;  cnt             2    0        int 
  1674 ;;  ptr             1   61[BANK0 ] PTR unsigned char 
  1675 ;;		 -> NULL(0), main@tmp(40), 
  1676 ;;  cmd             1   54[BANK0 ] enum E5793
  1677 ;; Return value:  Size  Location     Type
  1678 ;;                  1    wreg      void 
  1679 ;; Registers used:
  1680 ;;		wreg, fsr0l, fsr0h, fsr1l, fsr1h, status,2, status,0, pclath, cstack
  1681 ;; Tracked objects:
  1682 ;;		On entry : B1F/0
  1683 ;;		On exit  : 0/0
  1684 ;;		Unchanged: 0/0
  1685 ;; Data sizes:     COMMON   BANK0   BANK1   BANK2   BANK3   BANK4   BANK5   BANK6   BANK7   BANK8   BANK9  BANK10  BANK1
      +1  BANK12  BANK13  BANK14  BANK15  BANK16  BANK17  BANK18  BANK19  BANK20  BANK21  BANK22  BANK23  BANK24  BANK25
  1686 ;;      Params:         0       0       0       0       0       0       0       0       0       0       0       0       
      +0       0       0       0       0       0       0       0       0       0       0       0       0       0       0
  1687 ;;      Locals:         0      62       0       0       0       0       0       0       0       0       0       0       
      +0       0       0       0       0       0       0       0       0       0       0       0       0       0       0
  1688 ;;      Temps:          0       1       0       0       0       0       0       0       0       0       0       0       
      +0       0       0       0       0       0       0       0       0       0       0       0       0       0       0
  1689 ;;      Totals:         0      63       0       0       0       0       0       0       0       0       0       0       
      +0       0       0       0       0       0       0       0       0       0       0       0       0       0       0
  1690 ;;Total ram usage:       63 bytes
  1691 ;; Hardware stack levels required when called: 4
  1692 ;; This function calls:
  1693 ;;		___awdiv
  1694 ;;		___wmul
  1695 ;;		_atoi
  1696 ;;		_gets
  1697 ;;		_initUART
  1698 ;;		_printf
  1699 ;;		_strcmp
  1700 ;;		_strtok
  1701 ;; This function is called by:
  1702 ;;		Startup code after reset
  1703 ;; This function uses a non-reentrant model
  1704 ;;
  1705                           
  1706     0154                     _main:	
  1707                           ;psect for function _main
  1708                           
  1709     0154                     l1907:	
  1710                           ;incstack = 0
  1711                           ; Regs used in _main: [wreg-fsr1h+status,2+status,0+pclath+cstack]
  1712                           
  1713                           
  1714                           ;main.c: 68: PORTA = 0x00;
  1715     0154  0020               	movlb	0	; select bank0
  1716     0155  018C               	clrf	12	;volatile
  1717                           
  1718                           ;main.c: 69: PORTB = 0x00;
  1719     0156  018D               	clrf	13	;volatile
  1720     0157                     l1909:
  1721                           
  1722                           ;main.c: 70: TRISA = 0b01000000;
  1723     0157  3040               	movlw	64
  1724     0158  0021               	movlb	1	; select bank1
  1725     0159  008C               	movwf	12	;volatile
  1726     015A                     l1911:
  1727                           
  1728                           ;main.c: 71: TRISB = 0b10100001;
  1729     015A  30A1               	movlw	161
  1730     015B  008D               	movwf	13	;volatile
  1731     015C                     l1913:
  1732                           
  1733                           ;main.c: 72: APFCON1 = 0b00000110;
  1734     015C  3006               	movlw	6
  1735     015D  0022               	movlb	2	; select bank2
  1736     015E  009D               	movwf	29	;volatile
  1737     015F                     l1915:
  1738                           
  1739                           ;main.c: 73: PIE1 = 0b00110000;
  1740     015F  3030               	movlw	48
  1741     0160  0021               	movlb	1	; select bank1
  1742     0161  0091               	movwf	17	;volatile
  1743     0162                     l1917:
  1744                           
  1745                           ;main.c: 74: OSCCON = 0b01101010;
  1746     0162  306A               	movlw	106
  1747     0163  0099               	movwf	25	;volatile
  1748     0164                     l1919:
  1749                           
  1750                           ;main.c: 75: ANSELB = 0b00000000;
  1751     0164  0023               	movlb	3	; select bank3
  1752     0165  018D               	clrf	13	;volatile
  1753     0166                     l1921:
  1754                           
  1755                           ;main.c: 77: FVRCON = 0b00000000;
  1756     0166  0022               	movlb	2	; select bank2
  1757     0167  0197               	clrf	23	;volatile
  1758     0168                     l1923:
  1759                           
  1760                           ;main.c: 78: DAC1CON0 = 0b10100000;
  1761     0168  30A0               	movlw	160
  1762     0169  0098               	movwf	24	;volatile
  1763                           
  1764                           ;main.c: 79: DAC1CON1 = 0;
  1765     016A  0199               	clrf	25	;volatile
  1766     016B                     l1925:
  1767                           
  1768                           ;main.c: 81: initUART();
  1769     016B  318E  26C2  3181   	fcall	_initUART
  1770     016E                     l1927:
  1771     016E                     l1929:
  1772     016E                     l1931:
  1773     016E                     l1933:
  1774                           
  1775                           ;main.c: 87: int dist = 10;
  1776     016E  300A               	movlw	10
  1777     016F  0020               	movlb	0	; select bank0
  1778     0170  00DB               	movwf	main@dist
  1779     0171  3000               	movlw	0
  1780     0172  00DC               	movwf	main@dist+1
  1781     0173                     l1935:
  1782                           
  1783                           ;main.c: 88: int intvl = 20;
  1784     0173  3014               	movlw	20
  1785     0174  00E0               	movwf	main@intvl
  1786     0175  3000               	movlw	0
  1787     0176  00E1               	movwf	main@intvl+1
  1788     0177                     l1937:
  1789                           
  1790                           ;main.c: 89: char rcmd[4];;main.c: 90: int mx_spd = 20250;
  1791     0177  301A               	movlw	26
  1792     0178  00CE               	movwf	main@mx_spd
  1793     0179  304F               	movlw	79
  1794     017A  00CF               	movwf	main@mx_spd+1
  1795     017B                     l1939:
  1796                           
  1797                           ;main.c: 91: int set_spd;;main.c: 92: int npd = 2500;
  1798     017B  30C4               	movlw	196
  1799     017C  00D2               	movwf	main@npd
  1800     017D  3009               	movlw	9
  1801     017E  00D3               	movwf	main@npd+1
  1802     017F                     l1941:
  1803                           
  1804                           ;main.c: 93: int nsp = 1000;
  1805     017F  30E8               	movlw	232
  1806     0180  00D4               	movwf	main@nsp
  1807     0181  3003               	movlw	3
  1808     0182  00D5               	movwf	main@nsp+1
  1809     0183                     l1943:
  1810                           
  1811                           ;main.c: 94: char ln[4];;main.c: 96: char *ptr;;main.c: 98: enum command cmd;;main.c: 10
      +                          0: RB1 = 1;
  1812     0183  148D               	bsf	13,1	;volatile
  1813     0184                     l1945:
  1814                           
  1815                           ;main.c: 101: RB5 = 1;
  1816     0184  168D               	bsf	13,5	;volatile
  1817     0185                     l1947:
  1818                           
  1819                           ;main.c: 102: RB4 = 1;
  1820     0185  160D               	bsf	13,4	;volatile
  1821     0186                     l1949:
  1822                           
  1823                           ;main.c: 103: RB3 = 1;
  1824     0186  158D               	bsf	13,3	;volatile
  1825     0187                     l1951:
  1826                           
  1827                           ;main.c: 104: RB0 = 1;
  1828     0187  140D               	bsf	13,0	;volatile
  1829     0188                     l1953:
  1830                           
  1831                           ;main.c: 108: cmd = NON;
  1832     0188  300E               	movlw	14
  1833     0189  0020               	movlb	0	; select bank0
  1834     018A  00D6               	movwf	main@cmd
  1835     018B                     l1955:
  1836                           
  1837                           ;main.c: 110: rcmd[0] = 'Q';
  1838     018B  3051               	movlw	81
  1839     018C  00D7               	movwf	main@rcmd
  1840     018D                     l1957:
  1841                           
  1842                           ;main.c: 111: rcmd[1] = 'Q';
  1843     018D  3051               	movlw	81
  1844     018E  00D8               	movwf	main@rcmd+1
  1845     018F                     l1959:
  1846                           
  1847                           ;main.c: 112: rcmd[2] = 'Q';
  1848     018F  3051               	movlw	81
  1849     0190  00D9               	movwf	main@rcmd+2
  1850     0191                     l1961:
  1851                           
  1852                           ;main.c: 113: rcmd[3] = '\0';
  1853     0191  01DA               	clrf	main@rcmd+3
  1854     0192                     l1963:
  1855                           
  1856                           ;main.c: 115: tmp[0] = 'Q';
  1857     0192  3051               	movlw	81
  1858     0193  00A6               	movwf	main@tmp
  1859     0194                     l1965:
  1860                           
  1861                           ;main.c: 116: tmp[1] = 'Q';
  1862     0194  3051               	movlw	81
  1863     0195  00A7               	movwf	main@tmp+1
  1864     0196                     l1967:
  1865                           
  1866                           ;main.c: 117: tmp[2] = 'Q';
  1867     0196  3051               	movlw	81
  1868     0197  00A8               	movwf	main@tmp+2
  1869     0198                     l1969:
  1870                           
  1871                           ;main.c: 118: tmp[3] = '\0';
  1872     0198  01A9               	clrf	main@tmp+3
  1873     0199                     l1971:
  1874                           
  1875                           ;main.c: 132: gets(tmp);
  1876     0199  3026               	movlw	(low (main@tmp| 0))& (0+255)
  1877     019A  318E  26B4  3181   	fcall	_gets
  1878     019D                     l1973:
  1879                           
  1880                           ;main.c: 141: rcmd[0] = tmp[1];
  1881     019D  0020               	movlb	0	; select bank0
  1882     019E  0827               	movf	main@tmp+1,w
  1883     019F  00D7               	movwf	main@rcmd
  1884     01A0                     l1975:
  1885                           
  1886                           ;main.c: 142: rcmd[1] = tmp[2];
  1887     01A0  0828               	movf	main@tmp+2,w
  1888     01A1  00D8               	movwf	main@rcmd+1
  1889     01A2                     l1977:
  1890                           
  1891                           ;main.c: 143: rcmd[2] = tmp[3];
  1892     01A2  0829               	movf	main@tmp+3,w
  1893     01A3  00D9               	movwf	main@rcmd+2
  1894     01A4                     l1979:
  1895                           
  1896                           ;main.c: 144: rcmd[3] = '\0';
  1897     01A4  01DA               	clrf	main@rcmd+3
  1898     01A5                     l1981:
  1899                           
  1900                           ;main.c: 147: if(RB0 == 0){
  1901     01A5  180D               	btfsc	13,0	;volatile
  1902     01A6  29A8               	goto	u1421
  1903     01A7  29A9               	goto	u1420
  1904     01A8                     u1421:
  1905     01A8  29AB               	goto	l58
  1906     01A9                     u1420:
  1907     01A9                     l1983:
  1908                           
  1909                           ;main.c: 148: RA3 = 1;
  1910     01A9  158C               	bsf	12,3	;volatile
  1911                           
  1912                           ;main.c: 149: } else{
  1913     01AA  29AC               	goto	l1985
  1914     01AB                     l58:
  1915                           
  1916                           ;main.c: 150: RA3 = 0;
  1917     01AB  118C               	bcf	12,3	;volatile
  1918     01AC                     l1985:
  1919                           
  1920                           ;main.c: 151: };main.c: 154: if(strcmp(rcmd,"RPS") == 0) {
  1921     01AC  3090               	movlw	low (STR_1| (0+32768))
  1922     01AD  00F0               	movwf	strcmp@s2
  1923     01AE  3090               	movlw	high (STR_1| (0+32768))
  1924     01AF  00F1               	movwf	strcmp@s2+1
  1925     01B0  3057               	movlw	(low (main@rcmd| 0))& (0+255)
  1926     01B1  318F  272D  3181   	fcall	_strcmp
  1927     01B4  0870               	movf	?_strcmp,w
  1928     01B5  0471               	iorwf	?_strcmp+1,w
  1929     01B6  1D03               	btfss	3,2
  1930     01B7  29B9               	goto	u1431
  1931     01B8  29BA               	goto	u1430
  1932     01B9                     u1431:
  1933     01B9  29BD               	goto	l1989
  1934     01BA                     u1430:
  1935     01BA                     l1987:
  1936                           
  1937                           ;main.c: 155: cmd = RPS;
  1938     01BA  0020               	movlb	0	; select bank0
  1939     01BB  01D6               	clrf	main@cmd
  1940                           
  1941                           ;main.c: 156: }else if(strcmp(rcmd,"WTB") == 0){
  1942     01BC  2AA7               	goto	l2041
  1943     01BD                     l1989:
  1944     01BD  306C               	movlw	low (STR_2| (0+32768))
  1945     01BE  00F0               	movwf	strcmp@s2
  1946     01BF  3090               	movlw	high (STR_2| (0+32768))
  1947     01C0  00F1               	movwf	strcmp@s2+1
  1948     01C1  3057               	movlw	(low (main@rcmd| 0))& (0+255)
  1949     01C2  318F  272D  3181   	fcall	_strcmp
  1950     01C5  0870               	movf	?_strcmp,w
  1951     01C6  0471               	iorwf	?_strcmp+1,w
  1952     01C7  1D03               	btfss	3,2
  1953     01C8  29CA               	goto	u1441
  1954     01C9  29CB               	goto	u1440
  1955     01CA                     u1441:
  1956     01CA  29CF               	goto	l1993
  1957     01CB                     u1440:
  1958     01CB                     l1991:
  1959                           
  1960                           ;main.c: 157: cmd = WTB;
  1961     01CB  0020               	movlb	0	; select bank0
  1962     01CC  01D6               	clrf	main@cmd
  1963     01CD  0AD6               	incf	main@cmd,f
  1964                           
  1965                           ;main.c: 158: }else if(strcmp(rcmd,"OSC") == 0){
  1966     01CE  2AA7               	goto	l2041
  1967     01CF                     l1993:
  1968     01CF  3070               	movlw	low (STR_3| (0+32768))
  1969     01D0  00F0               	movwf	strcmp@s2
  1970     01D1  3090               	movlw	high (STR_3| (0+32768))
  1971     01D2  00F1               	movwf	strcmp@s2+1
  1972     01D3  3057               	movlw	(low (main@rcmd| 0))& (0+255)
  1973     01D4  318F  272D  3181   	fcall	_strcmp
  1974     01D7  0870               	movf	?_strcmp,w
  1975     01D8  0471               	iorwf	?_strcmp+1,w
  1976     01D9  1D03               	btfss	3,2
  1977     01DA  29DC               	goto	u1451
  1978     01DB  29DD               	goto	u1450
  1979     01DC                     u1451:
  1980     01DC  29E1               	goto	l1997
  1981     01DD                     u1450:
  1982     01DD                     l1995:
  1983                           
  1984                           ;main.c: 159: cmd = OSC;
  1985     01DD  3002               	movlw	2
  1986     01DE  0020               	movlb	0	; select bank0
  1987     01DF  00D6               	movwf	main@cmd
  1988                           
  1989                           ;main.c: 160: }else if(strcmp(rcmd,"NTD") == 0){
  1990     01E0  2AA7               	goto	l2041
  1991     01E1                     l1997:
  1992     01E1  3080               	movlw	low (STR_4| (0+32768))
  1993     01E2  00F0               	movwf	strcmp@s2
  1994     01E3  3090               	movlw	high (STR_4| (0+32768))
  1995     01E4  00F1               	movwf	strcmp@s2+1
  1996     01E5  3057               	movlw	(low (main@rcmd| 0))& (0+255)
  1997     01E6  318F  272D  3181   	fcall	_strcmp
  1998     01E9  0870               	movf	?_strcmp,w
  1999     01EA  0471               	iorwf	?_strcmp+1,w
  2000     01EB  1D03               	btfss	3,2
  2001     01EC  29EE               	goto	u1461
  2002     01ED  29EF               	goto	u1460
  2003     01EE                     u1461:
  2004     01EE  29F3               	goto	l2001
  2005     01EF                     u1460:
  2006     01EF                     l1999:
  2007                           
  2008                           ;main.c: 161: cmd = NTD;
  2009     01EF  3003               	movlw	3
  2010     01F0  0020               	movlb	0	; select bank0
  2011     01F1  00D6               	movwf	main@cmd
  2012                           
  2013                           ;main.c: 162: }else if(strcmp(rcmd,"NDO") == 0){
  2014     01F2  2AA7               	goto	l2041
  2015     01F3                     l2001:
  2016     01F3  3084               	movlw	low (STR_5| (0+32768))
  2017     01F4  00F0               	movwf	strcmp@s2
  2018     01F5  3090               	movlw	high (STR_5| (0+32768))
  2019     01F6  00F1               	movwf	strcmp@s2+1
  2020     01F7  3057               	movlw	(low (main@rcmd| 0))& (0+255)
  2021     01F8  318F  272D  3181   	fcall	_strcmp
  2022     01FB  0870               	movf	?_strcmp,w
  2023     01FC  0471               	iorwf	?_strcmp+1,w
  2024     01FD  1D03               	btfss	3,2
  2025     01FE  2A00               	goto	u1471
  2026     01FF  2A01               	goto	u1470
  2027     0200                     u1471:
  2028     0200  2A05               	goto	l2005
  2029     0201                     u1470:
  2030     0201                     l2003:
  2031                           
  2032                           ;main.c: 163: cmd = NDO;
  2033     0201  3004               	movlw	4
  2034     0202  0020               	movlb	0	; select bank0
  2035     0203  00D6               	movwf	main@cmd
  2036                           
  2037                           ;main.c: 164: }else if(strcmp(rcmd,"NDD") == 0){
  2038     0204  2AA7               	goto	l2041
  2039     0205                     l2005:
  2040     0205  3074               	movlw	low (STR_6| (0+32768))
  2041     0206  00F0               	movwf	strcmp@s2
  2042     0207  3090               	movlw	high (STR_6| (0+32768))
  2043     0208  00F1               	movwf	strcmp@s2+1
  2044     0209  3057               	movlw	(low (main@rcmd| 0))& (0+255)
  2045     020A  318F  272D  3181   	fcall	_strcmp
  2046     020D  0870               	movf	?_strcmp,w
  2047     020E  0471               	iorwf	?_strcmp+1,w
  2048     020F  1D03               	btfss	3,2
  2049     0210  2A12               	goto	u1481
  2050     0211  2A13               	goto	u1480
  2051     0212                     u1481:
  2052     0212  2A17               	goto	l2009
  2053     0213                     u1480:
  2054     0213                     l2007:
  2055                           
  2056                           ;main.c: 165: cmd = NDD;
  2057     0213  3005               	movlw	5
  2058     0214  0020               	movlb	0	; select bank0
  2059     0215  00D6               	movwf	main@cmd
  2060                           
  2061                           ;main.c: 166: }else if(strcmp(rcmd,"VER") == 0){
  2062     0216  2AA7               	goto	l2041
  2063     0217                     l2009:
  2064     0217  308C               	movlw	low (STR_7| (0+32768))
  2065     0218  00F0               	movwf	strcmp@s2
  2066     0219  3090               	movlw	high (STR_7| (0+32768))
  2067     021A  00F1               	movwf	strcmp@s2+1
  2068     021B  3057               	movlw	(low (main@rcmd| 0))& (0+255)
  2069     021C  318F  272D  3181   	fcall	_strcmp
  2070     021F  0870               	movf	?_strcmp,w
  2071     0220  0471               	iorwf	?_strcmp+1,w
  2072     0221  1D03               	btfss	3,2
  2073     0222  2A24               	goto	u1491
  2074     0223  2A25               	goto	u1490
  2075     0224                     u1491:
  2076     0224  2A29               	goto	l2013
  2077     0225                     u1490:
  2078     0225                     l2011:
  2079                           
  2080                           ;main.c: 167: cmd = VER;
  2081     0225  3009               	movlw	9
  2082     0226  0020               	movlb	0	; select bank0
  2083     0227  00D6               	movwf	main@cmd
  2084                           
  2085                           ;main.c: 168: }else if(strcmp(rcmd,"STS") == 0){
  2086     0228  2AA7               	goto	l2041
  2087     0229                     l2013:
  2088     0229  3094               	movlw	low (STR_8| (0+32768))
  2089     022A  00F0               	movwf	strcmp@s2
  2090     022B  3090               	movlw	high (STR_8| (0+32768))
  2091     022C  00F1               	movwf	strcmp@s2+1
  2092     022D  3057               	movlw	(low (main@rcmd| 0))& (0+255)
  2093     022E  318F  272D  3181   	fcall	_strcmp
  2094     0231  0870               	movf	?_strcmp,w
  2095     0232  0471               	iorwf	?_strcmp+1,w
  2096     0233  1D03               	btfss	3,2
  2097     0234  2A36               	goto	u1501
  2098     0235  2A37               	goto	u1500
  2099     0236                     u1501:
  2100     0236  2A3B               	goto	l2017
  2101     0237                     u1500:
  2102     0237                     l2015:
  2103                           
  2104                           ;main.c: 169: cmd = STS;
  2105     0237  300A               	movlw	10
  2106     0238  0020               	movlb	0	; select bank0
  2107     0239  00D6               	movwf	main@cmd
  2108                           
  2109                           ;main.c: 170: }else if(strcmp(rcmd,"NPD") == 0){
  2110     023A  2AA7               	goto	l2041
  2111     023B                     l2017:
  2112     023B  3078               	movlw	low (STR_9| (0+32768))
  2113     023C  00F0               	movwf	strcmp@s2
  2114     023D  3090               	movlw	high (STR_9| (0+32768))
  2115     023E  00F1               	movwf	strcmp@s2+1
  2116     023F  3057               	movlw	(low (main@rcmd| 0))& (0+255)
  2117     0240  318F  272D  3181   	fcall	_strcmp
  2118     0243  0870               	movf	?_strcmp,w
  2119     0244  0471               	iorwf	?_strcmp+1,w
  2120     0245  1D03               	btfss	3,2
  2121     0246  2A48               	goto	u1511
  2122     0247  2A49               	goto	u1510
  2123     0248                     u1511:
  2124     0248  2A4D               	goto	l2021
  2125     0249                     u1510:
  2126     0249                     l2019:
  2127                           
  2128                           ;main.c: 171: cmd = NPD;
  2129     0249  3006               	movlw	6
  2130     024A  0020               	movlb	0	; select bank0
  2131     024B  00D6               	movwf	main@cmd
  2132                           
  2133                           ;main.c: 172: }else if(strcmp(rcmd,"NSP") == 0){
  2134     024C  2AA7               	goto	l2041
  2135     024D                     l2021:
  2136     024D  3088               	movlw	low (STR_10| (0+32768))
  2137     024E  00F0               	movwf	strcmp@s2
  2138     024F  3090               	movlw	high (STR_10| (0+32768))
  2139     0250  00F1               	movwf	strcmp@s2+1
  2140     0251  3057               	movlw	(low (main@rcmd| 0))& (0+255)
  2141     0252  318F  272D  3181   	fcall	_strcmp
  2142     0255  0870               	movf	?_strcmp,w
  2143     0256  0471               	iorwf	?_strcmp+1,w
  2144     0257  1D03               	btfss	3,2
  2145     0258  2A5A               	goto	u1521
  2146     0259  2A5B               	goto	u1520
  2147     025A                     u1521:
  2148     025A  2A5F               	goto	l2025
  2149     025B                     u1520:
  2150     025B                     l2023:
  2151                           
  2152                           ;main.c: 173: cmd = NSP;
  2153     025B  3007               	movlw	7
  2154     025C  0020               	movlb	0	; select bank0
  2155     025D  00D6               	movwf	main@cmd
  2156                           
  2157                           ;main.c: 174: }else if(strcmp(rcmd,"DA0") == 0){
  2158     025E  2AA7               	goto	l2041
  2159     025F                     l2025:
  2160     025F  3060               	movlw	low (STR_11| (0+32768))
  2161     0260  00F0               	movwf	strcmp@s2
  2162     0261  3090               	movlw	high (STR_11| (0+32768))
  2163     0262  00F1               	movwf	strcmp@s2+1
  2164     0263  3057               	movlw	(low (main@rcmd| 0))& (0+255)
  2165     0264  318F  272D  3181   	fcall	_strcmp
  2166     0267  0870               	movf	?_strcmp,w
  2167     0268  0471               	iorwf	?_strcmp+1,w
  2168     0269  1D03               	btfss	3,2
  2169     026A  2A6C               	goto	u1531
  2170     026B  2A6D               	goto	u1530
  2171     026C                     u1531:
  2172     026C  2A71               	goto	l2029
  2173     026D                     u1530:
  2174     026D                     l2027:
  2175                           
  2176                           ;main.c: 175: cmd = DA0;
  2177     026D  300B               	movlw	11
  2178     026E  0020               	movlb	0	; select bank0
  2179     026F  00D6               	movwf	main@cmd
  2180                           
  2181                           ;main.c: 176: }else if(strcmp(rcmd,"DA1") == 0){
  2182     0270  2AA7               	goto	l2041
  2183     0271                     l2029:
  2184     0271  3064               	movlw	low (STR_12| (0+32768))
  2185     0272  00F0               	movwf	strcmp@s2
  2186     0273  3090               	movlw	high (STR_12| (0+32768))
  2187     0274  00F1               	movwf	strcmp@s2+1
  2188     0275  3057               	movlw	(low (main@rcmd| 0))& (0+255)
  2189     0276  318F  272D  3181   	fcall	_strcmp
  2190     0279  0870               	movf	?_strcmp,w
  2191     027A  0471               	iorwf	?_strcmp+1,w
  2192     027B  1D03               	btfss	3,2
  2193     027C  2A7E               	goto	u1541
  2194     027D  2A7F               	goto	u1540
  2195     027E                     u1541:
  2196     027E  2A83               	goto	l2033
  2197     027F                     u1540:
  2198     027F                     l2031:
  2199                           
  2200                           ;main.c: 177: cmd = DA1;
  2201     027F  300C               	movlw	12
  2202     0280  0020               	movlb	0	; select bank0
  2203     0281  00D6               	movwf	main@cmd
  2204                           
  2205                           ;main.c: 178: }else if(strcmp(rcmd,"DA2") == 0){
  2206     0282  2AA7               	goto	l2041
  2207     0283                     l2033:
  2208     0283  3068               	movlw	low (STR_13| (0+32768))
  2209     0284  00F0               	movwf	strcmp@s2
  2210     0285  3090               	movlw	high (STR_13| (0+32768))
  2211     0286  00F1               	movwf	strcmp@s2+1
  2212     0287  3057               	movlw	(low (main@rcmd| 0))& (0+255)
  2213     0288  318F  272D  3181   	fcall	_strcmp
  2214     028B  0870               	movf	?_strcmp,w
  2215     028C  0471               	iorwf	?_strcmp+1,w
  2216     028D  1D03               	btfss	3,2
  2217     028E  2A90               	goto	u1551
  2218     028F  2A91               	goto	u1550
  2219     0290                     u1551:
  2220     0290  2A95               	goto	l2037
  2221     0291                     u1550:
  2222     0291                     l2035:
  2223                           
  2224                           ;main.c: 179: cmd = DA2;
  2225     0291  300D               	movlw	13
  2226     0292  0020               	movlb	0	; select bank0
  2227     0293  00D6               	movwf	main@cmd
  2228                           
  2229                           ;main.c: 180: }else if(strcmp(rcmd,"NSD") == 0){
  2230     0294  2AA7               	goto	l2041
  2231     0295                     l2037:
  2232     0295  307C               	movlw	low (STR_14| (0+32768))
  2233     0296  00F0               	movwf	strcmp@s2
  2234     0297  3090               	movlw	high (STR_14| (0+32768))
  2235     0298  00F1               	movwf	strcmp@s2+1
  2236     0299  3057               	movlw	(low (main@rcmd| 0))& (0+255)
  2237     029A  318F  272D  3181   	fcall	_strcmp
  2238     029D  0870               	movf	?_strcmp,w
  2239     029E  0471               	iorwf	?_strcmp+1,w
  2240     029F  1D03               	btfss	3,2
  2241     02A0  2AA2               	goto	u1561
  2242     02A1  2AA3               	goto	u1560
  2243     02A2                     u1561:
  2244     02A2  2AA7               	goto	l81
  2245     02A3                     u1560:
  2246     02A3                     l2039:
  2247                           
  2248                           ;main.c: 181: cmd = NSD;
  2249     02A3  3008               	movlw	8
  2250     02A4  0020               	movlb	0	; select bank0
  2251     02A5  00D6               	movwf	main@cmd
  2252     02A6  2AA7               	goto	l2041
  2253     02A7                     l81:
  2254     02A7                     l2041:
  2255                           
  2256                           ;main.c: 182: };main.c: 183: ptr = strtok(tmp, "/");
  2257     02A7  3098               	movlw	low (STR_15| (0+32768))
  2258     02A8  0020               	movlb	0	; select bank0
  2259     02A9  00A0               	movwf	strtok@s2
  2260     02AA  3090               	movlw	high (STR_15| (0+32768))
  2261     02AB  00A1               	movwf	strtok@s2+1
  2262     02AC  3026               	movlw	(low (main@tmp| 0))& (0+255)
  2263     02AD  318F  27B4  3181   	fcall	_strtok
  2264     02B0  0020               	movlb	0	; select bank0
  2265     02B1  00DD               	movwf	main@ptr
  2266                           
  2267                           ;main.c: 187: switch(cmd){
  2268     02B2  2FCD               	goto	l2283
  2269     02B3                     l2043:
  2270                           
  2271                           ;main.c: 190: ptr = strtok((0), "/");
  2272     02B3  3098               	movlw	low (STR_15| (0+32768))
  2273     02B4  00A0               	movwf	strtok@s2
  2274     02B5  3090               	movlw	high (STR_15| (0+32768))
  2275     02B6  00A1               	movwf	strtok@s2+1
  2276     02B7  0103               	clrw
  2277     02B8  318F  27B4  3181   	fcall	_strtok
  2278     02BB  0020               	movlb	0	; select bank0
  2279     02BC  00DD               	movwf	main@ptr
  2280                           
  2281                           ;main.c: 191: ptr = strtok((0), "/");
  2282     02BD  3098               	movlw	low (STR_15| (0+32768))
  2283     02BE  00A0               	movwf	strtok@s2
  2284     02BF  3090               	movlw	high (STR_15| (0+32768))
  2285     02C0  00A1               	movwf	strtok@s2+1
  2286     02C1  0103               	clrw
  2287     02C2  318F  27B4  3181   	fcall	_strtok
  2288     02C5  0020               	movlb	0	; select bank0
  2289     02C6  00DD               	movwf	main@ptr
  2290                           
  2291                           ;main.c: 192: ptr = strtok((0), "/");
  2292     02C7  3098               	movlw	low (STR_15| (0+32768))
  2293     02C8  00A0               	movwf	strtok@s2
  2294     02C9  3090               	movlw	high (STR_15| (0+32768))
  2295     02CA  00A1               	movwf	strtok@s2+1
  2296     02CB  0103               	clrw
  2297     02CC  318F  27B4  3181   	fcall	_strtok
  2298     02CF  0020               	movlb	0	; select bank0
  2299     02D0  00DD               	movwf	main@ptr
  2300                           
  2301                           ;main.c: 193: ptr = strtok((0), "/");
  2302     02D1  3098               	movlw	low (STR_15| (0+32768))
  2303     02D2  00A0               	movwf	strtok@s2
  2304     02D3  3090               	movlw	high (STR_15| (0+32768))
  2305     02D4  00A1               	movwf	strtok@s2+1
  2306     02D5  0103               	clrw
  2307     02D6  318F  27B4  3181   	fcall	_strtok
  2308     02D9  0020               	movlb	0	; select bank0
  2309     02DA  00DD               	movwf	main@ptr
  2310     02DB                     l2045:
  2311                           
  2312                           ;main.c: 194: if(ptr != (0)) {
  2313     02DB  085D               	movf	main@ptr,w
  2314     02DC  1903               	btfsc	3,2
  2315     02DD  2ADF               	goto	u1571
  2316     02DE  2AE0               	goto	u1570
  2317     02DF                     u1571:
  2318     02DF  2AE9               	goto	l2049
  2319     02E0                     u1570:
  2320     02E0                     l2047:
  2321                           
  2322                           ;main.c: 195: dist = atoi(ptr);
  2323     02E0  085D               	movf	main@ptr,w
  2324     02E1  3180  20D6  3181   	fcall	_atoi
  2325     02E4  0877               	movf	?_atoi+1,w
  2326     02E5  0020               	movlb	0	; select bank0
  2327     02E6  00DC               	movwf	main@dist+1
  2328     02E7  0876               	movf	?_atoi,w
  2329     02E8  00DB               	movwf	main@dist
  2330     02E9                     l2049:
  2331                           
  2332                           ;main.c: 196: };main.c: 198: if (dist > 0){
  2333     02E9  085C               	movf	main@dist+1,w
  2334     02EA  3A80               	xorlw	128
  2335     02EB  00A5               	movwf	??_main
  2336     02EC  3080               	movlw	128
  2337     02ED  0225               	subwf	??_main,w
  2338     02EE  1D03               	skipz
  2339     02EF  2AF2               	goto	u1585
  2340     02F0  3001               	movlw	1
  2341     02F1  025B               	subwf	main@dist,w
  2342     02F2                     u1585:
  2343     02F2  1C03               	skipc
  2344     02F3  2AF5               	goto	u1581
  2345     02F4  2AF6               	goto	u1580
  2346     02F5                     u1581:
  2347     02F5  2B40               	goto	l2063
  2348     02F6                     u1580:
  2349     02F6                     l2051:
  2350                           
  2351                           ;main.c: 199: for(k = 0 ; k < dist ; k++){
  2352     02F6  0020               	movlb	0	; select bank0
  2353     02F7  01DE               	clrf	main@k
  2354     02F8  01DF               	clrf	main@k+1
  2355     02F9  2B31               	goto	l91
  2356     02FA                     l92:
  2357                           
  2358                           ;main.c: 200: RA0 = 1;
  2359     02FA  0020               	movlb	0	; select bank0
  2360     02FB  140C               	bsf	12,0	;volatile
  2361     02FC                     l2053:
  2362                           
  2363                           ;main.c: 201: for(j = 0 ; j < intvl ; j++){
  2364     02FC  01E2               	clrf	main@j
  2365     02FD  01E3               	clrf	main@j+1
  2366     02FE  2B05               	goto	l93
  2367     02FF                     l94:
  2368                           
  2369                           ;main.c: 202: _delay((unsigned long)((1)*(4000000/4000000.0)));
  2370     02FF  0000               	nop
  2371     0300                     l2055:
  2372     0300  3001               	movlw	1
  2373     0301  0020               	movlb	0	; select bank0
  2374     0302  07E2               	addwf	main@j,f
  2375     0303  3000               	movlw	0
  2376     0304  3DE3               	addwfc	main@j+1,f
  2377     0305                     l93:
  2378     0305  0863               	movf	main@j+1,w
  2379     0306  3A80               	xorlw	128
  2380     0307  00A5               	movwf	??_main
  2381     0308  0861               	movf	main@intvl+1,w
  2382     0309  3A80               	xorlw	128
  2383     030A  0225               	subwf	??_main,w
  2384     030B  1D03               	skipz
  2385     030C  2B0F               	goto	u1595
  2386     030D  0860               	movf	main@intvl,w
  2387     030E  0262               	subwf	main@j,w
  2388     030F                     u1595:
  2389     030F  1C03               	skipc
  2390     0310  2B12               	goto	u1591
  2391     0311  2B13               	goto	u1590
  2392     0312                     u1591:
  2393     0312  2AFF               	goto	l94
  2394     0313                     u1590:
  2395     0313                     l95:
  2396                           
  2397                           ;main.c: 203: };main.c: 204: RA0 = 0;
  2398     0313  0020               	movlb	0	; select bank0
  2399     0314  100C               	bcf	12,0	;volatile
  2400     0315                     l2057:
  2401                           
  2402                           ;main.c: 205: for(j = 0 ; j < intvl ; j++){
  2403     0315  01E2               	clrf	main@j
  2404     0316  01E3               	clrf	main@j+1
  2405     0317  2B1E               	goto	l96
  2406     0318                     l97:
  2407                           
  2408                           ;main.c: 206: _delay((unsigned long)((1)*(4000000/4000000.0)));
  2409     0318  0000               	nop
  2410     0319                     l2059:
  2411     0319  3001               	movlw	1
  2412     031A  0020               	movlb	0	; select bank0
  2413     031B  07E2               	addwf	main@j,f
  2414     031C  3000               	movlw	0
  2415     031D  3DE3               	addwfc	main@j+1,f
  2416     031E                     l96:
  2417     031E  0863               	movf	main@j+1,w
  2418     031F  3A80               	xorlw	128
  2419     0320  00A5               	movwf	??_main
  2420     0321  0861               	movf	main@intvl+1,w
  2421     0322  3A80               	xorlw	128
  2422     0323  0225               	subwf	??_main,w
  2423     0324  1D03               	skipz
  2424     0325  2B28               	goto	u1605
  2425     0326  0860               	movf	main@intvl,w
  2426     0327  0262               	subwf	main@j,w
  2427     0328                     u1605:
  2428     0328  1C03               	skipc
  2429     0329  2B2B               	goto	u1601
  2430     032A  2B2C               	goto	u1600
  2431     032B                     u1601:
  2432     032B  2B18               	goto	l97
  2433     032C                     u1600:
  2434     032C                     l2061:
  2435     032C  3001               	movlw	1
  2436     032D  0020               	movlb	0	; select bank0
  2437     032E  07DE               	addwf	main@k,f
  2438     032F  3000               	movlw	0
  2439     0330  3DDF               	addwfc	main@k+1,f
  2440     0331                     l91:
  2441     0331  085F               	movf	main@k+1,w
  2442     0332  3A80               	xorlw	128
  2443     0333  00A5               	movwf	??_main
  2444     0334  085C               	movf	main@dist+1,w
  2445     0335  3A80               	xorlw	128
  2446     0336  0225               	subwf	??_main,w
  2447     0337  1D03               	skipz
  2448     0338  2B3B               	goto	u1615
  2449     0339  085B               	movf	main@dist,w
  2450     033A  025E               	subwf	main@k,w
  2451     033B                     u1615:
  2452     033B  1C03               	skipc
  2453     033C  2B3E               	goto	u1611
  2454     033D  2B3F               	goto	u1610
  2455     033E                     u1611:
  2456     033E  2AFA               	goto	l92
  2457     033F                     u1610:
  2458     033F  2B99               	goto	l2077
  2459     0340                     l2063:
  2460                           
  2461                           ;main.c: 210: dist *= -1;
  2462     0340  30FF               	movlw	255
  2463     0341  00F0               	movwf	___wmul@multiplier
  2464     0342  30FF               	movlw	255
  2465     0343  00F1               	movwf	___wmul@multiplier+1
  2466     0344  0020               	movlb	0	; select bank0
  2467     0345  085C               	movf	main@dist+1,w
  2468     0346  00F3               	movwf	___wmul@multiplicand+1
  2469     0347  085B               	movf	main@dist,w
  2470     0348  00F2               	movwf	___wmul@multiplicand
  2471     0349  318F  270E  3181   	fcall	___wmul
  2472     034C  0871               	movf	?___wmul+1,w
  2473     034D  0020               	movlb	0	; select bank0
  2474     034E  00DC               	movwf	main@dist+1
  2475     034F  0870               	movf	?___wmul,w
  2476     0350  00DB               	movwf	main@dist
  2477     0351                     l2065:
  2478                           
  2479                           ;main.c: 211: for(k = 0 ; k < dist ; k++){
  2480     0351  01DE               	clrf	main@k
  2481     0352  01DF               	clrf	main@k+1
  2482     0353  2B8B               	goto	l101
  2483     0354                     l102:
  2484                           
  2485                           ;main.c: 212: RA1 = 1;
  2486     0354  0020               	movlb	0	; select bank0
  2487     0355  148C               	bsf	12,1	;volatile
  2488     0356                     l2067:
  2489                           
  2490                           ;main.c: 213: for(j = 0 ; j < intvl ; j++){
  2491     0356  01E2               	clrf	main@j
  2492     0357  01E3               	clrf	main@j+1
  2493     0358  2B5F               	goto	l103
  2494     0359                     l104:
  2495                           
  2496                           ;main.c: 214: _delay((unsigned long)((1)*(4000000/4000000.0)));
  2497     0359  0000               	nop
  2498     035A                     l2069:
  2499     035A  3001               	movlw	1
  2500     035B  0020               	movlb	0	; select bank0
  2501     035C  07E2               	addwf	main@j,f
  2502     035D  3000               	movlw	0
  2503     035E  3DE3               	addwfc	main@j+1,f
  2504     035F                     l103:
  2505     035F  0863               	movf	main@j+1,w
  2506     0360  3A80               	xorlw	128
  2507     0361  00A5               	movwf	??_main
  2508     0362  0861               	movf	main@intvl+1,w
  2509     0363  3A80               	xorlw	128
  2510     0364  0225               	subwf	??_main,w
  2511     0365  1D03               	skipz
  2512     0366  2B69               	goto	u1625
  2513     0367  0860               	movf	main@intvl,w
  2514     0368  0262               	subwf	main@j,w
  2515     0369                     u1625:
  2516     0369  1C03               	skipc
  2517     036A  2B6C               	goto	u1621
  2518     036B  2B6D               	goto	u1620
  2519     036C                     u1621:
  2520     036C  2B59               	goto	l104
  2521     036D                     u1620:
  2522     036D                     l105:
  2523                           
  2524                           ;main.c: 215: };main.c: 216: RA1 = 0;
  2525     036D  0020               	movlb	0	; select bank0
  2526     036E  108C               	bcf	12,1	;volatile
  2527     036F                     l2071:
  2528                           
  2529                           ;main.c: 217: for(j = 0 ; j < intvl ; j++){
  2530     036F  01E2               	clrf	main@j
  2531     0370  01E3               	clrf	main@j+1
  2532     0371  2B78               	goto	l106
  2533     0372                     l107:
  2534                           
  2535                           ;main.c: 218: _delay((unsigned long)((1)*(4000000/4000000.0)));
  2536     0372  0000               	nop
  2537     0373                     l2073:
  2538     0373  3001               	movlw	1
  2539     0374  0020               	movlb	0	; select bank0
  2540     0375  07E2               	addwf	main@j,f
  2541     0376  3000               	movlw	0
  2542     0377  3DE3               	addwfc	main@j+1,f
  2543     0378                     l106:
  2544     0378  0863               	movf	main@j+1,w
  2545     0379  3A80               	xorlw	128
  2546     037A  00A5               	movwf	??_main
  2547     037B  0861               	movf	main@intvl+1,w
  2548     037C  3A80               	xorlw	128
  2549     037D  0225               	subwf	??_main,w
  2550     037E  1D03               	skipz
  2551     037F  2B82               	goto	u1635
  2552     0380  0860               	movf	main@intvl,w
  2553     0381  0262               	subwf	main@j,w
  2554     0382                     u1635:
  2555     0382  1C03               	skipc
  2556     0383  2B85               	goto	u1631
  2557     0384  2B86               	goto	u1630
  2558     0385                     u1631:
  2559     0385  2B72               	goto	l107
  2560     0386                     u1630:
  2561     0386                     l2075:
  2562     0386  3001               	movlw	1
  2563     0387  0020               	movlb	0	; select bank0
  2564     0388  07DE               	addwf	main@k,f
  2565     0389  3000               	movlw	0
  2566     038A  3DDF               	addwfc	main@k+1,f
  2567     038B                     l101:
  2568     038B  085F               	movf	main@k+1,w
  2569     038C  3A80               	xorlw	128
  2570     038D  00A5               	movwf	??_main
  2571     038E  085C               	movf	main@dist+1,w
  2572     038F  3A80               	xorlw	128
  2573     0390  0225               	subwf	??_main,w
  2574     0391  1D03               	skipz
  2575     0392  2B95               	goto	u1645
  2576     0393  085B               	movf	main@dist,w
  2577     0394  025E               	subwf	main@k,w
  2578     0395                     u1645:
  2579     0395  1C03               	skipc
  2580     0396  2B98               	goto	u1641
  2581     0397  2B99               	goto	u1640
  2582     0398                     u1641:
  2583     0398  2B54               	goto	l102
  2584     0399                     u1640:
  2585     0399                     l2077:
  2586                           
  2587                           ;main.c: 219: };main.c: 220: };main.c: 221: };main.c: 224: printf("C\tRPS\r\n");
  2588     0399  3058               	movlw	low (STR_20| (0+32768))
  2589     039A  00F1               	movwf	printf@f
  2590     039B  3090               	movlw	high (STR_20| (0+32768))
  2591     039C  00F2               	movwf	printf@f+1
  2592     039D  3180  2006  3181   	fcall	_printf
  2593                           
  2594                           ;main.c: 225: break;
  2595     03A0  2988               	goto	l1953
  2596     03A1                     l2079:
  2597                           
  2598                           ;main.c: 228: ptr = strtok((0), "/");
  2599     03A1  3098               	movlw	low (STR_15| (0+32768))
  2600     03A2  00A0               	movwf	strtok@s2
  2601     03A3  3090               	movlw	high (STR_15| (0+32768))
  2602     03A4  00A1               	movwf	strtok@s2+1
  2603     03A5  0103               	clrw
  2604     03A6  318F  27B4  3181   	fcall	_strtok
  2605     03A9  0020               	movlb	0	; select bank0
  2606     03AA  00DD               	movwf	main@ptr
  2607                           
  2608                           ;main.c: 229: ptr = strtok((0), "/");
  2609     03AB  3098               	movlw	low (STR_15| (0+32768))
  2610     03AC  00A0               	movwf	strtok@s2
  2611     03AD  3090               	movlw	high (STR_15| (0+32768))
  2612     03AE  00A1               	movwf	strtok@s2+1
  2613     03AF  0103               	clrw
  2614     03B0  318F  27B4  3181   	fcall	_strtok
  2615     03B3  0020               	movlb	0	; select bank0
  2616     03B4  00DD               	movwf	main@ptr
  2617                           
  2618                           ;main.c: 230: ptr = strtok((0), "/");
  2619     03B5  3098               	movlw	low (STR_15| (0+32768))
  2620     03B6  00A0               	movwf	strtok@s2
  2621     03B7  3090               	movlw	high (STR_15| (0+32768))
  2622     03B8  00A1               	movwf	strtok@s2+1
  2623     03B9  0103               	clrw
  2624     03BA  318F  27B4  3181   	fcall	_strtok
  2625     03BD  0020               	movlb	0	; select bank0
  2626     03BE  00DD               	movwf	main@ptr
  2627     03BF                     l2081:
  2628                           
  2629                           ;main.c: 231: if(ptr != (0)) {
  2630     03BF  085D               	movf	main@ptr,w
  2631     03C0  1903               	btfsc	3,2
  2632     03C1  2BC3               	goto	u1651
  2633     03C2  2BC4               	goto	u1650
  2634     03C3                     u1651:
  2635     03C3  2BCD               	goto	l2085
  2636     03C4                     u1650:
  2637     03C4                     l2083:
  2638                           
  2639                           ;main.c: 232: set_spd = atoi(ptr);
  2640     03C4  085D               	movf	main@ptr,w
  2641     03C5  3180  20D6  3181   	fcall	_atoi
  2642     03C8  0877               	movf	?_atoi+1,w
  2643     03C9  0020               	movlb	0	; select bank0
  2644     03CA  00D1               	movwf	main@set_spd+1
  2645     03CB  0876               	movf	?_atoi,w
  2646     03CC  00D0               	movwf	main@set_spd
  2647     03CD                     l2085:
  2648                           
  2649                           ;main.c: 233: };main.c: 234: intvl = mx_spd / set_spd;
  2650     03CD  0851               	movf	main@set_spd+1,w
  2651     03CE  00F1               	movwf	___awdiv@divisor+1
  2652     03CF  0850               	movf	main@set_spd,w
  2653     03D0  00F0               	movwf	___awdiv@divisor
  2654     03D1  084F               	movf	main@mx_spd+1,w
  2655     03D2  00F3               	movwf	___awdiv@dividend+1
  2656     03D3  084E               	movf	main@mx_spd,w
  2657     03D4  00F2               	movwf	___awdiv@dividend
  2658     03D5  3180  2077  3181   	fcall	___awdiv
  2659     03D8  0871               	movf	?___awdiv+1,w
  2660     03D9  0020               	movlb	0	; select bank0
  2661     03DA  00E1               	movwf	main@intvl+1
  2662     03DB  0870               	movf	?___awdiv,w
  2663     03DC  00E0               	movwf	main@intvl
  2664     03DD                     l2087:
  2665                           
  2666                           ;main.c: 235: if (intvl == 0){
  2667     03DD  0860               	movf	main@intvl,w
  2668     03DE  0461               	iorwf	main@intvl+1,w
  2669     03DF  1D03               	btfss	3,2
  2670     03E0  2BE2               	goto	u1661
  2671     03E1  2BE3               	goto	u1660
  2672     03E2                     u1661:
  2673     03E2  2BE7               	goto	l2091
  2674     03E3                     u1660:
  2675     03E3                     l2089:
  2676                           
  2677                           ;main.c: 236: intvl = 1;
  2678     03E3  3001               	movlw	1
  2679     03E4  00E0               	movwf	main@intvl
  2680     03E5  3000               	movlw	0
  2681     03E6  00E1               	movwf	main@intvl+1
  2682     03E7                     l2091:
  2683                           
  2684                           ;main.c: 237: };main.c: 238: printf("C\tWTB\r\n");
  2685     03E7  3018               	movlw	low (STR_24| (0+32768))
  2686     03E8  00F1               	movwf	printf@f
  2687     03E9  3090               	movlw	high (STR_24| (0+32768))
  2688     03EA  00F2               	movwf	printf@f+1
  2689     03EB  3180  2006  3181   	fcall	_printf
  2690                           
  2691                           ;main.c: 240: break;
  2692     03EE  2988               	goto	l1953
  2693     03EF                     l2093:
  2694                           
  2695                           ;main.c: 243: ptr = strtok((0), "/");
  2696     03EF  3098               	movlw	low (STR_15| (0+32768))
  2697     03F0  00A0               	movwf	strtok@s2
  2698     03F1  3090               	movlw	high (STR_15| (0+32768))
  2699     03F2  00A1               	movwf	strtok@s2+1
  2700     03F3  0103               	clrw
  2701     03F4  318F  27B4  3181   	fcall	_strtok
  2702     03F7  0020               	movlb	0	; select bank0
  2703     03F8  00DD               	movwf	main@ptr
  2704                           
  2705                           ;main.c: 244: ptr = strtok((0), "/");
  2706     03F9  3098               	movlw	low (STR_15| (0+32768))
  2707     03FA  00A0               	movwf	strtok@s2
  2708     03FB  3090               	movlw	high (STR_15| (0+32768))
  2709     03FC  00A1               	movwf	strtok@s2+1
  2710     03FD  0103               	clrw
  2711     03FE  318F  27B4  3181   	fcall	_strtok
  2712     0401  0020               	movlb	0	; select bank0
  2713     0402  00DD               	movwf	main@ptr
  2714                           
  2715                           ;main.c: 245: ptr = strtok((0), "/");
  2716     0403  3098               	movlw	low (STR_15| (0+32768))
  2717     0404  00A0               	movwf	strtok@s2
  2718     0405  3090               	movlw	high (STR_15| (0+32768))
  2719     0406  00A1               	movwf	strtok@s2+1
  2720     0407  0103               	clrw
  2721     0408  318F  27B4  3181   	fcall	_strtok
  2722     040B  0020               	movlb	0	; select bank0
  2723     040C  00DD               	movwf	main@ptr
  2724                           
  2725                           ;main.c: 246: ptr = strtok((0), "/");
  2726     040D  3098               	movlw	low (STR_15| (0+32768))
  2727     040E  00A0               	movwf	strtok@s2
  2728     040F  3090               	movlw	high (STR_15| (0+32768))
  2729     0410  00A1               	movwf	strtok@s2+1
  2730     0411  0103               	clrw
  2731     0412  318F  27B4  3181   	fcall	_strtok
  2732     0415  0020               	movlb	0	; select bank0
  2733     0416  00DD               	movwf	main@ptr
  2734                           
  2735                           ;main.c: 247: ptr = strtok((0), "/");
  2736     0417  3098               	movlw	low (STR_15| (0+32768))
  2737     0418  00A0               	movwf	strtok@s2
  2738     0419  3090               	movlw	high (STR_15| (0+32768))
  2739     041A  00A1               	movwf	strtok@s2+1
  2740     041B  0103               	clrw
  2741     041C  318F  27B4  3181   	fcall	_strtok
  2742     041F  0020               	movlb	0	; select bank0
  2743     0420  00DD               	movwf	main@ptr
  2744     0421                     l2095:
  2745                           
  2746                           ;main.c: 248: if(ptr != (0)) {
  2747     0421  085D               	movf	main@ptr,w
  2748     0422  1903               	btfsc	3,2
  2749     0423  2C25               	goto	u1671
  2750     0424  2C26               	goto	u1670
  2751     0425                     u1671:
  2752     0425  2C2F               	goto	l2099
  2753     0426                     u1670:
  2754     0426                     l2097:
  2755                           
  2756                           ;main.c: 249: dist = atoi(ptr);
  2757     0426  085D               	movf	main@ptr,w
  2758     0427  3180  20D6  3181   	fcall	_atoi
  2759     042A  0877               	movf	?_atoi+1,w
  2760     042B  0020               	movlb	0	; select bank0
  2761     042C  00DC               	movwf	main@dist+1
  2762     042D  0876               	movf	?_atoi,w
  2763     042E  00DB               	movwf	main@dist
  2764     042F                     l2099:
  2765                           
  2766                           ;main.c: 250: };main.c: 252: if (dist > 0){
  2767     042F  085C               	movf	main@dist+1,w
  2768     0430  3A80               	xorlw	128
  2769     0431  00A5               	movwf	??_main
  2770     0432  3080               	movlw	128
  2771     0433  0225               	subwf	??_main,w
  2772     0434  1D03               	skipz
  2773     0435  2C38               	goto	u1685
  2774     0436  3001               	movlw	1
  2775     0437  025B               	subwf	main@dist,w
  2776     0438                     u1685:
  2777     0438  1C03               	skipc
  2778     0439  2C3B               	goto	u1681
  2779     043A  2C3C               	goto	u1680
  2780     043B                     u1681:
  2781     043B  2CCF               	goto	l2125
  2782     043C                     u1680:
  2783     043C                     l2101:
  2784                           
  2785                           ;main.c: 253: for(k = 0 ; k < dist ; k++){
  2786     043C  0020               	movlb	0	; select bank0
  2787     043D  01DE               	clrf	main@k
  2788     043E  01DF               	clrf	main@k+1
  2789     043F  2C77               	goto	l117
  2790     0440                     l118:
  2791                           
  2792                           ;main.c: 254: RA0 = 1;
  2793     0440  0020               	movlb	0	; select bank0
  2794     0441  140C               	bsf	12,0	;volatile
  2795     0442                     l2103:
  2796                           
  2797                           ;main.c: 255: for(j = 0 ; j < intvl ; j++){
  2798     0442  01E2               	clrf	main@j
  2799     0443  01E3               	clrf	main@j+1
  2800     0444  2C4B               	goto	l119
  2801     0445                     l120:
  2802                           
  2803                           ;main.c: 256: _delay((unsigned long)((1)*(4000000/4000000.0)));
  2804     0445  0000               	nop
  2805     0446                     l2105:
  2806     0446  3001               	movlw	1
  2807     0447  0020               	movlb	0	; select bank0
  2808     0448  07E2               	addwf	main@j,f
  2809     0449  3000               	movlw	0
  2810     044A  3DE3               	addwfc	main@j+1,f
  2811     044B                     l119:
  2812     044B  0863               	movf	main@j+1,w
  2813     044C  3A80               	xorlw	128
  2814     044D  00A5               	movwf	??_main
  2815     044E  0861               	movf	main@intvl+1,w
  2816     044F  3A80               	xorlw	128
  2817     0450  0225               	subwf	??_main,w
  2818     0451  1D03               	skipz
  2819     0452  2C55               	goto	u1695
  2820     0453  0860               	movf	main@intvl,w
  2821     0454  0262               	subwf	main@j,w
  2822     0455                     u1695:
  2823     0455  1C03               	skipc
  2824     0456  2C58               	goto	u1691
  2825     0457  2C59               	goto	u1690
  2826     0458                     u1691:
  2827     0458  2C45               	goto	l120
  2828     0459                     u1690:
  2829     0459                     l121:
  2830                           
  2831                           ;main.c: 257: };main.c: 258: RA0 = 0;
  2832     0459  0020               	movlb	0	; select bank0
  2833     045A  100C               	bcf	12,0	;volatile
  2834     045B                     l2107:
  2835                           
  2836                           ;main.c: 259: for(j = 0 ; j < intvl ; j++){
  2837     045B  01E2               	clrf	main@j
  2838     045C  01E3               	clrf	main@j+1
  2839     045D  2C64               	goto	l122
  2840     045E                     l123:
  2841                           
  2842                           ;main.c: 260: _delay((unsigned long)((1)*(4000000/4000000.0)));
  2843     045E  0000               	nop
  2844     045F                     l2109:
  2845     045F  3001               	movlw	1
  2846     0460  0020               	movlb	0	; select bank0
  2847     0461  07E2               	addwf	main@j,f
  2848     0462  3000               	movlw	0
  2849     0463  3DE3               	addwfc	main@j+1,f
  2850     0464                     l122:
  2851     0464  0863               	movf	main@j+1,w
  2852     0465  3A80               	xorlw	128
  2853     0466  00A5               	movwf	??_main
  2854     0467  0861               	movf	main@intvl+1,w
  2855     0468  3A80               	xorlw	128
  2856     0469  0225               	subwf	??_main,w
  2857     046A  1D03               	skipz
  2858     046B  2C6E               	goto	u1705
  2859     046C  0860               	movf	main@intvl,w
  2860     046D  0262               	subwf	main@j,w
  2861     046E                     u1705:
  2862     046E  1C03               	skipc
  2863     046F  2C71               	goto	u1701
  2864     0470  2C72               	goto	u1700
  2865     0471                     u1701:
  2866     0471  2C5E               	goto	l123
  2867     0472                     u1700:
  2868     0472                     l2111:
  2869     0472  3001               	movlw	1
  2870     0473  0020               	movlb	0	; select bank0
  2871     0474  07DE               	addwf	main@k,f
  2872     0475  3000               	movlw	0
  2873     0476  3DDF               	addwfc	main@k+1,f
  2874     0477                     l117:
  2875     0477  085F               	movf	main@k+1,w
  2876     0478  3A80               	xorlw	128
  2877     0479  00A5               	movwf	??_main
  2878     047A  085C               	movf	main@dist+1,w
  2879     047B  3A80               	xorlw	128
  2880     047C  0225               	subwf	??_main,w
  2881     047D  1D03               	skipz
  2882     047E  2C81               	goto	u1715
  2883     047F  085B               	movf	main@dist,w
  2884     0480  025E               	subwf	main@k,w
  2885     0481                     u1715:
  2886     0481  1C03               	skipc
  2887     0482  2C84               	goto	u1711
  2888     0483  2C85               	goto	u1710
  2889     0484                     u1711:
  2890     0484  2C40               	goto	l118
  2891     0485                     u1710:
  2892     0485                     l2113:
  2893                           
  2894                           ;main.c: 261: };main.c: 262: };main.c: 263: for(k = 0 ; k < dist ; k++){
  2895     0485  0020               	movlb	0	; select bank0
  2896     0486  01DE               	clrf	main@k
  2897     0487  01DF               	clrf	main@k+1
  2898     0488  2CC0               	goto	l126
  2899     0489                     l127:
  2900                           
  2901                           ;main.c: 264: RA1 = 1;
  2902     0489  0020               	movlb	0	; select bank0
  2903     048A  148C               	bsf	12,1	;volatile
  2904     048B                     l2115:
  2905                           
  2906                           ;main.c: 265: for(j = 0 ; j < intvl ; j++){
  2907     048B  01E2               	clrf	main@j
  2908     048C  01E3               	clrf	main@j+1
  2909     048D  2C94               	goto	l128
  2910     048E                     l129:
  2911                           
  2912                           ;main.c: 266: _delay((unsigned long)((1)*(4000000/4000000.0)));
  2913     048E  0000               	nop
  2914     048F                     l2117:
  2915     048F  3001               	movlw	1
  2916     0490  0020               	movlb	0	; select bank0
  2917     0491  07E2               	addwf	main@j,f
  2918     0492  3000               	movlw	0
  2919     0493  3DE3               	addwfc	main@j+1,f
  2920     0494                     l128:
  2921     0494  0863               	movf	main@j+1,w
  2922     0495  3A80               	xorlw	128
  2923     0496  00A5               	movwf	??_main
  2924     0497  0861               	movf	main@intvl+1,w
  2925     0498  3A80               	xorlw	128
  2926     0499  0225               	subwf	??_main,w
  2927     049A  1D03               	skipz
  2928     049B  2C9E               	goto	u1725
  2929     049C  0860               	movf	main@intvl,w
  2930     049D  0262               	subwf	main@j,w
  2931     049E                     u1725:
  2932     049E  1C03               	skipc
  2933     049F  2CA1               	goto	u1721
  2934     04A0  2CA2               	goto	u1720
  2935     04A1                     u1721:
  2936     04A1  2C8E               	goto	l129
  2937     04A2                     u1720:
  2938     04A2                     l130:
  2939                           
  2940                           ;main.c: 267: };main.c: 268: RA1 = 0;
  2941     04A2  0020               	movlb	0	; select bank0
  2942     04A3  108C               	bcf	12,1	;volatile
  2943     04A4                     l2119:
  2944                           
  2945                           ;main.c: 269: for(j = 0 ; j < intvl ; j++){
  2946     04A4  01E2               	clrf	main@j
  2947     04A5  01E3               	clrf	main@j+1
  2948     04A6  2CAD               	goto	l131
  2949     04A7                     l132:
  2950                           
  2951                           ;main.c: 270: _delay((unsigned long)((1)*(4000000/4000000.0)));
  2952     04A7  0000               	nop
  2953     04A8                     l2121:
  2954     04A8  3001               	movlw	1
  2955     04A9  0020               	movlb	0	; select bank0
  2956     04AA  07E2               	addwf	main@j,f
  2957     04AB  3000               	movlw	0
  2958     04AC  3DE3               	addwfc	main@j+1,f
  2959     04AD                     l131:
  2960     04AD  0863               	movf	main@j+1,w
  2961     04AE  3A80               	xorlw	128
  2962     04AF  00A5               	movwf	??_main
  2963     04B0  0861               	movf	main@intvl+1,w
  2964     04B1  3A80               	xorlw	128
  2965     04B2  0225               	subwf	??_main,w
  2966     04B3  1D03               	skipz
  2967     04B4  2CB7               	goto	u1735
  2968     04B5  0860               	movf	main@intvl,w
  2969     04B6  0262               	subwf	main@j,w
  2970     04B7                     u1735:
  2971     04B7  1C03               	skipc
  2972     04B8  2CBA               	goto	u1731
  2973     04B9  2CBB               	goto	u1730
  2974     04BA                     u1731:
  2975     04BA  2CA7               	goto	l132
  2976     04BB                     u1730:
  2977     04BB                     l2123:
  2978     04BB  3001               	movlw	1
  2979     04BC  0020               	movlb	0	; select bank0
  2980     04BD  07DE               	addwf	main@k,f
  2981     04BE  3000               	movlw	0
  2982     04BF  3DDF               	addwfc	main@k+1,f
  2983     04C0                     l126:
  2984     04C0  085F               	movf	main@k+1,w
  2985     04C1  3A80               	xorlw	128
  2986     04C2  00A5               	movwf	??_main
  2987     04C3  085C               	movf	main@dist+1,w
  2988     04C4  3A80               	xorlw	128
  2989     04C5  0225               	subwf	??_main,w
  2990     04C6  1D03               	skipz
  2991     04C7  2CCA               	goto	u1745
  2992     04C8  085B               	movf	main@dist,w
  2993     04C9  025E               	subwf	main@k,w
  2994     04CA                     u1745:
  2995     04CA  1C03               	skipc
  2996     04CB  2CCD               	goto	u1741
  2997     04CC  2CCE               	goto	u1740
  2998     04CD                     u1741:
  2999     04CD  2C89               	goto	l127
  3000     04CE                     u1740:
  3001     04CE  2D71               	goto	l2151
  3002     04CF                     l2125:
  3003                           
  3004                           ;main.c: 274: dist *= -1;
  3005     04CF  30FF               	movlw	255
  3006     04D0  00F0               	movwf	___wmul@multiplier
  3007     04D1  30FF               	movlw	255
  3008     04D2  00F1               	movwf	___wmul@multiplier+1
  3009     04D3  0020               	movlb	0	; select bank0
  3010     04D4  085C               	movf	main@dist+1,w
  3011     04D5  00F3               	movwf	___wmul@multiplicand+1
  3012     04D6  085B               	movf	main@dist,w
  3013     04D7  00F2               	movwf	___wmul@multiplicand
  3014     04D8  318F  270E  3181   	fcall	___wmul
  3015     04DB  0871               	movf	?___wmul+1,w
  3016     04DC  0020               	movlb	0	; select bank0
  3017     04DD  00DC               	movwf	main@dist+1
  3018     04DE  0870               	movf	?___wmul,w
  3019     04DF  00DB               	movwf	main@dist
  3020     04E0                     l2127:
  3021                           
  3022                           ;main.c: 275: for(k = 0 ; k < dist ; k++){
  3023     04E0  01DE               	clrf	main@k
  3024     04E1  01DF               	clrf	main@k+1
  3025     04E2  2D1A               	goto	l136
  3026     04E3                     l137:
  3027                           
  3028                           ;main.c: 276: RA1 = 1;
  3029     04E3  0020               	movlb	0	; select bank0
  3030     04E4  148C               	bsf	12,1	;volatile
  3031     04E5                     l2129:
  3032                           
  3033                           ;main.c: 277: for(j = 0 ; j < intvl ; j++){
  3034     04E5  01E2               	clrf	main@j
  3035     04E6  01E3               	clrf	main@j+1
  3036     04E7  2CEE               	goto	l138
  3037     04E8                     l139:
  3038                           
  3039                           ;main.c: 278: _delay((unsigned long)((1)*(4000000/4000000.0)));
  3040     04E8  0000               	nop
  3041     04E9                     l2131:
  3042     04E9  3001               	movlw	1
  3043     04EA  0020               	movlb	0	; select bank0
  3044     04EB  07E2               	addwf	main@j,f
  3045     04EC  3000               	movlw	0
  3046     04ED  3DE3               	addwfc	main@j+1,f
  3047     04EE                     l138:
  3048     04EE  0863               	movf	main@j+1,w
  3049     04EF  3A80               	xorlw	128
  3050     04F0  00A5               	movwf	??_main
  3051     04F1  0861               	movf	main@intvl+1,w
  3052     04F2  3A80               	xorlw	128
  3053     04F3  0225               	subwf	??_main,w
  3054     04F4  1D03               	skipz
  3055     04F5  2CF8               	goto	u1755
  3056     04F6  0860               	movf	main@intvl,w
  3057     04F7  0262               	subwf	main@j,w
  3058     04F8                     u1755:
  3059     04F8  1C03               	skipc
  3060     04F9  2CFB               	goto	u1751
  3061     04FA  2CFC               	goto	u1750
  3062     04FB                     u1751:
  3063     04FB  2CE8               	goto	l139
  3064     04FC                     u1750:
  3065     04FC                     l140:
  3066                           
  3067                           ;main.c: 279: };main.c: 280: RA1 = 0;
  3068     04FC  0020               	movlb	0	; select bank0
  3069     04FD  108C               	bcf	12,1	;volatile
  3070     04FE                     l2133:
  3071                           
  3072                           ;main.c: 281: for(j = 0 ; j < intvl ; j++){
  3073     04FE  01E2               	clrf	main@j
  3074     04FF  01E3               	clrf	main@j+1
  3075     0500  2D07               	goto	l141
  3076     0501                     l142:
  3077                           
  3078                           ;main.c: 282: _delay((unsigned long)((1)*(4000000/4000000.0)));
  3079     0501  0000               	nop
  3080     0502                     l2135:
  3081     0502  3001               	movlw	1
  3082     0503  0020               	movlb	0	; select bank0
  3083     0504  07E2               	addwf	main@j,f
  3084     0505  3000               	movlw	0
  3085     0506  3DE3               	addwfc	main@j+1,f
  3086     0507                     l141:
  3087     0507  0863               	movf	main@j+1,w
  3088     0508  3A80               	xorlw	128
  3089     0509  00A5               	movwf	??_main
  3090     050A  0861               	movf	main@intvl+1,w
  3091     050B  3A80               	xorlw	128
  3092     050C  0225               	subwf	??_main,w
  3093     050D  1D03               	skipz
  3094     050E  2D11               	goto	u1765
  3095     050F  0860               	movf	main@intvl,w
  3096     0510  0262               	subwf	main@j,w
  3097     0511                     u1765:
  3098     0511  1C03               	skipc
  3099     0512  2D14               	goto	u1761
  3100     0513  2D15               	goto	u1760
  3101     0514                     u1761:
  3102     0514  2D01               	goto	l142
  3103     0515                     u1760:
  3104     0515                     l2137:
  3105     0515  3001               	movlw	1
  3106     0516  0020               	movlb	0	; select bank0
  3107     0517  07DE               	addwf	main@k,f
  3108     0518  3000               	movlw	0
  3109     0519  3DDF               	addwfc	main@k+1,f
  3110     051A                     l136:
  3111     051A  085F               	movf	main@k+1,w
  3112     051B  3A80               	xorlw	128
  3113     051C  00A5               	movwf	??_main
  3114     051D  085C               	movf	main@dist+1,w
  3115     051E  3A80               	xorlw	128
  3116     051F  0225               	subwf	??_main,w
  3117     0520  1D03               	skipz
  3118     0521  2D24               	goto	u1775
  3119     0522  085B               	movf	main@dist,w
  3120     0523  025E               	subwf	main@k,w
  3121     0524                     u1775:
  3122     0524  1C03               	skipc
  3123     0525  2D27               	goto	u1771
  3124     0526  2D28               	goto	u1770
  3125     0527                     u1771:
  3126     0527  2CE3               	goto	l137
  3127     0528                     u1770:
  3128     0528                     l2139:
  3129                           
  3130                           ;main.c: 283: };main.c: 284: };main.c: 285: for(k = 0 ; k < dist ; k++){
  3131     0528  0020               	movlb	0	; select bank0
  3132     0529  01DE               	clrf	main@k
  3133     052A  01DF               	clrf	main@k+1
  3134     052B  2D63               	goto	l145
  3135     052C                     l146:
  3136                           
  3137                           ;main.c: 286: RA0 = 1;
  3138     052C  0020               	movlb	0	; select bank0
  3139     052D  140C               	bsf	12,0	;volatile
  3140     052E                     l2141:
  3141                           
  3142                           ;main.c: 287: for(j = 0 ; j < intvl ; j++){
  3143     052E  01E2               	clrf	main@j
  3144     052F  01E3               	clrf	main@j+1
  3145     0530  2D37               	goto	l147
  3146     0531                     l148:
  3147                           
  3148                           ;main.c: 288: _delay((unsigned long)((1)*(4000000/4000000.0)));
  3149     0531  0000               	nop
  3150     0532                     l2143:
  3151     0532  3001               	movlw	1
  3152     0533  0020               	movlb	0	; select bank0
  3153     0534  07E2               	addwf	main@j,f
  3154     0535  3000               	movlw	0
  3155     0536  3DE3               	addwfc	main@j+1,f
  3156     0537                     l147:
  3157     0537  0863               	movf	main@j+1,w
  3158     0538  3A80               	xorlw	128
  3159     0539  00A5               	movwf	??_main
  3160     053A  0861               	movf	main@intvl+1,w
  3161     053B  3A80               	xorlw	128
  3162     053C  0225               	subwf	??_main,w
  3163     053D  1D03               	skipz
  3164     053E  2D41               	goto	u1785
  3165     053F  0860               	movf	main@intvl,w
  3166     0540  0262               	subwf	main@j,w
  3167     0541                     u1785:
  3168     0541  1C03               	skipc
  3169     0542  2D44               	goto	u1781
  3170     0543  2D45               	goto	u1780
  3171     0544                     u1781:
  3172     0544  2D31               	goto	l148
  3173     0545                     u1780:
  3174     0545                     l149:
  3175                           
  3176                           ;main.c: 289: };main.c: 290: RA0 = 0;
  3177     0545  0020               	movlb	0	; select bank0
  3178     0546  100C               	bcf	12,0	;volatile
  3179     0547                     l2145:
  3180                           
  3181                           ;main.c: 291: for(j = 0 ; j < intvl ; j++){
  3182     0547  01E2               	clrf	main@j
  3183     0548  01E3               	clrf	main@j+1
  3184     0549  2D50               	goto	l150
  3185     054A                     l151:
  3186                           
  3187                           ;main.c: 292: _delay((unsigned long)((1)*(4000000/4000000.0)));
  3188     054A  0000               	nop
  3189     054B                     l2147:
  3190     054B  3001               	movlw	1
  3191     054C  0020               	movlb	0	; select bank0
  3192     054D  07E2               	addwf	main@j,f
  3193     054E  3000               	movlw	0
  3194     054F  3DE3               	addwfc	main@j+1,f
  3195     0550                     l150:
  3196     0550  0863               	movf	main@j+1,w
  3197     0551  3A80               	xorlw	128
  3198     0552  00A5               	movwf	??_main
  3199     0553  0861               	movf	main@intvl+1,w
  3200     0554  3A80               	xorlw	128
  3201     0555  0225               	subwf	??_main,w
  3202     0556  1D03               	skipz
  3203     0557  2D5A               	goto	u1795
  3204     0558  0860               	movf	main@intvl,w
  3205     0559  0262               	subwf	main@j,w
  3206     055A                     u1795:
  3207     055A  1C03               	skipc
  3208     055B  2D5D               	goto	u1791
  3209     055C  2D5E               	goto	u1790
  3210     055D                     u1791:
  3211     055D  2D4A               	goto	l151
  3212     055E                     u1790:
  3213     055E                     l2149:
  3214     055E  3001               	movlw	1
  3215     055F  0020               	movlb	0	; select bank0
  3216     0560  07DE               	addwf	main@k,f
  3217     0561  3000               	movlw	0
  3218     0562  3DDF               	addwfc	main@k+1,f
  3219     0563                     l145:
  3220     0563  085F               	movf	main@k+1,w
  3221     0564  3A80               	xorlw	128
  3222     0565  00A5               	movwf	??_main
  3223     0566  085C               	movf	main@dist+1,w
  3224     0567  3A80               	xorlw	128
  3225     0568  0225               	subwf	??_main,w
  3226     0569  1D03               	skipz
  3227     056A  2D6D               	goto	u1805
  3228     056B  085B               	movf	main@dist,w
  3229     056C  025E               	subwf	main@k,w
  3230     056D                     u1805:
  3231     056D  1C03               	skipc
  3232     056E  2D70               	goto	u1801
  3233     056F  2D71               	goto	u1800
  3234     0570                     u1801:
  3235     0570  2D2C               	goto	l146
  3236     0571                     u1800:
  3237     0571                     l2151:
  3238                           
  3239                           ;main.c: 293: };main.c: 294: };main.c: 295: };main.c: 298: printf("C\tOSC\r\n");
  3240     0571  3020               	movlw	low (STR_30| (0+32768))
  3241     0572  00F1               	movwf	printf@f
  3242     0573  3090               	movlw	high (STR_30| (0+32768))
  3243     0574  00F2               	movwf	printf@f+1
  3244     0575  3180  2006  3181   	fcall	_printf
  3245                           
  3246                           ;main.c: 299: break;
  3247     0578  2988               	goto	l1953
  3248     0579                     l2153:
  3249                           
  3250                           ;main.c: 302: dist = 10000;
  3251     0579  3010               	movlw	16
  3252     057A  00DB               	movwf	main@dist
  3253     057B  3027               	movlw	39
  3254     057C  00DC               	movwf	main@dist+1
  3255     057D                     l2155:
  3256                           
  3257                           ;main.c: 303: for(k = 0 ; k < dist ; k++){
  3258     057D  01DE               	clrf	main@k
  3259     057E  01DF               	clrf	main@k+1
  3260     057F  2DBC               	goto	l155
  3261     0580                     l156:
  3262                           
  3263                           ;main.c: 304: RA0 = 1;
  3264     0580  0020               	movlb	0	; select bank0
  3265     0581  140C               	bsf	12,0	;volatile
  3266     0582                     l2157:
  3267                           
  3268                           ;main.c: 305: for(j = 0 ; j < intvl ; j++){
  3269     0582  01E2               	clrf	main@j
  3270     0583  01E3               	clrf	main@j+1
  3271     0584  2D8B               	goto	l157
  3272     0585                     l158:
  3273                           
  3274                           ;main.c: 306: _delay((unsigned long)((1)*(4000000/4000000.0)));
  3275     0585  0000               	nop
  3276     0586                     l2159:
  3277     0586  3001               	movlw	1
  3278     0587  0020               	movlb	0	; select bank0
  3279     0588  07E2               	addwf	main@j,f
  3280     0589  3000               	movlw	0
  3281     058A  3DE3               	addwfc	main@j+1,f
  3282     058B                     l157:
  3283     058B  0863               	movf	main@j+1,w
  3284     058C  3A80               	xorlw	128
  3285     058D  00A5               	movwf	??_main
  3286     058E  0861               	movf	main@intvl+1,w
  3287     058F  3A80               	xorlw	128
  3288     0590  0225               	subwf	??_main,w
  3289     0591  1D03               	skipz
  3290     0592  2D95               	goto	u1815
  3291     0593  0860               	movf	main@intvl,w
  3292     0594  0262               	subwf	main@j,w
  3293     0595                     u1815:
  3294     0595  1C03               	skipc
  3295     0596  2D98               	goto	u1811
  3296     0597  2D99               	goto	u1810
  3297     0598                     u1811:
  3298     0598  2D85               	goto	l158
  3299     0599                     u1810:
  3300     0599                     l159:
  3301                           
  3302                           ;main.c: 307: };main.c: 308: RA0 = 0;
  3303     0599  0020               	movlb	0	; select bank0
  3304     059A  100C               	bcf	12,0	;volatile
  3305     059B                     l2161:
  3306                           
  3307                           ;main.c: 309: for(j = 0 ; j < intvl ; j++){
  3308     059B  01E2               	clrf	main@j
  3309     059C  01E3               	clrf	main@j+1
  3310     059D  2DA4               	goto	l160
  3311     059E                     l161:
  3312                           
  3313                           ;main.c: 310: _delay((unsigned long)((1)*(4000000/4000000.0)));
  3314     059E  0000               	nop
  3315     059F                     l2163:
  3316     059F  3001               	movlw	1
  3317     05A0  0020               	movlb	0	; select bank0
  3318     05A1  07E2               	addwf	main@j,f
  3319     05A2  3000               	movlw	0
  3320     05A3  3DE3               	addwfc	main@j+1,f
  3321     05A4                     l160:
  3322     05A4  0863               	movf	main@j+1,w
  3323     05A5  3A80               	xorlw	128
  3324     05A6  00A5               	movwf	??_main
  3325     05A7  0861               	movf	main@intvl+1,w
  3326     05A8  3A80               	xorlw	128
  3327     05A9  0225               	subwf	??_main,w
  3328     05AA  1D03               	skipz
  3329     05AB  2DAE               	goto	u1825
  3330     05AC  0860               	movf	main@intvl,w
  3331     05AD  0262               	subwf	main@j,w
  3332     05AE                     u1825:
  3333     05AE  1C03               	skipc
  3334     05AF  2DB1               	goto	u1821
  3335     05B0  2DB2               	goto	u1820
  3336     05B1                     u1821:
  3337     05B1  2D9E               	goto	l161
  3338     05B2                     u1820:
  3339     05B2                     l162:
  3340                           
  3341                           ;main.c: 311: };main.c: 313: if(RB0 == 0){
  3342     05B2  0020               	movlb	0	; select bank0
  3343     05B3  180D               	btfsc	13,0	;volatile
  3344     05B4  2DB6               	goto	u1831
  3345     05B5  2DB7               	goto	u1830
  3346     05B6                     u1831:
  3347     05B6  2DB8               	goto	l2167
  3348     05B7                     u1830:
  3349     05B7  2DCA               	goto	l2169
  3350     05B8                     l2167:
  3351     05B8  3001               	movlw	1
  3352     05B9  07DE               	addwf	main@k,f
  3353     05BA  3000               	movlw	0
  3354     05BB  3DDF               	addwfc	main@k+1,f
  3355     05BC                     l155:
  3356     05BC  085F               	movf	main@k+1,w
  3357     05BD  3A80               	xorlw	128
  3358     05BE  00A5               	movwf	??_main
  3359     05BF  085C               	movf	main@dist+1,w
  3360     05C0  3A80               	xorlw	128
  3361     05C1  0225               	subwf	??_main,w
  3362     05C2  1D03               	skipz
  3363     05C3  2DC6               	goto	u1845
  3364     05C4  085B               	movf	main@dist,w
  3365     05C5  025E               	subwf	main@k,w
  3366     05C6                     u1845:
  3367     05C6  1C03               	skipc
  3368     05C7  2DC9               	goto	u1841
  3369     05C8  2DCA               	goto	u1840
  3370     05C9                     u1841:
  3371     05C9  2D80               	goto	l156
  3372     05CA                     u1840:
  3373     05CA                     l2169:
  3374                           
  3375                           ;main.c: 315: };main.c: 317: };main.c: 319: printf("C\tNTD\r\n");
  3376     05CA  3040               	movlw	low (STR_31| (0+32768))
  3377     05CB  00F1               	movwf	printf@f
  3378     05CC  3090               	movlw	high (STR_31| (0+32768))
  3379     05CD  00F2               	movwf	printf@f+1
  3380     05CE  3180  2006  3181   	fcall	_printf
  3381                           
  3382                           ;main.c: 321: break;
  3383     05D1  2988               	goto	l1953
  3384     05D2                     l2171:
  3385                           
  3386                           ;main.c: 324: ptr = strtok((0), "/");
  3387     05D2  3098               	movlw	low (STR_15| (0+32768))
  3388     05D3  00A0               	movwf	strtok@s2
  3389     05D4  3090               	movlw	high (STR_15| (0+32768))
  3390     05D5  00A1               	movwf	strtok@s2+1
  3391     05D6  0103               	clrw
  3392     05D7  318F  27B4  3181   	fcall	_strtok
  3393     05DA  0020               	movlb	0	; select bank0
  3394     05DB  00DD               	movwf	main@ptr
  3395     05DC                     l2173:
  3396                           
  3397                           ;main.c: 325: if(ptr != (0)) {
  3398     05DC  085D               	movf	main@ptr,w
  3399     05DD  1903               	btfsc	3,2
  3400     05DE  2DE0               	goto	u1851
  3401     05DF  2DE1               	goto	u1850
  3402     05E0                     u1851:
  3403     05E0  2DEA               	goto	l2177
  3404     05E1                     u1850:
  3405     05E1                     l2175:
  3406                           
  3407                           ;main.c: 326: dist = atoi(ptr);
  3408     05E1  085D               	movf	main@ptr,w
  3409     05E2  3180  20D6  3181   	fcall	_atoi
  3410     05E5  0877               	movf	?_atoi+1,w
  3411     05E6  0020               	movlb	0	; select bank0
  3412     05E7  00DC               	movwf	main@dist+1
  3413     05E8  0876               	movf	?_atoi,w
  3414     05E9  00DB               	movwf	main@dist
  3415     05EA                     l2177:
  3416                           
  3417                           ;main.c: 327: };main.c: 329: for(k = 0 ; k < 10000 ; k++){
  3418     05EA  01DE               	clrf	main@k
  3419     05EB  01DF               	clrf	main@k+1
  3420     05EC                     l167:
  3421                           
  3422                           ;main.c: 330: RA0 = 1;
  3423     05EC  0020               	movlb	0	; select bank0
  3424     05ED  140C               	bsf	12,0	;volatile
  3425     05EE                     l2183:
  3426                           
  3427                           ;main.c: 331: for(j = 0 ; j < intvl ; j++){
  3428     05EE  01E2               	clrf	main@j
  3429     05EF  01E3               	clrf	main@j+1
  3430     05F0  2DF7               	goto	l169
  3431     05F1                     l170:
  3432                           
  3433                           ;main.c: 332: _delay((unsigned long)((1)*(4000000/4000000.0)));
  3434     05F1  0000               	nop
  3435     05F2                     l2185:
  3436     05F2  3001               	movlw	1
  3437     05F3  0020               	movlb	0	; select bank0
  3438     05F4  07E2               	addwf	main@j,f
  3439     05F5  3000               	movlw	0
  3440     05F6  3DE3               	addwfc	main@j+1,f
  3441     05F7                     l169:
  3442     05F7  0863               	movf	main@j+1,w
  3443     05F8  3A80               	xorlw	128
  3444     05F9  00A5               	movwf	??_main
  3445     05FA  0861               	movf	main@intvl+1,w
  3446     05FB  3A80               	xorlw	128
  3447     05FC  0225               	subwf	??_main,w
  3448     05FD  1D03               	skipz
  3449     05FE  2E01               	goto	u1865
  3450     05FF  0860               	movf	main@intvl,w
  3451     0600  0262               	subwf	main@j,w
  3452     0601                     u1865:
  3453     0601  1C03               	skipc
  3454     0602  2E04               	goto	u1861
  3455     0603  2E05               	goto	u1860
  3456     0604                     u1861:
  3457     0604  2DF1               	goto	l170
  3458     0605                     u1860:
  3459     0605                     l171:
  3460                           
  3461                           ;main.c: 333: };main.c: 334: RA0 = 0;
  3462     0605  0020               	movlb	0	; select bank0
  3463     0606  100C               	bcf	12,0	;volatile
  3464     0607                     l2187:
  3465                           
  3466                           ;main.c: 335: for(j = 0 ; j < intvl ; j++){
  3467     0607  01E2               	clrf	main@j
  3468     0608  01E3               	clrf	main@j+1
  3469     0609  2E10               	goto	l172
  3470     060A                     l173:
  3471                           
  3472                           ;main.c: 336: _delay((unsigned long)((1)*(4000000/4000000.0)));
  3473     060A  0000               	nop
  3474     060B                     l2189:
  3475     060B  3001               	movlw	1
  3476     060C  0020               	movlb	0	; select bank0
  3477     060D  07E2               	addwf	main@j,f
  3478     060E  3000               	movlw	0
  3479     060F  3DE3               	addwfc	main@j+1,f
  3480     0610                     l172:
  3481     0610  0863               	movf	main@j+1,w
  3482     0611  3A80               	xorlw	128
  3483     0612  00A5               	movwf	??_main
  3484     0613  0861               	movf	main@intvl+1,w
  3485     0614  3A80               	xorlw	128
  3486     0615  0225               	subwf	??_main,w
  3487     0616  1D03               	skipz
  3488     0617  2E1A               	goto	u1875
  3489     0618  0860               	movf	main@intvl,w
  3490     0619  0262               	subwf	main@j,w
  3491     061A                     u1875:
  3492     061A  1C03               	skipc
  3493     061B  2E1D               	goto	u1871
  3494     061C  2E1E               	goto	u1870
  3495     061D                     u1871:
  3496     061D  2E0A               	goto	l173
  3497     061E                     u1870:
  3498     061E                     l174:
  3499                           
  3500                           ;main.c: 337: };main.c: 339: if(RB0 == 0){
  3501     061E  0020               	movlb	0	; select bank0
  3502     061F  180D               	btfsc	13,0	;volatile
  3503     0620  2E22               	goto	u1881
  3504     0621  2E23               	goto	u1880
  3505     0622                     u1881:
  3506     0622  2E24               	goto	l2193
  3507     0623                     u1880:
  3508     0623  2E35               	goto	l2195
  3509     0624                     l2193:
  3510     0624  3001               	movlw	1
  3511     0625  07DE               	addwf	main@k,f
  3512     0626  3000               	movlw	0
  3513     0627  3DDF               	addwfc	main@k+1,f
  3514     0628  085F               	movf	main@k+1,w
  3515     0629  3A80               	xorlw	128
  3516     062A  00A5               	movwf	??_main
  3517     062B  30A7               	movlw	167
  3518     062C  0225               	subwf	??_main,w
  3519     062D  1D03               	skipz
  3520     062E  2E31               	goto	u1895
  3521     062F  3010               	movlw	16
  3522     0630  025E               	subwf	main@k,w
  3523     0631                     u1895:
  3524     0631  1C03               	skipc
  3525     0632  2E34               	goto	u1891
  3526     0633  2E35               	goto	u1890
  3527     0634                     u1891:
  3528     0634  2DEC               	goto	l167
  3529     0635                     u1890:
  3530     0635                     l2195:
  3531                           
  3532                           ;main.c: 341: };main.c: 343: };main.c: 345: for(k = 0 ; k < dist ; k++){
  3533     0635  0020               	movlb	0	; select bank0
  3534     0636  01DE               	clrf	main@k
  3535     0637  01DF               	clrf	main@k+1
  3536     0638  2E70               	goto	l176
  3537     0639                     l177:
  3538                           
  3539                           ;main.c: 346: RA1 = 1;
  3540     0639  0020               	movlb	0	; select bank0
  3541     063A  148C               	bsf	12,1	;volatile
  3542     063B                     l2197:
  3543                           
  3544                           ;main.c: 347: for(j = 0 ; j < intvl ; j++){
  3545     063B  01E2               	clrf	main@j
  3546     063C  01E3               	clrf	main@j+1
  3547     063D  2E44               	goto	l178
  3548     063E                     l179:
  3549                           
  3550                           ;main.c: 348: _delay((unsigned long)((1)*(4000000/4000000.0)));
  3551     063E  0000               	nop
  3552     063F                     l2199:
  3553     063F  3001               	movlw	1
  3554     0640  0020               	movlb	0	; select bank0
  3555     0641  07E2               	addwf	main@j,f
  3556     0642  3000               	movlw	0
  3557     0643  3DE3               	addwfc	main@j+1,f
  3558     0644                     l178:
  3559     0644  0863               	movf	main@j+1,w
  3560     0645  3A80               	xorlw	128
  3561     0646  00A5               	movwf	??_main
  3562     0647  0861               	movf	main@intvl+1,w
  3563     0648  3A80               	xorlw	128
  3564     0649  0225               	subwf	??_main,w
  3565     064A  1D03               	skipz
  3566     064B  2E4E               	goto	u1905
  3567     064C  0860               	movf	main@intvl,w
  3568     064D  0262               	subwf	main@j,w
  3569     064E                     u1905:
  3570     064E  1C03               	skipc
  3571     064F  2E51               	goto	u1901
  3572     0650  2E52               	goto	u1900
  3573     0651                     u1901:
  3574     0651  2E3E               	goto	l179
  3575     0652                     u1900:
  3576     0652                     l180:
  3577                           
  3578                           ;main.c: 349: };main.c: 350: RA1 = 0;
  3579     0652  0020               	movlb	0	; select bank0
  3580     0653  108C               	bcf	12,1	;volatile
  3581     0654                     l2201:
  3582                           
  3583                           ;main.c: 351: for(j = 0 ; j < intvl ; j++){
  3584     0654  01E2               	clrf	main@j
  3585     0655  01E3               	clrf	main@j+1
  3586     0656  2E5D               	goto	l181
  3587     0657                     l182:
  3588                           
  3589                           ;main.c: 352: _delay((unsigned long)((1)*(4000000/4000000.0)));
  3590     0657  0000               	nop
  3591     0658                     l2203:
  3592     0658  3001               	movlw	1
  3593     0659  0020               	movlb	0	; select bank0
  3594     065A  07E2               	addwf	main@j,f
  3595     065B  3000               	movlw	0
  3596     065C  3DE3               	addwfc	main@j+1,f
  3597     065D                     l181:
  3598     065D  0863               	movf	main@j+1,w
  3599     065E  3A80               	xorlw	128
  3600     065F  00A5               	movwf	??_main
  3601     0660  0861               	movf	main@intvl+1,w
  3602     0661  3A80               	xorlw	128
  3603     0662  0225               	subwf	??_main,w
  3604     0663  1D03               	skipz
  3605     0664  2E67               	goto	u1915
  3606     0665  0860               	movf	main@intvl,w
  3607     0666  0262               	subwf	main@j,w
  3608     0667                     u1915:
  3609     0667  1C03               	skipc
  3610     0668  2E6A               	goto	u1911
  3611     0669  2E6B               	goto	u1910
  3612     066A                     u1911:
  3613     066A  2E57               	goto	l182
  3614     066B                     u1910:
  3615     066B                     l2205:
  3616     066B  3001               	movlw	1
  3617     066C  0020               	movlb	0	; select bank0
  3618     066D  07DE               	addwf	main@k,f
  3619     066E  3000               	movlw	0
  3620     066F  3DDF               	addwfc	main@k+1,f
  3621     0670                     l176:
  3622     0670  085F               	movf	main@k+1,w
  3623     0671  3A80               	xorlw	128
  3624     0672  00A5               	movwf	??_main
  3625     0673  085C               	movf	main@dist+1,w
  3626     0674  3A80               	xorlw	128
  3627     0675  0225               	subwf	??_main,w
  3628     0676  1D03               	skipz
  3629     0677  2E7A               	goto	u1925
  3630     0678  085B               	movf	main@dist,w
  3631     0679  025E               	subwf	main@k,w
  3632     067A                     u1925:
  3633     067A  1C03               	skipc
  3634     067B  2E7D               	goto	u1921
  3635     067C  2E7E               	goto	u1920
  3636     067D                     u1921:
  3637     067D  2E39               	goto	l177
  3638     067E                     u1920:
  3639     067E                     l2207:
  3640                           
  3641                           ;main.c: 353: };main.c: 354: };main.c: 357: printf("C\tNDO\r\n");
  3642     067E  3048               	movlw	low (STR_33| (0+32768))
  3643     067F  00F1               	movwf	printf@f
  3644     0680  3090               	movlw	high (STR_33| (0+32768))
  3645     0681  00F2               	movwf	printf@f+1
  3646     0682  3180  2006  3181   	fcall	_printf
  3647                           
  3648                           ;main.c: 358: break;
  3649     0685  2988               	goto	l1953
  3650     0686                     l2209:
  3651                           
  3652                           ;main.c: 361: for(k = 0 ; k < 10000 ; k++){
  3653     0686  01DE               	clrf	main@k
  3654     0687  01DF               	clrf	main@k+1
  3655     0688                     l186:
  3656                           
  3657                           ;main.c: 362: RA0 = 1;
  3658     0688  0020               	movlb	0	; select bank0
  3659     0689  140C               	bsf	12,0	;volatile
  3660     068A                     l2215:
  3661                           
  3662                           ;main.c: 363: for(j = 0 ; j < intvl ; j++){
  3663     068A  01E2               	clrf	main@j
  3664     068B  01E3               	clrf	main@j+1
  3665     068C  2E93               	goto	l188
  3666     068D                     l189:
  3667                           
  3668                           ;main.c: 364: _delay((unsigned long)((1)*(4000000/4000000.0)));
  3669     068D  0000               	nop
  3670     068E                     l2217:
  3671     068E  3001               	movlw	1
  3672     068F  0020               	movlb	0	; select bank0
  3673     0690  07E2               	addwf	main@j,f
  3674     0691  3000               	movlw	0
  3675     0692  3DE3               	addwfc	main@j+1,f
  3676     0693                     l188:
  3677     0693  0863               	movf	main@j+1,w
  3678     0694  3A80               	xorlw	128
  3679     0695  00A5               	movwf	??_main
  3680     0696  0861               	movf	main@intvl+1,w
  3681     0697  3A80               	xorlw	128
  3682     0698  0225               	subwf	??_main,w
  3683     0699  1D03               	skipz
  3684     069A  2E9D               	goto	u1935
  3685     069B  0860               	movf	main@intvl,w
  3686     069C  0262               	subwf	main@j,w
  3687     069D                     u1935:
  3688     069D  1C03               	skipc
  3689     069E  2EA0               	goto	u1931
  3690     069F  2EA1               	goto	u1930
  3691     06A0                     u1931:
  3692     06A0  2E8D               	goto	l189
  3693     06A1                     u1930:
  3694     06A1                     l190:
  3695                           
  3696                           ;main.c: 365: };main.c: 366: RA0 = 0;
  3697     06A1  0020               	movlb	0	; select bank0
  3698     06A2  100C               	bcf	12,0	;volatile
  3699     06A3                     l2219:
  3700                           
  3701                           ;main.c: 367: for(j = 0 ; j < intvl ; j++){
  3702     06A3  01E2               	clrf	main@j
  3703     06A4  01E3               	clrf	main@j+1
  3704     06A5  2EAC               	goto	l191
  3705     06A6                     l192:
  3706                           
  3707                           ;main.c: 368: _delay((unsigned long)((1)*(4000000/4000000.0)));
  3708     06A6  0000               	nop
  3709     06A7                     l2221:
  3710     06A7  3001               	movlw	1
  3711     06A8  0020               	movlb	0	; select bank0
  3712     06A9  07E2               	addwf	main@j,f
  3713     06AA  3000               	movlw	0
  3714     06AB  3DE3               	addwfc	main@j+1,f
  3715     06AC                     l191:
  3716     06AC  0863               	movf	main@j+1,w
  3717     06AD  3A80               	xorlw	128
  3718     06AE  00A5               	movwf	??_main
  3719     06AF  0861               	movf	main@intvl+1,w
  3720     06B0  3A80               	xorlw	128
  3721     06B1  0225               	subwf	??_main,w
  3722     06B2  1D03               	skipz
  3723     06B3  2EB6               	goto	u1945
  3724     06B4  0860               	movf	main@intvl,w
  3725     06B5  0262               	subwf	main@j,w
  3726     06B6                     u1945:
  3727     06B6  1C03               	skipc
  3728     06B7  2EB9               	goto	u1941
  3729     06B8  2EBA               	goto	u1940
  3730     06B9                     u1941:
  3731     06B9  2EA6               	goto	l192
  3732     06BA                     u1940:
  3733     06BA                     l193:
  3734                           
  3735                           ;main.c: 369: };main.c: 371: if(RB0 == 0){
  3736     06BA  0020               	movlb	0	; select bank0
  3737     06BB  180D               	btfsc	13,0	;volatile
  3738     06BC  2EBE               	goto	u1951
  3739     06BD  2EBF               	goto	u1950
  3740     06BE                     u1951:
  3741     06BE  2EC0               	goto	l2225
  3742     06BF                     u1950:
  3743     06BF  2ED1               	goto	l2227
  3744     06C0                     l2225:
  3745     06C0  3001               	movlw	1
  3746     06C1  07DE               	addwf	main@k,f
  3747     06C2  3000               	movlw	0
  3748     06C3  3DDF               	addwfc	main@k+1,f
  3749     06C4  085F               	movf	main@k+1,w
  3750     06C5  3A80               	xorlw	128
  3751     06C6  00A5               	movwf	??_main
  3752     06C7  30A7               	movlw	167
  3753     06C8  0225               	subwf	??_main,w
  3754     06C9  1D03               	skipz
  3755     06CA  2ECD               	goto	u1965
  3756     06CB  3010               	movlw	16
  3757     06CC  025E               	subwf	main@k,w
  3758     06CD                     u1965:
  3759     06CD  1C03               	skipc
  3760     06CE  2ED0               	goto	u1961
  3761     06CF  2ED1               	goto	u1960
  3762     06D0                     u1961:
  3763     06D0  2E88               	goto	l186
  3764     06D1                     u1960:
  3765     06D1                     l2227:
  3766                           
  3767                           ;main.c: 373: };main.c: 374: };main.c: 376: for(k = 0 ; k < npd ; k++){
  3768     06D1  0020               	movlb	0	; select bank0
  3769     06D2  01DE               	clrf	main@k
  3770     06D3  01DF               	clrf	main@k+1
  3771     06D4  2F0C               	goto	l195
  3772     06D5                     l196:
  3773                           
  3774                           ;main.c: 377: RA1 = 1;
  3775     06D5  0020               	movlb	0	; select bank0
  3776     06D6  148C               	bsf	12,1	;volatile
  3777     06D7                     l2229:
  3778                           
  3779                           ;main.c: 378: for(j = 0 ; j < intvl ; j++){
  3780     06D7  01E2               	clrf	main@j
  3781     06D8  01E3               	clrf	main@j+1
  3782     06D9  2EE0               	goto	l197
  3783     06DA                     l198:
  3784                           
  3785                           ;main.c: 379: _delay((unsigned long)((1)*(4000000/4000000.0)));
  3786     06DA  0000               	nop
  3787     06DB                     l2231:
  3788     06DB  3001               	movlw	1
  3789     06DC  0020               	movlb	0	; select bank0
  3790     06DD  07E2               	addwf	main@j,f
  3791     06DE  3000               	movlw	0
  3792     06DF  3DE3               	addwfc	main@j+1,f
  3793     06E0                     l197:
  3794     06E0  0863               	movf	main@j+1,w
  3795     06E1  3A80               	xorlw	128
  3796     06E2  00A5               	movwf	??_main
  3797     06E3  0861               	movf	main@intvl+1,w
  3798     06E4  3A80               	xorlw	128
  3799     06E5  0225               	subwf	??_main,w
  3800     06E6  1D03               	skipz
  3801     06E7  2EEA               	goto	u1975
  3802     06E8  0860               	movf	main@intvl,w
  3803     06E9  0262               	subwf	main@j,w
  3804     06EA                     u1975:
  3805     06EA  1C03               	skipc
  3806     06EB  2EED               	goto	u1971
  3807     06EC  2EEE               	goto	u1970
  3808     06ED                     u1971:
  3809     06ED  2EDA               	goto	l198
  3810     06EE                     u1970:
  3811     06EE                     l199:
  3812                           
  3813                           ;main.c: 380: };main.c: 381: RA1 = 0;
  3814     06EE  0020               	movlb	0	; select bank0
  3815     06EF  108C               	bcf	12,1	;volatile
  3816     06F0                     l2233:
  3817                           
  3818                           ;main.c: 382: for(j = 0 ; j < intvl ; j++){
  3819     06F0  01E2               	clrf	main@j
  3820     06F1  01E3               	clrf	main@j+1
  3821     06F2  2EF9               	goto	l200
  3822     06F3                     l201:
  3823                           
  3824                           ;main.c: 383: _delay((unsigned long)((1)*(4000000/4000000.0)));
  3825     06F3  0000               	nop
  3826     06F4                     l2235:
  3827     06F4  3001               	movlw	1
  3828     06F5  0020               	movlb	0	; select bank0
  3829     06F6  07E2               	addwf	main@j,f
  3830     06F7  3000               	movlw	0
  3831     06F8  3DE3               	addwfc	main@j+1,f
  3832     06F9                     l200:
  3833     06F9  0863               	movf	main@j+1,w
  3834     06FA  3A80               	xorlw	128
  3835     06FB  00A5               	movwf	??_main
  3836     06FC  0861               	movf	main@intvl+1,w
  3837     06FD  3A80               	xorlw	128
  3838     06FE  0225               	subwf	??_main,w
  3839     06FF  1D03               	skipz
  3840     0700  2F03               	goto	u1985
  3841     0701  0860               	movf	main@intvl,w
  3842     0702  0262               	subwf	main@j,w
  3843     0703                     u1985:
  3844     0703  1C03               	skipc
  3845     0704  2F06               	goto	u1981
  3846     0705  2F07               	goto	u1980
  3847     0706                     u1981:
  3848     0706  2EF3               	goto	l201
  3849     0707                     u1980:
  3850     0707                     l2237:
  3851     0707  3001               	movlw	1
  3852     0708  0020               	movlb	0	; select bank0
  3853     0709  07DE               	addwf	main@k,f
  3854     070A  3000               	movlw	0
  3855     070B  3DDF               	addwfc	main@k+1,f
  3856     070C                     l195:
  3857     070C  085F               	movf	main@k+1,w
  3858     070D  3A80               	xorlw	128
  3859     070E  00A5               	movwf	??_main
  3860     070F  0853               	movf	main@npd+1,w
  3861     0710  3A80               	xorlw	128
  3862     0711  0225               	subwf	??_main,w
  3863     0712  1D03               	skipz
  3864     0713  2F16               	goto	u1995
  3865     0714  0852               	movf	main@npd,w
  3866     0715  025E               	subwf	main@k,w
  3867     0716                     u1995:
  3868     0716  1C03               	skipc
  3869     0717  2F19               	goto	u1991
  3870     0718  2F1A               	goto	u1990
  3871     0719                     u1991:
  3872     0719  2ED5               	goto	l196
  3873     071A                     u1990:
  3874     071A                     l2239:
  3875                           
  3876                           ;main.c: 384: };main.c: 385: };main.c: 388: printf("C\tNDD\r\n");
  3877     071A  3028               	movlw	low (STR_34| (0+32768))
  3878     071B  00F1               	movwf	printf@f
  3879     071C  3090               	movlw	high (STR_34| (0+32768))
  3880     071D  00F2               	movwf	printf@f+1
  3881     071E  3180  2006  3181   	fcall	_printf
  3882                           
  3883                           ;main.c: 389: break;
  3884     0721  2988               	goto	l1953
  3885     0722                     l2241:
  3886                           
  3887                           ;main.c: 393: for(k = 0 ; k < nsp ; k++){
  3888     0722  01DE               	clrf	main@k
  3889     0723  01DF               	clrf	main@k+1
  3890     0724  2F5C               	goto	l205
  3891     0725                     l206:
  3892                           
  3893                           ;main.c: 394: RA1 = 1;
  3894     0725  0020               	movlb	0	; select bank0
  3895     0726  148C               	bsf	12,1	;volatile
  3896     0727                     l2243:
  3897                           
  3898                           ;main.c: 395: for(j = 0 ; j < intvl ; j++){
  3899     0727  01E2               	clrf	main@j
  3900     0728  01E3               	clrf	main@j+1
  3901     0729  2F30               	goto	l207
  3902     072A                     l208:
  3903                           
  3904                           ;main.c: 396: _delay((unsigned long)((1)*(4000000/4000000.0)));
  3905     072A  0000               	nop
  3906     072B                     l2245:
  3907     072B  3001               	movlw	1
  3908     072C  0020               	movlb	0	; select bank0
  3909     072D  07E2               	addwf	main@j,f
  3910     072E  3000               	movlw	0
  3911     072F  3DE3               	addwfc	main@j+1,f
  3912     0730                     l207:
  3913     0730  0863               	movf	main@j+1,w
  3914     0731  3A80               	xorlw	128
  3915     0732  00A5               	movwf	??_main
  3916     0733  0861               	movf	main@intvl+1,w
  3917     0734  3A80               	xorlw	128
  3918     0735  0225               	subwf	??_main,w
  3919     0736  1D03               	skipz
  3920     0737  2F3A               	goto	u2005
  3921     0738  0860               	movf	main@intvl,w
  3922     0739  0262               	subwf	main@j,w
  3923     073A                     u2005:
  3924     073A  1C03               	skipc
  3925     073B  2F3D               	goto	u2001
  3926     073C  2F3E               	goto	u2000
  3927     073D                     u2001:
  3928     073D  2F2A               	goto	l208
  3929     073E                     u2000:
  3930     073E                     l209:
  3931                           
  3932                           ;main.c: 397: };main.c: 398: RA1 = 0;
  3933     073E  0020               	movlb	0	; select bank0
  3934     073F  108C               	bcf	12,1	;volatile
  3935     0740                     l2247:
  3936                           
  3937                           ;main.c: 399: for(j = 0 ; j < intvl ; j++){
  3938     0740  01E2               	clrf	main@j
  3939     0741  01E3               	clrf	main@j+1
  3940     0742  2F49               	goto	l210
  3941     0743                     l211:
  3942                           
  3943                           ;main.c: 400: _delay((unsigned long)((1)*(4000000/4000000.0)));
  3944     0743  0000               	nop
  3945     0744                     l2249:
  3946     0744  3001               	movlw	1
  3947     0745  0020               	movlb	0	; select bank0
  3948     0746  07E2               	addwf	main@j,f
  3949     0747  3000               	movlw	0
  3950     0748  3DE3               	addwfc	main@j+1,f
  3951     0749                     l210:
  3952     0749  0863               	movf	main@j+1,w
  3953     074A  3A80               	xorlw	128
  3954     074B  00A5               	movwf	??_main
  3955     074C  0861               	movf	main@intvl+1,w
  3956     074D  3A80               	xorlw	128
  3957     074E  0225               	subwf	??_main,w
  3958     074F  1D03               	skipz
  3959     0750  2F53               	goto	u2015
  3960     0751  0860               	movf	main@intvl,w
  3961     0752  0262               	subwf	main@j,w
  3962     0753                     u2015:
  3963     0753  1C03               	skipc
  3964     0754  2F56               	goto	u2011
  3965     0755  2F57               	goto	u2010
  3966     0756                     u2011:
  3967     0756  2F43               	goto	l211
  3968     0757                     u2010:
  3969     0757                     l2251:
  3970     0757  3001               	movlw	1
  3971     0758  0020               	movlb	0	; select bank0
  3972     0759  07DE               	addwf	main@k,f
  3973     075A  3000               	movlw	0
  3974     075B  3DDF               	addwfc	main@k+1,f
  3975     075C                     l205:
  3976     075C  085F               	movf	main@k+1,w
  3977     075D  3A80               	xorlw	128
  3978     075E  00A5               	movwf	??_main
  3979     075F  0855               	movf	main@nsp+1,w
  3980     0760  3A80               	xorlw	128
  3981     0761  0225               	subwf	??_main,w
  3982     0762  1D03               	skipz
  3983     0763  2F66               	goto	u2025
  3984     0764  0854               	movf	main@nsp,w
  3985     0765  025E               	subwf	main@k,w
  3986     0766                     u2025:
  3987     0766  1C03               	skipc
  3988     0767  2F69               	goto	u2021
  3989     0768  2F6A               	goto	u2020
  3990     0769                     u2021:
  3991     0769  2F25               	goto	l206
  3992     076A                     u2020:
  3993     076A                     l2253:
  3994                           
  3995                           ;main.c: 401: };main.c: 402: };main.c: 405: printf("C\tNSD\r\n");
  3996     076A  3038               	movlw	low (STR_35| (0+32768))
  3997     076B  00F1               	movwf	printf@f
  3998     076C  3090               	movlw	high (STR_35| (0+32768))
  3999     076D  00F2               	movwf	printf@f+1
  4000     076E  3180  2006  3181   	fcall	_printf
  4001                           
  4002                           ;main.c: 406: break;
  4003     0771  2988               	goto	l1953
  4004     0772                     l2255:
  4005                           
  4006                           ;main.c: 409: ptr = strtok((0), "/");
  4007     0772  3098               	movlw	low (STR_15| (0+32768))
  4008     0773  00A0               	movwf	strtok@s2
  4009     0774  3090               	movlw	high (STR_15| (0+32768))
  4010     0775  00A1               	movwf	strtok@s2+1
  4011     0776  0103               	clrw
  4012     0777  318F  27B4  3181   	fcall	_strtok
  4013     077A  0020               	movlb	0	; select bank0
  4014     077B  00DD               	movwf	main@ptr
  4015     077C                     l2257:
  4016                           
  4017                           ;main.c: 410: if(ptr != (0)) {
  4018     077C  085D               	movf	main@ptr,w
  4019     077D  1903               	btfsc	3,2
  4020     077E  2F80               	goto	u2031
  4021     077F  2F81               	goto	u2030
  4022     0780                     u2031:
  4023     0780  2F8A               	goto	l2261
  4024     0781                     u2030:
  4025     0781                     l2259:
  4026                           
  4027                           ;main.c: 411: npd = atoi(ptr);
  4028     0781  085D               	movf	main@ptr,w
  4029     0782  3180  20D6  3181   	fcall	_atoi
  4030     0785  0877               	movf	?_atoi+1,w
  4031     0786  0020               	movlb	0	; select bank0
  4032     0787  00D3               	movwf	main@npd+1
  4033     0788  0876               	movf	?_atoi,w
  4034     0789  00D2               	movwf	main@npd
  4035     078A                     l2261:
  4036                           
  4037                           ;main.c: 412: };main.c: 413: printf("C\tNPD\r\n");
  4038     078A  3030               	movlw	low (STR_37| (0+32768))
  4039     078B  00F1               	movwf	printf@f
  4040     078C  3090               	movlw	high (STR_37| (0+32768))
  4041     078D  00F2               	movwf	printf@f+1
  4042     078E  3180  2006  3181   	fcall	_printf
  4043                           
  4044                           ;main.c: 414: break;
  4045     0791  2988               	goto	l1953
  4046     0792                     l2263:
  4047                           
  4048                           ;main.c: 417: ptr = strtok((0), "/");
  4049     0792  3098               	movlw	low (STR_15| (0+32768))
  4050     0793  00A0               	movwf	strtok@s2
  4051     0794  3090               	movlw	high (STR_15| (0+32768))
  4052     0795  00A1               	movwf	strtok@s2+1
  4053     0796  0103               	clrw
  4054     0797  318F  27B4  3181   	fcall	_strtok
  4055     079A  0020               	movlb	0	; select bank0
  4056     079B  00DD               	movwf	main@ptr
  4057     079C                     l2265:
  4058                           
  4059                           ;main.c: 418: if(ptr != (0)) {
  4060     079C  085D               	movf	main@ptr,w
  4061     079D  1903               	btfsc	3,2
  4062     079E  2FA0               	goto	u2041
  4063     079F  2FA1               	goto	u2040
  4064     07A0                     u2041:
  4065     07A0  2FAA               	goto	l2269
  4066     07A1                     u2040:
  4067     07A1                     l2267:
  4068                           
  4069                           ;main.c: 419: nsp = atoi(ptr);
  4070     07A1  085D               	movf	main@ptr,w
  4071     07A2  3180  20D6  3181   	fcall	_atoi
  4072     07A5  0877               	movf	?_atoi+1,w
  4073     07A6  0020               	movlb	0	; select bank0
  4074     07A7  00D5               	movwf	main@nsp+1
  4075     07A8  0876               	movf	?_atoi,w
  4076     07A9  00D4               	movwf	main@nsp
  4077     07AA                     l2269:
  4078                           
  4079                           ;main.c: 420: };main.c: 421: printf("C\tNSP\r\n");
  4080     07AA  3050               	movlw	low (STR_39| (0+32768))
  4081     07AB  00F1               	movwf	printf@f
  4082     07AC  3090               	movlw	high (STR_39| (0+32768))
  4083     07AD  00F2               	movwf	printf@f+1
  4084     07AE  3180  2006  3181   	fcall	_printf
  4085                           
  4086                           ;main.c: 422: break;
  4087     07B1  2988               	goto	l1953
  4088     07B2                     l2271:
  4089                           
  4090                           ;main.c: 427: DAC1CON1 = 0;
  4091     07B2  0022               	movlb	2	; select bank2
  4092     07B3  0199               	clrf	25	;volatile
  4093                           
  4094                           ;main.c: 428: break;
  4095     07B4  2988               	goto	l1953
  4096     07B5                     l2273:
  4097                           
  4098                           ;main.c: 431: DAC1CON1 = 100;
  4099     07B5  3064               	movlw	100
  4100     07B6  0022               	movlb	2	; select bank2
  4101     07B7  0099               	movwf	25	;volatile
  4102                           
  4103                           ;main.c: 432: break;
  4104     07B8  2988               	goto	l1953
  4105     07B9                     l2275:
  4106                           
  4107                           ;main.c: 435: DAC1CON1 = 200;
  4108     07B9  30C8               	movlw	200
  4109     07BA  0022               	movlb	2	; select bank2
  4110     07BB  0099               	movwf	25	;volatile
  4111                           
  4112                           ;main.c: 436: break;
  4113     07BC  2988               	goto	l1953
  4114     07BD                     l2277:
  4115                           
  4116                           ;main.c: 439: printf("C\tREADY\r\n");
  4117     07BD  300E               	movlw	low (STR_40| (0+32768))
  4118     07BE  00F1               	movwf	printf@f
  4119     07BF  3090               	movlw	high (STR_40| (0+32768))
  4120     07C0  00F2               	movwf	printf@f+1
  4121     07C1  3180  2006  3181   	fcall	_printf
  4122                           
  4123                           ;main.c: 440: break;
  4124     07C4  2988               	goto	l1953
  4125     07C5                     l2279:
  4126                           
  4127                           ;main.c: 443: printf("C\tVERSION 3\r\n");
  4128     07C5  3000               	movlw	low (STR_41| (0+32768))
  4129     07C6  00F1               	movwf	printf@f
  4130     07C7  3090               	movlw	high (STR_41| (0+32768))
  4131     07C8  00F2               	movwf	printf@f+1
  4132     07C9  3180  2006  3181   	fcall	_printf
  4133                           
  4134                           ;main.c: 444: break;
  4135     07CC  2988               	goto	l1953
  4136     07CD                     l2283:
  4137     07CD  0856               	movf	main@cmd,w
  4138                           
  4139                           ; Switch size 1, requested type "simple"
  4140                           ; Number of cases is 14, Range of values is 0 to 13
  4141                           ; switch strategies available:
  4142                           ; Name         Instructions Cycles
  4143                           ; direct_byte           34     6 (fixed)
  4144                           ; simple_byte           43    22 (average)
  4145                           ; jumptable            260     6 (fixed)
  4146                           ;	Chosen strategy is simple_byte
  4147     07CE  3A00               	xorlw	0	; case 0
  4148     07CF  1903               	skipnz
  4149     07D0  2AB3               	goto	l2043
  4150     07D1  3A01               	xorlw	1	; case 1
  4151     07D2  1903               	skipnz
  4152     07D3  2BA1               	goto	l2079
  4153     07D4  3A03               	xorlw	3	; case 2
  4154     07D5  1903               	skipnz
  4155     07D6  2BEF               	goto	l2093
  4156     07D7  3A01               	xorlw	1	; case 3
  4157     07D8  1903               	skipnz
  4158     07D9  2D79               	goto	l2153
  4159     07DA  3A07               	xorlw	7	; case 4
  4160     07DB  1903               	skipnz
  4161     07DC  2DD2               	goto	l2171
  4162     07DD  3A01               	xorlw	1	; case 5
  4163     07DE  1903               	skipnz
  4164     07DF  2E86               	goto	l2209
  4165     07E0  3A03               	xorlw	3	; case 6
  4166     07E1  1903               	skipnz
  4167     07E2  2F72               	goto	l2255
  4168     07E3  3A01               	xorlw	1	; case 7
  4169     07E4  1903               	skipnz
  4170     07E5  2F92               	goto	l2263
  4171     07E6  3A0F               	xorlw	15	; case 8
  4172     07E7  1903               	skipnz
  4173     07E8  2F22               	goto	l2241
  4174     07E9  3A01               	xorlw	1	; case 9
  4175     07EA  1903               	skipnz
  4176     07EB  2FC5               	goto	l2279
  4177     07EC  3A03               	xorlw	3	; case 10
  4178     07ED  1903               	skipnz
  4179     07EE  2FBD               	goto	l2277
  4180     07EF  3A01               	xorlw	1	; case 11
  4181     07F0  1903               	skipnz
  4182     07F1  2FB2               	goto	l2271
  4183     07F2  3A07               	xorlw	7	; case 12
  4184     07F3  1903               	skipnz
  4185     07F4  2FB5               	goto	l2273
  4186     07F5  3A01               	xorlw	1	; case 13
  4187     07F6  1903               	skipnz
  4188     07F7  2FB9               	goto	l2275
  4189     07F8  2988               	goto	l1953
  4190     07F9  3180  2802         	ljmp	start
  4191     07FB                     __end_of_main:
  4192                           
  4193                           	psect	text1
  4194     0FB4                     __ptext1:	
  4195 ;; *************** function _strtok *****************
  4196 ;; Defined at:
  4197 ;;		line 8 in file "C:\Program Files\Microchip\xc8\v2.41\pic\sources\c90\common\strtok.c"
  4198 ;; Parameters:    Size  Location     Type
  4199 ;;  s1              1    wreg     PTR unsigned char 
  4200 ;;		 -> NULL(0), main@tmp(40), 
  4201 ;;  s2              2    0[BANK0 ] PTR const unsigned char 
  4202 ;;		 -> STR_38(2), STR_36(2), STR_32(2), STR_29(2), 
  4203 ;;		 -> STR_28(2), STR_27(2), STR_26(2), STR_25(2), 
  4204 ;;		 -> STR_23(2), STR_22(2), STR_21(2), STR_19(2), 
  4205 ;;		 -> STR_18(2), STR_17(2), STR_16(2), STR_15(2), 
  4206 ;; Auto vars:     Size  Location     Type
  4207 ;;  s1              1    4[BANK0 ] PTR unsigned char 
  4208 ;;		 -> NULL(0), main@tmp(40), 
  4209 ;; Return value:  Size  Location     Type
  4210 ;;                  1    wreg      PTR unsigned char 
  4211 ;; Registers used:
  4212 ;;		wreg, fsr0l, fsr0h, fsr1l, fsr1h, status,2, status,0, pclath, cstack
  4213 ;; Tracked objects:
  4214 ;;		On entry : 0/0
  4215 ;;		On exit  : 0/0
  4216 ;;		Unchanged: 0/0
  4217 ;; Data sizes:     COMMON   BANK0   BANK1   BANK2   BANK3   BANK4   BANK5   BANK6   BANK7   BANK8   BANK9  BANK10  BANK1
      +1  BANK12  BANK13  BANK14  BANK15  BANK16  BANK17  BANK18  BANK19  BANK20  BANK21  BANK22  BANK23  BANK24  BANK25
  4218 ;;      Params:         0       2       0       0       0       0       0       0       0       0       0       0       
      +0       0       0       0       0       0       0       0       0       0       0       0       0       0       0
  4219 ;;      Locals:         0       1       0       0       0       0       0       0       0       0       0       0       
      +0       0       0       0       0       0       0       0       0       0       0       0       0       0       0
  4220 ;;      Temps:          0       2       0       0       0       0       0       0       0       0       0       0       
      +0       0       0       0       0       0       0       0       0       0       0       0       0       0       0
  4221 ;;      Totals:         0       5       0       0       0       0       0       0       0       0       0       0       
      +0       0       0       0       0       0       0       0       0       0       0       0       0       0       0
  4222 ;;Total ram usage:        5 bytes
  4223 ;; Hardware stack levels used: 1
  4224 ;; Hardware stack levels required when called: 2
  4225 ;; This function calls:
  4226 ;;		_strcspn
  4227 ;;		_strspn
  4228 ;; This function is called by:
  4229 ;;		_main
  4230 ;; This function uses a non-reentrant model
  4231 ;;
  4232                           
  4233     0FB4                     _strtok:	
  4234                           ;psect for function _strtok
  4235                           
  4236                           
  4237                           ;incstack = 0
  4238                           ; Regs used in _strtok: [wreg-fsr1h+status,2+status,0+pclath+cstack]
  4239                           ;strtok@s1 stored from wreg
  4240     0FB4  0020               	movlb	0	; select bank0
  4241     0FB5  00A4               	movwf	strtok@s1
  4242     0FB6                     l1791:
  4243     0FB6  0824               	movf	strtok@s1,w
  4244     0FB7  1D03               	btfss	3,2
  4245     0FB8  2FBA               	goto	u1211
  4246     0FB9  2FBB               	goto	u1210
  4247     0FBA                     u1211:
  4248     0FBA  2FBD               	goto	l1795
  4249     0FBB                     u1210:
  4250     0FBB                     l1793:
  4251     0FBB  0864               	movf	strtok@sp,w
  4252     0FBC  00A4               	movwf	strtok@s1
  4253     0FBD                     l1795:
  4254     0FBD  0824               	movf	strtok@s1,w
  4255     0FBE  1D03               	btfss	3,2
  4256     0FBF  2FC1               	goto	u1221
  4257     0FC0  2FC2               	goto	u1220
  4258     0FC1                     u1221:
  4259     0FC1  2FC4               	goto	l1801
  4260     0FC2                     u1220:
  4261     0FC2                     l1797:
  4262     0FC2  3000               	movlw	0
  4263     0FC3  2FFF               	goto	l930
  4264     0FC4                     l1801:
  4265     0FC4  0821               	movf	strtok@s2+1,w
  4266     0FC5  00F8               	movwf	strspn@s2+1
  4267     0FC6  0820               	movf	strtok@s2,w
  4268     0FC7  00F7               	movwf	strspn@s2
  4269     0FC8  0824               	movf	strtok@s1,w
  4270     0FC9  318F  2784  318F   	fcall	_strspn
  4271     0FCC  0877               	movf	?_strspn,w
  4272     0FCD  0020               	movlb	0	; select bank0
  4273     0FCE  00A2               	movwf	??_strtok
  4274     0FCF  0822               	movf	??_strtok,w
  4275     0FD0  07A4               	addwf	strtok@s1,f
  4276     0FD1                     l1803:
  4277     0FD1  0824               	movf	strtok@s1,w
  4278     0FD2  0086               	movwf	6
  4279     0FD3  0187               	clrf	7
  4280     0FD4  0801               	movf	1,w
  4281     0FD5  1D03               	btfss	3,2
  4282     0FD6  2FD8               	goto	u1231
  4283     0FD7  2FD9               	goto	u1230
  4284     0FD8                     u1231:
  4285     0FD8  2FDC               	goto	l1809
  4286     0FD9                     u1230:
  4287     0FD9                     l1805:
  4288     0FD9  01E4               	clrf	strtok@sp
  4289     0FDA  3000               	movlw	0
  4290     0FDB  2FFF               	goto	l930
  4291     0FDC                     l1809:
  4292     0FDC  0821               	movf	strtok@s2+1,w
  4293     0FDD  00F8               	movwf	strcspn@s2+1
  4294     0FDE  0820               	movf	strtok@s2,w
  4295     0FDF  00F7               	movwf	strcspn@s2
  4296     0FE0  0824               	movf	strtok@s1,w
  4297     0FE1  318F  2754  318F   	fcall	_strcspn
  4298     0FE4  0877               	movf	?_strcspn,w
  4299     0FE5  0020               	movlb	0	; select bank0
  4300     0FE6  00A2               	movwf	??_strtok
  4301     0FE7  0878               	movf	?_strcspn+1,w
  4302     0FE8  00A3               	movwf	??_strtok+1
  4303     0FE9  0824               	movf	strtok@s1,w
  4304     0FEA  0722               	addwf	??_strtok,w
  4305     0FEB  00E4               	movwf	strtok@sp
  4306     0FEC                     l1811:
  4307     0FEC  0864               	movf	strtok@sp,w
  4308     0FED  0086               	movwf	6
  4309     0FEE  0187               	clrf	7
  4310     0FEF  0801               	movf	1,w
  4311     0FF0  1903               	btfsc	3,2
  4312     0FF1  2FF3               	goto	u1241
  4313     0FF2  2FF4               	goto	u1240
  4314     0FF3                     u1241:
  4315     0FF3  2FFD               	goto	l1817
  4316     0FF4                     u1240:
  4317     0FF4                     l1813:
  4318     0FF4  0864               	movf	strtok@sp,w
  4319     0FF5  0086               	movwf	6
  4320     0FF6  0187               	clrf	7
  4321     0FF7  0181               	clrf	1
  4322     0FF8                     l1815:
  4323     0FF8  3001               	movlw	1
  4324     0FF9  00A2               	movwf	??_strtok
  4325     0FFA  0822               	movf	??_strtok,w
  4326     0FFB  07E4               	addwf	strtok@sp,f
  4327     0FFC  2FFE               	goto	l1819
  4328     0FFD                     l1817:
  4329     0FFD  01E4               	clrf	strtok@sp
  4330     0FFE                     l1819:
  4331     0FFE  0824               	movf	strtok@s1,w
  4332     0FFF                     l930:
  4333     0FFF  0008               	return
  4334     1000                     __end_of_strtok:
  4335                           
  4336                           	psect	text2
  4337     0F84                     __ptext2:	
  4338 ;; *************** function _strspn *****************
  4339 ;; Defined at:
  4340 ;;		line 4 in file "C:\Program Files\Microchip\xc8\v2.41\pic\sources\c90\common\strspn.c"
  4341 ;; Parameters:    Size  Location     Type
  4342 ;;  s1              1    wreg     PTR const unsigned char 
  4343 ;;		 -> NULL(0), main@tmp(40), 
  4344 ;;  s2              2    7[COMMON] PTR const unsigned char 
  4345 ;;		 -> STR_38(2), STR_36(2), STR_32(2), STR_29(2), 
  4346 ;;		 -> STR_28(2), STR_27(2), STR_26(2), STR_25(2), 
  4347 ;;		 -> STR_23(2), STR_22(2), STR_21(2), STR_19(2), 
  4348 ;;		 -> STR_18(2), STR_17(2), STR_16(2), STR_15(2), 
  4349 ;; Auto vars:     Size  Location     Type
  4350 ;;  s1              1   13[COMMON] PTR const unsigned char 
  4351 ;;		 -> NULL(0), main@tmp(40), 
  4352 ;;  i               2   11[COMMON] unsigned int 
  4353 ;; Return value:  Size  Location     Type
  4354 ;;                  2    7[COMMON] unsigned int 
  4355 ;; Registers used:
  4356 ;;		wreg, fsr0l, fsr0h, fsr1l, fsr1h, status,2, status,0, pclath, cstack
  4357 ;; Tracked objects:
  4358 ;;		On entry : 0/0
  4359 ;;		On exit  : 0/0
  4360 ;;		Unchanged: 0/0
  4361 ;; Data sizes:     COMMON   BANK0   BANK1   BANK2   BANK3   BANK4   BANK5   BANK6   BANK7   BANK8   BANK9  BANK10  BANK1
      +1  BANK12  BANK13  BANK14  BANK15  BANK16  BANK17  BANK18  BANK19  BANK20  BANK21  BANK22  BANK23  BANK24  BANK25
  4362 ;;      Params:         2       0       0       0       0       0       0       0       0       0       0       0       
      +0       0       0       0       0       0       0       0       0       0       0       0       0       0       0
  4363 ;;      Locals:         3       0       0       0       0       0       0       0       0       0       0       0       
      +0       0       0       0       0       0       0       0       0       0       0       0       0       0       0
  4364 ;;      Temps:          2       0       0       0       0       0       0       0       0       0       0       0       
      +0       0       0       0       0       0       0       0       0       0       0       0       0       0       0
  4365 ;;      Totals:         7       0       0       0       0       0       0       0       0       0       0       0       
      +0       0       0       0       0       0       0       0       0       0       0       0       0       0       0
  4366 ;;Total ram usage:        7 bytes
  4367 ;; Hardware stack levels used: 1
  4368 ;; Hardware stack levels required when called: 1
  4369 ;; This function calls:
  4370 ;;		_strchr
  4371 ;; This function is called by:
  4372 ;;		_strtok
  4373 ;; This function uses a non-reentrant model
  4374 ;;
  4375                           
  4376     0F84                     _strspn:	
  4377                           ;psect for function _strspn
  4378                           
  4379                           
  4380                           ;incstack = 0
  4381                           ; Regs used in _strspn: [wreg-fsr1h+status,2+status,0+pclath+cstack]
  4382                           ;strspn@s1 stored from wreg
  4383     0F84  00FD               	movwf	strspn@s1
  4384     0F85                     l1749:
  4385     0F85  01FB               	clrf	strspn@i
  4386     0F86  01FC               	clrf	strspn@i+1
  4387     0F87  2F90               	goto	l1753
  4388     0F88                     l1751:
  4389     0F88  3001               	movlw	1
  4390     0F89  00F9               	movwf	??_strspn
  4391     0F8A  0879               	movf	??_strspn,w
  4392     0F8B  07FD               	addwf	strspn@s1,f
  4393     0F8C  3001               	movlw	1
  4394     0F8D  07FB               	addwf	strspn@i,f
  4395     0F8E  3000               	movlw	0
  4396     0F8F  3DFC               	addwfc	strspn@i+1,f
  4397     0F90                     l1753:
  4398     0F90  087D               	movf	strspn@s1,w
  4399     0F91  0086               	movwf	6
  4400     0F92  0187               	clrf	7
  4401     0F93  0801               	movf	1,w
  4402     0F94  1903               	btfsc	3,2
  4403     0F95  2F97               	goto	u1151
  4404     0F96  2F98               	goto	u1150
  4405     0F97                     u1151:
  4406     0F97  2FAF               	goto	l1757
  4407     0F98                     u1150:
  4408     0F98                     l1755:
  4409     0F98  0878               	movf	strspn@s2+1,w
  4410     0F99  00F1               	movwf	strchr@ptr+1
  4411     0F9A  0877               	movf	strspn@s2,w
  4412     0F9B  00F0               	movwf	strchr@ptr
  4413     0F9C  087D               	movf	strspn@s1,w
  4414     0F9D  0086               	movwf	6
  4415     0F9E  0187               	clrf	7
  4416     0F9F  0801               	movf	1,w
  4417     0FA0  00F9               	movwf	??_strspn
  4418     0FA1  01FA               	clrf	??_strspn+1
  4419     0FA2  0879               	movf	??_strspn,w
  4420     0FA3  00F2               	movwf	strchr@chr
  4421     0FA4  087A               	movf	??_strspn+1,w
  4422     0FA5  00F3               	movwf	strchr@chr+1
  4423     0FA6  318E  26F0  318F   	fcall	_strchr
  4424     0FA9  0870               	movf	?_strchr,w
  4425     0FAA  0471               	iorwf	?_strchr+1,w
  4426     0FAB  1D03               	btfss	3,2
  4427     0FAC  2FAE               	goto	u1161
  4428     0FAD  2FAF               	goto	u1160
  4429     0FAE                     u1161:
  4430     0FAE  2F88               	goto	l1751
  4431     0FAF                     u1160:
  4432     0FAF                     l1757:
  4433     0FAF  087C               	movf	strspn@i+1,w
  4434     0FB0  00F8               	movwf	?_strspn+1
  4435     0FB1  087B               	movf	strspn@i,w
  4436     0FB2  00F7               	movwf	?_strspn
  4437     0FB3                     l959:
  4438     0FB3  0008               	return
  4439     0FB4                     __end_of_strspn:
  4440                           
  4441                           	psect	text3
  4442     0F54                     __ptext3:	
  4443 ;; *************** function _strcspn *****************
  4444 ;; Defined at:
  4445 ;;		line 4 in file "C:\Program Files\Microchip\xc8\v2.41\pic\sources\c90\common\strcspn.c"
  4446 ;; Parameters:    Size  Location     Type
  4447 ;;  s1              1    wreg     PTR const unsigned char 
  4448 ;;		 -> NULL(0), main@tmp(40), 
  4449 ;;  s2              2    7[COMMON] PTR const unsigned char 
  4450 ;;		 -> STR_38(2), STR_36(2), STR_32(2), STR_29(2), 
  4451 ;;		 -> STR_28(2), STR_27(2), STR_26(2), STR_25(2), 
  4452 ;;		 -> STR_23(2), STR_22(2), STR_21(2), STR_19(2), 
  4453 ;;		 -> STR_18(2), STR_17(2), STR_16(2), STR_15(2), 
  4454 ;; Auto vars:     Size  Location     Type
  4455 ;;  s1              1   13[COMMON] PTR const unsigned char 
  4456 ;;		 -> NULL(0), main@tmp(40), 
  4457 ;;  i               2   11[COMMON] unsigned int 
  4458 ;; Return value:  Size  Location     Type
  4459 ;;                  2    7[COMMON] unsigned int 
  4460 ;; Registers used:
  4461 ;;		wreg, fsr0l, fsr0h, fsr1l, fsr1h, status,2, status,0, pclath, cstack
  4462 ;; Tracked objects:
  4463 ;;		On entry : 0/0
  4464 ;;		On exit  : 0/0
  4465 ;;		Unchanged: 0/0
  4466 ;; Data sizes:     COMMON   BANK0   BANK1   BANK2   BANK3   BANK4   BANK5   BANK6   BANK7   BANK8   BANK9  BANK10  BANK1
      +1  BANK12  BANK13  BANK14  BANK15  BANK16  BANK17  BANK18  BANK19  BANK20  BANK21  BANK22  BANK23  BANK24  BANK25
  4467 ;;      Params:         2       0       0       0       0       0       0       0       0       0       0       0       
      +0       0       0       0       0       0       0       0       0       0       0       0       0       0       0
  4468 ;;      Locals:         3       0       0       0       0       0       0       0       0       0       0       0       
      +0       0       0       0       0       0       0       0       0       0       0       0       0       0       0
  4469 ;;      Temps:          2       0       0       0       0       0       0       0       0       0       0       0       
      +0       0       0       0       0       0       0       0       0       0       0       0       0       0       0
  4470 ;;      Totals:         7       0       0       0       0       0       0       0       0       0       0       0       
      +0       0       0       0       0       0       0       0       0       0       0       0       0       0       0
  4471 ;;Total ram usage:        7 bytes
  4472 ;; Hardware stack levels used: 1
  4473 ;; Hardware stack levels required when called: 1
  4474 ;; This function calls:
  4475 ;;		_strchr
  4476 ;; This function is called by:
  4477 ;;		_strtok
  4478 ;; This function uses a non-reentrant model
  4479 ;;
  4480                           
  4481     0F54                     _strcspn:	
  4482                           ;psect for function _strcspn
  4483                           
  4484                           
  4485                           ;incstack = 0
  4486                           ; Regs used in _strcspn: [wreg-fsr1h+status,2+status,0+pclath+cstack]
  4487                           ;strcspn@s1 stored from wreg
  4488     0F54  00FD               	movwf	strcspn@s1
  4489     0F55                     l1761:
  4490     0F55  01FB               	clrf	strcspn@i
  4491     0F56  01FC               	clrf	strcspn@i+1
  4492     0F57  2F60               	goto	l1765
  4493     0F58                     l1763:
  4494     0F58  3001               	movlw	1
  4495     0F59  00F9               	movwf	??_strcspn
  4496     0F5A  0879               	movf	??_strcspn,w
  4497     0F5B  07FD               	addwf	strcspn@s1,f
  4498     0F5C  3001               	movlw	1
  4499     0F5D  07FB               	addwf	strcspn@i,f
  4500     0F5E  3000               	movlw	0
  4501     0F5F  3DFC               	addwfc	strcspn@i+1,f
  4502     0F60                     l1765:
  4503     0F60  087D               	movf	strcspn@s1,w
  4504     0F61  0086               	movwf	6
  4505     0F62  0187               	clrf	7
  4506     0F63  0801               	movf	1,w
  4507     0F64  1903               	btfsc	3,2
  4508     0F65  2F67               	goto	u1171
  4509     0F66  2F68               	goto	u1170
  4510     0F67                     u1171:
  4511     0F67  2F7F               	goto	l1769
  4512     0F68                     u1170:
  4513     0F68                     l1767:
  4514     0F68  0878               	movf	strcspn@s2+1,w
  4515     0F69  00F1               	movwf	strchr@ptr+1
  4516     0F6A  0877               	movf	strcspn@s2,w
  4517     0F6B  00F0               	movwf	strchr@ptr
  4518     0F6C  087D               	movf	strcspn@s1,w
  4519     0F6D  0086               	movwf	6
  4520     0F6E  0187               	clrf	7
  4521     0F6F  0801               	movf	1,w
  4522     0F70  00F9               	movwf	??_strcspn
  4523     0F71  01FA               	clrf	??_strcspn+1
  4524     0F72  0879               	movf	??_strcspn,w
  4525     0F73  00F2               	movwf	strchr@chr
  4526     0F74  087A               	movf	??_strcspn+1,w
  4527     0F75  00F3               	movwf	strchr@chr+1
  4528     0F76  318E  26F0  318F   	fcall	_strchr
  4529     0F79  0870               	movf	?_strchr,w
  4530     0F7A  0471               	iorwf	?_strchr+1,w
  4531     0F7B  1903               	btfsc	3,2
  4532     0F7C  2F7E               	goto	u1181
  4533     0F7D  2F7F               	goto	u1180
  4534     0F7E                     u1181:
  4535     0F7E  2F58               	goto	l1763
  4536     0F7F                     u1180:
  4537     0F7F                     l1769:
  4538     0F7F  087C               	movf	strcspn@i+1,w
  4539     0F80  00F8               	movwf	?_strcspn+1
  4540     0F81  087B               	movf	strcspn@i,w
  4541     0F82  00F7               	movwf	?_strcspn
  4542     0F83                     l943:
  4543     0F83  0008               	return
  4544     0F84                     __end_of_strcspn:
  4545                           
  4546                           	psect	text4
  4547     0EF0                     __ptext4:	
  4548 ;; *************** function _strchr *****************
  4549 ;; Defined at:
  4550 ;;		line 4 in file "C:\Program Files\Microchip\xc8\v2.41\pic\sources\c90\common\strchr.c"
  4551 ;; Parameters:    Size  Location     Type
  4552 ;;  ptr             2    0[COMMON] PTR const unsigned char 
  4553 ;;		 -> STR_38(2), STR_36(2), STR_32(2), STR_29(2), 
  4554 ;;		 -> STR_28(2), STR_27(2), STR_26(2), STR_25(2), 
  4555 ;;		 -> STR_23(2), STR_22(2), STR_21(2), STR_19(2), 
  4556 ;;		 -> STR_18(2), STR_17(2), STR_16(2), STR_15(2), 
  4557 ;;  chr             2    2[COMMON] int 
  4558 ;; Auto vars:     Size  Location     Type
  4559 ;;		None
  4560 ;; Return value:  Size  Location     Type
  4561 ;;                  2    0[COMMON] PTR unsigned char 
  4562 ;; Registers used:
  4563 ;;		wreg, fsr0l, fsr0h, status,2, status,0, pclath
  4564 ;; Tracked objects:
  4565 ;;		On entry : 0/0
  4566 ;;		On exit  : 0/0
  4567 ;;		Unchanged: 0/0
  4568 ;; Data sizes:     COMMON   BANK0   BANK1   BANK2   BANK3   BANK4   BANK5   BANK6   BANK7   BANK8   BANK9  BANK10  BANK1
      +1  BANK12  BANK13  BANK14  BANK15  BANK16  BANK17  BANK18  BANK19  BANK20  BANK21  BANK22  BANK23  BANK24  BANK25
  4569 ;;      Params:         4       0       0       0       0       0       0       0       0       0       0       0       
      +0       0       0       0       0       0       0       0       0       0       0       0       0       0       0
  4570 ;;      Locals:         0       0       0       0       0       0       0       0       0       0       0       0       
      +0       0       0       0       0       0       0       0       0       0       0       0       0       0       0
  4571 ;;      Temps:          3       0       0       0       0       0       0       0       0       0       0       0       
      +0       0       0       0       0       0       0       0       0       0       0       0       0       0       0
  4572 ;;      Totals:         7       0       0       0       0       0       0       0       0       0       0       0       
      +0       0       0       0       0       0       0       0       0       0       0       0       0       0       0
  4573 ;;Total ram usage:        7 bytes
  4574 ;; Hardware stack levels used: 1
  4575 ;; This function calls:
  4576 ;;		Nothing
  4577 ;; This function is called by:
  4578 ;;		_strcspn
  4579 ;;		_strspn
  4580 ;; This function uses a non-reentrant model
  4581 ;;
  4582                           
  4583     0EF0                     _strchr:	
  4584                           ;psect for function _strchr
  4585                           
  4586     0EF0                     l946:	
  4587                           ;incstack = 0
  4588                           ; Regs used in _strchr: [wreg-fsr0h+status,2+status,0+pclath]
  4589                           
  4590     0EF0                     l1679:
  4591     0EF0  0870               	movf	strchr@ptr,w
  4592     0EF1  0084               	movwf	4
  4593     0EF2  0871               	movf	strchr@ptr+1,w
  4594     0EF3  0085               	movwf	5
  4595     0EF4  0800               	movf	0,w	;code access
  4596     0EF5  0672               	xorwf	strchr@chr,w
  4597     0EF6  1D03               	skipz
  4598     0EF7  2EF9               	goto	u1051
  4599     0EF8  2EFA               	goto	u1050
  4600     0EF9                     u1051:
  4601     0EF9  2EFB               	goto	l1683
  4602     0EFA                     u1050:
  4603     0EFA                     l1681:
  4604     0EFA  2F0D               	goto	l948
  4605     0EFB                     l1683:
  4606     0EFB  0871               	movf	strchr@ptr+1,w
  4607     0EFC  00F5               	movwf	??_strchr+1
  4608     0EFD  0870               	movf	strchr@ptr,w
  4609     0EFE  00F4               	movwf	??_strchr
  4610     0EFF  0AF0               	incf	strchr@ptr,f
  4611     0F00  1903               	skipnz
  4612     0F01  0AF1               	incf	strchr@ptr+1,f
  4613     0F02  0874               	movf	??_strchr,w
  4614     0F03  0084               	movwf	4
  4615     0F04  0875               	movf	??_strchr+1,w
  4616     0F05  0085               	movwf	5
  4617     0F06  0012               	moviw fsr0++
  4618     0F07  1D03               	btfss	3,2
  4619     0F08  2F0A               	goto	u1061
  4620     0F09  2F0B               	goto	u1060
  4621     0F0A                     u1061:
  4622     0F0A  2EF0               	goto	l946
  4623     0F0B                     u1060:
  4624     0F0B                     l1685:
  4625     0F0B  01F0               	clrf	?_strchr
  4626     0F0C  01F1               	clrf	?_strchr+1
  4627     0F0D                     l948:
  4628     0F0D  0008               	return
  4629     0F0E                     __end_of_strchr:
  4630                           
  4631                           	psect	text5
  4632     0F2D                     __ptext5:	
  4633 ;; *************** function _strcmp *****************
  4634 ;; Defined at:
  4635 ;;		line 33 in file "C:\Program Files\Microchip\xc8\v2.41\pic\sources\c90\common\strcmp.c"
  4636 ;; Parameters:    Size  Location     Type
  4637 ;;  s1              1    wreg     PTR const unsigned char 
  4638 ;;		 -> main@rcmd(4), 
  4639 ;;  s2              2    0[COMMON] PTR const unsigned char 
  4640 ;;		 -> STR_14(4), STR_13(4), STR_12(4), STR_11(4), 
  4641 ;;		 -> STR_10(4), STR_9(4), STR_8(4), STR_7(4), 
  4642 ;;		 -> STR_6(4), STR_5(4), STR_4(4), STR_3(4), 
  4643 ;;		 -> STR_2(4), STR_1(4), 
  4644 ;; Auto vars:     Size  Location     Type
  4645 ;;  s1              1    4[COMMON] PTR const unsigned char 
  4646 ;;		 -> main@rcmd(4), 
  4647 ;;  r               1    3[COMMON] char 
  4648 ;; Return value:  Size  Location     Type
  4649 ;;                  2    0[COMMON] int 
  4650 ;; Registers used:
  4651 ;;		wreg, fsr0l, fsr0h, fsr1l, fsr1h, status,2, status,0, pclath
  4652 ;; Tracked objects:
  4653 ;;		On entry : 0/0
  4654 ;;		On exit  : 0/0
  4655 ;;		Unchanged: 0/0
  4656 ;; Data sizes:     COMMON   BANK0   BANK1   BANK2   BANK3   BANK4   BANK5   BANK6   BANK7   BANK8   BANK9  BANK10  BANK1
      +1  BANK12  BANK13  BANK14  BANK15  BANK16  BANK17  BANK18  BANK19  BANK20  BANK21  BANK22  BANK23  BANK24  BANK25
  4657 ;;      Params:         2       0       0       0       0       0       0       0       0       0       0       0       
      +0       0       0       0       0       0       0       0       0       0       0       0       0       0       0
  4658 ;;      Locals:         2       0       0       0       0       0       0       0       0       0       0       0       
      +0       0       0       0       0       0       0       0       0       0       0       0       0       0       0
  4659 ;;      Temps:          1       0       0       0       0       0       0       0       0       0       0       0       
      +0       0       0       0       0       0       0       0       0       0       0       0       0       0       0
  4660 ;;      Totals:         5       0       0       0       0       0       0       0       0       0       0       0       
      +0       0       0       0       0       0       0       0       0       0       0       0       0       0       0
  4661 ;;Total ram usage:        5 bytes
  4662 ;; Hardware stack levels used: 1
  4663 ;; This function calls:
  4664 ;;		Nothing
  4665 ;; This function is called by:
  4666 ;;		_main
  4667 ;; This function uses a non-reentrant model
  4668 ;;
  4669                           
  4670     0F2D                     _strcmp:	
  4671                           ;psect for function _strcmp
  4672                           
  4673                           
  4674                           ;incstack = 0
  4675                           ; Regs used in _strcmp: [wreg-fsr1h+status,2+status,0+pclath]
  4676                           ;strcmp@s1 stored from wreg
  4677     0F2D  00F4               	movwf	strcmp@s1
  4678     0F2E                     l1779:
  4679     0F2E  2F37               	goto	l1783
  4680     0F2F                     l1781:
  4681     0F2F  3001               	movlw	1
  4682     0F30  00F2               	movwf	??_strcmp
  4683     0F31  0872               	movf	??_strcmp,w
  4684     0F32  07F4               	addwf	strcmp@s1,f
  4685     0F33  3001               	movlw	1
  4686     0F34  07F0               	addwf	strcmp@s2,f
  4687     0F35  3000               	movlw	0
  4688     0F36  3DF1               	addwfc	strcmp@s2+1,f
  4689     0F37                     l1783:
  4690     0F37  0874               	movf	strcmp@s1,w
  4691     0F38  0086               	movwf	6
  4692     0F39  0187               	clrf	7
  4693     0F3A  0870               	movf	strcmp@s2,w
  4694     0F3B  0084               	movwf	4
  4695     0F3C  0871               	movf	strcmp@s2+1,w
  4696     0F3D  0085               	movwf	5
  4697     0F3E  0800               	movf	0,w	;code access
  4698     0F3F  0201               	subwf	1,w
  4699     0F40  00F3               	movwf	strcmp@r
  4700     0F41  0873               	movf	strcmp@r,w
  4701     0F42  1D03               	btfss	3,2
  4702     0F43  2F45               	goto	u1191
  4703     0F44  2F46               	goto	u1190
  4704     0F45                     u1191:
  4705     0F45  2F4E               	goto	l1787
  4706     0F46                     u1190:
  4707     0F46                     l1785:
  4708     0F46  0874               	movf	strcmp@s1,w
  4709     0F47  0086               	movwf	6
  4710     0F48  0187               	clrf	7
  4711     0F49  0801               	movf	1,w
  4712     0F4A  1D03               	btfss	3,2
  4713     0F4B  2F4D               	goto	u1201
  4714     0F4C  2F4E               	goto	u1200
  4715     0F4D                     u1201:
  4716     0F4D  2F2F               	goto	l1781
  4717     0F4E                     u1200:
  4718     0F4E                     l1787:
  4719     0F4E  0873               	movf	strcmp@r,w
  4720     0F4F  00F0               	movwf	?_strcmp
  4721     0F50  01F1               	clrf	?_strcmp+1
  4722     0F51  1BF0               	btfsc	?_strcmp,7
  4723     0F52  03F1               	decf	?_strcmp+1,f
  4724     0F53                     l919:
  4725     0F53  0008               	return
  4726     0F54                     __end_of_strcmp:
  4727                           
  4728                           	psect	text6
  4729     0006                     __ptext6:	
  4730 ;; *************** function _printf *****************
  4731 ;; Defined at:
  4732 ;;		line 477 in file "C:\Program Files\Microchip\xc8\v2.41\pic\sources\c90\common\doprnt.c"
  4733 ;; Parameters:    Size  Location     Type
  4734 ;;  f               2    1[COMMON] PTR const unsigned char 
  4735 ;;		 -> STR_41(14), STR_40(10), STR_39(8), STR_37(8), 
  4736 ;;		 -> STR_35(8), STR_34(8), STR_33(8), STR_31(8), 
  4737 ;;		 -> STR_30(8), STR_24(8), STR_20(8), 
  4738 ;; Auto vars:     Size  Location     Type
  4739 ;;  tmpval          4    0        struct .
  4740 ;;  cp              2    0        PTR const unsigned char 
  4741 ;;  len             2    0        unsigned int 
  4742 ;;  val             2    0        unsigned int 
  4743 ;;  c               1    6[COMMON] unsigned char 
  4744 ;;  ap              1    5[COMMON] PTR void [1]
  4745 ;;		 -> ?_printf(2), 
  4746 ;;  flag            1    0        unsigned char 
  4747 ;;  prec            1    0        char 
  4748 ;; Return value:  Size  Location     Type
  4749 ;;                  2    1[COMMON] int 
  4750 ;; Registers used:
  4751 ;;		wreg, fsr0l, fsr0h, status,2, status,0, pclath, cstack
  4752 ;; Tracked objects:
  4753 ;;		On entry : 0/0
  4754 ;;		On exit  : 0/0
  4755 ;;		Unchanged: 0/0
  4756 ;; Data sizes:     COMMON   BANK0   BANK1   BANK2   BANK3   BANK4   BANK5   BANK6   BANK7   BANK8   BANK9  BANK10  BANK1
      +1  BANK12  BANK13  BANK14  BANK15  BANK16  BANK17  BANK18  BANK19  BANK20  BANK21  BANK22  BANK23  BANK24  BANK25
  4757 ;;      Params:         2       0       0       0       0       0       0       0       0       0       0       0       
      +0       0       0       0       0       0       0       0       0       0       0       0       0       0       0
  4758 ;;      Locals:         2       0       0       0       0       0       0       0       0       0       0       0       
      +0       0       0       0       0       0       0       0       0       0       0       0       0       0       0
  4759 ;;      Temps:          2       0       0       0       0       0       0       0       0       0       0       0       
      +0       0       0       0       0       0       0       0       0       0       0       0       0       0       0
  4760 ;;      Totals:         6       0       0       0       0       0       0       0       0       0       0       0       
      +0       0       0       0       0       0       0       0       0       0       0       0       0       0       0
  4761 ;;Total ram usage:        6 bytes
  4762 ;; Hardware stack levels used: 1
  4763 ;; Hardware stack levels required when called: 1
  4764 ;; This function calls:
  4765 ;;		_putch
  4766 ;; This function is called by:
  4767 ;;		_main
  4768 ;; This function uses a non-reentrant model
  4769 ;;
  4770                           
  4771     0006                     _printf:	
  4772                           ;psect for function _printf
  4773                           
  4774     0006                     l1857:	
  4775                           ;incstack = 0
  4776                           ; Regs used in _printf: [wreg-fsr0h+status,2+status,0+pclath+cstack]
  4777                           
  4778                           
  4779                           ;doprnt.c: 479: va_list ap;;doprnt.c: 512: char c;;doprnt.c: 521: signed char prec;;dopr
      +                          nt.c: 525: unsigned char flag;;doprnt.c: 540: union {;doprnt.c: 541: unsigned long vd;;d
      +                          oprnt.c: 542: double integ;;doprnt.c: 543: } tmpval;;doprnt.c: 545: unsigned int val;;do
      +                          prnt.c: 546: unsigned len;;doprnt.c: 547: const char * cp;;doprnt.c: 550: *ap = __va_sta
      +                          rt();
  4780     0006  3073               	movlw	(low ((?_printf| 0+2)))& (0+255)
  4781     0007  00F5               	movwf	printf@ap
  4782                           
  4783                           ;doprnt.c: 553: while((c = *f++)) {
  4784     0008  280D               	goto	l1861
  4785     0009                     l1859:
  4786                           
  4787                           ;doprnt.c: 557: {;doprnt.c: 558: (putch(c) );
  4788     0009  0876               	movf	printf@c,w
  4789     000A  318E  26CA  3180   	fcall	_putch
  4790     000D                     l1861:	
  4791                           ;doprnt.c: 559: continue;
  4792                           
  4793     000D  0872               	movf	printf@f+1,w
  4794     000E  00F4               	movwf	??_printf+1
  4795     000F  0871               	movf	printf@f,w
  4796     0010  00F3               	movwf	??_printf
  4797     0011  0AF1               	incf	printf@f,f
  4798     0012  1903               	skipnz
  4799     0013  0AF2               	incf	printf@f+1,f
  4800     0014  0873               	movf	??_printf,w
  4801     0015  0084               	movwf	4
  4802     0016  0874               	movf	??_printf+1,w
  4803     0017  0085               	movwf	5
  4804     0018  0800               	movf	0,w	;code access
  4805     0019  00F6               	movwf	printf@c
  4806     001A  0876               	movf	printf@c,w
  4807     001B  1D03               	btfss	3,2
  4808     001C  281E               	goto	u1311
  4809     001D  281F               	goto	u1310
  4810     001E                     u1311:
  4811     001E  2809               	goto	l1859
  4812     001F                     u1310:
  4813     001F                     l414:
  4814     001F  0008               	return
  4815     0020                     __end_of_printf:
  4816                           
  4817                           	psect	text7
  4818     0EC2                     __ptext7:	
  4819 ;; *************** function _initUART *****************
  4820 ;; Defined at:
  4821 ;;		line 6 in file "uart.c"
  4822 ;; Parameters:    Size  Location     Type
  4823 ;;		None
  4824 ;; Auto vars:     Size  Location     Type
  4825 ;;		None
  4826 ;; Return value:  Size  Location     Type
  4827 ;;                  1    wreg      void 
  4828 ;; Registers used:
  4829 ;;		wreg
  4830 ;; Tracked objects:
  4831 ;;		On entry : 0/0
  4832 ;;		On exit  : 0/0
  4833 ;;		Unchanged: 0/0
  4834 ;; Data sizes:     COMMON   BANK0   BANK1   BANK2   BANK3   BANK4   BANK5   BANK6   BANK7   BANK8   BANK9  BANK10  BANK1
      +1  BANK12  BANK13  BANK14  BANK15  BANK16  BANK17  BANK18  BANK19  BANK20  BANK21  BANK22  BANK23  BANK24  BANK25
  4835 ;;      Params:         0       0       0       0       0       0       0       0       0       0       0       0       
      +0       0       0       0       0       0       0       0       0       0       0       0       0       0       0
  4836 ;;      Locals:         0       0       0       0       0       0       0       0       0       0       0       0       
      +0       0       0       0       0       0       0       0       0       0       0       0       0       0       0
  4837 ;;      Temps:          0       0       0       0       0       0       0       0       0       0       0       0       
      +0       0       0       0       0       0       0       0       0       0       0       0       0       0       0
  4838 ;;      Totals:         0       0       0       0       0       0       0       0       0       0       0       0       
      +0       0       0       0       0       0       0       0       0       0       0       0       0       0       0
  4839 ;;Total ram usage:        0 bytes
  4840 ;; Hardware stack levels used: 1
  4841 ;; This function calls:
  4842 ;;		Nothing
  4843 ;; This function is called by:
  4844 ;;		_main
  4845 ;; This function uses a non-reentrant model
  4846 ;;
  4847                           
  4848     0EC2                     _initUART:	
  4849                           ;psect for function _initUART
  4850                           
  4851     0EC2                     l1773:	
  4852                           ;incstack = 0
  4853                           ; Regs used in _initUART: [wreg]
  4854                           
  4855                           
  4856                           ;uart.c: 8: SPBRG = ((unsigned char)(((4000000 / 16) / 9600) - 1));
  4857     0EC2  3019               	movlw	25
  4858     0EC3  0023               	movlb	3	; select bank3
  4859     0EC4  009B               	movwf	27	;volatile
  4860                           
  4861                           ;uart.c: 11: RCSTA = 0b10010000;
  4862     0EC5  3090               	movlw	144
  4863     0EC6  009D               	movwf	29	;volatile
  4864                           
  4865                           ;uart.c: 12: TXSTA = 0b00100000;
  4866     0EC7  3020               	movlw	32
  4867     0EC8  009E               	movwf	30	;volatile
  4868     0EC9                     l243:
  4869     0EC9  0008               	return
  4870     0ECA                     __end_of_initUART:
  4871                           
  4872                           	psect	text8
  4873     0EB4                     __ptext8:	
  4874 ;; *************** function _gets *****************
  4875 ;; Defined at:
  4876 ;;		line 10 in file "C:\Program Files\Microchip\xc8\v2.41\pic\sources\c90\common\gets.c"
  4877 ;; Parameters:    Size  Location     Type
  4878 ;;  s               1    wreg     PTR unsigned char 
  4879 ;;		 -> main@tmp(40), 
  4880 ;; Auto vars:     Size  Location     Type
  4881 ;;  s               1   10[COMMON] PTR unsigned char 
  4882 ;;		 -> main@tmp(40), 
  4883 ;; Return value:  Size  Location     Type
  4884 ;;                  1    wreg      PTR unsigned char 
  4885 ;; Registers used:
  4886 ;;		wreg, fsr0l, fsr0h, fsr1l, fsr1h, status,2, status,0, pclath, cstack
  4887 ;; Tracked objects:
  4888 ;;		On entry : 0/0
  4889 ;;		On exit  : 0/0
  4890 ;;		Unchanged: 0/0
  4891 ;; Data sizes:     COMMON   BANK0   BANK1   BANK2   BANK3   BANK4   BANK5   BANK6   BANK7   BANK8   BANK9  BANK10  BANK1
      +1  BANK12  BANK13  BANK14  BANK15  BANK16  BANK17  BANK18  BANK19  BANK20  BANK21  BANK22  BANK23  BANK24  BANK25
  4892 ;;      Params:         0       0       0       0       0       0       0       0       0       0       0       0       
      +0       0       0       0       0       0       0       0       0       0       0       0       0       0       0
  4893 ;;      Locals:         1       0       0       0       0       0       0       0       0       0       0       0       
      +0       0       0       0       0       0       0       0       0       0       0       0       0       0       0
  4894 ;;      Temps:          0       0       0       0       0       0       0       0       0       0       0       0       
      +0       0       0       0       0       0       0       0       0       0       0       0       0       0       0
  4895 ;;      Totals:         1       0       0       0       0       0       0       0       0       0       0       0       
      +0       0       0       0       0       0       0       0       0       0       0       0       0       0       0
  4896 ;;Total ram usage:        1 bytes
  4897 ;; Hardware stack levels used: 1
  4898 ;; Hardware stack levels required when called: 3
  4899 ;; This function calls:
  4900 ;;		_cgets
  4901 ;; This function is called by:
  4902 ;;		_main
  4903 ;; This function uses a non-reentrant model
  4904 ;;
  4905                           
  4906     0EB4                     _gets:	
  4907                           ;psect for function _gets
  4908                           
  4909                           
  4910                           ;incstack = 0
  4911                           ; Regs used in _gets: [wreg-fsr1h+status,2+status,0+pclath+cstack]
  4912                           ;gets@s stored from wreg
  4913     0EB4  00FA               	movwf	gets@s
  4914     0EB5                     l1775:
  4915                           
  4916                           ;	Return value of _gets is never used
  4917     0EB5  087A               	movf	gets@s,w
  4918     0EB6  3180  2020  318E   	fcall	_cgets
  4919     0EB9                     l886:
  4920     0EB9  0008               	return
  4921     0EBA                     __end_of_gets:
  4922                           
  4923                           	psect	text9
  4924     0020                     __ptext9:	
  4925 ;; *************** function _cgets *****************
  4926 ;; Defined at:
  4927 ;;		line 4 in file "C:\Program Files\Microchip\xc8\v2.41\pic\sources\c90\common\cgets.c"
  4928 ;; Parameters:    Size  Location     Type
  4929 ;;  s               1    wreg     PTR unsigned char 
  4930 ;;		 -> main@tmp(40), 
  4931 ;; Auto vars:     Size  Location     Type
  4932 ;;  s               1    8[COMMON] PTR unsigned char 
  4933 ;;		 -> main@tmp(40), 
  4934 ;;  c               2    6[COMMON] int 
  4935 ;;  s1              1    9[COMMON] PTR unsigned char 
  4936 ;;		 -> main@tmp(40), 
  4937 ;; Return value:  Size  Location     Type
  4938 ;;                  1    wreg      PTR unsigned char 
  4939 ;; Registers used:
  4940 ;;		wreg, fsr0l, fsr0h, fsr1l, fsr1h, status,2, status,0, pclath, cstack
  4941 ;; Tracked objects:
  4942 ;;		On entry : 0/0
  4943 ;;		On exit  : 0/0
  4944 ;;		Unchanged: 0/0
  4945 ;; Data sizes:     COMMON   BANK0   BANK1   BANK2   BANK3   BANK4   BANK5   BANK6   BANK7   BANK8   BANK9  BANK10  BANK1
      +1  BANK12  BANK13  BANK14  BANK15  BANK16  BANK17  BANK18  BANK19  BANK20  BANK21  BANK22  BANK23  BANK24  BANK25
  4946 ;;      Params:         2       0       0       0       0       0       0       0       0       0       0       0       
      +0       0       0       0       0       0       0       0       0       0       0       0       0       0       0
  4947 ;;      Locals:         4       0       0       0       0       0       0       0       0       0       0       0       
      +0       0       0       0       0       0       0       0       0       0       0       0       0       0       0
  4948 ;;      Temps:          2       0       0       0       0       0       0       0       0       0       0       0       
      +0       0       0       0       0       0       0       0       0       0       0       0       0       0       0
  4949 ;;      Totals:         8       0       0       0       0       0       0       0       0       0       0       0       
      +0       0       0       0       0       0       0       0       0       0       0       0       0       0       0
  4950 ;;Total ram usage:        8 bytes
  4951 ;; Hardware stack levels used: 1
  4952 ;; Hardware stack levels required when called: 2
  4953 ;; This function calls:
  4954 ;;		_getche
  4955 ;;		_putch
  4956 ;; This function is called by:
  4957 ;;		_gets
  4958 ;; This function uses a non-reentrant model
  4959 ;;
  4960                           
  4961     0020                     _cgets:	
  4962                           ;psect for function _cgets
  4963                           
  4964                           
  4965                           ;incstack = 0
  4966                           ; Regs used in _cgets: [wreg-fsr1h+status,2+status,0+pclath+cstack]
  4967                           ;cgets@s stored from wreg
  4968     0020  00F8               	movwf	cgets@s
  4969     0021                     l1715:
  4970     0021  0878               	movf	cgets@s,w
  4971     0022  00F9               	movwf	cgets@s1
  4972     0023  285A               	goto	l1743
  4973     0024                     l1717:
  4974     0024  0878               	movf	cgets@s,w
  4975     0025  0679               	xorwf	cgets@s1,w
  4976     0026  1D03               	skipz
  4977     0027  2829               	goto	u1131
  4978     0028  282A               	goto	u1130
  4979     0029                     u1131:
  4980     0029  282B               	goto	l1721
  4981     002A                     u1130:
  4982     002A  285A               	goto	l1743
  4983     002B                     l1721:
  4984     002B  3020               	movlw	32
  4985     002C  318E  26CA  3180   	fcall	_putch
  4986     002F  3008               	movlw	8
  4987     0030  318E  26CA  3180   	fcall	_putch
  4988     0033                     l1723:
  4989     0033  3001               	movlw	1
  4990     0034  02F9               	subwf	cgets@s1,f
  4991     0035  285A               	goto	l1743
  4992     0036                     l1725:
  4993     0036  3008               	movlw	8
  4994     0037  318E  26CA  3180   	fcall	_putch
  4995     003A  3020               	movlw	32
  4996     003B  318E  26CA  3180   	fcall	_putch
  4997     003E  3008               	movlw	8
  4998     003F  318E  26CA  3180   	fcall	_putch
  4999     0042                     l1727:
  5000     0042  3001               	movlw	1
  5001     0043  02F9               	subwf	cgets@s1,f
  5002     0044                     l1729:
  5003     0044  0879               	movf	cgets@s1,w
  5004     0045  0278               	subwf	cgets@s,w
  5005     0046  1C03               	skipc
  5006     0047  2849               	goto	u1141
  5007     0048  284A               	goto	u1140
  5008     0049                     u1141:
  5009     0049  2836               	goto	l1725
  5010     004A                     u1140:
  5011     004A  285A               	goto	l1743
  5012     004B                     l1731:
  5013     004B  0879               	movf	cgets@s1,w
  5014     004C  0086               	movwf	6
  5015     004D  0187               	clrf	7
  5016     004E  0181               	clrf	1
  5017     004F                     l1733:
  5018     004F  0878               	movf	cgets@s,w
  5019     0050  2876               	goto	l904
  5020     0051                     l1737:
  5021     0051  0879               	movf	cgets@s1,w
  5022     0052  0086               	movwf	6
  5023     0053  0187               	clrf	7
  5024     0054  0876               	movf	cgets@c,w
  5025     0055  0081               	movwf	1
  5026     0056                     l1739:
  5027     0056  3001               	movlw	1
  5028     0057  00F4               	movwf	??_cgets
  5029     0058  0874               	movf	??_cgets,w
  5030     0059  07F9               	addwf	cgets@s1,f
  5031     005A                     l1743:
  5032     005A  318E  26D4  3180   	fcall	_getche
  5033     005D  00F4               	movwf	??_cgets
  5034     005E  01F5               	clrf	??_cgets+1
  5035     005F  0874               	movf	??_cgets,w
  5036     0060  00F6               	movwf	cgets@c
  5037     0061  0875               	movf	??_cgets+1,w
  5038     0062  00F7               	movwf	cgets@c+1
  5039                           
  5040                           ; Switch on 2 bytes has been partitioned into a top level switch of size 1, and 1 sub-sw
      +                          itches
  5041                           ; Switch size 1, requested type "simple"
  5042                           ; Number of cases is 1, Range of values is 0 to 0
  5043                           ; switch strategies available:
  5044                           ; Name         Instructions Cycles
  5045                           ; simple_byte            4     3 (average)
  5046                           ; direct_byte            8     6 (fixed)
  5047                           ; jumptable            260     6 (fixed)
  5048                           ;	Chosen strategy is simple_byte
  5049     0063  0877               	movf	cgets@c+1,w
  5050     0064  3A00               	xorlw	0	; case 0
  5051     0065  1903               	skipnz
  5052     0066  2868               	goto	l2305
  5053     0067  2851               	goto	l1737
  5054     0068                     l2305:
  5055                           
  5056                           ; Switch size 1, requested type "simple"
  5057                           ; Number of cases is 4, Range of values is 8 to 21
  5058                           ; switch strategies available:
  5059                           ; Name         Instructions Cycles
  5060                           ; simple_byte           13     7 (average)
  5061                           ; direct_byte           37     9 (fixed)
  5062                           ; jumptable            263     9 (fixed)
  5063                           ;	Chosen strategy is simple_byte
  5064     0068  0876               	movf	cgets@c,w
  5065     0069  3A08               	xorlw	8	; case 8
  5066     006A  1903               	skipnz
  5067     006B  2824               	goto	l1717
  5068     006C  3A02               	xorlw	2	; case 10
  5069     006D  1903               	skipnz
  5070     006E  284B               	goto	l1731
  5071     006F  3A07               	xorlw	7	; case 13
  5072     0070  1903               	skipnz
  5073     0071  284B               	goto	l1731
  5074     0072  3A18               	xorlw	24	; case 21
  5075     0073  1903               	skipnz
  5076     0074  2844               	goto	l1729
  5077     0075  2851               	goto	l1737
  5078     0076                     l904:
  5079     0076  0008               	return
  5080     0077                     __end_of_cgets:
  5081                           
  5082                           	psect	text10
  5083     0ED4                     __ptext10:	
  5084 ;; *************** function _getche *****************
  5085 ;; Defined at:
  5086 ;;		line 30 in file "uart.c"
  5087 ;; Parameters:    Size  Location     Type
  5088 ;;		None
  5089 ;; Auto vars:     Size  Location     Type
  5090 ;;  c               1    1[COMMON] unsigned char 
  5091 ;; Return value:  Size  Location     Type
  5092 ;;                  1    wreg      unsigned char 
  5093 ;; Registers used:
  5094 ;;		wreg, status,2, status,0, pclath, cstack
  5095 ;; Tracked objects:
  5096 ;;		On entry : 0/0
  5097 ;;		On exit  : 0/0
  5098 ;;		Unchanged: 0/0
  5099 ;; Data sizes:     COMMON   BANK0   BANK1   BANK2   BANK3   BANK4   BANK5   BANK6   BANK7   BANK8   BANK9  BANK10  BANK1
      +1  BANK12  BANK13  BANK14  BANK15  BANK16  BANK17  BANK18  BANK19  BANK20  BANK21  BANK22  BANK23  BANK24  BANK25
  5100 ;;      Params:         0       0       0       0       0       0       0       0       0       0       0       0       
      +0       0       0       0       0       0       0       0       0       0       0       0       0       0       0
  5101 ;;      Locals:         1       0       0       0       0       0       0       0       0       0       0       0       
      +0       0       0       0       0       0       0       0       0       0       0       0       0       0       0
  5102 ;;      Temps:          0       0       0       0       0       0       0       0       0       0       0       0       
      +0       0       0       0       0       0       0       0       0       0       0       0       0       0       0
  5103 ;;      Totals:         1       0       0       0       0       0       0       0       0       0       0       0       
      +0       0       0       0       0       0       0       0       0       0       0       0       0       0       0
  5104 ;;Total ram usage:        1 bytes
  5105 ;; Hardware stack levels used: 1
  5106 ;; Hardware stack levels required when called: 1
  5107 ;; This function calls:
  5108 ;;		_getch
  5109 ;;		_putch
  5110 ;; This function is called by:
  5111 ;;		_cgets
  5112 ;; This function uses a non-reentrant model
  5113 ;;
  5114                           
  5115     0ED4                     _getche:	
  5116                           ;psect for function _getche
  5117                           
  5118     0ED4                     l1671:	
  5119                           ;incstack = 0
  5120                           ; Regs used in _getche: [wreg+status,2+status,0+pclath+cstack]
  5121                           
  5122                           
  5123                           ;uart.c: 32: unsigned char c;;uart.c: 34: c = getch();
  5124     0ED4  318E  26BA  318E   	fcall	_getch
  5125     0ED7  00F1               	movwf	getche@c
  5126     0ED8                     l1673:
  5127                           
  5128                           ;uart.c: 35: putch(c);
  5129     0ED8  0871               	movf	getche@c,w
  5130     0ED9  318E  26CA  318E   	fcall	_putch
  5131     0EDC                     l1675:
  5132                           
  5133                           ;uart.c: 37: return c;
  5134     0EDC  0871               	movf	getche@c,w
  5135     0EDD                     l258:
  5136     0EDD  0008               	return
  5137     0EDE                     __end_of_getche:
  5138                           
  5139                           	psect	text11
  5140     0ECA                     __ptext11:	
  5141 ;; *************** function _putch *****************
  5142 ;; Defined at:
  5143 ;;		line 15 in file "uart.c"
  5144 ;; Parameters:    Size  Location     Type
  5145 ;;  byte            1    wreg     unsigned char 
  5146 ;; Auto vars:     Size  Location     Type
  5147 ;;  byte            1    0[COMMON] unsigned char 
  5148 ;; Return value:  Size  Location     Type
  5149 ;;                  1    wreg      void 
  5150 ;; Registers used:
  5151 ;;		wreg
  5152 ;; Tracked objects:
  5153 ;;		On entry : 0/0
  5154 ;;		On exit  : 0/0
  5155 ;;		Unchanged: 0/0
  5156 ;; Data sizes:     COMMON   BANK0   BANK1   BANK2   BANK3   BANK4   BANK5   BANK6   BANK7   BANK8   BANK9  BANK10  BANK1
      +1  BANK12  BANK13  BANK14  BANK15  BANK16  BANK17  BANK18  BANK19  BANK20  BANK21  BANK22  BANK23  BANK24  BANK25
  5157 ;;      Params:         0       0       0       0       0       0       0       0       0       0       0       0       
      +0       0       0       0       0       0       0       0       0       0       0       0       0       0       0
  5158 ;;      Locals:         1       0       0       0       0       0       0       0       0       0       0       0       
      +0       0       0       0       0       0       0       0       0       0       0       0       0       0       0
  5159 ;;      Temps:          0       0       0       0       0       0       0       0       0       0       0       0       
      +0       0       0       0       0       0       0       0       0       0       0       0       0       0       0
  5160 ;;      Totals:         1       0       0       0       0       0       0       0       0       0       0       0       
      +0       0       0       0       0       0       0       0       0       0       0       0       0       0       0
  5161 ;;Total ram usage:        1 bytes
  5162 ;; Hardware stack levels used: 1
  5163 ;; This function calls:
  5164 ;;		Nothing
  5165 ;; This function is called by:
  5166 ;;		_getche
  5167 ;;		_printf
  5168 ;;		_cgets
  5169 ;; This function uses a non-reentrant model
  5170 ;;
  5171                           
  5172     0ECA                     _putch:	
  5173                           ;psect for function _putch
  5174                           
  5175                           
  5176                           ;incstack = 0
  5177                           ; Regs used in _putch: [wreg]
  5178                           ;putch@byte stored from wreg
  5179     0ECA  00F0               	movwf	putch@byte
  5180     0ECB                     l1661:
  5181     0ECB                     l246:	
  5182                           ;uart.c: 17: while(!TXIF){
  5183                           
  5184     0ECB  0020               	movlb	0	; select bank0
  5185     0ECC  1E11               	btfss	17,4	;volatile
  5186     0ECD  2ECF               	goto	u1031
  5187     0ECE  2ED0               	goto	u1030
  5188     0ECF                     u1031:
  5189     0ECF  2ECB               	goto	l246
  5190     0ED0                     u1030:
  5191     0ED0                     l1663:
  5192                           
  5193                           ;uart.c: 18: };uart.c: 19: TXREG = byte;
  5194     0ED0  0870               	movf	putch@byte,w
  5195     0ED1  0023               	movlb	3	; select bank3
  5196     0ED2  009A               	movwf	26	;volatile
  5197     0ED3                     l249:
  5198     0ED3  0008               	return
  5199     0ED4                     __end_of_putch:
  5200                           
  5201                           	psect	text12
  5202     0EBA                     __ptext12:	
  5203 ;; *************** function _getch *****************
  5204 ;; Defined at:
  5205 ;;		line 22 in file "uart.c"
  5206 ;; Parameters:    Size  Location     Type
  5207 ;;		None
  5208 ;; Auto vars:     Size  Location     Type
  5209 ;;		None
  5210 ;; Return value:  Size  Location     Type
  5211 ;;                  1    wreg      unsigned char 
  5212 ;; Registers used:
  5213 ;;		wreg
  5214 ;; Tracked objects:
  5215 ;;		On entry : 0/0
  5216 ;;		On exit  : 0/0
  5217 ;;		Unchanged: 0/0
  5218 ;; Data sizes:     COMMON   BANK0   BANK1   BANK2   BANK3   BANK4   BANK5   BANK6   BANK7   BANK8   BANK9  BANK10  BANK1
      +1  BANK12  BANK13  BANK14  BANK15  BANK16  BANK17  BANK18  BANK19  BANK20  BANK21  BANK22  BANK23  BANK24  BANK25
  5219 ;;      Params:         0       0       0       0       0       0       0       0       0       0       0       0       
      +0       0       0       0       0       0       0       0       0       0       0       0       0       0       0
  5220 ;;      Locals:         0       0       0       0       0       0       0       0       0       0       0       0       
      +0       0       0       0       0       0       0       0       0       0       0       0       0       0       0
  5221 ;;      Temps:          0       0       0       0       0       0       0       0       0       0       0       0       
      +0       0       0       0       0       0       0       0       0       0       0       0       0       0       0
  5222 ;;      Totals:         0       0       0       0       0       0       0       0       0       0       0       0       
      +0       0       0       0       0       0       0       0       0       0       0       0       0       0       0
  5223 ;;Total ram usage:        0 bytes
  5224 ;; Hardware stack levels used: 1
  5225 ;; This function calls:
  5226 ;;		Nothing
  5227 ;; This function is called by:
  5228 ;;		_getche
  5229 ;; This function uses a non-reentrant model
  5230 ;;
  5231                           
  5232     0EBA                     _getch:	
  5233                           ;psect for function _getch
  5234                           
  5235     0EBA                     l1665:	
  5236                           ;incstack = 0
  5237                           ; Regs used in _getch: [wreg]
  5238                           
  5239     0EBA                     l252:	
  5240                           ;uart.c: 24: while(!RCIF){
  5241                           
  5242     0EBA  0020               	movlb	0	; select bank0
  5243     0EBB  1E91               	btfss	17,5	;volatile
  5244     0EBC  2EBE               	goto	u1041
  5245     0EBD  2EBF               	goto	u1040
  5246     0EBE                     u1041:
  5247     0EBE  2EBA               	goto	l252
  5248     0EBF                     u1040:
  5249     0EBF                     l1667:
  5250                           
  5251                           ;uart.c: 25: };uart.c: 27: return RCREG;
  5252     0EBF  0023               	movlb	3	; select bank3
  5253     0EC0  0819               	movf	25,w	;volatile
  5254     0EC1                     l255:
  5255     0EC1  0008               	return
  5256     0EC2                     __end_of_getch:
  5257                           
  5258                           	psect	text13
  5259     00D6                     __ptext13:	
  5260 ;; *************** function _atoi *****************
  5261 ;; Defined at:
  5262 ;;		line 5 in file "C:\Program Files\Microchip\xc8\v2.41\pic\sources\c90\common\atoi.c"
  5263 ;; Parameters:    Size  Location     Type
  5264 ;;  s               1    wreg     PTR const unsigned char 
  5265 ;;		 -> NULL(0), main@tmp(40), 
  5266 ;; Auto vars:     Size  Location     Type
  5267 ;;  s               1    3[BANK0 ] PTR const unsigned char 
  5268 ;;		 -> NULL(0), main@tmp(40), 
  5269 ;;  a               2    1[BANK0 ] int 
  5270 ;;  sign            1    0[BANK0 ] unsigned char 
  5271 ;; Return value:  Size  Location     Type
  5272 ;;                  2    6[COMMON] int 
  5273 ;; Registers used:
  5274 ;;		wreg, fsr1l, fsr1h, status,2, status,0, pclath, cstack
  5275 ;; Tracked objects:
  5276 ;;		On entry : 0/0
  5277 ;;		On exit  : 0/0
  5278 ;;		Unchanged: 0/0
  5279 ;; Data sizes:     COMMON   BANK0   BANK1   BANK2   BANK3   BANK4   BANK5   BANK6   BANK7   BANK8   BANK9  BANK10  BANK1
      +1  BANK12  BANK13  BANK14  BANK15  BANK16  BANK17  BANK18  BANK19  BANK20  BANK21  BANK22  BANK23  BANK24  BANK25
  5280 ;;      Params:         2       0       0       0       0       0       0       0       0       0       0       0       
      +0       0       0       0       0       0       0       0       0       0       0       0       0       0       0
  5281 ;;      Locals:         0       4       0       0       0       0       0       0       0       0       0       0       
      +0       0       0       0       0       0       0       0       0       0       0       0       0       0       0
  5282 ;;      Temps:          4       0       0       0       0       0       0       0       0       0       0       0       
      +0       0       0       0       0       0       0       0       0       0       0       0       0       0       0
  5283 ;;      Totals:         6       4       0       0       0       0       0       0       0       0       0       0       
      +0       0       0       0       0       0       0       0       0       0       0       0       0       0       0
  5284 ;;Total ram usage:       10 bytes
  5285 ;; Hardware stack levels used: 1
  5286 ;; Hardware stack levels required when called: 1
  5287 ;; This function calls:
  5288 ;;		___wmul
  5289 ;;		_isdigit
  5290 ;; This function is called by:
  5291 ;;		_main
  5292 ;; This function uses a non-reentrant model
  5293 ;;
  5294                           
  5295     00D6                     _atoi:	
  5296                           ;psect for function _atoi
  5297                           
  5298                           
  5299                           ;incstack = 0
  5300                           ; Regs used in _atoi: [wreg+fsr1l+fsr1h+status,2+status,0+pclath+cstack]
  5301                           ;atoi@s stored from wreg
  5302     00D6  0020               	movlb	0	; select bank0
  5303     00D7  00A3               	movwf	atoi@s
  5304     00D8                     l1823:
  5305     00D8  28DD               	goto	l1827
  5306     00D9                     l1825:
  5307     00D9  3001               	movlw	1
  5308     00DA  00F8               	movwf	??_atoi
  5309     00DB  0878               	movf	??_atoi,w
  5310     00DC  07A3               	addwf	atoi@s,f
  5311     00DD                     l1827:
  5312     00DD  0823               	movf	atoi@s,w
  5313     00DE  0086               	movwf	6
  5314     00DF  0187               	clrf	7
  5315     00E0  3020               	movlw	32
  5316     00E1  0601               	xorwf	1,w
  5317     00E2  1903               	btfsc	3,2
  5318     00E3  28E5               	goto	u1251
  5319     00E4  28E6               	goto	u1250
  5320     00E5                     u1251:
  5321     00E5  28D9               	goto	l1825
  5322     00E6                     u1250:
  5323     00E6                     l1829:
  5324     00E6  0823               	movf	atoi@s,w
  5325     00E7  0086               	movwf	6
  5326     00E8  0187               	clrf	7
  5327     00E9  3009               	movlw	9
  5328     00EA  0601               	xorwf	1,w
  5329     00EB  1903               	btfsc	3,2
  5330     00EC  28EE               	goto	u1261
  5331     00ED  28EF               	goto	u1260
  5332     00EE                     u1261:
  5333     00EE  28D9               	goto	l1825
  5334     00EF                     u1260:
  5335     00EF                     l1831:
  5336     00EF  01A1               	clrf	atoi@a
  5337     00F0  01A2               	clrf	atoi@a+1
  5338     00F1  01A0               	clrf	atoi@sign
  5339     00F2                     l1833:
  5340     00F2  0823               	movf	atoi@s,w
  5341     00F3  0086               	movwf	6
  5342     00F4  0187               	clrf	7
  5343     00F5  302D               	movlw	45
  5344     00F6  0601               	xorwf	1,w
  5345     00F7  1D03               	btfss	3,2
  5346     00F8  28FA               	goto	u1271
  5347     00F9  28FB               	goto	u1270
  5348     00FA                     u1271:
  5349     00FA  2904               	goto	l1837
  5350     00FB                     u1270:
  5351     00FB                     l1835:
  5352     00FB  3001               	movlw	1
  5353     00FC  00F8               	movwf	??_atoi
  5354     00FD  0878               	movf	??_atoi,w
  5355     00FE  07A0               	addwf	atoi@sign,f
  5356     00FF  3001               	movlw	1
  5357     0100  00F8               	movwf	??_atoi
  5358     0101  0878               	movf	??_atoi,w
  5359     0102  07A3               	addwf	atoi@s,f
  5360     0103  2932               	goto	l1845
  5361     0104                     l1837:
  5362     0104  0823               	movf	atoi@s,w
  5363     0105  0086               	movwf	6
  5364     0106  0187               	clrf	7
  5365     0107  302B               	movlw	43
  5366     0108  0601               	xorwf	1,w
  5367     0109  1D03               	btfss	3,2
  5368     010A  290C               	goto	u1281
  5369     010B  290D               	goto	u1280
  5370     010C                     u1281:
  5371     010C  2932               	goto	l1845
  5372     010D                     u1280:
  5373     010D                     l1839:
  5374     010D  3001               	movlw	1
  5375     010E  00F8               	movwf	??_atoi
  5376     010F  0878               	movf	??_atoi,w
  5377     0110  07A3               	addwf	atoi@s,f
  5378     0111  2932               	goto	l1845
  5379     0112                     l1841:
  5380     0112  0020               	movlb	0	; select bank0
  5381     0113  0823               	movf	atoi@s,w
  5382     0114  0086               	movwf	6
  5383     0115  0187               	clrf	7
  5384     0116  0801               	movf	1,w
  5385     0117  00F8               	movwf	??_atoi
  5386     0118  01F9               	clrf	??_atoi+1
  5387     0119  0822               	movf	atoi@a+1,w
  5388     011A  00F1               	movwf	___wmul@multiplier+1
  5389     011B  0821               	movf	atoi@a,w
  5390     011C  00F0               	movwf	___wmul@multiplier
  5391     011D  300A               	movlw	10
  5392     011E  00F2               	movwf	___wmul@multiplicand
  5393     011F  3000               	movlw	0
  5394     0120  00F3               	movwf	___wmul@multiplicand+1
  5395     0121  318F  270E  3180   	fcall	___wmul
  5396     0124  0878               	movf	??_atoi,w
  5397     0125  0770               	addwf	?___wmul,w
  5398     0126  00FA               	movwf	??_atoi+2
  5399     0127  0879               	movf	??_atoi+1,w
  5400     0128  3D71               	addwfc	?___wmul+1,w
  5401     0129  00FB               	movwf	??_atoi+3
  5402     012A  087A               	movf	??_atoi+2,w
  5403     012B  3ED0               	addlw	208
  5404     012C  0020               	movlb	0	; select bank0
  5405     012D  00A1               	movwf	atoi@a
  5406     012E  30FF               	movlw	255
  5407     012F  3D7B               	addwfc	??_atoi+3,w
  5408     0130  00A2               	movwf	atoi@a+1
  5409     0131  290D               	goto	l1839
  5410     0132                     l1845:
  5411     0132  0823               	movf	atoi@s,w
  5412     0133  0086               	movwf	6
  5413     0134  0187               	clrf	7
  5414     0135  0801               	movf	1,w
  5415     0136  318E  26DE  3180   	fcall	_isdigit
  5416     0139  1803               	btfsc	3,0
  5417     013A  293C               	goto	u1291
  5418     013B  293D               	goto	u1290
  5419     013C                     u1291:
  5420     013C  2912               	goto	l1841
  5421     013D                     u1290:
  5422     013D                     l1847:
  5423     013D  0020               	movlb	0	; select bank0
  5424     013E  0820               	movf	atoi@sign,w
  5425     013F  1903               	btfsc	3,2
  5426     0140  2942               	goto	u1301
  5427     0141  2943               	goto	u1300
  5428     0142                     u1301:
  5429     0142  294F               	goto	l1853
  5430     0143                     u1300:
  5431     0143                     l1849:
  5432     0143  0921               	comf	atoi@a,w
  5433     0144  00F8               	movwf	??_atoi
  5434     0145  0922               	comf	atoi@a+1,w
  5435     0146  00F9               	movwf	??_atoi+1
  5436     0147  0AF8               	incf	??_atoi,f
  5437     0148  1903               	skipnz
  5438     0149  0AF9               	incf	??_atoi+1,f
  5439     014A  0878               	movf	??_atoi,w
  5440     014B  00F6               	movwf	?_atoi
  5441     014C  0879               	movf	??_atoi+1,w
  5442     014D  00F7               	movwf	?_atoi+1
  5443     014E  2953               	goto	l881
  5444     014F                     l1853:
  5445     014F  0822               	movf	atoi@a+1,w
  5446     0150  00F7               	movwf	?_atoi+1
  5447     0151  0821               	movf	atoi@a,w
  5448     0152  00F6               	movwf	?_atoi
  5449     0153                     l881:
  5450     0153  0008               	return
  5451     0154                     __end_of_atoi:
  5452                           
  5453                           	psect	text14
  5454     0EDE                     __ptext14:	
  5455 ;; *************** function _isdigit *****************
  5456 ;; Defined at:
  5457 ;;		line 8 in file "C:\Program Files\Microchip\xc8\v2.41\pic\sources\c90\common\isdigit.c"
  5458 ;; Parameters:    Size  Location     Type
  5459 ;;  c               1    wreg     unsigned char 
  5460 ;; Auto vars:     Size  Location     Type
  5461 ;;  c               1    1[COMMON] unsigned char 
  5462 ;; Return value:  Size  Location     Type
  5463 ;;		None               void
  5464 ;; Registers used:
  5465 ;;		wreg, status,2, status,0
  5466 ;; Tracked objects:
  5467 ;;		On entry : 0/0
  5468 ;;		On exit  : 0/0
  5469 ;;		Unchanged: 0/0
  5470 ;; Data sizes:     COMMON   BANK0   BANK1   BANK2   BANK3   BANK4   BANK5   BANK6   BANK7   BANK8   BANK9  BANK10  BANK1
      +1  BANK12  BANK13  BANK14  BANK15  BANK16  BANK17  BANK18  BANK19  BANK20  BANK21  BANK22  BANK23  BANK24  BANK25
  5471 ;;      Params:         0       0       0       0       0       0       0       0       0       0       0       0       
      +0       0       0       0       0       0       0       0       0       0       0       0       0       0       0
  5472 ;;      Locals:         2       0       0       0       0       0       0       0       0       0       0       0       
      +0       0       0       0       0       0       0       0       0       0       0       0       0       0       0
  5473 ;;      Temps:          0       0       0       0       0       0       0       0       0       0       0       0       
      +0       0       0       0       0       0       0       0       0       0       0       0       0       0       0
  5474 ;;      Totals:         2       0       0       0       0       0       0       0       0       0       0       0       
      +0       0       0       0       0       0       0       0       0       0       0       0       0       0       0
  5475 ;;Total ram usage:        2 bytes
  5476 ;; Hardware stack levels used: 1
  5477 ;; This function calls:
  5478 ;;		Nothing
  5479 ;; This function is called by:
  5480 ;;		_atoi
  5481 ;; This function uses a non-reentrant model
  5482 ;;
  5483                           
  5484     0EDE                     _isdigit:	
  5485                           ;psect for function _isdigit
  5486                           
  5487                           
  5488                           ;incstack = 0
  5489                           ; Regs used in _isdigit: [wreg+status,2+status,0]
  5490                           ;isdigit@c stored from wreg
  5491     0EDE  00F1               	movwf	isdigit@c
  5492     0EDF                     l1703:
  5493     0EDF  01F0               	clrf	_isdigit$681
  5494     0EE0                     l1705:
  5495     0EE0  303A               	movlw	58
  5496     0EE1  0271               	subwf	isdigit@c,w
  5497     0EE2  1803               	skipnc
  5498     0EE3  2EE5               	goto	u1111
  5499     0EE4  2EE6               	goto	u1110
  5500     0EE5                     u1111:
  5501     0EE5  2EEE               	goto	l1711
  5502     0EE6                     u1110:
  5503     0EE6                     l1707:
  5504     0EE6  3030               	movlw	48
  5505     0EE7  0271               	subwf	isdigit@c,w
  5506     0EE8  1C03               	skipc
  5507     0EE9  2EEB               	goto	u1121
  5508     0EEA  2EEC               	goto	u1120
  5509     0EEB                     u1121:
  5510     0EEB  2EEE               	goto	l1711
  5511     0EEC                     u1120:
  5512     0EEC                     l1709:
  5513     0EEC  01F0               	clrf	_isdigit$681
  5514     0EED  0AF0               	incf	_isdigit$681,f
  5515     0EEE                     l1711:
  5516     0EEE  0C70               	rrf	_isdigit$681,w
  5517     0EEF                     l911:
  5518     0EEF  0008               	return
  5519     0EF0                     __end_of_isdigit:
  5520                           
  5521                           	psect	text15
  5522     0F0E                     __ptext15:	
  5523 ;; *************** function ___wmul *****************
  5524 ;; Defined at:
  5525 ;;		line 15 in file "C:\Program Files\Microchip\xc8\v2.41\pic\sources\c90\common\Umul16.c"
  5526 ;; Parameters:    Size  Location     Type
  5527 ;;  multiplier      2    0[COMMON] unsigned int 
  5528 ;;  multiplicand    2    2[COMMON] unsigned int 
  5529 ;; Auto vars:     Size  Location     Type
  5530 ;;  product         2    4[COMMON] unsigned int 
  5531 ;; Return value:  Size  Location     Type
  5532 ;;                  2    0[COMMON] unsigned int 
  5533 ;; Registers used:
  5534 ;;		wreg, status,2, status,0
  5535 ;; Tracked objects:
  5536 ;;		On entry : 0/0
  5537 ;;		On exit  : 0/0
  5538 ;;		Unchanged: 0/0
  5539 ;; Data sizes:     COMMON   BANK0   BANK1   BANK2   BANK3   BANK4   BANK5   BANK6   BANK7   BANK8   BANK9  BANK10  BANK1
      +1  BANK12  BANK13  BANK14  BANK15  BANK16  BANK17  BANK18  BANK19  BANK20  BANK21  BANK22  BANK23  BANK24  BANK25
  5540 ;;      Params:         4       0       0       0       0       0       0       0       0       0       0       0       
      +0       0       0       0       0       0       0       0       0       0       0       0       0       0       0
  5541 ;;      Locals:         2       0       0       0       0       0       0       0       0       0       0       0       
      +0       0       0       0       0       0       0       0       0       0       0       0       0       0       0
  5542 ;;      Temps:          0       0       0       0       0       0       0       0       0       0       0       0       
      +0       0       0       0       0       0       0       0       0       0       0       0       0       0       0
  5543 ;;      Totals:         6       0       0       0       0       0       0       0       0       0       0       0       
      +0       0       0       0       0       0       0       0       0       0       0       0       0       0       0
  5544 ;;Total ram usage:        6 bytes
  5545 ;; Hardware stack levels used: 1
  5546 ;; This function calls:
  5547 ;;		Nothing
  5548 ;; This function is called by:
  5549 ;;		_main
  5550 ;;		_atoi
  5551 ;; This function uses a non-reentrant model
  5552 ;;
  5553                           
  5554     0F0E                     ___wmul:	
  5555                           ;psect for function ___wmul
  5556                           
  5557     0F0E                     l1689:	
  5558                           ;incstack = 0
  5559                           ; Regs used in ___wmul: [wreg+status,2+status,0]
  5560                           
  5561     0F0E  01F4               	clrf	___wmul@product
  5562     0F0F  01F5               	clrf	___wmul@product+1
  5563     0F10                     l1691:
  5564     0F10  1C70               	btfss	___wmul@multiplier,0
  5565     0F11  2F13               	goto	u1071
  5566     0F12  2F14               	goto	u1070
  5567     0F13                     u1071:
  5568     0F13  2F18               	goto	l418
  5569     0F14                     u1070:
  5570     0F14                     l1693:
  5571     0F14  0872               	movf	___wmul@multiplicand,w
  5572     0F15  07F4               	addwf	___wmul@product,f
  5573     0F16  0873               	movf	___wmul@multiplicand+1,w
  5574     0F17  3DF5               	addwfc	___wmul@product+1,f
  5575     0F18                     l418:
  5576     0F18  3001               	movlw	1
  5577     0F19                     u1085:
  5578     0F19  35F2               	lslf	___wmul@multiplicand,f
  5579     0F1A  0DF3               	rlf	___wmul@multiplicand+1,f
  5580     0F1B  0B89               	decfsz	9,f
  5581     0F1C  2F19               	goto	u1085
  5582     0F1D                     l1695:
  5583     0F1D  3001               	movlw	1
  5584     0F1E                     u1095:
  5585     0F1E  36F1               	lsrf	___wmul@multiplier+1,f
  5586     0F1F  0CF0               	rrf	___wmul@multiplier,f
  5587     0F20  0B89               	decfsz	9,f
  5588     0F21  2F1E               	goto	u1095
  5589     0F22                     l1697:
  5590     0F22  0870               	movf	___wmul@multiplier,w
  5591     0F23  0471               	iorwf	___wmul@multiplier+1,w
  5592     0F24  1D03               	btfss	3,2
  5593     0F25  2F27               	goto	u1101
  5594     0F26  2F28               	goto	u1100
  5595     0F27                     u1101:
  5596     0F27  2F10               	goto	l1691
  5597     0F28                     u1100:
  5598     0F28                     l1699:
  5599     0F28  0875               	movf	___wmul@product+1,w
  5600     0F29  00F1               	movwf	?___wmul+1
  5601     0F2A  0874               	movf	___wmul@product,w
  5602     0F2B  00F0               	movwf	?___wmul
  5603     0F2C                     l420:
  5604     0F2C  0008               	return
  5605     0F2D                     __end_of___wmul:
  5606                           
  5607                           	psect	text16
  5608     0077                     __ptext16:	
  5609 ;; *************** function ___awdiv *****************
  5610 ;; Defined at:
  5611 ;;		line 5 in file "C:\Program Files\Microchip\xc8\v2.41\pic\sources\c90\common\awdiv.c"
  5612 ;; Parameters:    Size  Location     Type
  5613 ;;  divisor         2    0[COMMON] int 
  5614 ;;  dividend        2    2[COMMON] int 
  5615 ;; Auto vars:     Size  Location     Type
  5616 ;;  quotient        2    7[COMMON] int 
  5617 ;;  sign            1    6[COMMON] unsigned char 
  5618 ;;  counter         1    5[COMMON] unsigned char 
  5619 ;; Return value:  Size  Location     Type
  5620 ;;                  2    0[COMMON] int 
  5621 ;; Registers used:
  5622 ;;		wreg, status,2, status,0
  5623 ;; Tracked objects:
  5624 ;;		On entry : 0/0
  5625 ;;		On exit  : 0/0
  5626 ;;		Unchanged: 0/0
  5627 ;; Data sizes:     COMMON   BANK0   BANK1   BANK2   BANK3   BANK4   BANK5   BANK6   BANK7   BANK8   BANK9  BANK10  BANK1
      +1  BANK12  BANK13  BANK14  BANK15  BANK16  BANK17  BANK18  BANK19  BANK20  BANK21  BANK22  BANK23  BANK24  BANK25
  5628 ;;      Params:         4       0       0       0       0       0       0       0       0       0       0       0       
      +0       0       0       0       0       0       0       0       0       0       0       0       0       0       0
  5629 ;;      Locals:         4       0       0       0       0       0       0       0       0       0       0       0       
      +0       0       0       0       0       0       0       0       0       0       0       0       0       0       0
  5630 ;;      Temps:          1       0       0       0       0       0       0       0       0       0       0       0       
      +0       0       0       0       0       0       0       0       0       0       0       0       0       0       0
  5631 ;;      Totals:         9       0       0       0       0       0       0       0       0       0       0       0       
      +0       0       0       0       0       0       0       0       0       0       0       0       0       0       0
  5632 ;;Total ram usage:        9 bytes
  5633 ;; Hardware stack levels used: 1
  5634 ;; This function calls:
  5635 ;;		Nothing
  5636 ;; This function is called by:
  5637 ;;		_main
  5638 ;; This function uses a non-reentrant model
  5639 ;;
  5640                           
  5641     0077                     ___awdiv:	
  5642                           ;psect for function ___awdiv
  5643                           
  5644     0077                     l1863:	
  5645                           ;incstack = 0
  5646                           ; Regs used in ___awdiv: [wreg+status,2+status,0]
  5647                           
  5648     0077  01F6               	clrf	___awdiv@sign
  5649     0078                     l1865:
  5650     0078  1FF1               	btfss	___awdiv@divisor+1,7
  5651     0079  287B               	goto	u1321
  5652     007A  287C               	goto	u1320
  5653     007B                     u1321:
  5654     007B  2883               	goto	l1871
  5655     007C                     u1320:
  5656     007C                     l1867:
  5657     007C  09F0               	comf	___awdiv@divisor,f
  5658     007D  09F1               	comf	___awdiv@divisor+1,f
  5659     007E  0AF0               	incf	___awdiv@divisor,f
  5660     007F  1903               	skipnz
  5661     0080  0AF1               	incf	___awdiv@divisor+1,f
  5662     0081                     l1869:
  5663     0081  01F6               	clrf	___awdiv@sign
  5664     0082  0AF6               	incf	___awdiv@sign,f
  5665     0083                     l1871:
  5666     0083  1FF3               	btfss	___awdiv@dividend+1,7
  5667     0084  2886               	goto	u1331
  5668     0085  2887               	goto	u1330
  5669     0086                     u1331:
  5670     0086  2890               	goto	l1877
  5671     0087                     u1330:
  5672     0087                     l1873:
  5673     0087  09F2               	comf	___awdiv@dividend,f
  5674     0088  09F3               	comf	___awdiv@dividend+1,f
  5675     0089  0AF2               	incf	___awdiv@dividend,f
  5676     008A  1903               	skipnz
  5677     008B  0AF3               	incf	___awdiv@dividend+1,f
  5678     008C                     l1875:
  5679     008C  3001               	movlw	1
  5680     008D  00F4               	movwf	??___awdiv
  5681     008E  0874               	movf	??___awdiv,w
  5682     008F  06F6               	xorwf	___awdiv@sign,f
  5683     0090                     l1877:
  5684     0090  01F7               	clrf	___awdiv@quotient
  5685     0091  01F8               	clrf	___awdiv@quotient+1
  5686     0092                     l1879:
  5687     0092  0870               	movf	___awdiv@divisor,w
  5688     0093  0471               	iorwf	___awdiv@divisor+1,w
  5689     0094  1903               	btfsc	3,2
  5690     0095  2897               	goto	u1341
  5691     0096  2898               	goto	u1340
  5692     0097                     u1341:
  5693     0097  28C7               	goto	l1899
  5694     0098                     u1340:
  5695     0098                     l1881:
  5696     0098  01F5               	clrf	___awdiv@counter
  5697     0099  0AF5               	incf	___awdiv@counter,f
  5698     009A  28A4               	goto	l1887
  5699     009B                     l1883:
  5700     009B  3001               	movlw	1
  5701     009C                     u1355:
  5702     009C  35F0               	lslf	___awdiv@divisor,f
  5703     009D  0DF1               	rlf	___awdiv@divisor+1,f
  5704     009E  0B89               	decfsz	9,f
  5705     009F  289C               	goto	u1355
  5706     00A0                     l1885:
  5707     00A0  3001               	movlw	1
  5708     00A1  00F4               	movwf	??___awdiv
  5709     00A2  0874               	movf	??___awdiv,w
  5710     00A3  07F5               	addwf	___awdiv@counter,f
  5711     00A4                     l1887:
  5712     00A4  1FF1               	btfss	___awdiv@divisor+1,7
  5713     00A5  28A7               	goto	u1361
  5714     00A6  28A8               	goto	u1360
  5715     00A7                     u1361:
  5716     00A7  289B               	goto	l1883
  5717     00A8                     u1360:
  5718     00A8                     l1889:
  5719     00A8  3001               	movlw	1
  5720     00A9                     u1375:
  5721     00A9  35F7               	lslf	___awdiv@quotient,f
  5722     00AA  0DF8               	rlf	___awdiv@quotient+1,f
  5723     00AB  0B89               	decfsz	9,f
  5724     00AC  28A9               	goto	u1375
  5725     00AD  0871               	movf	___awdiv@divisor+1,w
  5726     00AE  0273               	subwf	___awdiv@dividend+1,w
  5727     00AF  1D03               	skipz
  5728     00B0  28B3               	goto	u1385
  5729     00B1  0870               	movf	___awdiv@divisor,w
  5730     00B2  0272               	subwf	___awdiv@dividend,w
  5731     00B3                     u1385:
  5732     00B3  1C03               	skipc
  5733     00B4  28B6               	goto	u1381
  5734     00B5  28B7               	goto	u1380
  5735     00B6                     u1381:
  5736     00B6  28BC               	goto	l1895
  5737     00B7                     u1380:
  5738     00B7                     l1891:
  5739     00B7  0870               	movf	___awdiv@divisor,w
  5740     00B8  02F2               	subwf	___awdiv@dividend,f
  5741     00B9  0871               	movf	___awdiv@divisor+1,w
  5742     00BA  3BF3               	subwfb	___awdiv@dividend+1,f
  5743     00BB                     l1893:
  5744     00BB  1477               	bsf	___awdiv@quotient,0
  5745     00BC                     l1895:
  5746     00BC  3001               	movlw	1
  5747     00BD                     u1395:
  5748     00BD  36F1               	lsrf	___awdiv@divisor+1,f
  5749     00BE  0CF0               	rrf	___awdiv@divisor,f
  5750     00BF  0B89               	decfsz	9,f
  5751     00C0  28BD               	goto	u1395
  5752     00C1                     l1897:
  5753     00C1  3001               	movlw	1
  5754     00C2  02F5               	subwf	___awdiv@counter,f
  5755     00C3  1D03               	btfss	3,2
  5756     00C4  28C6               	goto	u1401
  5757     00C5  28C7               	goto	u1400
  5758     00C6                     u1401:
  5759     00C6  28A8               	goto	l1889
  5760     00C7                     u1400:
  5761     00C7                     l1899:
  5762     00C7  0876               	movf	___awdiv@sign,w
  5763     00C8  1903               	btfsc	3,2
  5764     00C9  28CB               	goto	u1411
  5765     00CA  28CC               	goto	u1410
  5766     00CB                     u1411:
  5767     00CB  28D1               	goto	l1903
  5768     00CC                     u1410:
  5769     00CC                     l1901:
  5770     00CC  09F7               	comf	___awdiv@quotient,f
  5771     00CD  09F8               	comf	___awdiv@quotient+1,f
  5772     00CE  0AF7               	incf	___awdiv@quotient,f
  5773     00CF  1903               	skipnz
  5774     00D0  0AF8               	incf	___awdiv@quotient+1,f
  5775     00D1                     l1903:
  5776     00D1  0878               	movf	___awdiv@quotient+1,w
  5777     00D2  00F1               	movwf	?___awdiv+1
  5778     00D3  0877               	movf	___awdiv@quotient,w
  5779     00D4  00F0               	movwf	?___awdiv
  5780     00D5                     l571:
  5781     00D5  0008               	return
  5782     00D6                     __end_of___awdiv:
  5783     007E                     btemp	set	126	;btemp
  5784     007E                     wtemp0	set	126
  5785                           
  5786                           	psect	idloc
  5787                           
  5788                           ;Config register IDLOC0 @ 0x8000
  5789                           ;	unspecified, using default values
  5790     8000                     	org	32768
  5791     8000  3FFF               	dw	16383
  5792                           
  5793                           ;Config register IDLOC1 @ 0x8001
  5794                           ;	unspecified, using default values
  5795     8001                     	org	32769
  5796     8001  3FFF               	dw	16383
  5797                           
  5798                           ;Config register IDLOC2 @ 0x8002
  5799                           ;	unspecified, using default values
  5800     8002                     	org	32770
  5801     8002  3FFF               	dw	16383
  5802                           
  5803                           ;Config register IDLOC3 @ 0x8003
  5804                           ;	unspecified, using default values
  5805     8003                     	org	32771
  5806     8003  3FFF               	dw	16383
  5807                           
  5808                           	psect	config
  5809                           
  5810                           ;Config register CONFIG1 @ 0x8007
  5811                           ;	Oscillator Selection
  5812                           ;	FOSC = INTOSC, INTOSC oscillator: I/O function on CLKIN pin
  5813                           ;	Watchdog Timer Enable
  5814                           ;	WDTE = OFF, WDT disabled
  5815                           ;	Power-up Timer Enable
  5816                           ;	PWRTE = OFF, PWRT disabled
  5817                           ;	MCLR Pin Function Select
  5818                           ;	MCLRE = ON, MCLR/VPP pin function is MCLR
  5819                           ;	Flash Program Memory Code Protection
  5820                           ;	CP = OFF, Program memory code protection is disabled
  5821                           ;	Data Memory Code Protection
  5822                           ;	CPD = OFF, Data memory code protection is disabled
  5823                           ;	Brown-out Reset Enable
  5824                           ;	BOREN = ON, Brown-out Reset enabled
  5825                           ;	Clock Out Enable
  5826                           ;	CLKOUTEN = 0x1, unprogrammed default
  5827                           ;	Internal/External Switchover
  5828                           ;	IESO = 0x1, unprogrammed default
  5829                           ;	Fail-Safe Clock Monitor Enable
  5830                           ;	FCMEN = 0x1, unprogrammed default
  5831     8007                     	org	32775
  5832     8007  3FE4               	dw	16356
  5833                           
  5834                           ;Config register CONFIG2 @ 0x8008
  5835                           ;	Flash Memory Self-Write Protection
  5836                           ;	WRT = 0x3, unprogrammed default
  5837                           ;	Voltage Regulator Capacitor Enable bit
  5838                           ;	VCAPEN = 0x1, unprogrammed default
  5839                           ;	PLL Enable
  5840                           ;	PLLEN = 0x1, unprogrammed default
  5841                           ;	Stack Overflow/Underflow Reset Enable
  5842                           ;	STVREN = 0x1, unprogrammed default
  5843                           ;	Brown-out Reset Voltage Selection
  5844                           ;	BORV = 0x1, unprogrammed default
  5845                           ;	Low Power Brown-Out Reset Enable Bit
  5846                           ;	LPBOR = 0x1, unprogrammed default
  5847                           ;	Low-Voltage Programming Enable
  5848                           ;	LVP = OFF, High-voltage on MCLR/VPP must be used for programming
  5849     8008                     	org	32776
  5850     8008  1FFF               	dw	8191

Data Sizes:
    Strings     154
    Constant    0
    Data        0
    BSS         1
    Persistent  32
    Stack       0

Auto Spaces:
    Space          Size  Autos    Used
    COMMON           14     14      14
    BANK0            80     68      69
    BANK1            80      0       0
    BANK2            80      0       0
    BANK3            80      0       0
    BANK4            80      0       0
    BANK5            80      0       0
    BANK6            80      0       0
    BANK7            80      0       0
    BANK8            80      0       0
    BANK9            80      0       0
    BANK10           80      0       0
    BANK11           80      0       0
    BANK12           80      0       0
    BANK13           80      0       0
    BANK14           80      0       0
    BANK15           80      0       0
    BANK16           80      0       0
    BANK17           80      0       0
    BANK18           80      0       0
    BANK19           80      0       0
    BANK20           80      0       0
    BANK21           80      0       0
    BANK22           80      0       0
    BANK23           80      0       0
    BANK24           80      0       0
    BANK25           32      0       0

Pointer List with Targets:

    strspn@s2	PTR const unsigned char  size(2) Largest target is 2
		 -> STR_38(CODE[2]), STR_36(CODE[2]), STR_32(CODE[2]), STR_29(CODE[2]), 
		 -> STR_28(CODE[2]), STR_27(CODE[2]), STR_26(CODE[2]), STR_25(CODE[2]), 
		 -> STR_23(CODE[2]), STR_22(CODE[2]), STR_21(CODE[2]), STR_19(CODE[2]), 
		 -> STR_18(CODE[2]), STR_17(CODE[2]), STR_16(CODE[2]), STR_15(CODE[2]), 

    strspn@s1	PTR const unsigned char  size(1) Largest target is 40
		 -> NULL(NULL[0]), main@tmp(BANK0[40]), 

    strchr@ptr	PTR const unsigned char  size(2) Largest target is 2
		 -> STR_38(CODE[2]), STR_36(CODE[2]), STR_32(CODE[2]), STR_29(CODE[2]), 
		 -> STR_28(CODE[2]), STR_27(CODE[2]), STR_26(CODE[2]), STR_25(CODE[2]), 
		 -> STR_23(CODE[2]), STR_22(CODE[2]), STR_21(CODE[2]), STR_19(CODE[2]), 
		 -> STR_18(CODE[2]), STR_17(CODE[2]), STR_16(CODE[2]), STR_15(CODE[2]), 

    sp__strchr	PTR unsigned char  size(2) Largest target is 2
		 -> STR_38(CODE[2]), STR_36(CODE[2]), STR_32(CODE[2]), STR_29(CODE[2]), 
		 -> STR_28(CODE[2]), STR_27(CODE[2]), STR_26(CODE[2]), STR_25(CODE[2]), 
		 -> STR_23(CODE[2]), STR_22(CODE[2]), STR_21(CODE[2]), STR_19(CODE[2]), 
		 -> STR_18(CODE[2]), STR_17(CODE[2]), STR_16(CODE[2]), NULL(NULL[0]), 
		 -> STR_15(CODE[2]), 

    strcspn@s2	PTR const unsigned char  size(2) Largest target is 2
		 -> STR_38(CODE[2]), STR_36(CODE[2]), STR_32(CODE[2]), STR_29(CODE[2]), 
		 -> STR_28(CODE[2]), STR_27(CODE[2]), STR_26(CODE[2]), STR_25(CODE[2]), 
		 -> STR_23(CODE[2]), STR_22(CODE[2]), STR_21(CODE[2]), STR_19(CODE[2]), 
		 -> STR_18(CODE[2]), STR_17(CODE[2]), STR_16(CODE[2]), STR_15(CODE[2]), 

    strcspn@s1	PTR const unsigned char  size(1) Largest target is 40
		 -> NULL(NULL[0]), main@tmp(BANK0[40]), 

    strtok@s2	PTR const unsigned char  size(2) Largest target is 2
		 -> STR_38(CODE[2]), STR_36(CODE[2]), STR_32(CODE[2]), STR_29(CODE[2]), 
		 -> STR_28(CODE[2]), STR_27(CODE[2]), STR_26(CODE[2]), STR_25(CODE[2]), 
		 -> STR_23(CODE[2]), STR_22(CODE[2]), STR_21(CODE[2]), STR_19(CODE[2]), 
		 -> STR_18(CODE[2]), STR_17(CODE[2]), STR_16(CODE[2]), STR_15(CODE[2]), 

    strtok@sp	PTR unsigned char  size(1) Largest target is 40
		 -> NULL(NULL[0]), main@tmp(BANK0[40]), 

    strtok@s1	PTR unsigned char  size(1) Largest target is 40
		 -> NULL(NULL[0]), main@tmp(BANK0[40]), 

    strcmp@s2	PTR const unsigned char  size(2) Largest target is 4
		 -> STR_14(CODE[4]), STR_13(CODE[4]), STR_12(CODE[4]), STR_11(CODE[4]), 
		 -> STR_10(CODE[4]), STR_9(CODE[4]), STR_8(CODE[4]), STR_7(CODE[4]), 
		 -> STR_6(CODE[4]), STR_5(CODE[4]), STR_4(CODE[4]), STR_3(CODE[4]), 
		 -> STR_2(CODE[4]), STR_1(CODE[4]), 

    strcmp@s1	PTR const unsigned char  size(1) Largest target is 4
		 -> main@rcmd(BANK0[4]), 

    cgets@s	PTR unsigned char  size(1) Largest target is 40
		 -> main@tmp(BANK0[40]), 

    cgets@s1	PTR unsigned char  size(1) Largest target is 40
		 -> main@tmp(BANK0[40]), 

    sp__cgets	PTR unsigned char  size(1) Largest target is 40
		 -> main@tmp(BANK0[40]), 

    gets@s	PTR unsigned char  size(1) Largest target is 40
		 -> main@tmp(BANK0[40]), 

    atoi@s	PTR const unsigned char  size(1) Largest target is 40
		 -> NULL(NULL[0]), main@tmp(BANK0[40]), 

    printf@f	PTR const unsigned char  size(2) Largest target is 14
		 -> STR_41(CODE[14]), STR_40(CODE[10]), STR_39(CODE[8]), STR_37(CODE[8]), 
		 -> STR_35(CODE[8]), STR_34(CODE[8]), STR_33(CODE[8]), STR_31(CODE[8]), 
		 -> STR_30(CODE[8]), STR_24(CODE[8]), STR_20(CODE[8]), 

    printf@ap	PTR void [1] size(1) Largest target is 2
		 -> ?_printf(COMMON[2]), 

    sp__strtok	PTR unsigned char  size(1) Largest target is 40
		 -> NULL(NULL[0]), main@tmp(BANK0[40]), 

    main@ptr	PTR unsigned char  size(1) Largest target is 40
		 -> NULL(NULL[0]), main@tmp(BANK0[40]), 

    sp__gets	PTR unsigned char  size(1) Largest target is 40
		 -> main@tmp(BANK0[40]), 


Critical Paths under _main in COMMON

    _strtok->_strcspn
    _strtok->_strspn
    _strspn->_strchr
    _strcspn->_strchr
    _printf->_putch
    _gets->_cgets
    _cgets->_getche
    _getche->_putch
    _atoi->___wmul

Critical Paths under _main in BANK0

    _main->_strtok

Critical Paths under _main in BANK1

    None.

Critical Paths under _main in BANK2

    None.

Critical Paths under _main in BANK3

    None.

Critical Paths under _main in BANK4

    None.

Critical Paths under _main in BANK5

    None.

Critical Paths under _main in BANK6

    None.

Critical Paths under _main in BANK7

    None.

Critical Paths under _main in BANK8

    None.

Critical Paths under _main in BANK9

    None.

Critical Paths under _main in BANK10

    None.

Critical Paths under _main in BANK11

    None.

Critical Paths under _main in BANK12

    None.

Critical Paths under _main in BANK13

    None.

Critical Paths under _main in BANK14

    None.

Critical Paths under _main in BANK15

    None.

Critical Paths under _main in BANK16

    None.

Critical Paths under _main in BANK17

    None.

Critical Paths under _main in BANK18

    None.

Critical Paths under _main in BANK19

    None.

Critical Paths under _main in BANK20

    None.

Critical Paths under _main in BANK21

    None.

Critical Paths under _main in BANK22

    None.

Critical Paths under _main in BANK23

    None.

Critical Paths under _main in BANK24

    None.

Critical Paths under _main in BANK25

    None.

Call Graph Tables:

 ---------------------------------------------------------------------------------
 (Depth) Function   	        Calls       Base Space   Used Autos Params    Refs
 ---------------------------------------------------------------------------------
 (0) _main                                                69    69      0   10877
                                              5 BANK0     63    63      0
                            ___awdiv
                             ___wmul
                               _atoi
                               _gets
                           _initUART
                             _printf
                             _strcmp
                             _strtok
 ---------------------------------------------------------------------------------
 (1) _strtok                                               5     3      2    3128
                                              0 BANK0      5     3      2
                            _strcspn
                             _strspn
 ---------------------------------------------------------------------------------
 (2) _strspn                                               7     5      2     592
                                              7 COMMON     7     5      2
                             _strchr
 ---------------------------------------------------------------------------------
 (2) _strcspn                                              7     5      2     592
                                              7 COMMON     7     5      2
                             _strchr
 ---------------------------------------------------------------------------------
 (3) _strchr                                               7     3      4     392
                                              0 COMMON     7     3      4
 ---------------------------------------------------------------------------------
 (1) _strcmp                                               5     3      2    1617
                                              0 COMMON     5     3      2
 ---------------------------------------------------------------------------------
 (1) _printf                                              18    16      2     904
                                              1 COMMON     6     4      2
                              _putch
 ---------------------------------------------------------------------------------
 (1) _initUART                                             0     0      0       0
 ---------------------------------------------------------------------------------
 (1) _gets                                                 1     1      0     380
                                             10 COMMON     1     1      0
                              _cgets
 ---------------------------------------------------------------------------------
 (2) _cgets                                                8     6      2     325
                                              2 COMMON     8     6      2
                             _getche
                              _putch
 ---------------------------------------------------------------------------------
 (3) _getche                                               1     1      0      67
                                              1 COMMON     1     1      0
                              _getch
                              _putch
 ---------------------------------------------------------------------------------
 (2) _putch                                                1     1      0      22
                                              0 COMMON     1     1      0
 ---------------------------------------------------------------------------------
 (4) _getch                                                0     0      0       0
 ---------------------------------------------------------------------------------
 (1) _atoi                                                10     8      2    1042
                                              6 COMMON     6     4      2
                                              0 BANK0      4     4      0
                             ___wmul
                            _isdigit
 ---------------------------------------------------------------------------------
 (2) _isdigit                                              2     2      0      68
                                              0 COMMON     2     2      0
 ---------------------------------------------------------------------------------
 (2) ___wmul                                               6     2      4     548
                                              0 COMMON     6     2      4
 ---------------------------------------------------------------------------------
 (1) ___awdiv                                              9     5      4     452
                                              0 COMMON     9     5      4
 ---------------------------------------------------------------------------------
 Estimated maximum stack depth 4
 ---------------------------------------------------------------------------------

 Call Graph Graphs:

 _main (ROOT)
   ___awdiv
   ___wmul
   _atoi
     ___wmul
     _isdigit
   _gets
     _cgets
       _getche
         _getch
         _putch
       _putch
   _initUART
   _printf
     _putch
   _strcmp
   _strtok
     _strcspn
       _strchr
     _strspn
       _strchr

 Address spaces:
Name               Size   Autos  Total    Cost      Usage
BIGRAM             7F0      0       0       0        0.0%
EEDATA             100      0       0       0        0.0%
NULL                 0      0       0       0        0.0%
CODE                 0      0       0       0        0.0%
BITCOMMON            E      0       0       1        0.0%
BITSFR0              0      0       0       1        0.0%
SFR0                 0      0       0       1        0.0%
COMMON               E      E       E       2      100.0%
BITSFR1              0      0       0       2        0.0%
SFR1                 0      0       0       2        0.0%
BITSFR2              0      0       0       3        0.0%
SFR2                 0      0       0       3        0.0%
STACK                0      0       0       3        0.0%
BITBANK0            50      0       0       4        0.0%
BITSFR3              0      0       0       4        0.0%
SFR3                 0      0       0       4        0.0%
BANK0               50     44      45       5       86.2%
BITSFR4              0      0       0       5        0.0%
SFR4                 0      0       0       5        0.0%
BITBANK1            50      0       0       6        0.0%
BITSFR5              0      0       0       6        0.0%
SFR5                 0      0       0       6        0.0%
BANK1               50      0       0       7        0.0%
BITSFR6              0      0       0       7        0.0%
SFR6                 0      0       0       7        0.0%
BITBANK2            50      0       0       8        0.0%
BITSFR7              0      0       0       8        0.0%
SFR7                 0      0       0       8        0.0%
BANK2               50      0       0       9        0.0%
BITSFR8              0      0       0       9        0.0%
SFR8                 0      0       0       9        0.0%
BITBANK3            50      0       0      10        0.0%
BITSFR9              0      0       0      10        0.0%
SFR9                 0      0       0      10        0.0%
BANK3               50      0       0      11        0.0%
BITSFR10             0      0       0      11        0.0%
SFR10                0      0       0      11        0.0%
BITBANK4            50      0       0      12        0.0%
BITSFR11             0      0       0      12        0.0%
SFR11                0      0       0      12        0.0%
BANK4               50      0       0      13        0.0%
BITSFR12             0      0       0      13        0.0%
SFR12                0      0       0      13        0.0%
BITSFR13             0      0       0      14        0.0%
SFR13                0      0       0      14        0.0%
ABS                  0      0      53      14        0.0%
BITBANK5            50      0       0      15        0.0%
BITSFR14             0      0       0      15        0.0%
SFR14                0      0       0      15        0.0%
BANK5               50      0       0      16        0.0%
BITSFR15             0      0       0      16        0.0%
SFR15                0      0       0      16        0.0%
BITBANK6            50      0       0      17        0.0%
BITSFR16             0      0       0      17        0.0%
SFR16                0      0       0      17        0.0%
BANK6               50      0       0      18        0.0%
BITSFR17             0      0       0      18        0.0%
SFR17                0      0       0      18        0.0%
BITBANK7            50      0       0      19        0.0%
BITSFR18             0      0       0      19        0.0%
SFR18                0      0       0      19        0.0%
BANK7               50      0       0      20        0.0%
BITSFR19             0      0       0      20        0.0%
SFR19                0      0       0      20        0.0%
BITBANK8            50      0       0      21        0.0%
BITSFR20             0      0       0      21        0.0%
SFR20                0      0       0      21        0.0%
BANK8               50      0       0      22        0.0%
BITSFR21             0      0       0      22        0.0%
SFR21                0      0       0      22        0.0%
BITBANK9            50      0       0      23        0.0%
BITSFR22             0      0       0      23        0.0%
SFR22                0      0       0      23        0.0%
BANK9               50      0       0      24        0.0%
BITSFR23             0      0       0      24        0.0%
SFR23                0      0       0      24        0.0%
BITBANK10           50      0       0      25        0.0%
BITSFR24             0      0       0      25        0.0%
SFR24                0      0       0      25        0.0%
BANK10              50      0       0      26        0.0%
BITSFR25             0      0       0      26        0.0%
SFR25                0      0       0      26        0.0%
BITBANK11           50      0       0      27        0.0%
BITSFR26             0      0       0      27        0.0%
SFR26                0      0       0      27        0.0%
BITSFR27             0      0       0      28        0.0%
SFR27                0      0       0      28        0.0%
DATA                 0      0      53      28        0.0%
BANK11              50      0       0      29        0.0%
BITSFR28             0      0       0      29        0.0%
SFR28                0      0       0      29        0.0%
BITBANK12           50      0       0      30        0.0%
BITSFR29             0      0       0      30        0.0%
SFR29                0      0       0      30        0.0%
BANK12              50      0       0      31        0.0%
BITSFR30             0      0       0      31        0.0%
SFR30                0      0       0      31        0.0%
BITBANK13           50      0       0      32        0.0%
BITSFR31             0      0       0      32        0.0%
SFR31                0      0       0      32        0.0%
BANK13              50      0       0      33        0.0%
BITBANK14           50      0       0      34        0.0%
BANK14              50      0       0      35        0.0%
BITBANK15           50      0       0      36        0.0%
BANK15              50      0       0      37        0.0%
BITBANK16           50      0       0      38        0.0%
BANK16              50      0       0      39        0.0%
BITBANK17           50      0       0      40        0.0%
BANK17              50      0       0      41        0.0%
BITBANK18           50      0       0      42        0.0%
BANK18              50      0       0      43        0.0%
BITBANK19           50      0       0      44        0.0%
BANK19              50      0       0      45        0.0%
BITBANK20           50      0       0      46        0.0%
BANK20              50      0       0      47        0.0%
BITBANK21           50      0       0      48        0.0%
BANK21              50      0       0      49        0.0%
BITBANK22           50      0       0      50        0.0%
BANK22              50      0       0      51        0.0%
BITBANK23           50      0       0      52        0.0%
BANK23              50      0       0      53        0.0%
BITBANK24           50      0       0      54        0.0%
BANK24              50      0       0      55        0.0%
BITBANK25           20      0       0      56        0.0%
BANK25              20      0       0      57        0.0%


Microchip Technology PIC Macro Assembler V2.41 build 20230208172133 
Symbol Table                                                                                   Sun Dec 17 20:28:25 2023

                     l81 02A7                       l58 01AB                       l91 0331  
                     l92 02FA                       l93 0305                       l94 02FF  
                     l95 0313                       l96 031E                       l97 0318  
           ___awdiv@sign 0076      ___wmul@multiplicand 0072                      l101 038B  
                    l102 0354                      l103 035F                      l200 06F9  
                    l120 0445                      l104 0359                      l201 06F3  
                    l121 0459                      l105 036D                      l210 0749  
                    l130 04A2                      l122 0464                      l106 0378  
                    l211 0743                      l131 04AD                      l123 045E  
                    l107 0372                      l140 04FC                      l132 04A7  
                    l205 075C                      l141 0507                      l117 0477  
                    l206 0725                      l150 0550                      l142 0501  
                    l126 04C0                      l118 0440                      l207 0730  
                    l151 054A                      l127 0489                      l119 044B  
                    l208 072A                      l160 05A4                      l136 051A  
                    l128 0494                      l209 073E                      l161 059E  
                    l145 0563                      l137 04E3                      l129 048E  
                    l170 05F1                      l162 05B2                      l146 052C  
                    l138 04EE                      l243 0EC9                      l171 0605  
                    l155 05BC                      l147 0537                      l139 04E8  
                    l420 0F2C                      l252 0EBA                      l180 0652  
                    l172 0610                      l156 0580                      l148 0531  
                    l181 065D                      l173 060A                      l157 058B  
                    l149 0545                      l246 0ECB                      l414 001F  
                    l190 06A1                      l182 0657                      l174 061E  
                    l158 0585                      l255 0EC1                      l191 06AC  
                    l167 05EC                      l159 0599                      l192 06A6  
                    l176 0670                      l249 0ED3                      l193 06BA  
                    l177 0639                      l169 05F7                      l418 0F18  
                    l258 0EDD                      l186 0688                      l178 0644  
                    l195 070C                      l179 063E                      l196 06D5  
                    l188 0693                      l197 06E0                      l189 068D  
                    l198 06DA                      l199 06EE                      l571 00D5  
                    l911 0EEF                      l904 0076                      l930 0FFF  
                    l919 0F53                      l943 0F83                      l881 0153  
                    l946 0EF0                      l948 0F0D                      l886 0EB9  
                    l959 0FB3                      _RA0 0060                      _RA1 0061  
                    _RB0 0068                      _RB1 0069                      _RA3 0063  
                    _RB3 006B                      _RB4 006C                      _RB5 006D  
                    wreg 0009                     l2001 01F3                     l2011 0225  
                   l2003 0201                     l2101 043C                     l2021 024D  
                   l2013 0229                     l2005 0205                     l2111 0472  
                   l2103 0442                     l2031 027F                     l2023 025B  
                   l2015 0237                     l2007 0213                     l2201 0654  
                   l2121 04A8                     l2113 0485                     l2105 0446  
                   l2033 0283                     l2025 025F                     l2017 023B  
                   l2009 0217                     l2041 02A7                     l2203 0658  
                   l2131 04E9                     l2123 04BB                     l2115 048B  
                   l2107 045B                     l2051 02F6                     l2043 02B3  
                   l2035 0291                     l2027 026D                     l2019 0249  
                   l2221 06A7                     l2205 066B                     l2141 052E  
                   l2133 04FE                     l2117 048F                     l2109 045F  
                   l2125 04CF                     l2061 032C                     l2053 02FC  
                   l2045 02DB                     l2037 0295                     l2029 0271  
                   l2231 06DB                     l2215 068A                     l2207 067E  
                   l2143 0532                     l2135 0502                     l2127 04E0  
                   l2151 0571                     l2119 04A4                     l2071 036F  
                   l2055 0300                     l2063 0340                     l2047 02E0  
                   l2039 02A3                     l2305 0068                     l2241 0722  
                   l2233 06F0                     l2225 06C0                     l2217 068E  
                   l2209 0686                     l2161 059B                     l2153 0579  
                   l2145 0547                     l2137 0515                     l2129 04E5  
                   l2081 03BF                     l2073 0373                     l2065 0351  
                   l2057 0315                     l2049 02E9                     l2251 0757  
                   l2243 0727                     l2235 06F4                     l2227 06D1  
                   l2219 06A3                     l2171 05D2                     l2163 059F  
                   l2155 057D                     l2147 054B                     l2139 0528  
                   l2091 03E7                     l2083 03C4                     l2075 0386  
                   l2067 0356                     l2059 0319                     l2261 078A  
                   l2253 076A                     l2245 072B                     l2237 0707  
                   l2229 06D7                     l2173 05DC                     l2157 0582  
                   l2149 055E                     l2093 03EF                     l2085 03CD  
                   l2069 035A                     l2077 0399                     l1711 0EEE  
                   l1703 0EDF                     l2271 07B2                     l2263 0792  
                   l2255 0772                     l2247 0740                     l2239 071A  
                   l2183 05EE                     l2175 05E1                     l2167 05B8  
                   l2159 0586                     l2095 0421                     l2087 03DD  
                   l2079 03A1                     l1705 0EE0                     l1721 002B  
                   l1801 0FC4                     l2273 07B5                     l2265 079C  
                   l2257 077C                     l2249 0744                     l2193 0624  
                   l2185 05F2                     l2177 05EA                     l2169 05CA  
                   l2097 0426                     l2089 03E3                     l1707 0EE6  
                   l1731 004B                     l1723 0033                     l1715 0021  
                   l1811 0FEC                     l1803 0FD1                     l2275 07B9  
                   l2267 07A1                     l2259 0781                     l2195 0635  
                   l2187 0607                     l2099 042F                     l2283 07CD  
                   l1901 00CC                     l1709 0EEC                     l1661 0ECB  
                   l1733 004F                     l1725 0036                     l1717 0024  
                   l1813 0FF4                     l1805 0FD9                     l2277 07BD  
                   l2269 07AA                     l2197 063B                     l2189 060B  
                   l1903 00D1                     l1831 00EF                     l1823 00D8  
                   l1663 0ED0                     l1671 0ED4                     l1727 0042  
                   l1743 005A                     l1751 0F88                     l1815 0FF8  
                   l2279 07C5                     l2199 063F                     l1911 015A  
                   l1841 0112                     l1833 00F2                     l1825 00D9  
                   l1665 0EBA                     l1673 0ED8                     l1737 0051  
                   l1729 0044                     l1681 0EFA                     l1761 0F55  
                   l1753 0F90                     l1817 0FFD                     l1809 0FDC  
                   l1921 0166                     l1913 015C                     l1691 0F10  
                   l1835 00FB                     l1827 00DD                     l1667 0EBF  
                   l1675 0EDC                     l1739 0056                     l1683 0EFB  
                   l1763 0F58                     l1755 0F98                     l1819 0FFE  
                   l1931 016E                     l1923 0168                     l1915 015F  
                   l1907 0154                     l1693 0F14                     l1853 014F  
                   l1845 0132                     l1837 0104                     l1829 00E6  
                   l1773 0EC2                     l1861 000D                     l1781 0F2F  
                   l1685 0F0B                     l1765 0F60                     l1757 0FAF  
                   l1749 0F85                     l1941 017F                     l1933 016E  
                   l1925 016B                     l1917 0162                     l1909 0157  
                   l1871 0083                     l1863 0077                     l1695 0F1D  
                   l1847 013D                     l1839 010D                     l1775 0EB5  
                   l1783 0F37                     l1679 0EF0                     l1767 0F68  
                   l1791 0FB6                     l1951 0187                     l1943 0183  
                   l1935 0173                     l1927 016E                     l1919 0164  
                   l1881 0098                     l1873 0087                     l1865 0078  
                   l1697 0F22                     l1689 0F0E                     l1849 0143  
                   l1857 0006                     l1785 0F46                     l1769 0F7F  
                   l1793 0FBB                     l1961 0191                     l1953 0188  
                   l1945 0184                     l1937 0177                     l1929 016E  
                   l1891 00B7                     l1883 009B                     l1875 008C  
                   l1867 007C                     l1699 0F28                     l1859 0009  
                   l1787 0F4E                     l1779 0F2E                     l1795 0FBD  
                   l1971 0199                     l1963 0192                     l1955 018B  
                   l1947 0185                     l1939 017B                     l1893 00BB  
                   l1885 00A0                     l1877 0090                     l1869 0081  
                   l1797 0FC2                     l1981 01A5                     l1973 019D  
                   l1965 0194                     l1957 018D                     l1949 0186  
                   l1895 00BC                     l1887 00A4                     l1879 0092  
                   l1991 01CB                     l1983 01A9                     l1975 01A0  
                   l1967 0196                     l1959 018F                     l1897 00C1  
                   l1889 00A8                     l1993 01CF                     l1985 01AC  
                   l1977 01A2                     l1969 0198                     l1899 00C7  
                   l1995 01DD                     l1987 01BA                     l1979 01A4  
                   l1997 01E1                     l1989 01BD                     l1999 01EF  
                   STR_1 1090                     STR_2 106C                     STR_3 1070  
                   STR_4 1080                     STR_5 1084                     STR_6 1074  
                   STR_7 108C                     STR_8 1094                     STR_9 1078  
                   u1100 0F28                     u1101 0F27                     u1110 0EE6  
                   u1030 0ED0                     u1111 0EE5                     u1031 0ECF  
                   u1120 0EEC                     u1040 0EBF                     u1200 0F4E  
                   u2000 073E                     u1121 0EEB                     u1041 0EBE  
                   u1201 0F4D                     u2001 073D                     u1130 002A  
                   u1050 0EFA                     u1210 0FBB                     u2010 0757  
                   u1131 0029                     u1051 0EF9                     u1211 0FBA  
                   u2011 0756                     u1300 0143                     u1140 004A  
                   u1060 0F0B                     u1220 0FC2                     u2020 076A  
                   u1301 0142                     u1141 0049                     u1061 0F0A  
                   u1221 0FC1                     u2021 0769                     u2005 073A  
                   u1070 0F14                     u1310 001F                     u1150 0F98  
                   u1230 0FD9                     u2030 0781                     u1071 0F13  
                   u1311 001E                     u1151 0F97                     u1231 0FD8  
                   u2031 0780                     u2015 0753                     u1400 00C7  
                   u1320 007C                     u1160 0FAF                     u1240 0FF4  
                   u2040 07A1                     u1401 00C6                     u1321 007B  
                   u1161 0FAE                     u1241 0FF3                     u2041 07A0  
                   u2025 0766                     u1410 00CC                     u1330 0087  
                   u1250 00E6                     u1170 0F68                     u1411 00CB  
                   u1331 0086                     u1251 00E5                     u1171 0F67  
                   u1340 0098                     u1260 00EF                     u1180 0F7F  
                   u1500 0237                     u1420 01A9                     u1341 0097  
                   u1085 0F19                     u1261 00EE                     u1181 0F7E  
                   u1501 0236                     u1421 01A8                     u1270 00FB  
                   u1190 0F46                     u1510 0249                     u1430 01BA  
                   u1095 0F1E                     u1271 00FA                     u1191 0F45  
                   u1511 0248                     u1431 01B9                     u1360 00A8  
                   u1280 010D                     u1600 032C                     u1520 025B  
                   u1440 01CB                     u1361 00A7                     u1281 010C  
                   u1601 032B                     u1521 025A                     u1441 01CA  
                   u1290 013D                     u1610 033F                     u1530 026D  
                   u1450 01DD                     u1355 009C                     u1291 013C  
                   u1611 033E                     u1531 026C                     u1451 01DC  
                   u1380 00B7                     u1700 0472                     u1620 036D  
                   u1540 027F                     u1460 01EF                     u1381 00B6  
                   u1701 0471                     u1621 036C                     u1605 0328  
                   u1541 027E                     u1461 01EE                     u1710 0485  
                   u1630 0386                     u1550 0291                     u1470 0201  
                   u1375 00A9                     u1711 0484                     u1631 0385  
                   u1615 033B                     u1551 0290                     u1471 0200  
                   u1800 0571                     u1720 04A2                     u1640 0399  
                   u1560 02A3                     u1480 0213                     u1385 00B3  
                   u1801 0570                     u1721 04A1                     u1705 046E  
                   u1641 0398                     u1625 0369                     u1561 02A2  
                   u1481 0212                     u1810 0599                     u1730 04BB  
                   u1650 03C4                     u1570 02E0                     u1490 0225  
                   u1395 00BD                     u1811 0598                     u1731 04BA  
                   u1715 0481                     u1651 03C3                     u1635 0382  
                   u1571 02DF                     u1491 0224                     u1900 0652  
                   u1820 05B2                     u1740 04CE                     u1660 03E3  
                   u1580 02F6                     u1901 0651                     u1821 05B1  
                   u1805 056D                     u1741 04CD                     u1725 049E  
                   u1661 03E2                     u1645 0395                     u1581 02F5  
                   u1910 066B                     u1830 05B7                     u1750 04FC  
                   u1670 0426                     u1590 0313                     u1911 066A  
                   u1831 05B6                     u1815 0595                     u1751 04FB  
                   u1735 04B7                     u1671 0425                     u1591 0312  
                   _PIE1 0091                     u1920 067E                     u1840 05CA  
                   u1760 0515                     u1680 043C                     u1921 067D  
                   u1905 064E                     u1841 05C9                     u1825 05AE  
                   u1761 0514                     u1745 04CA                     u1681 043B  
                   u1585 02F2                     u1930 06A1                     u1850 05E1  
                   u1770 0528                     u1690 0459                     u1931 06A0  
                   u1915 0667                     u1851 05E0                     u1771 0527  
                   u1755 04F8                     u1691 0458                     u1595 030F  
                   u1940 06BA                     u1860 0605                     u1780 0545  
                   u1941 06B9                     u1925 067A                     u1861 0604  
                   u1845 05C6                     u1781 0544                     u1765 0511  
                   u1685 0438                     u1950 06BF                     u1870 061E  
                   u1790 055E                     u1951 06BE                     u1935 069D  
                   u1871 061D                     u1791 055D                     u1775 0524  
                   u1695 0455                     u1960 06D1                     u1880 0623  
                   u1961 06D0                     u1945 06B6                     u1881 0622  
                   u1865 0601                     u1785 0541                     u1970 06EE  
                   u1890 0635                     u1971 06ED                     u1891 0634  
                   u1875 061A                     u1795 055A                     u1980 0707  
                   u1981 0706                     u1965 06CD                     u1990 071A  
                   u1991 0719                     u1975 06EA                     u1895 0631  
                   u1985 0703                     u1995 0716                     _RCIF 008D  
                   _TXIF 008C                     _atoi 00D6                     _gets 0EB4  
                   _main 0154                     fsr0h 0005                     fsr1h 0007  
                   indf0 0000                     fsr0l 0004              main@set_spd 0050  
                   indf1 0001                     fsr1l 0006                     btemp 007E  
                   start 0002                    ?_atoi 0076                    ?_gets 0070  
                  ?_main 0070          __end_of___awdiv 00D6                    STR_10 1088  
                  STR_11 1060                    STR_12 1064                    STR_20 1058  
                  STR_21 1098                    STR_13 1068                    STR_22 1098  
                  STR_14 107C                    STR_30 1020                    STR_23 1098  
                  STR_15 1098                    STR_31 1040                    STR_32 1098  
                  STR_16 1098                    STR_24 1018                    STR_40 100E  
                  STR_25 1098                    STR_17 1098                    STR_33 1048  
                  STR_41 1000                    STR_26 1098                    STR_18 1098  
                  STR_34 1028                    STR_27 1098                    STR_19 1098  
                  STR_35 1038                    STR_36 1098                    STR_28 1098  
                  STR_29 1098                    STR_37 1030                    STR_38 1098  
                  STR_39 1050          ___awdiv@divisor 0070          ___awdiv@counter 0075  
                  _RCREG 0199                    _RCSTA 019D                    _SPBRG 019B  
                  _PORTA 000C                    _PORTB 000D                    _TRISA 008C  
                  _TRISB 008D                    _TXREG 019A                    _TXSTA 019E  
                  _cgets 0020                    _getch 0EBA          __end_of_isdigit 0EF0  
                  atoi@a 0021                    atoi@s 0023                    _putch 0ECA  
                  gets@s 007A                    main@j 0062                    main@k 005E  
                  status 0003                    wtemp0 007E          __end_of_strcspn 0F84  
        __initialization 07FB             __end_of_atoi 0154             __end_of_gets 0EBA  
           __end_of_main 07FB                   ??_atoi 0078                   ??_gets 007A  
                 ??_main 0025                   ?_cgets 0072                   ?_getch 0070  
       ___awdiv@dividend 0072                   ?_putch 0070                   _ANSELB 018D  
                 _FVRCON 0117                   _OSCCON 0099                   ___wmul 0F0E  
              ??___awdiv 0074         __end_of_initUART 0ECA                   _getche 0ED4  
                 cgets@c 0076                   cgets@s 0078         ___awdiv@quotient 0077  
                 _printf 0006                   _strchr 0EF0                   _strcmp 0F2D  
                 _strtok 0FB4                   _strspn 0F84                ??_isdigit 0070  
              ??_strcspn 0079  __end_of__initialization 07FD           __pcstackCOMMON 0070  
          __end_of_cgets 0077            __end_of_getch 0EC2            __end_of_putch 0ED4  
                ??_cgets 0074                  ??_getch 0070                  ??_putch 0070  
             __pbssBANK0 0064               __pmaintext 0154                  ?___wmul 0070  
                ?_getche 0070                  _APFCON1 011D                  ?_printf 0071  
                ?_strchr 0070                  ?_strcmp 0070                  ?_strtok 0020  
                ?_strspn 0077                ?_initUART 0070                  ___awdiv 0077  
                __ptext1 0FB4                  __ptext2 0F84                  __ptext3 0F54  
                __ptext4 0EF0                  __ptext5 0F2D                  __ptext6 0006  
                __ptext7 0EC2                  __ptext8 0EB4                  __ptext9 0020  
                _isdigit 0EDE                  cgets@s1 0079                  getche@c 0071  
                main@cmd 0056                  main@npd 0052                  main@nsp 0054  
                main@ptr 005D                  main@tmp 0026                  _strcspn 0F54  
   end_of_initialization 07FD               ??_initUART 0070                  printf@c 0076  
                printf@f 0071                  strcmp@r 0073                  strspn@i 007B  
             main@mx_spd 004E           __end_of___wmul 0F2D           __end_of_getche 0EDE  
         __end_of_printf 0020           __end_of_strchr 0F0E           __end_of_strcmp 0F54  
         __end_of_strtok 1000           __end_of_strspn 0FB4      start_initialization 07FB  
               ??___wmul 0074                 ??_getche 0071                 ??_printf 0073  
               ??_strchr 0074                 ??_strcmp 0072                 ??_strtok 0022  
               ??_strspn 0079                ___latbits 0003            __pcstackBANK0 0020  
               ?___awdiv 0070                 _DAC1CON0 0118                 _DAC1CON1 0119  
               ?_isdigit 0070                 ?_strcspn 0077           ___wmul@product 0074  
      ___wmul@multiplier 0070                main@intvl 0060              _isdigit$681 0070  
               __ptext10 0ED4                 __ptext11 0ECA                 __ptext12 0EBA  
               __ptext13 00D6                 __ptext14 0EDE                 __ptext15 0F0E  
               __ptext16 0077                 _initUART 0EC2                 atoi@sign 0020  
               main@dist 005B                 main@rcmd 0057                putch@byte 0070  
         __pstringtext10 1050           __pstringtext11 1058           __pstringtext20 1080  
         __pstringtext12 1060           __pstringtext21 1084           __pstringtext13 1064  
         __pstringtext22 1088           __pstringtext14 1068           __pstringtext23 108C  
         __pstringtext15 106C           __pstringtext24 1090           __pstringtext16 1070  
         __pstringtext25 1094           __pstringtext17 1074           __pstringtext26 1098  
         __pstringtext18 1078           __pstringtext27 0000           __pstringtext19 107C  
               isdigit@c 0071                strchr@chr 0072                strchr@ptr 0070  
              strcspn@s1 007D                strcspn@s2 0077                 printf@ap 0075  
          __pstringtext1 1000            __pstringtext2 100E            __pstringtext3 1018  
          __pstringtext4 1020            __pstringtext5 1028            __pstringtext6 1030  
          __pstringtext7 1038            __pstringtext8 1040            __pstringtext9 1048  
               strcmp@s1 0074                 strcmp@s2 0070                 strcspn@i 007B  
               strtok@s1 0024                 strtok@s2 0020                 strspn@s1 007D  
               strspn@s2 0077                 strtok@sp 0064  
