

Microchip MPLAB XC8 Assembler V2.41 build 20230208172133 
                                                                                               Tue May 07 10:30:13 2024

Microchip MPLAB XC8 C Compiler v2.41 (Free license) build 20230208172133 Og1 
     1                           	processor	16F1788
     2                           	pagewidth 120
     3                           	opt	flic
     4                           	psect	stringtext1,global,class=STRCODE,delta=2,noexec
     5                           	psect	stringtext2,global,class=STRCODE,delta=2,noexec
     6                           	psect	stringtext3,global,class=STRCODE,delta=2,noexec
     7                           	psect	stringtext4,global,class=STRCODE,delta=2,noexec
     8                           	psect	stringtext5,global,class=STRCODE,delta=2,noexec
     9                           	psect	stringtext6,global,class=STRCODE,delta=2,noexec
    10                           	psect	stringtext7,global,class=STRCODE,delta=2,noexec
    11                           	psect	stringtext8,global,class=STRCODE,delta=2,noexec
    12                           	psect	stringtext9,global,class=STRCODE,delta=2,noexec
    13                           	psect	stringtext10,global,class=STRCODE,delta=2,noexec
    14                           	psect	stringtext11,global,class=STRCODE,delta=2,noexec
    15                           	psect	stringtext12,global,class=STRCODE,delta=2,noexec
    16                           	psect	stringtext13,global,class=STRCODE,delta=2,noexec
    17                           	psect	stringtext14,global,class=STRCODE,delta=2,noexec
    18                           	psect	stringtext15,global,class=STRCODE,delta=2,noexec
    19                           	psect	stringtext16,global,class=STRCODE,delta=2,noexec
    20                           	psect	stringtext17,global,class=STRCODE,delta=2,noexec
    21                           	psect	stringtext18,global,class=STRCODE,delta=2,noexec
    22                           	psect	stringtext19,global,class=STRCODE,delta=2,noexec
    23                           	psect	stringtext20,global,class=STRCODE,delta=2,noexec
    24                           	psect	stringtext21,global,class=STRCODE,delta=2,noexec
    25                           	psect	stringtext22,global,class=STRCODE,delta=2,noexec
    26                           	psect	stringtext23,global,class=STRCODE,delta=2,noexec
    27                           	psect	stringtext24,global,class=STRCODE,delta=2,noexec
    28                           	psect	stringtext25,global,class=STRCODE,delta=2,noexec
    29                           	psect	stringtext26,global,class=STRCODE,delta=2,noexec
    30                           	psect	stringtext27,global,class=STRCODE,delta=2,noexec
    31                           	psect	stringtext28,global,class=STRCODE,delta=2,noexec
    32                           	psect	stringtext29,global,class=STRCODE,delta=2,noexec
    33                           	psect	stringtext30,global,class=STRCODE,delta=2,noexec
    34                           	psect	stringtext31,global,class=STRCODE,delta=2,noexec
    35                           	psect	stringtext32,global,class=STRCODE,delta=2,noexec
    36                           	psect	stringtext33,global,class=STRCODE,delta=2,noexec
    37                           	psect	stringtext34,global,class=STRCODE,delta=2,noexec
    38                           	psect	stringtext35,global,class=STRCODE,delta=2,noexec
    39                           	psect	stringtext36,global,class=STRCODE,delta=2,noexec
    40                           	psect	stringtext37,global,class=STRCODE,delta=2,noexec
    41                           	psect	stringtext38,global,class=STRCODE,delta=2,noexec
    42                           	psect	stringtext39,global,class=STRCODE,delta=2,noexec
    43                           	psect	stringtext40,global,class=STRCODE,delta=2,noexec
    44                           	psect	stringtext41,global,class=STRCODE,delta=2,noexec
    45                           	psect	stringtext42,global,class=STRCODE,delta=2,noexec
    46                           	psect	stringtext43,global,class=STRCODE,delta=2,noexec
    47                           	psect	stringtext44,global,class=STRCODE,delta=2,noexec
    48                           	psect	stringtext45,global,class=STRCODE,delta=2,noexec
    49                           	psect	stringtext46,global,class=STRCODE,delta=2,noexec
    50                           	psect	stringtext47,global,class=STRCODE,delta=2,noexec
    51                           	psect	stringtext48,global,class=STRCODE,delta=2,noexec
    52                           	psect	stringtext49,global,class=STRCODE,delta=2,noexec
    53                           	psect	stringtext50,global,class=STRCODE,delta=2,noexec
    54                           	psect	stringtext51,global,class=STRCODE,delta=2,noexec
    55                           	psect	stringtext52,global,class=STRCODE,delta=2,noexec
    56                           	psect	stringtext53,global,class=STRCODE,delta=2,noexec
    57                           	psect	stringtext54,global,class=STRCODE,delta=2,noexec
    58                           	psect	stringtext55,global,class=STRCODE,delta=2,noexec
    59                           	psect	stringtext56,global,class=STRCODE,delta=2,noexec
    60                           	psect	stringtext57,global,class=STRCODE,delta=2,noexec
    61                           	psect	cinit,global,class=CODE,merge=1,delta=2
    62                           	psect	bssBANK2,global,class=BANK2,space=1,delta=1,noexec
    63                           	psect	cstackBANK2,global,class=BANK2,space=1,delta=1,noexec
    64                           	psect	cstackBANK1,global,class=BANK1,space=1,delta=1,noexec
    65                           	psect	cstackCOMMON,global,class=COMMON,space=1,delta=1,noexec
    66                           	psect	cstackBANK0,global,class=BANK0,space=1,delta=1,noexec
    67                           	psect	maintext,global,class=CODE,merge=1,split=1,delta=2
    68                           	psect	text1,local,class=CODE,merge=1,delta=2
    69                           	psect	text2,local,class=CODE,merge=1,delta=2
    70                           	psect	text3,local,class=CODE,merge=1,delta=2,group=3
    71                           	psect	text4,local,class=CODE,merge=1,delta=2,group=3
    72                           	psect	text5,local,class=CODE,merge=1,delta=2,group=3
    73                           	psect	text6,local,class=CODE,merge=1,delta=2,group=3
    74                           	psect	text7,local,class=CODE,merge=1,delta=2,group=3
    75                           	psect	text8,local,class=CODE,merge=1,delta=2
    76                           	psect	text9,local,class=CODE,merge=1,delta=2
    77                           	psect	text10,local,class=CODE,merge=1,delta=2,group=1
    78                           	psect	text11,local,class=CODE,merge=1,delta=2,group=2
    79                           	psect	text12,local,class=CODE,merge=1,delta=2,group=2
    80                           	psect	text13,local,class=CODE,merge=1,delta=2
    81                           	psect	text14,local,class=CODE,merge=1,delta=2,group=3
    82                           	psect	text15,local,class=CODE,merge=1,delta=2,group=3
    83                           	psect	text16,local,class=CODE,merge=1,delta=2
    84                           	psect	text17,local,class=CODE,merge=1,delta=2
    85                           	psect	text18,local,class=CODE,merge=1,delta=2
    86                           	psect	text19,local,class=CODE,merge=1,delta=2,group=3
    87                           	psect	text20,local,class=CODE,merge=1,delta=2,group=3
    88                           	psect	text21,local,class=CODE,merge=1,delta=2,group=2
    89                           	psect	text22,local,class=CODE,merge=1,delta=2,group=2
    90                           	psect	text23,local,class=CODE,merge=1,delta=2,group=2
    91                           	psect	text24,local,class=CODE,merge=1,delta=2,group=2
    92                           	psect	text25,local,class=CODE,merge=1,delta=2,group=2
    93                           	psect	text26,local,class=CODE,merge=1,delta=2,group=2
    94                           	psect	text27,local,class=CODE,merge=1,delta=2,group=2
    95                           	psect	text28,local,class=CODE,merge=1,delta=2,group=2
    96                           	psect	text29,local,class=CODE,merge=1,delta=2
    97                           	psect	idloc,global,abs,ovrld,class=IDLOC,space=5,delta=2,noexec
    98                           	psect	config,global,abs,ovrld,class=CONFIG,space=4,delta=2,noexec
    99                           	psect	maintext_split_1,global,class=CODE,merge=1,split=1,delta=2
   100                           	psect	maintext_split_2,global,class=CODE,merge=1,split=1,delta=2
   101                           	psect	maintext_split_3,global,class=CODE,merge=1,split=1,delta=2
   102                           	psect	maintext_split_4,global,class=CODE,merge=1,split=1,delta=2
   103                           	psect	maintext_split_5,global,class=CODE,merge=1,split=1,delta=2
   104                           	psect	maintext_split_6,global,class=CODE,merge=1,split=1,delta=2
   105                           	psect	maintext_split_7,global,class=CODE,merge=1,split=1,delta=2
   106                           	dabs	1,0x7E,2
   107     0000                     
   108                           ; Generated 09/02/2023 GMT
   109                           ; 
   110                           ; Copyright © 2023, Microchip Technology Inc. and its subsidiaries ("Microchip")
   111                           ; All rights reserved.
   112                           ; 
   113                           ; This software is developed by Microchip Technology Inc. and its subsidiaries ("Microch
      +                          ip").
   114                           ; 
   115                           ; Redistribution and use in source and binary forms, with or without modification, are
   116                           ; permitted provided that the following conditions are met:
   117                           ; 
   118                           ;     1. Redistributions of source code must retain the above copyright notice, this lis
      +                          t of
   119                           ;        conditions and the following disclaimer.
   120                           ; 
   121                           ;     2. Redistributions in binary form must reproduce the above copyright notice, this 
      +                          list
   122                           ;        of conditions and the following disclaimer in the documentation and/or other
   123                           ;        materials provided with the distribution. Publication is not required when
   124                           ;        this file is used in an embedded application.
   125                           ; 
   126                           ;     3. Microchip's name may not be used to endorse or promote products derived from th
      +                          is
   127                           ;        software without specific prior written permission.
   128                           ; 
   129                           ; THIS SOFTWARE IS PROVIDED BY MICROCHIP "AS IS" AND ANY EXPRESS OR IMPLIED WARRANTIES,
   130                           ; INCLUDING, BUT NOT LIMITED TO, THE IMPLIED WARRANTIES OF MERCHANTABILITY AND FITNESS F
      +                          OR
   131                           ; PURPOSE ARE DISCLAIMED.  IN NO EVENT SHALL MICROCHIP BE LIABLE FOR ANY DIRECT, INDIREC
      +                          T,
   132                           ; INCIDENTAL, SPECIAL, EXEMPLARY, OR CONSEQUENTIAL DAMAGES (INCLUDING BUT NOT LIMITED TO
   133                           ; PROCUREMENT OF SUBSTITUTE GOODS OR SERVICES; LOSS OF USE, DATA OR PROFITS; OR BUSINESS
   134                           ; INTERRUPTION) HOWSOEVER CAUSED AND ON ANY THEORY OF LIABILITY, WHETHER IN CONTRACT, ST
      +                          RICT
   135                           ; LIABILITY, OR TORT (INCLUDING NEGLIGENCE OR OTHERWISE) ARISING IN ANY WAY OUT OF THE U
      +                          SE OF
   136                           ; THIS SOFTWARE, EVEN IF ADVISED OF THE POSSIBILITY OF SUCH DAMAGE.
   137                           ; 
   138                           ; 
   139                           ; Code-generator required, PIC16F1788 Definitions
   140                           ; 
   141                           ; SFR Addresses
   142     0000                     	;# 
   143     0001                     	;# 
   144     0002                     	;# 
   145     0003                     	;# 
   146     0004                     	;# 
   147     0005                     	;# 
   148     0006                     	;# 
   149     0007                     	;# 
   150     0008                     	;# 
   151     0009                     	;# 
   152     000A                     	;# 
   153     000B                     	;# 
   154     000C                     	;# 
   155     000D                     	;# 
   156     000E                     	;# 
   157     0010                     	;# 
   158     0011                     	;# 
   159     0012                     	;# 
   160     0013                     	;# 
   161     0014                     	;# 
   162     0015                     	;# 
   163     0016                     	;# 
   164     0016                     	;# 
   165     0017                     	;# 
   166     0018                     	;# 
   167     0019                     	;# 
   168     001A                     	;# 
   169     001B                     	;# 
   170     001C                     	;# 
   171     008C                     	;# 
   172     008D                     	;# 
   173     008E                     	;# 
   174     0090                     	;# 
   175     0091                     	;# 
   176     0092                     	;# 
   177     0093                     	;# 
   178     0094                     	;# 
   179     0095                     	;# 
   180     0096                     	;# 
   181     0097                     	;# 
   182     0098                     	;# 
   183     0099                     	;# 
   184     009A                     	;# 
   185     009B                     	;# 
   186     009B                     	;# 
   187     009C                     	;# 
   188     009D                     	;# 
   189     009E                     	;# 
   190     009F                     	;# 
   191     010C                     	;# 
   192     010D                     	;# 
   193     010E                     	;# 
   194     0111                     	;# 
   195     0112                     	;# 
   196     0113                     	;# 
   197     0114                     	;# 
   198     0115                     	;# 
   199     0116                     	;# 
   200     0117                     	;# 
   201     0118                     	;# 
   202     0119                     	;# 
   203     011A                     	;# 
   204     011B                     	;# 
   205     011C                     	;# 
   206     011D                     	;# 
   207     011D                     	;# 
   208     011D                     	;# 
   209     011E                     	;# 
   210     011F                     	;# 
   211     018C                     	;# 
   212     018D                     	;# 
   213     018E                     	;# 
   214     0191                     	;# 
   215     0191                     	;# 
   216     0192                     	;# 
   217     0193                     	;# 
   218     0193                     	;# 
   219     0193                     	;# 
   220     0194                     	;# 
   221     0195                     	;# 
   222     0196                     	;# 
   223     0197                     	;# 
   224     0199                     	;# 
   225     0199                     	;# 
   226     0199                     	;# 
   227     019A                     	;# 
   228     019A                     	;# 
   229     019A                     	;# 
   230     019B                     	;# 
   231     019B                     	;# 
   232     019B                     	;# 
   233     019B                     	;# 
   234     019B                     	;# 
   235     019C                     	;# 
   236     019C                     	;# 
   237     019C                     	;# 
   238     019D                     	;# 
   239     019D                     	;# 
   240     019D                     	;# 
   241     019E                     	;# 
   242     019E                     	;# 
   243     019E                     	;# 
   244     019F                     	;# 
   245     019F                     	;# 
   246     019F                     	;# 
   247     019F                     	;# 
   248     019F                     	;# 
   249     020C                     	;# 
   250     020D                     	;# 
   251     020E                     	;# 
   252     0210                     	;# 
   253     0211                     	;# 
   254     0211                     	;# 
   255     0212                     	;# 
   256     0212                     	;# 
   257     0213                     	;# 
   258     0213                     	;# 
   259     0214                     	;# 
   260     0214                     	;# 
   261     0215                     	;# 
   262     0215                     	;# 
   263     0215                     	;# 
   264     0215                     	;# 
   265     0216                     	;# 
   266     0216                     	;# 
   267     0217                     	;# 
   268     0217                     	;# 
   269     028C                     	;# 
   270     028D                     	;# 
   271     028E                     	;# 
   272     0291                     	;# 
   273     0291                     	;# 
   274     0292                     	;# 
   275     0293                     	;# 
   276     0298                     	;# 
   277     0298                     	;# 
   278     0299                     	;# 
   279     029A                     	;# 
   280     030C                     	;# 
   281     030D                     	;# 
   282     030E                     	;# 
   283     0311                     	;# 
   284     0311                     	;# 
   285     0312                     	;# 
   286     0313                     	;# 
   287     038C                     	;# 
   288     038D                     	;# 
   289     038E                     	;# 
   290     0390                     	;# 
   291     0391                     	;# 
   292     0392                     	;# 
   293     0393                     	;# 
   294     0394                     	;# 
   295     0395                     	;# 
   296     0396                     	;# 
   297     0397                     	;# 
   298     0398                     	;# 
   299     0399                     	;# 
   300     039D                     	;# 
   301     039E                     	;# 
   302     039F                     	;# 
   303     0511                     	;# 
   304     0513                     	;# 
   305     051A                     	;# 
   306     0591                     	;# 
   307     0592                     	;# 
   308     0592                     	;# 
   309     0593                     	;# 
   310     0594                     	;# 
   311     0594                     	;# 
   312     0595                     	;# 
   313     0596                     	;# 
   314     0596                     	;# 
   315     0E91                     	;# 
   316     0E92                     	;# 
   317     0E93                     	;# 
   318     0E94                     	;# 
   319     0E95                     	;# 
   320     0E96                     	;# 
   321     0E97                     	;# 
   322     0E98                     	;# 
   323     0E99                     	;# 
   324     0E9A                     	;# 
   325     0E9B                     	;# 
   326     0E9C                     	;# 
   327     0E9D                     	;# 
   328     0E9E                     	;# 
   329     0E9F                     	;# 
   330     0EA0                     	;# 
   331     0EA1                     	;# 
   332     0EA1                     	;# 
   333     0EA2                     	;# 
   334     0EA3                     	;# 
   335     0EA3                     	;# 
   336     0EA4                     	;# 
   337     0EA5                     	;# 
   338     0EA5                     	;# 
   339     0EA6                     	;# 
   340     0EA7                     	;# 
   341     0EA7                     	;# 
   342     0EA8                     	;# 
   343     0EA9                     	;# 
   344     0EAA                     	;# 
   345     0EAB                     	;# 
   346     0EAC                     	;# 
   347     0EAD                     	;# 
   348     0EAE                     	;# 
   349     0EAF                     	;# 
   350     0EB1                     	;# 
   351     0EB2                     	;# 
   352     0EB3                     	;# 
   353     0EB4                     	;# 
   354     0EB5                     	;# 
   355     0EB6                     	;# 
   356     0EB7                     	;# 
   357     0EB8                     	;# 
   358     0EB9                     	;# 
   359     0EBA                     	;# 
   360     0EBB                     	;# 
   361     0EBC                     	;# 
   362     0EBD                     	;# 
   363     0EBE                     	;# 
   364     0EBF                     	;# 
   365     0EC0                     	;# 
   366     0EC1                     	;# 
   367     0EC1                     	;# 
   368     0EC2                     	;# 
   369     0EC3                     	;# 
   370     0EC3                     	;# 
   371     0EC4                     	;# 
   372     0EC5                     	;# 
   373     0EC5                     	;# 
   374     0EC6                     	;# 
   375     0EC7                     	;# 
   376     0EC7                     	;# 
   377     0EC8                     	;# 
   378     0EC9                     	;# 
   379     0ECA                     	;# 
   380     0ECB                     	;# 
   381     0ECC                     	;# 
   382     0ECD                     	;# 
   383     0ECE                     	;# 
   384     0ECF                     	;# 
   385     0ED1                     	;# 
   386     0ED2                     	;# 
   387     0ED3                     	;# 
   388     0ED4                     	;# 
   389     0ED5                     	;# 
   390     0ED6                     	;# 
   391     0ED7                     	;# 
   392     0ED8                     	;# 
   393     0ED9                     	;# 
   394     0EDA                     	;# 
   395     0EDB                     	;# 
   396     0EDC                     	;# 
   397     0EDD                     	;# 
   398     0EDE                     	;# 
   399     0EDF                     	;# 
   400     0EE0                     	;# 
   401     0EE1                     	;# 
   402     0EE1                     	;# 
   403     0EE2                     	;# 
   404     0EE3                     	;# 
   405     0EE3                     	;# 
   406     0EE4                     	;# 
   407     0EE5                     	;# 
   408     0EE5                     	;# 
   409     0EE6                     	;# 
   410     0EE7                     	;# 
   411     0EE7                     	;# 
   412     0EE8                     	;# 
   413     0EE9                     	;# 
   414     0EEA                     	;# 
   415     0EEB                     	;# 
   416     0EEC                     	;# 
   417     0EED                     	;# 
   418     0EEE                     	;# 
   419     0EEF                     	;# 
   420     0F11                     	;# 
   421     0F12                     	;# 
   422     0F13                     	;# 
   423     0F14                     	;# 
   424     0F15                     	;# 
   425     0F16                     	;# 
   426     0F17                     	;# 
   427     0F18                     	;# 
   428     0F19                     	;# 
   429     0F1A                     	;# 
   430     0F1B                     	;# 
   431     0F1C                     	;# 
   432     0F1D                     	;# 
   433     0F1E                     	;# 
   434     0F1F                     	;# 
   435     0F20                     	;# 
   436     0F21                     	;# 
   437     0F21                     	;# 
   438     0F22                     	;# 
   439     0F23                     	;# 
   440     0F23                     	;# 
   441     0F24                     	;# 
   442     0F25                     	;# 
   443     0F25                     	;# 
   444     0F26                     	;# 
   445     0F27                     	;# 
   446     0F27                     	;# 
   447     0F28                     	;# 
   448     0F29                     	;# 
   449     0F2A                     	;# 
   450     0F2B                     	;# 
   451     0F2C                     	;# 
   452     0F2D                     	;# 
   453     0F2E                     	;# 
   454     0F2F                     	;# 
   455     0FE4                     	;# 
   456     0FE5                     	;# 
   457     0FE6                     	;# 
   458     0FE7                     	;# 
   459     0FE8                     	;# 
   460     0FE9                     	;# 
   461     0FEA                     	;# 
   462     0FEB                     	;# 
   463     0FED                     	;# 
   464     0FEE                     	;# 
   465     0FEF                     	;# 
   466     0000                     	;# 
   467     0001                     	;# 
   468     0002                     	;# 
   469     0003                     	;# 
   470     0004                     	;# 
   471     0005                     	;# 
   472     0006                     	;# 
   473     0007                     	;# 
   474     0008                     	;# 
   475     0009                     	;# 
   476     000A                     	;# 
   477     000B                     	;# 
   478     000C                     	;# 
   479     000D                     	;# 
   480     000E                     	;# 
   481     0010                     	;# 
   482     0011                     	;# 
   483     0012                     	;# 
   484     0013                     	;# 
   485     0014                     	;# 
   486     0015                     	;# 
   487     0016                     	;# 
   488     0016                     	;# 
   489     0017                     	;# 
   490     0018                     	;# 
   491     0019                     	;# 
   492     001A                     	;# 
   493     001B                     	;# 
   494     001C                     	;# 
   495     008C                     	;# 
   496     008D                     	;# 
   497     008E                     	;# 
   498     0090                     	;# 
   499     0091                     	;# 
   500     0092                     	;# 
   501     0093                     	;# 
   502     0094                     	;# 
   503     0095                     	;# 
   504     0096                     	;# 
   505     0097                     	;# 
   506     0098                     	;# 
   507     0099                     	;# 
   508     009A                     	;# 
   509     009B                     	;# 
   510     009B                     	;# 
   511     009C                     	;# 
   512     009D                     	;# 
   513     009E                     	;# 
   514     009F                     	;# 
   515     010C                     	;# 
   516     010D                     	;# 
   517     010E                     	;# 
   518     0111                     	;# 
   519     0112                     	;# 
   520     0113                     	;# 
   521     0114                     	;# 
   522     0115                     	;# 
   523     0116                     	;# 
   524     0117                     	;# 
   525     0118                     	;# 
   526     0119                     	;# 
   527     011A                     	;# 
   528     011B                     	;# 
   529     011C                     	;# 
   530     011D                     	;# 
   531     011D                     	;# 
   532     011D                     	;# 
   533     011E                     	;# 
   534     011F                     	;# 
   535     018C                     	;# 
   536     018D                     	;# 
   537     018E                     	;# 
   538     0191                     	;# 
   539     0191                     	;# 
   540     0192                     	;# 
   541     0193                     	;# 
   542     0193                     	;# 
   543     0193                     	;# 
   544     0194                     	;# 
   545     0195                     	;# 
   546     0196                     	;# 
   547     0197                     	;# 
   548     0199                     	;# 
   549     0199                     	;# 
   550     0199                     	;# 
   551     019A                     	;# 
   552     019A                     	;# 
   553     019A                     	;# 
   554     019B                     	;# 
   555     019B                     	;# 
   556     019B                     	;# 
   557     019B                     	;# 
   558     019B                     	;# 
   559     019C                     	;# 
   560     019C                     	;# 
   561     019C                     	;# 
   562     019D                     	;# 
   563     019D                     	;# 
   564     019D                     	;# 
   565     019E                     	;# 
   566     019E                     	;# 
   567     019E                     	;# 
   568     019F                     	;# 
   569     019F                     	;# 
   570     019F                     	;# 
   571     019F                     	;# 
   572     019F                     	;# 
   573     020C                     	;# 
   574     020D                     	;# 
   575     020E                     	;# 
   576     0210                     	;# 
   577     0211                     	;# 
   578     0211                     	;# 
   579     0212                     	;# 
   580     0212                     	;# 
   581     0213                     	;# 
   582     0213                     	;# 
   583     0214                     	;# 
   584     0214                     	;# 
   585     0215                     	;# 
   586     0215                     	;# 
   587     0215                     	;# 
   588     0215                     	;# 
   589     0216                     	;# 
   590     0216                     	;# 
   591     0217                     	;# 
   592     0217                     	;# 
   593     028C                     	;# 
   594     028D                     	;# 
   595     028E                     	;# 
   596     0291                     	;# 
   597     0291                     	;# 
   598     0292                     	;# 
   599     0293                     	;# 
   600     0298                     	;# 
   601     0298                     	;# 
   602     0299                     	;# 
   603     029A                     	;# 
   604     030C                     	;# 
   605     030D                     	;# 
   606     030E                     	;# 
   607     0311                     	;# 
   608     0311                     	;# 
   609     0312                     	;# 
   610     0313                     	;# 
   611     038C                     	;# 
   612     038D                     	;# 
   613     038E                     	;# 
   614     0390                     	;# 
   615     0391                     	;# 
   616     0392                     	;# 
   617     0393                     	;# 
   618     0394                     	;# 
   619     0395                     	;# 
   620     0396                     	;# 
   621     0397                     	;# 
   622     0398                     	;# 
   623     0399                     	;# 
   624     039D                     	;# 
   625     039E                     	;# 
   626     039F                     	;# 
   627     0511                     	;# 
   628     0513                     	;# 
   629     051A                     	;# 
   630     0591                     	;# 
   631     0592                     	;# 
   632     0592                     	;# 
   633     0593                     	;# 
   634     0594                     	;# 
   635     0594                     	;# 
   636     0595                     	;# 
   637     0596                     	;# 
   638     0596                     	;# 
   639     0E91                     	;# 
   640     0E92                     	;# 
   641     0E93                     	;# 
   642     0E94                     	;# 
   643     0E95                     	;# 
   644     0E96                     	;# 
   645     0E97                     	;# 
   646     0E98                     	;# 
   647     0E99                     	;# 
   648     0E9A                     	;# 
   649     0E9B                     	;# 
   650     0E9C                     	;# 
   651     0E9D                     	;# 
   652     0E9E                     	;# 
   653     0E9F                     	;# 
   654     0EA0                     	;# 
   655     0EA1                     	;# 
   656     0EA1                     	;# 
   657     0EA2                     	;# 
   658     0EA3                     	;# 
   659     0EA3                     	;# 
   660     0EA4                     	;# 
   661     0EA5                     	;# 
   662     0EA5                     	;# 
   663     0EA6                     	;# 
   664     0EA7                     	;# 
   665     0EA7                     	;# 
   666     0EA8                     	;# 
   667     0EA9                     	;# 
   668     0EAA                     	;# 
   669     0EAB                     	;# 
   670     0EAC                     	;# 
   671     0EAD                     	;# 
   672     0EAE                     	;# 
   673     0EAF                     	;# 
   674     0EB1                     	;# 
   675     0EB2                     	;# 
   676     0EB3                     	;# 
   677     0EB4                     	;# 
   678     0EB5                     	;# 
   679     0EB6                     	;# 
   680     0EB7                     	;# 
   681     0EB8                     	;# 
   682     0EB9                     	;# 
   683     0EBA                     	;# 
   684     0EBB                     	;# 
   685     0EBC                     	;# 
   686     0EBD                     	;# 
   687     0EBE                     	;# 
   688     0EBF                     	;# 
   689     0EC0                     	;# 
   690     0EC1                     	;# 
   691     0EC1                     	;# 
   692     0EC2                     	;# 
   693     0EC3                     	;# 
   694     0EC3                     	;# 
   695     0EC4                     	;# 
   696     0EC5                     	;# 
   697     0EC5                     	;# 
   698     0EC6                     	;# 
   699     0EC7                     	;# 
   700     0EC7                     	;# 
   701     0EC8                     	;# 
   702     0EC9                     	;# 
   703     0ECA                     	;# 
   704     0ECB                     	;# 
   705     0ECC                     	;# 
   706     0ECD                     	;# 
   707     0ECE                     	;# 
   708     0ECF                     	;# 
   709     0ED1                     	;# 
   710     0ED2                     	;# 
   711     0ED3                     	;# 
   712     0ED4                     	;# 
   713     0ED5                     	;# 
   714     0ED6                     	;# 
   715     0ED7                     	;# 
   716     0ED8                     	;# 
   717     0ED9                     	;# 
   718     0EDA                     	;# 
   719     0EDB                     	;# 
   720     0EDC                     	;# 
   721     0EDD                     	;# 
   722     0EDE                     	;# 
   723     0EDF                     	;# 
   724     0EE0                     	;# 
   725     0EE1                     	;# 
   726     0EE1                     	;# 
   727     0EE2                     	;# 
   728     0EE3                     	;# 
   729     0EE3                     	;# 
   730     0EE4                     	;# 
   731     0EE5                     	;# 
   732     0EE5                     	;# 
   733     0EE6                     	;# 
   734     0EE7                     	;# 
   735     0EE7                     	;# 
   736     0EE8                     	;# 
   737     0EE9                     	;# 
   738     0EEA                     	;# 
   739     0EEB                     	;# 
   740     0EEC                     	;# 
   741     0EED                     	;# 
   742     0EEE                     	;# 
   743     0EEF                     	;# 
   744     0F11                     	;# 
   745     0F12                     	;# 
   746     0F13                     	;# 
   747     0F14                     	;# 
   748     0F15                     	;# 
   749     0F16                     	;# 
   750     0F17                     	;# 
   751     0F18                     	;# 
   752     0F19                     	;# 
   753     0F1A                     	;# 
   754     0F1B                     	;# 
   755     0F1C                     	;# 
   756     0F1D                     	;# 
   757     0F1E                     	;# 
   758     0F1F                     	;# 
   759     0F20                     	;# 
   760     0F21                     	;# 
   761     0F21                     	;# 
   762     0F22                     	;# 
   763     0F23                     	;# 
   764     0F23                     	;# 
   765     0F24                     	;# 
   766     0F25                     	;# 
   767     0F25                     	;# 
   768     0F26                     	;# 
   769     0F27                     	;# 
   770     0F27                     	;# 
   771     0F28                     	;# 
   772     0F29                     	;# 
   773     0F2A                     	;# 
   774     0F2B                     	;# 
   775     0F2C                     	;# 
   776     0F2D                     	;# 
   777     0F2E                     	;# 
   778     0F2F                     	;# 
   779     0FE4                     	;# 
   780     0FE5                     	;# 
   781     0FE6                     	;# 
   782     0FE7                     	;# 
   783     0FE8                     	;# 
   784     0FE9                     	;# 
   785     0FEA                     	;# 
   786     0FEB                     	;# 
   787     0FED                     	;# 
   788     0FEE                     	;# 
   789     0FEF                     	;# 
   790     0000                     	;# 
   791     0001                     	;# 
   792     0002                     	;# 
   793     0003                     	;# 
   794     0004                     	;# 
   795     0005                     	;# 
   796     0006                     	;# 
   797     0007                     	;# 
   798     0008                     	;# 
   799     0009                     	;# 
   800     000A                     	;# 
   801     000B                     	;# 
   802     000C                     	;# 
   803     000D                     	;# 
   804     000E                     	;# 
   805     0010                     	;# 
   806     0011                     	;# 
   807     0012                     	;# 
   808     0013                     	;# 
   809     0014                     	;# 
   810     0015                     	;# 
   811     0016                     	;# 
   812     0016                     	;# 
   813     0017                     	;# 
   814     0018                     	;# 
   815     0019                     	;# 
   816     001A                     	;# 
   817     001B                     	;# 
   818     001C                     	;# 
   819     008C                     	;# 
   820     008D                     	;# 
   821     008E                     	;# 
   822     0090                     	;# 
   823     0091                     	;# 
   824     0092                     	;# 
   825     0093                     	;# 
   826     0094                     	;# 
   827     0095                     	;# 
   828     0096                     	;# 
   829     0097                     	;# 
   830     0098                     	;# 
   831     0099                     	;# 
   832     009A                     	;# 
   833     009B                     	;# 
   834     009B                     	;# 
   835     009C                     	;# 
   836     009D                     	;# 
   837     009E                     	;# 
   838     009F                     	;# 
   839     010C                     	;# 
   840     010D                     	;# 
   841     010E                     	;# 
   842     0111                     	;# 
   843     0112                     	;# 
   844     0113                     	;# 
   845     0114                     	;# 
   846     0115                     	;# 
   847     0116                     	;# 
   848     0117                     	;# 
   849     0118                     	;# 
   850     0119                     	;# 
   851     011A                     	;# 
   852     011B                     	;# 
   853     011C                     	;# 
   854     011D                     	;# 
   855     011D                     	;# 
   856     011D                     	;# 
   857     011E                     	;# 
   858     011F                     	;# 
   859     018C                     	;# 
   860     018D                     	;# 
   861     018E                     	;# 
   862     0191                     	;# 
   863     0191                     	;# 
   864     0192                     	;# 
   865     0193                     	;# 
   866     0193                     	;# 
   867     0193                     	;# 
   868     0194                     	;# 
   869     0195                     	;# 
   870     0196                     	;# 
   871     0197                     	;# 
   872     0199                     	;# 
   873     0199                     	;# 
   874     0199                     	;# 
   875     019A                     	;# 
   876     019A                     	;# 
   877     019A                     	;# 
   878     019B                     	;# 
   879     019B                     	;# 
   880     019B                     	;# 
   881     019B                     	;# 
   882     019B                     	;# 
   883     019C                     	;# 
   884     019C                     	;# 
   885     019C                     	;# 
   886     019D                     	;# 
   887     019D                     	;# 
   888     019D                     	;# 
   889     019E                     	;# 
   890     019E                     	;# 
   891     019E                     	;# 
   892     019F                     	;# 
   893     019F                     	;# 
   894     019F                     	;# 
   895     019F                     	;# 
   896     019F                     	;# 
   897     020C                     	;# 
   898     020D                     	;# 
   899     020E                     	;# 
   900     0210                     	;# 
   901     0211                     	;# 
   902     0211                     	;# 
   903     0212                     	;# 
   904     0212                     	;# 
   905     0213                     	;# 
   906     0213                     	;# 
   907     0214                     	;# 
   908     0214                     	;# 
   909     0215                     	;# 
   910     0215                     	;# 
   911     0215                     	;# 
   912     0215                     	;# 
   913     0216                     	;# 
   914     0216                     	;# 
   915     0217                     	;# 
   916     0217                     	;# 
   917     028C                     	;# 
   918     028D                     	;# 
   919     028E                     	;# 
   920     0291                     	;# 
   921     0291                     	;# 
   922     0292                     	;# 
   923     0293                     	;# 
   924     0298                     	;# 
   925     0298                     	;# 
   926     0299                     	;# 
   927     029A                     	;# 
   928     030C                     	;# 
   929     030D                     	;# 
   930     030E                     	;# 
   931     0311                     	;# 
   932     0311                     	;# 
   933     0312                     	;# 
   934     0313                     	;# 
   935     038C                     	;# 
   936     038D                     	;# 
   937     038E                     	;# 
   938     0390                     	;# 
   939     0391                     	;# 
   940     0392                     	;# 
   941     0393                     	;# 
   942     0394                     	;# 
   943     0395                     	;# 
   944     0396                     	;# 
   945     0397                     	;# 
   946     0398                     	;# 
   947     0399                     	;# 
   948     039D                     	;# 
   949     039E                     	;# 
   950     039F                     	;# 
   951     0511                     	;# 
   952     0513                     	;# 
   953     051A                     	;# 
   954     0591                     	;# 
   955     0592                     	;# 
   956     0592                     	;# 
   957     0593                     	;# 
   958     0594                     	;# 
   959     0594                     	;# 
   960     0595                     	;# 
   961     0596                     	;# 
   962     0596                     	;# 
   963     0E91                     	;# 
   964     0E92                     	;# 
   965     0E93                     	;# 
   966     0E94                     	;# 
   967     0E95                     	;# 
   968     0E96                     	;# 
   969     0E97                     	;# 
   970     0E98                     	;# 
   971     0E99                     	;# 
   972     0E9A                     	;# 
   973     0E9B                     	;# 
   974     0E9C                     	;# 
   975     0E9D                     	;# 
   976     0E9E                     	;# 
   977     0E9F                     	;# 
   978     0EA0                     	;# 
   979     0EA1                     	;# 
   980     0EA1                     	;# 
   981     0EA2                     	;# 
   982     0EA3                     	;# 
   983     0EA3                     	;# 
   984     0EA4                     	;# 
   985     0EA5                     	;# 
   986     0EA5                     	;# 
   987     0EA6                     	;# 
   988     0EA7                     	;# 
   989     0EA7                     	;# 
   990     0EA8                     	;# 
   991     0EA9                     	;# 
   992     0EAA                     	;# 
   993     0EAB                     	;# 
   994     0EAC                     	;# 
   995     0EAD                     	;# 
   996     0EAE                     	;# 
   997     0EAF                     	;# 
   998     0EB1                     	;# 
   999     0EB2                     	;# 
  1000     0EB3                     	;# 
  1001     0EB4                     	;# 
  1002     0EB5                     	;# 
  1003     0EB6                     	;# 
  1004     0EB7                     	;# 
  1005     0EB8                     	;# 
  1006     0EB9                     	;# 
  1007     0EBA                     	;# 
  1008     0EBB                     	;# 
  1009     0EBC                     	;# 
  1010     0EBD                     	;# 
  1011     0EBE                     	;# 
  1012     0EBF                     	;# 
  1013     0EC0                     	;# 
  1014     0EC1                     	;# 
  1015     0EC1                     	;# 
  1016     0EC2                     	;# 
  1017     0EC3                     	;# 
  1018     0EC3                     	;# 
  1019     0EC4                     	;# 
  1020     0EC5                     	;# 
  1021     0EC5                     	;# 
  1022     0EC6                     	;# 
  1023     0EC7                     	;# 
  1024     0EC7                     	;# 
  1025     0EC8                     	;# 
  1026     0EC9                     	;# 
  1027     0ECA                     	;# 
  1028     0ECB                     	;# 
  1029     0ECC                     	;# 
  1030     0ECD                     	;# 
  1031     0ECE                     	;# 
  1032     0ECF                     	;# 
  1033     0ED1                     	;# 
  1034     0ED2                     	;# 
  1035     0ED3                     	;# 
  1036     0ED4                     	;# 
  1037     0ED5                     	;# 
  1038     0ED6                     	;# 
  1039     0ED7                     	;# 
  1040     0ED8                     	;# 
  1041     0ED9                     	;# 
  1042     0EDA                     	;# 
  1043     0EDB                     	;# 
  1044     0EDC                     	;# 
  1045     0EDD                     	;# 
  1046     0EDE                     	;# 
  1047     0EDF                     	;# 
  1048     0EE0                     	;# 
  1049     0EE1                     	;# 
  1050     0EE1                     	;# 
  1051     0EE2                     	;# 
  1052     0EE3                     	;# 
  1053     0EE3                     	;# 
  1054     0EE4                     	;# 
  1055     0EE5                     	;# 
  1056     0EE5                     	;# 
  1057     0EE6                     	;# 
  1058     0EE7                     	;# 
  1059     0EE7                     	;# 
  1060     0EE8                     	;# 
  1061     0EE9                     	;# 
  1062     0EEA                     	;# 
  1063     0EEB                     	;# 
  1064     0EEC                     	;# 
  1065     0EED                     	;# 
  1066     0EEE                     	;# 
  1067     0EEF                     	;# 
  1068     0F11                     	;# 
  1069     0F12                     	;# 
  1070     0F13                     	;# 
  1071     0F14                     	;# 
  1072     0F15                     	;# 
  1073     0F16                     	;# 
  1074     0F17                     	;# 
  1075     0F18                     	;# 
  1076     0F19                     	;# 
  1077     0F1A                     	;# 
  1078     0F1B                     	;# 
  1079     0F1C                     	;# 
  1080     0F1D                     	;# 
  1081     0F1E                     	;# 
  1082     0F1F                     	;# 
  1083     0F20                     	;# 
  1084     0F21                     	;# 
  1085     0F21                     	;# 
  1086     0F22                     	;# 
  1087     0F23                     	;# 
  1088     0F23                     	;# 
  1089     0F24                     	;# 
  1090     0F25                     	;# 
  1091     0F25                     	;# 
  1092     0F26                     	;# 
  1093     0F27                     	;# 
  1094     0F27                     	;# 
  1095     0F28                     	;# 
  1096     0F29                     	;# 
  1097     0F2A                     	;# 
  1098     0F2B                     	;# 
  1099     0F2C                     	;# 
  1100     0F2D                     	;# 
  1101     0F2E                     	;# 
  1102     0F2F                     	;# 
  1103     0FE4                     	;# 
  1104     0FE5                     	;# 
  1105     0FE6                     	;# 
  1106     0FE7                     	;# 
  1107     0FE8                     	;# 
  1108     0FE9                     	;# 
  1109     0FEA                     	;# 
  1110     0FEB                     	;# 
  1111     0FED                     	;# 
  1112     0FEE                     	;# 
  1113     0FEF                     	;# 
  1114     0000                     	;# 
  1115     0001                     	;# 
  1116     0002                     	;# 
  1117     0003                     	;# 
  1118     0004                     	;# 
  1119     0005                     	;# 
  1120     0006                     	;# 
  1121     0007                     	;# 
  1122     0008                     	;# 
  1123     0009                     	;# 
  1124     000A                     	;# 
  1125     000B                     	;# 
  1126     000C                     	;# 
  1127     000D                     	;# 
  1128     000E                     	;# 
  1129     0010                     	;# 
  1130     0011                     	;# 
  1131     0012                     	;# 
  1132     0013                     	;# 
  1133     0014                     	;# 
  1134     0015                     	;# 
  1135     0016                     	;# 
  1136     0016                     	;# 
  1137     0017                     	;# 
  1138     0018                     	;# 
  1139     0019                     	;# 
  1140     001A                     	;# 
  1141     001B                     	;# 
  1142     001C                     	;# 
  1143     008C                     	;# 
  1144     008D                     	;# 
  1145     008E                     	;# 
  1146     0090                     	;# 
  1147     0091                     	;# 
  1148     0092                     	;# 
  1149     0093                     	;# 
  1150     0094                     	;# 
  1151     0095                     	;# 
  1152     0096                     	;# 
  1153     0097                     	;# 
  1154     0098                     	;# 
  1155     0099                     	;# 
  1156     009A                     	;# 
  1157     009B                     	;# 
  1158     009B                     	;# 
  1159     009C                     	;# 
  1160     009D                     	;# 
  1161     009E                     	;# 
  1162     009F                     	;# 
  1163     010C                     	;# 
  1164     010D                     	;# 
  1165     010E                     	;# 
  1166     0111                     	;# 
  1167     0112                     	;# 
  1168     0113                     	;# 
  1169     0114                     	;# 
  1170     0115                     	;# 
  1171     0116                     	;# 
  1172     0117                     	;# 
  1173     0118                     	;# 
  1174     0119                     	;# 
  1175     011A                     	;# 
  1176     011B                     	;# 
  1177     011C                     	;# 
  1178     011D                     	;# 
  1179     011D                     	;# 
  1180     011D                     	;# 
  1181     011E                     	;# 
  1182     011F                     	;# 
  1183     018C                     	;# 
  1184     018D                     	;# 
  1185     018E                     	;# 
  1186     0191                     	;# 
  1187     0191                     	;# 
  1188     0192                     	;# 
  1189     0193                     	;# 
  1190     0193                     	;# 
  1191     0193                     	;# 
  1192     0194                     	;# 
  1193     0195                     	;# 
  1194     0196                     	;# 
  1195     0197                     	;# 
  1196     0199                     	;# 
  1197     0199                     	;# 
  1198     0199                     	;# 
  1199     019A                     	;# 
  1200     019A                     	;# 
  1201     019A                     	;# 
  1202     019B                     	;# 
  1203     019B                     	;# 
  1204     019B                     	;# 
  1205     019B                     	;# 
  1206     019B                     	;# 
  1207     019C                     	;# 
  1208     019C                     	;# 
  1209     019C                     	;# 
  1210     019D                     	;# 
  1211     019D                     	;# 
  1212     019D                     	;# 
  1213     019E                     	;# 
  1214     019E                     	;# 
  1215     019E                     	;# 
  1216     019F                     	;# 
  1217     019F                     	;# 
  1218     019F                     	;# 
  1219     019F                     	;# 
  1220     019F                     	;# 
  1221     020C                     	;# 
  1222     020D                     	;# 
  1223     020E                     	;# 
  1224     0210                     	;# 
  1225     0211                     	;# 
  1226     0211                     	;# 
  1227     0212                     	;# 
  1228     0212                     	;# 
  1229     0213                     	;# 
  1230     0213                     	;# 
  1231     0214                     	;# 
  1232     0214                     	;# 
  1233     0215                     	;# 
  1234     0215                     	;# 
  1235     0215                     	;# 
  1236     0215                     	;# 
  1237     0216                     	;# 
  1238     0216                     	;# 
  1239     0217                     	;# 
  1240     0217                     	;# 
  1241     028C                     	;# 
  1242     028D                     	;# 
  1243     028E                     	;# 
  1244     0291                     	;# 
  1245     0291                     	;# 
  1246     0292                     	;# 
  1247     0293                     	;# 
  1248     0298                     	;# 
  1249     0298                     	;# 
  1250     0299                     	;# 
  1251     029A                     	;# 
  1252     030C                     	;# 
  1253     030D                     	;# 
  1254     030E                     	;# 
  1255     0311                     	;# 
  1256     0311                     	;# 
  1257     0312                     	;# 
  1258     0313                     	;# 
  1259     038C                     	;# 
  1260     038D                     	;# 
  1261     038E                     	;# 
  1262     0390                     	;# 
  1263     0391                     	;# 
  1264     0392                     	;# 
  1265     0393                     	;# 
  1266     0394                     	;# 
  1267     0395                     	;# 
  1268     0396                     	;# 
  1269     0397                     	;# 
  1270     0398                     	;# 
  1271     0399                     	;# 
  1272     039D                     	;# 
  1273     039E                     	;# 
  1274     039F                     	;# 
  1275     0511                     	;# 
  1276     0513                     	;# 
  1277     051A                     	;# 
  1278     0591                     	;# 
  1279     0592                     	;# 
  1280     0592                     	;# 
  1281     0593                     	;# 
  1282     0594                     	;# 
  1283     0594                     	;# 
  1284     0595                     	;# 
  1285     0596                     	;# 
  1286     0596                     	;# 
  1287     0E91                     	;# 
  1288     0E92                     	;# 
  1289     0E93                     	;# 
  1290     0E94                     	;# 
  1291     0E95                     	;# 
  1292     0E96                     	;# 
  1293     0E97                     	;# 
  1294     0E98                     	;# 
  1295     0E99                     	;# 
  1296     0E9A                     	;# 
  1297     0E9B                     	;# 
  1298     0E9C                     	;# 
  1299     0E9D                     	;# 
  1300     0E9E                     	;# 
  1301     0E9F                     	;# 
  1302     0EA0                     	;# 
  1303     0EA1                     	;# 
  1304     0EA1                     	;# 
  1305     0EA2                     	;# 
  1306     0EA3                     	;# 
  1307     0EA3                     	;# 
  1308     0EA4                     	;# 
  1309     0EA5                     	;# 
  1310     0EA5                     	;# 
  1311     0EA6                     	;# 
  1312     0EA7                     	;# 
  1313     0EA7                     	;# 
  1314     0EA8                     	;# 
  1315     0EA9                     	;# 
  1316     0EAA                     	;# 
  1317     0EAB                     	;# 
  1318     0EAC                     	;# 
  1319     0EAD                     	;# 
  1320     0EAE                     	;# 
  1321     0EAF                     	;# 
  1322     0EB1                     	;# 
  1323     0EB2                     	;# 
  1324     0EB3                     	;# 
  1325     0EB4                     	;# 
  1326     0EB5                     	;# 
  1327     0EB6                     	;# 
  1328     0EB7                     	;# 
  1329     0EB8                     	;# 
  1330     0EB9                     	;# 
  1331     0EBA                     	;# 
  1332     0EBB                     	;# 
  1333     0EBC                     	;# 
  1334     0EBD                     	;# 
  1335     0EBE                     	;# 
  1336     0EBF                     	;# 
  1337     0EC0                     	;# 
  1338     0EC1                     	;# 
  1339     0EC1                     	;# 
  1340     0EC2                     	;# 
  1341     0EC3                     	;# 
  1342     0EC3                     	;# 
  1343     0EC4                     	;# 
  1344     0EC5                     	;# 
  1345     0EC5                     	;# 
  1346     0EC6                     	;# 
  1347     0EC7                     	;# 
  1348     0EC7                     	;# 
  1349     0EC8                     	;# 
  1350     0EC9                     	;# 
  1351     0ECA                     	;# 
  1352     0ECB                     	;# 
  1353     0ECC                     	;# 
  1354     0ECD                     	;# 
  1355     0ECE                     	;# 
  1356     0ECF                     	;# 
  1357     0ED1                     	;# 
  1358     0ED2                     	;# 
  1359     0ED3                     	;# 
  1360     0ED4                     	;# 
  1361     0ED5                     	;# 
  1362     0ED6                     	;# 
  1363     0ED7                     	;# 
  1364     0ED8                     	;# 
  1365     0ED9                     	;# 
  1366     0EDA                     	;# 
  1367     0EDB                     	;# 
  1368     0EDC                     	;# 
  1369     0EDD                     	;# 
  1370     0EDE                     	;# 
  1371     0EDF                     	;# 
  1372     0EE0                     	;# 
  1373     0EE1                     	;# 
  1374     0EE1                     	;# 
  1375     0EE2                     	;# 
  1376     0EE3                     	;# 
  1377     0EE3                     	;# 
  1378     0EE4                     	;# 
  1379     0EE5                     	;# 
  1380     0EE5                     	;# 
  1381     0EE6                     	;# 
  1382     0EE7                     	;# 
  1383     0EE7                     	;# 
  1384     0EE8                     	;# 
  1385     0EE9                     	;# 
  1386     0EEA                     	;# 
  1387     0EEB                     	;# 
  1388     0EEC                     	;# 
  1389     0EED                     	;# 
  1390     0EEE                     	;# 
  1391     0EEF                     	;# 
  1392     0F11                     	;# 
  1393     0F12                     	;# 
  1394     0F13                     	;# 
  1395     0F14                     	;# 
  1396     0F15                     	;# 
  1397     0F16                     	;# 
  1398     0F17                     	;# 
  1399     0F18                     	;# 
  1400     0F19                     	;# 
  1401     0F1A                     	;# 
  1402     0F1B                     	;# 
  1403     0F1C                     	;# 
  1404     0F1D                     	;# 
  1405     0F1E                     	;# 
  1406     0F1F                     	;# 
  1407     0F20                     	;# 
  1408     0F21                     	;# 
  1409     0F21                     	;# 
  1410     0F22                     	;# 
  1411     0F23                     	;# 
  1412     0F23                     	;# 
  1413     0F24                     	;# 
  1414     0F25                     	;# 
  1415     0F25                     	;# 
  1416     0F26                     	;# 
  1417     0F27                     	;# 
  1418     0F27                     	;# 
  1419     0F28                     	;# 
  1420     0F29                     	;# 
  1421     0F2A                     	;# 
  1422     0F2B                     	;# 
  1423     0F2C                     	;# 
  1424     0F2D                     	;# 
  1425     0F2E                     	;# 
  1426     0F2F                     	;# 
  1427     0FE4                     	;# 
  1428     0FE5                     	;# 
  1429     0FE6                     	;# 
  1430     0FE7                     	;# 
  1431     0FE8                     	;# 
  1432     0FE9                     	;# 
  1433     0FEA                     	;# 
  1434     0FEB                     	;# 
  1435     0FED                     	;# 
  1436     0FEE                     	;# 
  1437     0FEF                     	;# 
  1438     0000                     	;# 
  1439     0001                     	;# 
  1440     0002                     	;# 
  1441     0003                     	;# 
  1442     0004                     	;# 
  1443     0005                     	;# 
  1444     0006                     	;# 
  1445     0007                     	;# 
  1446     0008                     	;# 
  1447     0009                     	;# 
  1448     000A                     	;# 
  1449     000B                     	;# 
  1450     000C                     	;# 
  1451     000D                     	;# 
  1452     000E                     	;# 
  1453     0010                     	;# 
  1454     0011                     	;# 
  1455     0012                     	;# 
  1456     0013                     	;# 
  1457     0014                     	;# 
  1458     0015                     	;# 
  1459     0016                     	;# 
  1460     0016                     	;# 
  1461     0017                     	;# 
  1462     0018                     	;# 
  1463     0019                     	;# 
  1464     001A                     	;# 
  1465     001B                     	;# 
  1466     001C                     	;# 
  1467     008C                     	;# 
  1468     008D                     	;# 
  1469     008E                     	;# 
  1470     0090                     	;# 
  1471     0091                     	;# 
  1472     0092                     	;# 
  1473     0093                     	;# 
  1474     0094                     	;# 
  1475     0095                     	;# 
  1476     0096                     	;# 
  1477     0097                     	;# 
  1478     0098                     	;# 
  1479     0099                     	;# 
  1480     009A                     	;# 
  1481     009B                     	;# 
  1482     009B                     	;# 
  1483     009C                     	;# 
  1484     009D                     	;# 
  1485     009E                     	;# 
  1486     009F                     	;# 
  1487     010C                     	;# 
  1488     010D                     	;# 
  1489     010E                     	;# 
  1490     0111                     	;# 
  1491     0112                     	;# 
  1492     0113                     	;# 
  1493     0114                     	;# 
  1494     0115                     	;# 
  1495     0116                     	;# 
  1496     0117                     	;# 
  1497     0118                     	;# 
  1498     0119                     	;# 
  1499     011A                     	;# 
  1500     011B                     	;# 
  1501     011C                     	;# 
  1502     011D                     	;# 
  1503     011D                     	;# 
  1504     011D                     	;# 
  1505     011E                     	;# 
  1506     011F                     	;# 
  1507     018C                     	;# 
  1508     018D                     	;# 
  1509     018E                     	;# 
  1510     0191                     	;# 
  1511     0191                     	;# 
  1512     0192                     	;# 
  1513     0193                     	;# 
  1514     0193                     	;# 
  1515     0193                     	;# 
  1516     0194                     	;# 
  1517     0195                     	;# 
  1518     0196                     	;# 
  1519     0197                     	;# 
  1520     0199                     	;# 
  1521     0199                     	;# 
  1522     0199                     	;# 
  1523     019A                     	;# 
  1524     019A                     	;# 
  1525     019A                     	;# 
  1526     019B                     	;# 
  1527     019B                     	;# 
  1528     019B                     	;# 
  1529     019B                     	;# 
  1530     019B                     	;# 
  1531     019C                     	;# 
  1532     019C                     	;# 
  1533     019C                     	;# 
  1534     019D                     	;# 
  1535     019D                     	;# 
  1536     019D                     	;# 
  1537     019E                     	;# 
  1538     019E                     	;# 
  1539     019E                     	;# 
  1540     019F                     	;# 
  1541     019F                     	;# 
  1542     019F                     	;# 
  1543     019F                     	;# 
  1544     019F                     	;# 
  1545     020C                     	;# 
  1546     020D                     	;# 
  1547     020E                     	;# 
  1548     0210                     	;# 
  1549     0211                     	;# 
  1550     0211                     	;# 
  1551     0212                     	;# 
  1552     0212                     	;# 
  1553     0213                     	;# 
  1554     0213                     	;# 
  1555     0214                     	;# 
  1556     0214                     	;# 
  1557     0215                     	;# 
  1558     0215                     	;# 
  1559     0215                     	;# 
  1560     0215                     	;# 
  1561     0216                     	;# 
  1562     0216                     	;# 
  1563     0217                     	;# 
  1564     0217                     	;# 
  1565     028C                     	;# 
  1566     028D                     	;# 
  1567     028E                     	;# 
  1568     0291                     	;# 
  1569     0291                     	;# 
  1570     0292                     	;# 
  1571     0293                     	;# 
  1572     0298                     	;# 
  1573     0298                     	;# 
  1574     0299                     	;# 
  1575     029A                     	;# 
  1576     030C                     	;# 
  1577     030D                     	;# 
  1578     030E                     	;# 
  1579     0311                     	;# 
  1580     0311                     	;# 
  1581     0312                     	;# 
  1582     0313                     	;# 
  1583     038C                     	;# 
  1584     038D                     	;# 
  1585     038E                     	;# 
  1586     0390                     	;# 
  1587     0391                     	;# 
  1588     0392                     	;# 
  1589     0393                     	;# 
  1590     0394                     	;# 
  1591     0395                     	;# 
  1592     0396                     	;# 
  1593     0397                     	;# 
  1594     0398                     	;# 
  1595     0399                     	;# 
  1596     039D                     	;# 
  1597     039E                     	;# 
  1598     039F                     	;# 
  1599     0511                     	;# 
  1600     0513                     	;# 
  1601     051A                     	;# 
  1602     0591                     	;# 
  1603     0592                     	;# 
  1604     0592                     	;# 
  1605     0593                     	;# 
  1606     0594                     	;# 
  1607     0594                     	;# 
  1608     0595                     	;# 
  1609     0596                     	;# 
  1610     0596                     	;# 
  1611     0E91                     	;# 
  1612     0E92                     	;# 
  1613     0E93                     	;# 
  1614     0E94                     	;# 
  1615     0E95                     	;# 
  1616     0E96                     	;# 
  1617     0E97                     	;# 
  1618     0E98                     	;# 
  1619     0E99                     	;# 
  1620     0E9A                     	;# 
  1621     0E9B                     	;# 
  1622     0E9C                     	;# 
  1623     0E9D                     	;# 
  1624     0E9E                     	;# 
  1625     0E9F                     	;# 
  1626     0EA0                     	;# 
  1627     0EA1                     	;# 
  1628     0EA1                     	;# 
  1629     0EA2                     	;# 
  1630     0EA3                     	;# 
  1631     0EA3                     	;# 
  1632     0EA4                     	;# 
  1633     0EA5                     	;# 
  1634     0EA5                     	;# 
  1635     0EA6                     	;# 
  1636     0EA7                     	;# 
  1637     0EA7                     	;# 
  1638     0EA8                     	;# 
  1639     0EA9                     	;# 
  1640     0EAA                     	;# 
  1641     0EAB                     	;# 
  1642     0EAC                     	;# 
  1643     0EAD                     	;# 
  1644     0EAE                     	;# 
  1645     0EAF                     	;# 
  1646     0EB1                     	;# 
  1647     0EB2                     	;# 
  1648     0EB3                     	;# 
  1649     0EB4                     	;# 
  1650     0EB5                     	;# 
  1651     0EB6                     	;# 
  1652     0EB7                     	;# 
  1653     0EB8                     	;# 
  1654     0EB9                     	;# 
  1655     0EBA                     	;# 
  1656     0EBB                     	;# 
  1657     0EBC                     	;# 
  1658     0EBD                     	;# 
  1659     0EBE                     	;# 
  1660     0EBF                     	;# 
  1661     0EC0                     	;# 
  1662     0EC1                     	;# 
  1663     0EC1                     	;# 
  1664     0EC2                     	;# 
  1665     0EC3                     	;# 
  1666     0EC3                     	;# 
  1667     0EC4                     	;# 
  1668     0EC5                     	;# 
  1669     0EC5                     	;# 
  1670     0EC6                     	;# 
  1671     0EC7                     	;# 
  1672     0EC7                     	;# 
  1673     0EC8                     	;# 
  1674     0EC9                     	;# 
  1675     0ECA                     	;# 
  1676     0ECB                     	;# 
  1677     0ECC                     	;# 
  1678     0ECD                     	;# 
  1679     0ECE                     	;# 
  1680     0ECF                     	;# 
  1681     0ED1                     	;# 
  1682     0ED2                     	;# 
  1683     0ED3                     	;# 
  1684     0ED4                     	;# 
  1685     0ED5                     	;# 
  1686     0ED6                     	;# 
  1687     0ED7                     	;# 
  1688     0ED8                     	;# 
  1689     0ED9                     	;# 
  1690     0EDA                     	;# 
  1691     0EDB                     	;# 
  1692     0EDC                     	;# 
  1693     0EDD                     	;# 
  1694     0EDE                     	;# 
  1695     0EDF                     	;# 
  1696     0EE0                     	;# 
  1697     0EE1                     	;# 
  1698     0EE1                     	;# 
  1699     0EE2                     	;# 
  1700     0EE3                     	;# 
  1701     0EE3                     	;# 
  1702     0EE4                     	;# 
  1703     0EE5                     	;# 
  1704     0EE5                     	;# 
  1705     0EE6                     	;# 
  1706     0EE7                     	;# 
  1707     0EE7                     	;# 
  1708     0EE8                     	;# 
  1709     0EE9                     	;# 
  1710     0EEA                     	;# 
  1711     0EEB                     	;# 
  1712     0EEC                     	;# 
  1713     0EED                     	;# 
  1714     0EEE                     	;# 
  1715     0EEF                     	;# 
  1716     0F11                     	;# 
  1717     0F12                     	;# 
  1718     0F13                     	;# 
  1719     0F14                     	;# 
  1720     0F15                     	;# 
  1721     0F16                     	;# 
  1722     0F17                     	;# 
  1723     0F18                     	;# 
  1724     0F19                     	;# 
  1725     0F1A                     	;# 
  1726     0F1B                     	;# 
  1727     0F1C                     	;# 
  1728     0F1D                     	;# 
  1729     0F1E                     	;# 
  1730     0F1F                     	;# 
  1731     0F20                     	;# 
  1732     0F21                     	;# 
  1733     0F21                     	;# 
  1734     0F22                     	;# 
  1735     0F23                     	;# 
  1736     0F23                     	;# 
  1737     0F24                     	;# 
  1738     0F25                     	;# 
  1739     0F25                     	;# 
  1740     0F26                     	;# 
  1741     0F27                     	;# 
  1742     0F27                     	;# 
  1743     0F28                     	;# 
  1744     0F29                     	;# 
  1745     0F2A                     	;# 
  1746     0F2B                     	;# 
  1747     0F2C                     	;# 
  1748     0F2D                     	;# 
  1749     0F2E                     	;# 
  1750     0F2F                     	;# 
  1751     0FE4                     	;# 
  1752     0FE5                     	;# 
  1753     0FE6                     	;# 
  1754     0FE7                     	;# 
  1755     0FE8                     	;# 
  1756     0FE9                     	;# 
  1757     0FEA                     	;# 
  1758     0FEB                     	;# 
  1759     0FED                     	;# 
  1760     0FEE                     	;# 
  1761     0FEF                     	;# 
  1762                           
  1763                           	psect	stringtext1
  1764     2000                     __pstringtext1:
  1765     2000                     _dpowers:
  1766     2000  3401               	retlw	1
  1767     2001  3400               	retlw	0
  1768     2002  340A               	retlw	10
  1769     2003  3400               	retlw	0
  1770     2004  3464               	retlw	100
  1771     2005  3400               	retlw	0
  1772     2006  34E8               	retlw	232
  1773     2007  3403               	retlw	3
  1774     2008  3410               	retlw	16
  1775     2009  3427               	retlw	39
  1776     200A                     __end_of_dpowers:
  1777     000B                     _INTCONbits	set	11
  1778     0003                     _STATUSbits	set	3
  1779     000D                     _PORTB	set	13
  1780     000C                     _PORTA	set	12
  1781     008D                     _RCIF	set	141
  1782     008C                     _TXIF	set	140
  1783     0067                     _RA7	set	103
  1784     0066                     _RA6	set	102
  1785     0061                     _RA1	set	97
  1786     0060                     _RA0	set	96
  1787     0063                     _RA3	set	99
  1788     0068                     _RB0	set	104
  1789     006A                     _RB2	set	106
  1790     006B                     _RB3	set	107
  1791     006C                     _RB4	set	108
  1792     006D                     _RB5	set	109
  1793     0069                     _RB1	set	105
  1794     009E                     _ADCON1	set	158
  1795     009D                     _ADCON0	set	157
  1796     0095                     _OPTION_REG	set	149
  1797     0099                     _OSCCON	set	153
  1798     0091                     _PIE1	set	145
  1799     008D                     _TRISB	set	141
  1800     008C                     _TRISA	set	140
  1801     009B                     _ADRESL	set	155
  1802     009C                     _ADRESH	set	156
  1803     009D                     _ADCON0bits	set	157
  1804     0119                     _DAC1CON1	set	281
  1805     0118                     _DAC1CON0	set	280
  1806     0117                     _FVRCON	set	279
  1807     011D                     _APFCON1	set	285
  1808     0191                     _EEADR	set	401
  1809     0196                     _EECON2	set	406
  1810     0193                     _EEDATA	set	403
  1811     0195                     _EECON1	set	405
  1812     0195                     _EECON1bits	set	405
  1813     0199                     _RCREG	set	409
  1814     019A                     _TXREG	set	410
  1815     019D                     _RCSTA	set	413
  1816     019E                     _TXSTA	set	414
  1817     019B                     _SPBRG	set	411
  1818     018D                     _ANSELB	set	397
  1819     020D                     _WPUB	set	525
  1820     200A                     STR_76:
  1821     200A  3443               	retlw	67	;'C'
  1822     200B  3409               	retlw	9
  1823     200C  3446               	retlw	70	;'F'
  1824     200D  3453               	retlw	83	;'S'
  1825     200E  342D               	retlw	45	;'-'
  1826     200F  3443               	retlw	67	;'C'
  1827     2010  344F               	retlw	79	;'O'
  1828     2011  344E               	retlw	78	;'N'
  1829     2012  3454               	retlw	84	;'T'
  1830     2013  3420               	retlw	32	;' '
  1831     2014  3456               	retlw	86	;'V'
  1832     2015  3445               	retlw	69	;'E'
  1833     2016  3452               	retlw	82	;'R'
  1834     2017  3453               	retlw	83	;'S'
  1835     2018  3449               	retlw	73	;'I'
  1836     2019  344F               	retlw	79	;'O'
  1837     201A  344E               	retlw	78	;'N'
  1838     201B  3420               	retlw	32	;' '
  1839     201C  3430               	retlw	48	;'0'
  1840     201D  340D               	retlw	13
  1841     201E  340A               	retlw	10
  1842     201F  3400               	retlw	0
  1843                           
  1844                           	psect	stringtext2
  1845     2020                     __pstringtext2:
  1846     2020                     STR_74:
  1847     2020  3443               	retlw	67	;'C'
  1848     2021  3409               	retlw	9
  1849     2022  3441               	retlw	65	;'A'
  1850     2023  3449               	retlw	73	;'I'
  1851     2024  344E               	retlw	78	;'N'
  1852     2025  3420               	retlw	32	;' '
  1853     2026  343D               	retlw	61	;'='
  1854     2027  3420               	retlw	32	;' '
  1855     2028  3425               	retlw	37	;'%'
  1856     2029  3475               	retlw	117	;'u'
  1857     202A  340A               	retlw	10
  1858     202B  3400               	retlw	0
  1859                           
  1860                           	psect	stringtext3
  1861     202C                     __pstringtext3:
  1862     202C                     STR_63:
  1863     202C  3443               	retlw	67	;'C'
  1864     202D  3409               	retlw	9
  1865     202E  3457               	retlw	87	;'W'
  1866     202F  3452               	retlw	82	;'R'
  1867     2030  3450               	retlw	80	;'P'
  1868     2031  3433               	retlw	51	;'3'
  1869     2032  342F               	retlw	47	;'/'
  1870     2033  3430               	retlw	48	;'0'
  1871     2034  340D               	retlw	13
  1872     2035  340A               	retlw	10
  1873     2036  3400               	retlw	0
  1874                           
  1875                           	psect	stringtext4
  1876     2037                     __pstringtext4:
  1877     2037                     STR_39:
  1878     2037  3443               	retlw	67	;'C'
  1879     2038  3409               	retlw	9
  1880     2039  3457               	retlw	87	;'W'
  1881     203A  3454               	retlw	84	;'T'
  1882     203B  3442               	retlw	66	;'B'
  1883     203C  3409               	retlw	9
  1884     203D  3425               	retlw	37	;'%'
  1885     203E  3464               	retlw	100	;'d'
  1886     203F  340D               	retlw	13
  1887     2040  340A               	retlw	10
  1888     2041  3400               	retlw	0
  1889                           
  1890                           	psect	stringtext5
  1891     2042                     __pstringtext5:
  1892     2042                     STR_56:
  1893     2042  3443               	retlw	67	;'C'
  1894     2043  3409               	retlw	9
  1895     2044  3457               	retlw	87	;'W'
  1896     2045  3450               	retlw	80	;'P'
  1897     2046  3444               	retlw	68	;'D'
  1898     2047  3409               	retlw	9
  1899     2048  3425               	retlw	37	;'%'
  1900     2049  3464               	retlw	100	;'d'
  1901     204A  340D               	retlw	13
  1902     204B  340A               	retlw	10
  1903     204C  3400               	retlw	0
  1904                           
  1905                           	psect	stringtext6
  1906     204D                     __pstringtext6:
  1907     204D                     STR_41:
  1908     204D  3443               	retlw	67	;'C'
  1909     204E  3409               	retlw	9
  1910     204F  3457               	retlw	87	;'W'
  1911     2050  344E               	retlw	78	;'N'
  1912     2051  3449               	retlw	73	;'I'
  1913     2052  3409               	retlw	9
  1914     2053  3425               	retlw	37	;'%'
  1915     2054  3464               	retlw	100	;'d'
  1916     2055  340D               	retlw	13
  1917     2056  340A               	retlw	10
  1918     2057  3400               	retlw	0
  1919                           
  1920                           	psect	stringtext7
  1921     2058                     __pstringtext7:
  1922     2058                     STR_48:
  1923     2058  3443               	retlw	67	;'C'
  1924     2059  3409               	retlw	9
  1925     205A  344E               	retlw	78	;'N'
  1926     205B  344F               	retlw	79	;'O'
  1927     205C  3453               	retlw	83	;'S'
  1928     205D  3409               	retlw	9
  1929     205E  3425               	retlw	37	;'%'
  1930     205F  3464               	retlw	100	;'d'
  1931     2060  340D               	retlw	13
  1932     2061  340A               	retlw	10
  1933     2062  3400               	retlw	0
  1934                           
  1935                           	psect	stringtext8
  1936     2063                     __pstringtext8:
  1937     2063                     STR_64:
  1938     2063  3443               	retlw	67	;'C'
  1939     2064  3409               	retlw	9
  1940     2065  3452               	retlw	82	;'R'
  1941     2066  3444               	retlw	68	;'D'
  1942     2067  3443               	retlw	67	;'C'
  1943     2068  342F               	retlw	47	;'/'
  1944     2069  3425               	retlw	37	;'%'
  1945     206A  3464               	retlw	100	;'d'
  1946     206B  340D               	retlw	13
  1947     206C  340A               	retlw	10
  1948     206D  3400               	retlw	0
  1949                           
  1950                           	psect	stringtext9
  1951     206E                     __pstringtext9:
  1952     206E                     STR_65:
  1953     206E  3443               	retlw	67	;'C'
  1954     206F  3409               	retlw	9
  1955     2070  3457               	retlw	87	;'W'
  1956     2071  3444               	retlw	68	;'D'
  1957     2072  3443               	retlw	67	;'C'
  1958     2073  342F               	retlw	47	;'/'
  1959     2074  3425               	retlw	37	;'%'
  1960     2075  3464               	retlw	100	;'d'
  1961     2076  340D               	retlw	13
  1962     2077  340A               	retlw	10
  1963     2078  3400               	retlw	0
  1964                           
  1965                           	psect	stringtext10
  1966     2079                     __pstringtext10:
  1967     2079                     STR_61:
  1968     2079  3443               	retlw	67	;'C'
  1969     207A  3409               	retlw	9
  1970     207B  3452               	retlw	82	;'R'
  1971     207C  3450               	retlw	80	;'P'
  1972     207D  3444               	retlw	68	;'D'
  1973     207E  342F               	retlw	47	;'/'
  1974     207F  3425               	retlw	37	;'%'
  1975     2080  3464               	retlw	100	;'d'
  1976     2081  340D               	retlw	13
  1977     2082  340A               	retlw	10
  1978     2083  3400               	retlw	0
  1979                           
  1980                           	psect	stringtext11
  1981     2084                     __pstringtext11:
  1982     2084                     STR_60:
  1983     2084  3443               	retlw	67	;'C'
  1984     2085  3409               	retlw	9
  1985     2086  3452               	retlw	82	;'R'
  1986     2087  344E               	retlw	78	;'N'
  1987     2088  3449               	retlw	73	;'I'
  1988     2089  342F               	retlw	47	;'/'
  1989     208A  3425               	retlw	37	;'%'
  1990     208B  3464               	retlw	100	;'d'
  1991     208C  340D               	retlw	13
  1992     208D  340A               	retlw	10
  1993     208E  3400               	retlw	0
  1994                           
  1995                           	psect	stringtext12
  1996     208F                     __pstringtext12:
  1997     208F                     STR_62:
  1998     208F  3443               	retlw	67	;'C'
  1999     2090  3409               	retlw	9
  2000     2091  3452               	retlw	82	;'R'
  2001     2092  344C               	retlw	76	;'L'
  2002     2093  344D               	retlw	77	;'M'
  2003     2094  342F               	retlw	47	;'/'
  2004     2095  3425               	retlw	37	;'%'
  2005     2096  3464               	retlw	100	;'d'
  2006     2097  340D               	retlw	13
  2007     2098  340A               	retlw	10
  2008     2099  3400               	retlw	0
  2009                           
  2010                           	psect	stringtext13
  2011     209A                     __pstringtext13:
  2012     209A                     STR_59:
  2013     209A  3443               	retlw	67	;'C'
  2014     209B  3409               	retlw	9
  2015     209C  3452               	retlw	82	;'R'
  2016     209D  344E               	retlw	78	;'N'
  2017     209E  3450               	retlw	80	;'P'
  2018     209F  342F               	retlw	47	;'/'
  2019     20A0  3425               	retlw	37	;'%'
  2020     20A1  3464               	retlw	100	;'d'
  2021     20A2  340D               	retlw	13
  2022     20A3  340A               	retlw	10
  2023     20A4  3400               	retlw	0
  2024                           
  2025                           	psect	stringtext14
  2026     20A5                     __pstringtext14:
  2027     20A5                     STR_73:
  2028     20A5  3443               	retlw	67	;'C'
  2029     20A6  3409               	retlw	9
  2030     20A7  3452               	retlw	82	;'R'
  2031     20A8  3450               	retlw	80	;'P'
  2032     20A9  3450               	retlw	80	;'P'
  2033     20AA  342F               	retlw	47	;'/'
  2034     20AB  3425               	retlw	37	;'%'
  2035     20AC  3464               	retlw	100	;'d'
  2036     20AD  340D               	retlw	13
  2037     20AE  340A               	retlw	10
  2038     20AF  3400               	retlw	0
  2039                           
  2040                           	psect	stringtext15
  2041     20B0                     __pstringtext15:
  2042     20B0                     STR_75:
  2043     20B0  3443               	retlw	67	;'C'
  2044     20B1  3409               	retlw	9
  2045     20B2  3452               	retlw	82	;'R'
  2046     20B3  3445               	retlw	69	;'E'
  2047     20B4  3441               	retlw	65	;'A'
  2048     20B5  3444               	retlw	68	;'D'
  2049     20B6  3459               	retlw	89	;'Y'
  2050     20B7  340D               	retlw	13
  2051     20B8  340A               	retlw	10
  2052     20B9  3400               	retlw	0
  2053                           
  2054                           	psect	stringtext16
  2055     20BA                     __pstringtext16:
  2056     20BA                     STR_70:
  2057     20BA  3443               	retlw	67	;'C'
  2058     20BB  3409               	retlw	9
  2059     20BC  3450               	retlw	80	;'P'
  2060     20BD  344D               	retlw	77	;'M'
  2061     20BE  3441               	retlw	65	;'A'
  2062     20BF  340D               	retlw	13
  2063     20C0  340A               	retlw	10
  2064     20C1  3400               	retlw	0
  2065                           
  2066                           	psect	stringtext17
  2067     20C2                     __pstringtext17:
  2068     20C2                     STR_54:
  2069     20C2  3443               	retlw	67	;'C'
  2070     20C3  3409               	retlw	9
  2071     20C4  344E               	retlw	78	;'N'
  2072     20C5  3453               	retlw	83	;'S'
  2073     20C6  3443               	retlw	67	;'C'
  2074     20C7  340D               	retlw	13
  2075     20C8  340A               	retlw	10
  2076     20C9  3400               	retlw	0
  2077                           
  2078                           	psect	stringtext18
  2079     20CA                     __pstringtext18:
  2080     20CA                     STR_47:
  2081     20CA  3443               	retlw	67	;'C'
  2082     20CB  3409               	retlw	9
  2083     20CC  344F               	retlw	79	;'O'
  2084     20CD  3453               	retlw	83	;'S'
  2085     20CE  3443               	retlw	67	;'C'
  2086     20CF  340D               	retlw	13
  2087     20D0  340A               	retlw	10
  2088     20D1  3400               	retlw	0
  2089                           
  2090                           	psect	stringtext19
  2091     20D2                     __pstringtext19:
  2092     20D2                     STR_52:
  2093     20D2  3443               	retlw	67	;'C'
  2094     20D3  3409               	retlw	9
  2095     20D4  344E               	retlw	78	;'N'
  2096     20D5  3444               	retlw	68	;'D'
  2097     20D6  3444               	retlw	68	;'D'
  2098     20D7  340D               	retlw	13
  2099     20D8  340A               	retlw	10
  2100     20D9  3400               	retlw	0
  2101                           
  2102                           	psect	stringtext20
  2103     20DA                     __pstringtext20:
  2104     20DA                     STR_53:
  2105     20DA  3443               	retlw	67	;'C'
  2106     20DB  3409               	retlw	9
  2107     20DC  344E               	retlw	78	;'N'
  2108     20DD  3453               	retlw	83	;'S'
  2109     20DE  3444               	retlw	68	;'D'
  2110     20DF  340D               	retlw	13
  2111     20E0  340A               	retlw	10
  2112     20E1  3400               	retlw	0
  2113                           
  2114                           	psect	stringtext21
  2115     20E2                     __pstringtext21:
  2116     20E2                     STR_49:
  2117     20E2  3443               	retlw	67	;'C'
  2118     20E3  3409               	retlw	9
  2119     20E4  344E               	retlw	78	;'N'
  2120     20E5  3454               	retlw	84	;'T'
  2121     20E6  3444               	retlw	68	;'D'
  2122     20E7  340D               	retlw	13
  2123     20E8  340A               	retlw	10
  2124     20E9  3400               	retlw	0
  2125                           
  2126                           	psect	stringtext22
  2127     20EA                     __pstringtext22:
  2128     20EA                     STR_50:
  2129     20EA  3443               	retlw	67	;'C'
  2130     20EB  3409               	retlw	9
  2131     20EC  344E               	retlw	78	;'N'
  2132     20ED  3444               	retlw	68	;'D'
  2133     20EE  344F               	retlw	79	;'O'
  2134     20EF  340D               	retlw	13
  2135     20F0  340A               	retlw	10
  2136     20F1  3400               	retlw	0
  2137                           
  2138                           	psect	stringtext23
  2139     20F2                     __pstringtext23:
  2140     20F2                     STR_58:
  2141     20F2  3443               	retlw	67	;'C'
  2142     20F3  3409               	retlw	9
  2143     20F4  344E               	retlw	78	;'N'
  2144     20F5  3453               	retlw	83	;'S'
  2145     20F6  3450               	retlw	80	;'P'
  2146     20F7  340D               	retlw	13
  2147     20F8  340A               	retlw	10
  2148     20F9  3400               	retlw	0
  2149                           
  2150                           	psect	stringtext24
  2151     20FA                     __pstringtext24:
  2152     20FA                     STR_72:
  2153     20FA  3443               	retlw	67	;'C'
  2154     20FB  3409               	retlw	9
  2155     20FC  3450               	retlw	80	;'P'
  2156     20FD  344D               	retlw	77	;'M'
  2157     20FE  3452               	retlw	82	;'R'
  2158     20FF  340D               	retlw	13
  2159     2100  340A               	retlw	10
  2160     2101  3400               	retlw	0
  2161                           
  2162                           	psect	stringtext25
  2163     2102                     __pstringtext25:
  2164     2102                     STR_35:
  2165     2102  3443               	retlw	67	;'C'
  2166     2103  3409               	retlw	9
  2167     2104  3452               	retlw	82	;'R'
  2168     2105  3450               	retlw	80	;'P'
  2169     2106  3453               	retlw	83	;'S'
  2170     2107  340D               	retlw	13
  2171     2108  340A               	retlw	10
  2172     2109  3400               	retlw	0
  2173                           
  2174                           	psect	stringtext26
  2175     210A                     __pstringtext26:
  2176     210A                     STR_68:
  2177     210A  3443               	retlw	67	;'C'
  2178     210B  3409               	retlw	9
  2179     210C  3450               	retlw	80	;'P'
  2180     210D  344D               	retlw	77	;'M'
  2181     210E  3456               	retlw	86	;'V'
  2182     210F  340D               	retlw	13
  2183     2110  340A               	retlw	10
  2184     2111  3400               	retlw	0
  2185                           
  2186                           	psect	stringtext27
  2187     2112                     __pstringtext27:
  2188     2112                     STR_21:
  2189     2112  3444               	retlw	68	;'D'
  2190     2113  3441               	retlw	65	;'A'
  2191     2114  3430               	retlw	48	;'0'
  2192     2115  3400               	retlw	0
  2193                           
  2194                           	psect	stringtext28
  2195     2116                     __pstringtext28:
  2196     2116                     STR_22:
  2197     2116  3444               	retlw	68	;'D'
  2198     2117  3441               	retlw	65	;'A'
  2199     2118  3431               	retlw	49	;'1'
  2200     2119  3400               	retlw	0
  2201                           
  2202                           	psect	stringtext29
  2203     211A                     __pstringtext29:
  2204     211A                     STR_23:
  2205     211A  3444               	retlw	68	;'D'
  2206     211B  3441               	retlw	65	;'A'
  2207     211C  3432               	retlw	50	;'2'
  2208     211D  3400               	retlw	0
  2209                           
  2210                           	psect	stringtext30
  2211     211E                     __pstringtext30:
  2212     211E                     STR_25:
  2213     211E  3450               	retlw	80	;'P'
  2214     211F  344D               	retlw	77	;'M'
  2215     2120  3441               	retlw	65	;'A'
  2216     2121  3400               	retlw	0
  2217                           
  2218                           	psect	stringtext31
  2219     2122                     __pstringtext31:
  2220     2122                     STR_2:
  2221     2122  3457               	retlw	87	;'W'
  2222     2123  3454               	retlw	84	;'T'
  2223     2124  3442               	retlw	66	;'B'
  2224     2125  3400               	retlw	0
  2225                           
  2226                           	psect	stringtext32
  2227     2126                     __pstringtext32:
  2228     2126                     STR_12:
  2229     2126  3452               	retlw	82	;'R'
  2230     2127  3444               	retlw	68	;'D'
  2231     2128  3443               	retlw	67	;'C'
  2232     2129  3400               	retlw	0
  2233                           
  2234                           	psect	stringtext33
  2235     212A                     __pstringtext33:
  2236     212A                     STR_13:
  2237     212A  3457               	retlw	87	;'W'
  2238     212B  3444               	retlw	68	;'D'
  2239     212C  3443               	retlw	67	;'C'
  2240     212D  3400               	retlw	0
  2241                           
  2242                           	psect	stringtext34
  2243     212E                     __pstringtext34:
  2244     212E                     STR_10:
  2245     212E  344E               	retlw	78	;'N'
  2246     212F  3453               	retlw	83	;'S'
  2247     2130  3443               	retlw	67	;'C'
  2248     2131  3400               	retlw	0
  2249                           
  2250                           	psect	stringtext35
  2251     2132                     __pstringtext35:
  2252     2132                     STR_5:
  2253     2132  344F               	retlw	79	;'O'
  2254     2133  3453               	retlw	83	;'S'
  2255     2134  3443               	retlw	67	;'C'
  2256     2135  3400               	retlw	0
  2257                           
  2258                           	psect	stringtext36
  2259     2136                     __pstringtext36:
  2260     2136                     STR_9:
  2261     2136  344E               	retlw	78	;'N'
  2262     2137  3444               	retlw	68	;'D'
  2263     2138  3444               	retlw	68	;'D'
  2264     2139  3400               	retlw	0
  2265                           
  2266                           	psect	stringtext37
  2267     213A                     __pstringtext37:
  2268     213A                     STR_19:
  2269     213A  3452               	retlw	82	;'R'
  2270     213B  3450               	retlw	80	;'P'
  2271     213C  3444               	retlw	68	;'D'
  2272     213D  3400               	retlw	0
  2273                           
  2274                           	psect	stringtext38
  2275     213E                     __pstringtext38:
  2276     213E                     STR_4:
  2277     213E  3457               	retlw	87	;'W'
  2278     213F  3450               	retlw	80	;'P'
  2279     2140  3444               	retlw	68	;'D'
  2280     2141  3400               	retlw	0
  2281                           
  2282                           	psect	stringtext39
  2283     2142                     __pstringtext39:
  2284     2142                     STR_29:
  2285     2142  344E               	retlw	78	;'N'
  2286     2143  3453               	retlw	83	;'S'
  2287     2144  3444               	retlw	68	;'D'
  2288     2145  3400               	retlw	0
  2289                           
  2290                           	psect	stringtext40
  2291     2146                     __pstringtext40:
  2292     2146                     STR_7:
  2293     2146  344E               	retlw	78	;'N'
  2294     2147  3454               	retlw	84	;'T'
  2295     2148  3444               	retlw	68	;'D'
  2296     2149  3400               	retlw	0
  2297                           
  2298                           	psect	stringtext41
  2299     214A                     __pstringtext41:
  2300     214A                     STR_18:
  2301     214A  3452               	retlw	82	;'R'
  2302     214B  344E               	retlw	78	;'N'
  2303     214C  3449               	retlw	73	;'I'
  2304     214D  3400               	retlw	0
  2305                           
  2306                           	psect	stringtext42
  2307     214E                     __pstringtext42:
  2308     214E                     STR_3:
  2309     214E  3457               	retlw	87	;'W'
  2310     214F  344E               	retlw	78	;'N'
  2311     2150  3449               	retlw	73	;'I'
  2312     2151  3400               	retlw	0
  2313                           
  2314                           	psect	stringtext43
  2315     2152                     __pstringtext43:
  2316     2152                     STR_20:
  2317     2152  3452               	retlw	82	;'R'
  2318     2153  344C               	retlw	76	;'L'
  2319     2154  344D               	retlw	77	;'M'
  2320     2155  3400               	retlw	0
  2321                           
  2322                           	psect	stringtext44
  2323     2156                     __pstringtext44:
  2324     2156                     STR_28:
  2325     2156  3441               	retlw	65	;'A'
  2326     2157  3449               	retlw	73	;'I'
  2327     2158  344E               	retlw	78	;'N'
  2328     2159  3400               	retlw	0
  2329                           
  2330                           	psect	stringtext45
  2331     215A                     __pstringtext45:
  2332     215A                     STR_8:
  2333     215A  344E               	retlw	78	;'N'
  2334     215B  3444               	retlw	68	;'D'
  2335     215C  344F               	retlw	79	;'O'
  2336     215D  3400               	retlw	0
  2337                           
  2338                           	psect	stringtext46
  2339     215E                     __pstringtext46:
  2340     215E                     STR_17:
  2341     215E  3452               	retlw	82	;'R'
  2342     215F  344E               	retlw	78	;'N'
  2343     2160  3450               	retlw	80	;'P'
  2344     2161  3400               	retlw	0
  2345                           
  2346                           	psect	stringtext47
  2347     2162                     __pstringtext47:
  2348     2162                     STR_27:
  2349     2162  3452               	retlw	82	;'R'
  2350     2163  3450               	retlw	80	;'P'
  2351     2164  3450               	retlw	80	;'P'
  2352     2165  3400               	retlw	0
  2353                           
  2354                           	psect	stringtext48
  2355     2166                     __pstringtext48:
  2356     2166                     STR_11:
  2357     2166  3457               	retlw	87	;'W'
  2358     2167  3452               	retlw	82	;'R'
  2359     2168  3450               	retlw	80	;'P'
  2360     2169  3400               	retlw	0
  2361                           
  2362                           	psect	stringtext49
  2363     216A                     __pstringtext49:
  2364     216A                     STR_16:
  2365     216A  344E               	retlw	78	;'N'
  2366     216B  3453               	retlw	83	;'S'
  2367     216C  3450               	retlw	80	;'P'
  2368     216D  3400               	retlw	0
  2369                           
  2370                           	psect	stringtext50
  2371     216E                     __pstringtext50:
  2372     216E                     STR_14:
  2373     216E  3456               	retlw	86	;'V'
  2374     216F  3445               	retlw	69	;'E'
  2375     2170  3452               	retlw	82	;'R'
  2376     2171  3400               	retlw	0
  2377                           
  2378                           	psect	stringtext51
  2379     2172                     __pstringtext51:
  2380     2172                     STR_26:
  2381     2172  3450               	retlw	80	;'P'
  2382     2173  344D               	retlw	77	;'M'
  2383     2174  3452               	retlw	82	;'R'
  2384     2175  3400               	retlw	0
  2385                           
  2386                           	psect	stringtext52
  2387     2176                     __pstringtext52:
  2388     2176                     STR_6:
  2389     2176  344E               	retlw	78	;'N'
  2390     2177  344F               	retlw	79	;'O'
  2391     2178  3453               	retlw	83	;'S'
  2392     2179  3400               	retlw	0
  2393                           
  2394                           	psect	stringtext53
  2395     217A                     __pstringtext53:
  2396     217A                     STR_1:
  2397     217A  3452               	retlw	82	;'R'
  2398     217B  3450               	retlw	80	;'P'
  2399     217C  3453               	retlw	83	;'S'
  2400     217D  3400               	retlw	0
  2401                           
  2402                           	psect	stringtext54
  2403     217E                     __pstringtext54:
  2404     217E                     STR_15:
  2405     217E  3453               	retlw	83	;'S'
  2406     217F  3454               	retlw	84	;'T'
  2407     2180  3453               	retlw	83	;'S'
  2408     2181  3400               	retlw	0
  2409                           
  2410                           	psect	stringtext55
  2411     2182                     __pstringtext55:
  2412     2182                     STR_24:
  2413     2182  3450               	retlw	80	;'P'
  2414     2183  344D               	retlw	77	;'M'
  2415     2184  3456               	retlw	86	;'V'
  2416     2185  3400               	retlw	0
  2417                           
  2418                           	psect	stringtext56
  2419     2186                     __pstringtext56:
  2420     2186                     STR_30:
  2421     2186  342F               	retlw	47	;'/'
  2422     2187  3400               	retlw	0
  2423                           
  2424                           	psect	stringtext57
  2425     0000                     __pstringtext57:
  2426     2186                     
  2427                           	psect	cinit
  2428     07FB                     start_initialization:	
  2429                           ; #config settings
  2430                           
  2431     07FB                     __initialization:
  2432                           
  2433                           ; Clear objects allocated to BANK2
  2434     07FB  0022               	movlb	2	; select bank2
  2435     07FC  01A7               	clrf	__pbssBANK2& (0+127)
  2436     07FD                     end_of_initialization:	
  2437                           ;End of C runtime variable initialization code
  2438                           
  2439     07FD                     __end_of__initialization:
  2440     07FD  0020               	movlb	0
  2441     07FE  3195  2D85         	ljmp	_main	;jump to C main() function
  2442                           
  2443                           	psect	bssBANK2
  2444     0127                     __pbssBANK2:
  2445     0127                     strtok@sp:
  2446     0127                     	ds	1
  2447                           
  2448                           	psect	cstackBANK2
  2449     0120                     __pcstackBANK2:
  2450     0120                     main@k:
  2451                           
  2452                           ; 2 bytes @ 0x0
  2453     0120                     	ds	2
  2454     0122                     main@ptr:
  2455                           
  2456                           ; 1 bytes @ 0x2
  2457     0122                     	ds	1
  2458     0123                     main@intvl:
  2459                           
  2460                           ; 2 bytes @ 0x3
  2461     0123                     	ds	2
  2462     0125                     main@j:
  2463                           
  2464                           ; 2 bytes @ 0x5
  2465     0125                     	ds	2
  2466                           
  2467                           	psect	cstackBANK1
  2468     00A0                     __pcstackBANK1:
  2469     00A0                     main@tmp:
  2470                           
  2471                           ; 40 bytes @ 0x0
  2472     00A0                     	ds	40
  2473     00C8                     main@NPD_ADR:
  2474                           
  2475                           ; 4 bytes @ 0x28
  2476     00C8                     	ds	4
  2477     00CC                     main@NIP_ADR:
  2478                           
  2479                           ; 4 bytes @ 0x2C
  2480     00CC                     	ds	4
  2481     00D0                     main@k_301:
  2482                           
  2483                           ; 2 bytes @ 0x30
  2484     00D0                     	ds	2
  2485     00D2                     main@pzt_d:
  2486                           
  2487                           ; 4 bytes @ 0x32
  2488     00D2                     	ds	4
  2489     00D6                     main@pzt_l:
  2490                           
  2491                           ; 2 bytes @ 0x36
  2492     00D6                     	ds	2
  2493     00D8                     main@nip:
  2494                           
  2495                           ; 2 bytes @ 0x38
  2496     00D8                     	ds	2
  2497     00DA                     main@NDCNT_ADR:
  2498                           
  2499                           ; 4 bytes @ 0x3A
  2500     00DA                     	ds	4
  2501     00DE                     main@npd:
  2502                           
  2503                           ; 4 bytes @ 0x3E
  2504     00DE                     	ds	4
  2505     00E2                     main@c_pzt:
  2506                           
  2507                           ; 2 bytes @ 0x42
  2508     00E2                     	ds	2
  2509     00E4                     main@ndcnt:
  2510                           
  2511                           ; 4 bytes @ 0x44
  2512     00E4                     	ds	4
  2513     00E8                     main@rcmd:
  2514                           
  2515                           ; 4 bytes @ 0x48
  2516     00E8                     	ds	4
  2517     00EC                     main@npos:
  2518                           
  2519                           ; 2 bytes @ 0x4C
  2520     00EC                     	ds	2
  2521     00EE                     main@dist:
  2522                           
  2523                           ; 2 bytes @ 0x4E
  2524     00EE                     	ds	2
  2525                           
  2526                           	psect	cstackCOMMON
  2527     0070                     __pcstackCOMMON:
  2528     0070                     ?_isdigit:
  2529     0070                     ?_eeprom_write:	
  2530                           ; 1 bit 
  2531                           
  2532     0070                     ?_eeprom_read:	
  2533                           ; 1 bytes @ 0x0
  2534                           
  2535     0070                     ??_eeprom_read:	
  2536                           ; 1 bytes @ 0x0
  2537                           
  2538     0070                     ?_initUART:	
  2539                           ; 1 bytes @ 0x0
  2540                           
  2541     0070                     ??_initUART:	
  2542                           ; 1 bytes @ 0x0
  2543                           
  2544     0070                     ?_gets:	
  2545                           ; 1 bytes @ 0x0
  2546                           
  2547     0070                     ??_isdigit:	
  2548                           ; 1 bytes @ 0x0
  2549                           
  2550     0070                     ?_main:	
  2551                           ; 1 bytes @ 0x0
  2552                           
  2553     0070                     ?_putch:	
  2554                           ; 1 bytes @ 0x0
  2555                           
  2556     0070                     ??_putch:	
  2557                           ; 1 bytes @ 0x0
  2558                           
  2559     0070                     ?_getch:	
  2560                           ; 1 bytes @ 0x0
  2561                           
  2562     0070                     ??_getch:	
  2563                           ; 1 bytes @ 0x0
  2564                           
  2565     0070                     ?_getche:	
  2566                           ; 1 bytes @ 0x0
  2567                           
  2568     0070                     ?_strcmp:	
  2569                           ; 1 bytes @ 0x0
  2570                           
  2571     0070                     ?__Umul8_16:	
  2572                           ; 2 bytes @ 0x0
  2573                           
  2574     0070                     ?_strchr:	
  2575                           ; 2 bytes @ 0x0
  2576                           
  2577     0070                     ?_AD_convert:	
  2578                           ; 2 bytes @ 0x0
  2579                           
  2580     0070                     ?___wmul:	
  2581                           ; 2 bytes @ 0x0
  2582                           
  2583     0070                     ?___awdiv:	
  2584                           ; 2 bytes @ 0x0
  2585                           
  2586     0070                     ?___lwdiv:	
  2587                           ; 2 bytes @ 0x0
  2588                           
  2589     0070                     ?___fladd:	
  2590                           ; 2 bytes @ 0x0
  2591                           
  2592     0070                     ?___xxtofl:	
  2593                           ; 4 bytes @ 0x0
  2594                           
  2595     0070                     AD_convert@channel:	
  2596                           ; 4 bytes @ 0x0
  2597                           
  2598     0070                     putch@byte:	
  2599                           ; 1 bytes @ 0x0
  2600                           
  2601     0070                     eeprom_write@value:	
  2602                           ; 1 bytes @ 0x0
  2603                           
  2604     0070                     __Umul8_16@multiplicand:	
  2605                           ; 1 bytes @ 0x0
  2606                           
  2607     0070                     _isdigit$906:	
  2608                           ; 1 bytes @ 0x0
  2609                           
  2610     0070                     ___wmul@multiplier:	
  2611                           ; 1 bytes @ 0x0
  2612                           
  2613     0070                     ___awdiv@divisor:	
  2614                           ; 2 bytes @ 0x0
  2615                           
  2616     0070                     ___lwdiv@divisor:	
  2617                           ; 2 bytes @ 0x0
  2618                           
  2619     0070                     strcmp@s2:	
  2620                           ; 2 bytes @ 0x0
  2621                           
  2622     0070                     strchr@ptr:	
  2623                           ; 2 bytes @ 0x0
  2624                           
  2625     0070                     ___fladd@b:	
  2626                           ; 2 bytes @ 0x0
  2627                           
  2628     0070                     ___xxtofl@val:	
  2629                           ; 4 bytes @ 0x0
  2630                           
  2631                           
  2632                           ; 4 bytes @ 0x0
  2633     0070                     	ds	1
  2634     0071                     ??_eeprom_write:
  2635     0071                     ??_getche:	
  2636                           ; 1 bytes @ 0x1
  2637                           
  2638     0071                     getche@c:	
  2639                           ; 1 bytes @ 0x1
  2640                           
  2641     0071                     isdigit@c:	
  2642                           ; 1 bytes @ 0x1
  2643                           
  2644                           
  2645                           ; 1 bytes @ 0x1
  2646     0071                     	ds	1
  2647     0072                     ??_strcmp:
  2648     0072                     ??__Umul8_16:	
  2649                           ; 1 bytes @ 0x2
  2650                           
  2651     0072                     ?_cgets:	
  2652                           ; 1 bytes @ 0x2
  2653                           
  2654     0072                     ??_AD_convert:	
  2655                           ; 1 bytes @ 0x2
  2656                           
  2657     0072                     ___wmul@multiplicand:	
  2658                           ; 1 bytes @ 0x2
  2659                           
  2660     0072                     ___awdiv@dividend:	
  2661                           ; 2 bytes @ 0x2
  2662                           
  2663     0072                     ___lwdiv@dividend:	
  2664                           ; 2 bytes @ 0x2
  2665                           
  2666     0072                     strchr@chr:	
  2667                           ; 2 bytes @ 0x2
  2668                           
  2669                           
  2670                           ; 2 bytes @ 0x2
  2671     0072                     	ds	1
  2672     0073                     eeprom_read@addr:
  2673     0073                     eeprom_write@addr:	
  2674                           ; 1 bytes @ 0x3
  2675                           
  2676     0073                     strcmp@r:	
  2677                           ; 1 bytes @ 0x3
  2678                           
  2679                           
  2680                           ; 1 bytes @ 0x3
  2681     0073                     	ds	1
  2682     0074                     ??_cgets:
  2683     0074                     ??_strchr:	
  2684                           ; 1 bytes @ 0x4
  2685                           
  2686     0074                     ?_write_data_eeprom:	
  2687                           ; 1 bytes @ 0x4
  2688                           
  2689     0074                     ??___wmul:	
  2690                           ; 1 bytes @ 0x4
  2691                           
  2692     0074                     ??___awdiv:	
  2693                           ; 1 bytes @ 0x4
  2694                           
  2695     0074                     ??___lwdiv:	
  2696                           ; 1 bytes @ 0x4
  2697                           
  2698     0074                     ??___xxtofl:	
  2699                           ; 1 bytes @ 0x4
  2700                           
  2701     0074                     ?_read_data_eeprom:	
  2702                           ; 1 bytes @ 0x4
  2703                           
  2704     0074                     strcmp@s1:	
  2705                           ; 4 bytes @ 0x4
  2706                           
  2707     0074                     ___wmul@product:	
  2708                           ; 1 bytes @ 0x4
  2709                           
  2710     0074                     __Umul8_16@product:	
  2711                           ; 2 bytes @ 0x4
  2712                           
  2713     0074                     write_data_eeprom@adr:	
  2714                           ; 2 bytes @ 0x4
  2715                           
  2716     0074                     read_data_eeprom@adr:	
  2717                           ; 4 bytes @ 0x4
  2718                           
  2719     0074                     ___fladd@a:	
  2720                           ; 4 bytes @ 0x4
  2721                           
  2722                           
  2723                           ; 4 bytes @ 0x4
  2724     0074                     	ds	1
  2725     0075                     ___awdiv@counter:
  2726     0075                     ___lwdiv@quotient:	
  2727                           ; 1 bytes @ 0x5
  2728                           
  2729                           
  2730                           ; 2 bytes @ 0x5
  2731     0075                     	ds	1
  2732     0076                     ?_atoi:
  2733     0076                     ___awdiv@sign:	
  2734                           ; 2 bytes @ 0x6
  2735                           
  2736     0076                     __Umul8_16@word_mpld:	
  2737                           ; 1 bytes @ 0x6
  2738                           
  2739     0076                     cgets@c:	
  2740                           ; 2 bytes @ 0x6
  2741                           
  2742                           
  2743                           ; 2 bytes @ 0x6
  2744     0076                     	ds	1
  2745     0077                     ?_strspn:
  2746     0077                     ?_strcspn:	
  2747                           ; 2 bytes @ 0x7
  2748                           
  2749     0077                     ___lwdiv@counter:	
  2750                           ; 2 bytes @ 0x7
  2751                           
  2752     0077                     ___awdiv@quotient:	
  2753                           ; 1 bytes @ 0x7
  2754                           
  2755     0077                     strcspn@s2:	
  2756                           ; 2 bytes @ 0x7
  2757                           
  2758     0077                     strspn@s2:	
  2759                           ; 2 bytes @ 0x7
  2760                           
  2761                           
  2762                           ; 2 bytes @ 0x7
  2763     0077                     	ds	1
  2764     0078                     ??_atoi:
  2765     0078                     ??_read_data_eeprom:	
  2766                           ; 1 bytes @ 0x8
  2767                           
  2768     0078                     ?___lwmod:	
  2769                           ; 1 bytes @ 0x8
  2770                           
  2771     0078                     ___fladd@signs:	
  2772                           ; 2 bytes @ 0x8
  2773                           
  2774     0078                     __Umul8_16@multiplier:	
  2775                           ; 1 bytes @ 0x8
  2776                           
  2777     0078                     ___xxtofl@sign:	
  2778                           ; 1 bytes @ 0x8
  2779                           
  2780     0078                     cgets@s:	
  2781                           ; 1 bytes @ 0x8
  2782                           
  2783     0078                     ___lwmod@divisor:	
  2784                           ; 1 bytes @ 0x8
  2785                           
  2786     0078                     write_data_eeprom@value:	
  2787                           ; 2 bytes @ 0x8
  2788                           
  2789                           
  2790                           ; 4 bytes @ 0x8
  2791     0078                     	ds	1
  2792     0079                     ??_strspn:
  2793     0079                     ??_strcspn:	
  2794                           ; 1 bytes @ 0x9
  2795                           
  2796     0079                     ___fladd@aexp:	
  2797                           ; 1 bytes @ 0x9
  2798                           
  2799     0079                     ___xxtofl@exp:	
  2800                           ; 1 bytes @ 0x9
  2801                           
  2802     0079                     cgets@s1:	
  2803                           ; 1 bytes @ 0x9
  2804                           
  2805                           
  2806                           ; 1 bytes @ 0x9
  2807     0079                     	ds	1
  2808     007A                     ??_gets:
  2809     007A                     ___fladd@bexp:	
  2810                           ; 1 bytes @ 0xA
  2811                           
  2812     007A                     gets@s:	
  2813                           ; 1 bytes @ 0xA
  2814                           
  2815     007A                     ___lwmod@dividend:	
  2816                           ; 1 bytes @ 0xA
  2817                           
  2818     007A                     ___xxtofl@arg:	
  2819                           ; 2 bytes @ 0xA
  2820                           
  2821                           
  2822                           ; 4 bytes @ 0xA
  2823     007A                     	ds	1
  2824     007B                     ___fladd@grs:
  2825     007B                     strcspn@i:	
  2826                           ; 1 bytes @ 0xB
  2827                           
  2828     007B                     strspn@i:	
  2829                           ; 2 bytes @ 0xB
  2830                           
  2831                           
  2832                           ; 2 bytes @ 0xB
  2833     007B                     	ds	1
  2834     007C                     ??___lwmod:
  2835                           
  2836                           ; 1 bytes @ 0xC
  2837     007C                     	ds	1
  2838     007D                     ___lwmod@counter:
  2839     007D                     strcspn@s1:	
  2840                           ; 1 bytes @ 0xD
  2841                           
  2842     007D                     strspn@s1:	
  2843                           ; 1 bytes @ 0xD
  2844                           
  2845                           
  2846                           ; 1 bytes @ 0xD
  2847     007D                     	ds	1
  2848                           
  2849                           	psect	cstackBANK0
  2850     0020                     __pcstackBANK0:
  2851     0020                     ?_strtok:
  2852     0020                     ??_write_data_eeprom:	
  2853                           ; 1 bytes @ 0x0
  2854                           
  2855     0020                     ??___fladd:	
  2856                           ; 1 bytes @ 0x0
  2857                           
  2858     0020                     ?_printf:	
  2859                           ; 1 bytes @ 0x0
  2860                           
  2861     0020                     ?___flmul:	
  2862                           ; 2 bytes @ 0x0
  2863                           
  2864     0020                     atoi@sign:	
  2865                           ; 4 bytes @ 0x0
  2866                           
  2867     0020                     printf@f:	
  2868                           ; 1 bytes @ 0x0
  2869                           
  2870     0020                     strtok@s2:	
  2871                           ; 2 bytes @ 0x0
  2872                           
  2873     0020                     read_data_eeprom@set_value_l:	
  2874                           ; 2 bytes @ 0x0
  2875                           
  2876     0020                     ___flmul@b:	
  2877                           ; 4 bytes @ 0x0
  2878                           
  2879                           
  2880                           ; 4 bytes @ 0x0
  2881     0020                     	ds	1
  2882     0021                     atoi@a:
  2883                           
  2884                           ; 2 bytes @ 0x1
  2885     0021                     	ds	1
  2886     0022                     ??_strtok:
  2887                           
  2888                           ; 1 bytes @ 0x2
  2889     0022                     	ds	1
  2890     0023                     atoi@s:
  2891                           
  2892                           ; 1 bytes @ 0x3
  2893     0023                     	ds	1
  2894     0024                     strtok@s1:
  2895     0024                     read_data_eeprom@set_value:	
  2896                           ; 1 bytes @ 0x4
  2897                           
  2898     0024                     ___flmul@a:	
  2899                           ; 4 bytes @ 0x4
  2900                           
  2901                           
  2902                           ; 4 bytes @ 0x4
  2903     0024                     	ds	1
  2904     0025                     write_data_eeprom@set_value:
  2905                           
  2906                           ; 4 bytes @ 0x5
  2907     0025                     	ds	1
  2908     0026                     ??_printf:
  2909                           
  2910                           ; 1 bytes @ 0x6
  2911     0026                     	ds	2
  2912     0028                     ??___flmul:
  2913     0028                     read_data_eeprom@set_value_h:	
  2914                           ; 1 bytes @ 0x8
  2915                           
  2916                           
  2917                           ; 4 bytes @ 0x8
  2918     0028                     	ds	2
  2919     002A                     printf@prec:
  2920                           
  2921                           ; 1 bytes @ 0xA
  2922     002A                     	ds	1
  2923     002B                     printf@ap:
  2924                           
  2925                           ; 1 bytes @ 0xB
  2926     002B                     	ds	1
  2927     002C                     printf@flag:
  2928                           
  2929                           ; 1 bytes @ 0xC
  2930     002C                     	ds	1
  2931     002D                     ___flmul@sign:
  2932     002D                     printf@val:	
  2933                           ; 1 bytes @ 0xD
  2934                           
  2935                           
  2936                           ; 2 bytes @ 0xD
  2937     002D                     	ds	1
  2938     002E                     ___flmul@grs:
  2939                           
  2940                           ; 4 bytes @ 0xE
  2941     002E                     	ds	1
  2942     002F                     printf@c:
  2943                           
  2944                           ; 1 bytes @ 0xF
  2945     002F                     	ds	3
  2946     0032                     ___flmul@aexp:
  2947                           
  2948                           ; 1 bytes @ 0x12
  2949     0032                     	ds	1
  2950     0033                     ___flmul@bexp:
  2951                           
  2952                           ; 1 bytes @ 0x13
  2953     0033                     	ds	1
  2954     0034                     ___flmul@prod:
  2955                           
  2956                           ; 4 bytes @ 0x14
  2957     0034                     	ds	4
  2958     0038                     ___flmul@temp:
  2959                           
  2960                           ; 2 bytes @ 0x18
  2961     0038                     	ds	2
  2962     003A                     ?___fltol:
  2963     003A                     ?___fldiv:	
  2964                           ; 4 bytes @ 0x1A
  2965                           
  2966     003A                     ___fltol@f1:	
  2967                           ; 4 bytes @ 0x1A
  2968                           
  2969     003A                     ___fldiv@a:	
  2970                           ; 4 bytes @ 0x1A
  2971                           
  2972                           
  2973                           ; 4 bytes @ 0x1A
  2974     003A                     	ds	4
  2975     003E                     ??___fltol:
  2976     003E                     ___fldiv@b:	
  2977                           ; 1 bytes @ 0x1E
  2978                           
  2979                           
  2980                           ; 4 bytes @ 0x1E
  2981     003E                     	ds	4
  2982     0042                     ??___fldiv:
  2983     0042                     ___fltol@sign1:	
  2984                           ; 1 bytes @ 0x22
  2985                           
  2986                           
  2987                           ; 1 bytes @ 0x22
  2988     0042                     	ds	1
  2989     0043                     ___fltol@exp1:
  2990                           
  2991                           ; 1 bytes @ 0x23
  2992     0043                     	ds	4
  2993     0047                     ___fldiv@rem:
  2994                           
  2995                           ; 4 bytes @ 0x27
  2996     0047                     	ds	4
  2997     004B                     ___fldiv@sign:
  2998                           
  2999                           ; 1 bytes @ 0x2B
  3000     004B                     	ds	1
  3001     004C                     ___fldiv@new_exp:
  3002                           
  3003                           ; 2 bytes @ 0x2C
  3004     004C                     	ds	2
  3005     004E                     ___fldiv@grs:
  3006                           
  3007                           ; 4 bytes @ 0x2E
  3008     004E                     	ds	4
  3009     0052                     ___fldiv@bexp:
  3010                           
  3011                           ; 1 bytes @ 0x32
  3012     0052                     	ds	1
  3013     0053                     ___fldiv@aexp:
  3014                           
  3015                           ; 1 bytes @ 0x33
  3016     0053                     	ds	1
  3017     0054                     ??_main:
  3018                           
  3019                           ; 1 bytes @ 0x34
  3020     0054                     	ds	5
  3021     0059                     main@mx_spd:
  3022                           
  3023                           ; 2 bytes @ 0x39
  3024     0059                     	ds	2
  3025     005B                     main@set_spd:
  3026                           
  3027                           ; 2 bytes @ 0x3B
  3028     005B                     	ds	2
  3029     005D                     main@pzt_l_d:
  3030                           
  3031                           ; 4 bytes @ 0x3D
  3032     005D                     	ds	4
  3033     0061                     main@nsp:
  3034                           
  3035                           ; 2 bytes @ 0x41
  3036     0061                     	ds	2
  3037     0063                     main@val:
  3038                           
  3039                           ; 2 bytes @ 0x43
  3040     0063                     	ds	2
  3041     0065                     main@k_294:
  3042                           
  3043                           ; 2 bytes @ 0x45
  3044     0065                     	ds	2
  3045     0067                     main@t_npd:
  3046                           
  3047                           ; 2 bytes @ 0x47
  3048     0067                     	ds	2
  3049     0069                     main@INTVL_ADR:
  3050                           
  3051                           ; 4 bytes @ 0x49
  3052     0069                     	ds	4
  3053     006D                     main@pzt_t:
  3054                           
  3055                           ; 2 bytes @ 0x4D
  3056     006D                     	ds	2
  3057     006F                     main@cmd:
  3058                           
  3059                           ; 1 bytes @ 0x4F
  3060     006F                     	ds	1
  3061                           
  3062                           	psect	maintext
  3063     1585                     __pmaintext:	
  3064 ;;
  3065 ;;Main: autosize = 0, tempsize = 5, incstack = 0, save=0
  3066 ;;
  3067 ;; *************** function _main *****************
  3068 ;; Defined at:
  3069 ;;		line 125 in file "main.c"
  3070 ;; Parameters:    Size  Location     Type
  3071 ;;		None
  3072 ;; Auto vars:     Size  Location     Type
  3073 ;;  k               2   48[BANK1 ] int 
  3074 ;;  k               2   69[BANK0 ] int 
  3075 ;;  tmp            40    0[BANK1 ] unsigned char [40]
  3076 ;;  rcmd            4   72[BANK1 ] unsigned char [4]
  3077 ;;  ndcnt           4   68[BANK1 ] long 
  3078 ;;  npd             4   62[BANK1 ] long 
  3079 ;;  NDCNT_ADR       4   58[BANK1 ] long 
  3080 ;;  pzt_d           4   50[BANK1 ] long 
  3081 ;;  NIP_ADR         4   44[BANK1 ] long 
  3082 ;;  NPD_ADR         4   40[BANK1 ] long 
  3083 ;;  INTVL_ADR       4   73[BANK0 ] long 
  3084 ;;  pzt_l_d         4   61[BANK0 ] long 
  3085 ;;  ln              4    0        unsigned char [4]
  3086 ;;  j               2    5[BANK2 ] int 
  3087 ;;  intvl           2    3[BANK2 ] int 
  3088 ;;  k               2    0[BANK2 ] int 
  3089 ;;  dist            2   78[BANK1 ] int 
  3090 ;;  npos            2   76[BANK1 ] int 
  3091 ;;  c_pzt           2   66[BANK1 ] int 
  3092 ;;  nip             2   56[BANK1 ] int 
  3093 ;;  pzt_l           2   54[BANK1 ] int 
  3094 ;;  pzt_t           2   77[BANK0 ] int 
  3095 ;;  t_npd           2   71[BANK0 ] int 
  3096 ;;  val             2   67[BANK0 ] unsigned int 
  3097 ;;  nsp             2   65[BANK0 ] int 
  3098 ;;  set_spd         2   59[BANK0 ] int 
  3099 ;;  mx_spd          2   57[BANK0 ] int 
  3100 ;;  ptr             1    2[BANK2 ] PTR unsigned char 
  3101 ;;		 -> NULL(0), main@tmp(40), 
  3102 ;;  cmd             1   79[BANK0 ] enum E5793
  3103 ;; Return value:  Size  Location     Type
  3104 ;;                  1    wreg      void 
  3105 ;; Registers used:
  3106 ;;		wreg, fsr0l, fsr0h, fsr1l, fsr1h, status,2, status,0, pclath, cstack
  3107 ;; Tracked objects:
  3108 ;;		On entry : B1F/0
  3109 ;;		On exit  : 0/0
  3110 ;;		Unchanged: 0/0
  3111 ;; Data sizes:     COMMON   BANK0   BANK1   BANK2   BANK3   BANK4   BANK5   BANK6   BANK7   BANK8   BANK9  BANK10  BANK1
      +1  BANK12  BANK13  BANK14  BANK15  BANK16  BANK17  BANK18  BANK19  BANK20  BANK21  BANK22  BANK23  BANK24  BANK25
  3112 ;;      Params:         0       0       0       0       0       0       0       0       0       0       0       0       
      +0       0       0       0       0       0       0       0       0       0       0       0       0       0       0
  3113 ;;      Locals:         0      23      80       7       0       0       0       0       0       0       0       0       
      +0       0       0       0       0       0       0       0       0       0       0       0       0       0       0
  3114 ;;      Temps:          0       5       0       0       0       0       0       0       0       0       0       0       
      +0       0       0       0       0       0       0       0       0       0       0       0       0       0       0
  3115 ;;      Totals:         0      28      80       7       0       0       0       0       0       0       0       0       
      +0       0       0       0       0       0       0       0       0       0       0       0       0       0       0
  3116 ;;Total ram usage:      115 bytes
  3117 ;; Hardware stack levels required when called: 4
  3118 ;; This function calls:
  3119 ;;		_AD_convert
  3120 ;;		___awdiv
  3121 ;;		___fladd
  3122 ;;		___fldiv
  3123 ;;		___flmul
  3124 ;;		___fltol
  3125 ;;		___wmul
  3126 ;;		___xxtofl
  3127 ;;		_atoi
  3128 ;;		_gets
  3129 ;;		_initUART
  3130 ;;		_printf
  3131 ;;		_read_data_eeprom
  3132 ;;		_strcmp
  3133 ;;		_strtok
  3134 ;;		_write_data_eeprom
  3135 ;; This function is called by:
  3136 ;;		Startup code after reset
  3137 ;; This function uses a non-reentrant model
  3138 ;;
  3139                           
  3140     1585                     _main:	
  3141                           ;psect for function _main
  3142                           
  3143     1585                     l3890:	
  3144                           ;incstack = 0
  3145                           ; Regs used in _main: [wreg-fsr1h+status,2+status,0+pclath+cstack]
  3146                           
  3147                           
  3148                           ;main.c: 127: PORTA = 0x00;
  3149     1585  0020               	movlb	0	; select bank0
  3150     1586  018C               	clrf	12	;volatile
  3151                           
  3152                           ;main.c: 128: PORTB = 0x00;
  3153     1587  018D               	clrf	13	;volatile
  3154     1588                     l3892:
  3155                           
  3156                           ;main.c: 129: TRISA = 0b01100000;
  3157     1588  3060               	movlw	96
  3158     1589  0021               	movlb	1	; select bank1
  3159     158A  008C               	movwf	12	;volatile
  3160     158B                     l3894:
  3161                           
  3162                           ;main.c: 130: TRISB = 0b10111111;
  3163     158B  30BF               	movlw	191
  3164     158C  008D               	movwf	13	;volatile
  3165     158D                     l3896:
  3166                           
  3167                           ;main.c: 131: APFCON1 = 0b00000110;
  3168     158D  3006               	movlw	6
  3169     158E  0022               	movlb	2	; select bank2
  3170     158F  009D               	movwf	29	;volatile
  3171     1590                     l3898:
  3172                           
  3173                           ;main.c: 132: PIE1 = 0b00110000;
  3174     1590  3030               	movlw	48
  3175     1591  0021               	movlb	1	; select bank1
  3176     1592  0091               	movwf	17	;volatile
  3177     1593                     l3900:
  3178                           
  3179                           ;main.c: 133: OSCCON = 0b01101010;
  3180     1593  306A               	movlw	106
  3181     1594  0099               	movwf	25	;volatile
  3182     1595                     l3902:
  3183                           
  3184                           ;main.c: 134: ANSELB = 0b00000000;
  3185     1595  0023               	movlb	3	; select bank3
  3186     1596  018D               	clrf	13	;volatile
  3187     1597                     l3904:
  3188                           
  3189                           ;main.c: 136: FVRCON = 0b00000000;
  3190     1597  0022               	movlb	2	; select bank2
  3191     1598  0197               	clrf	23	;volatile
  3192     1599                     l3906:
  3193                           
  3194                           ;main.c: 137: DAC1CON0 = 0b10100000;
  3195     1599  30A0               	movlw	160
  3196     159A  0098               	movwf	24	;volatile
  3197                           
  3198                           ;main.c: 138: DAC1CON1 = 0;
  3199     159B  0199               	clrf	25	;volatile
  3200     159C                     l3908:
  3201                           
  3202                           ;main.c: 140: WPUB = 0b00111111;
  3203     159C  303F               	movlw	63
  3204     159D  0024               	movlb	4	; select bank4
  3205     159E  008D               	movwf	13	;volatile
  3206     159F                     l3910:
  3207                           
  3208                           ;main.c: 141: OPTION_REG = 0x00;
  3209     159F  0021               	movlb	1	; select bank1
  3210     15A0  0195               	clrf	21	;volatile
  3211                           
  3212                           ;main.c: 143: ADCON0 = 0b00010001;
  3213     15A1  3011               	movlw	17
  3214     15A2  009D               	movwf	29	;volatile
  3215                           
  3216                           ;main.c: 144: ADCON1 = 0b10100011;
  3217     15A3  30A3               	movlw	163
  3218     15A4  009E               	movwf	30	;volatile
  3219                           
  3220                           ;main.c: 146: FVRCON = 0b10000010;
  3221     15A5  3082               	movlw	130
  3222     15A6  0022               	movlb	2	; select bank2
  3223     15A7  0097               	movwf	23	;volatile
  3224     15A8                     l3912:
  3225                           
  3226                           ;main.c: 148: ADRESL = 0x00;
  3227     15A8  0021               	movlb	1	; select bank1
  3228     15A9  019B               	clrf	27	;volatile
  3229     15AA                     l3914:
  3230                           
  3231                           ;main.c: 149: ADRESH = 0x00;
  3232     15AA  019C               	clrf	28	;volatile
  3233     15AB                     l3916:
  3234                           
  3235                           ;main.c: 152: initUART();
  3236     15AB  319C  2435  3195   	fcall	_initUART
  3237     15AE                     l3918:
  3238                           
  3239                           ;main.c: 154: long INTVL_ADR = 8;
  3240     15AE  3000               	movlw	0
  3241     15AF  0020               	movlb	0	; select bank0
  3242     15B0  00EC               	movwf	main@INTVL_ADR+3
  3243     15B1  3000               	movlw	0
  3244     15B2  00EB               	movwf	main@INTVL_ADR+2
  3245     15B3  3000               	movlw	0
  3246     15B4  00EA               	movwf	main@INTVL_ADR+1
  3247     15B5  3008               	movlw	8
  3248     15B6  00E9               	movwf	main@INTVL_ADR
  3249     15B7                     l3920:
  3250                           
  3251                           ;main.c: 155: long NPD_ADR = 10;
  3252     15B7  3000               	movlw	0
  3253     15B8  0021               	movlb	1	; select bank1
  3254     15B9  00CB               	movwf	(main@NPD_ADR+3)^(0+128)
  3255     15BA  3000               	movlw	0
  3256     15BB  00CA               	movwf	(main@NPD_ADR+2)^(0+128)
  3257     15BC  3000               	movlw	0
  3258     15BD  00C9               	movwf	(main@NPD_ADR+1)^(0+128)
  3259     15BE  300A               	movlw	10
  3260     15BF  00C8               	movwf	main@NPD_ADR^(0+128)
  3261     15C0                     l3922:
  3262                           
  3263                           ;main.c: 156: long NIP_ADR = 12;
  3264     15C0  3000               	movlw	0
  3265     15C1  00CF               	movwf	(main@NIP_ADR+3)^(0+128)
  3266     15C2  3000               	movlw	0
  3267     15C3  00CE               	movwf	(main@NIP_ADR+2)^(0+128)
  3268     15C4  3000               	movlw	0
  3269     15C5  00CD               	movwf	(main@NIP_ADR+1)^(0+128)
  3270     15C6  300C               	movlw	12
  3271     15C7  00CC               	movwf	main@NIP_ADR^(0+128)
  3272     15C8                     l3924:
  3273                           
  3274                           ;main.c: 157: long NDCNT_ADR = 14;
  3275     15C8  3000               	movlw	0
  3276     15C9  00DD               	movwf	(main@NDCNT_ADR+3)^(0+128)
  3277     15CA  3000               	movlw	0
  3278     15CB  00DC               	movwf	(main@NDCNT_ADR+2)^(0+128)
  3279     15CC  3000               	movlw	0
  3280     15CD  00DB               	movwf	(main@NDCNT_ADR+1)^(0+128)
  3281     15CE  300E               	movlw	14
  3282     15CF  00DA               	movwf	main@NDCNT_ADR^(0+128)
  3283     15D0                     l3926:
  3284                           
  3285                           ;main.c: 159: char tmp[40];;main.c: 160: int j = 10;
  3286     15D0  300A               	movlw	10
  3287     15D1  0022               	movlb	2	; select bank2
  3288     15D2  00A5               	movwf	main@j^(0+256)
  3289     15D3  3000               	movlw	0
  3290     15D4  00A6               	movwf	(main@j^(0+256)+1)
  3291     15D5                     l3928:
  3292                           
  3293                           ;main.c: 161: int k = 0;
  3294     15D5  01A0               	clrf	main@k^(0+256)
  3295     15D6  01A1               	clrf	(main@k+1)^(0+256)
  3296     15D7                     l3930:
  3297                           
  3298                           ;main.c: 162: int dist = 10;
  3299     15D7  300A               	movlw	10
  3300     15D8  0021               	movlb	1	; select bank1
  3301     15D9  00EE               	movwf	main@dist^(0+128)
  3302     15DA  3000               	movlw	0
  3303     15DB  00EF               	movwf	(main@dist^(0+128)+1)
  3304     15DC                     l3932:
  3305                           
  3306                           ;main.c: 163: int intvl = 20;
  3307     15DC  3014               	movlw	20
  3308     15DD  0022               	movlb	2	; select bank2
  3309     15DE  00A3               	movwf	main@intvl^(0+256)
  3310     15DF  3000               	movlw	0
  3311     15E0  00A4               	movwf	(main@intvl^(0+256)+1)
  3312     15E1                     l3934:
  3313                           
  3314                           ;main.c: 164: char rcmd[4];;main.c: 165: int mx_spd = 20250;
  3315     15E1  301A               	movlw	26
  3316     15E2  0020               	movlb	0	; select bank0
  3317     15E3  00D9               	movwf	main@mx_spd
  3318     15E4  304F               	movlw	79
  3319     15E5  00DA               	movwf	main@mx_spd+1
  3320     15E6                     l3936:
  3321                           
  3322                           ;main.c: 166: int set_spd;;main.c: 167: long int npd = 2500;
  3323     15E6  3000               	movlw	0
  3324     15E7  0021               	movlb	1	; select bank1
  3325     15E8  00E1               	movwf	(main@npd+3)^(0+128)
  3326     15E9  3000               	movlw	0
  3327     15EA  00E0               	movwf	(main@npd+2)^(0+128)
  3328     15EB  3009               	movlw	9
  3329     15EC  00DF               	movwf	(main@npd+1)^(0+128)
  3330     15ED  30C4               	movlw	196
  3331     15EE  00DE               	movwf	main@npd^(0+128)
  3332     15EF                     l3938:
  3333                           
  3334                           ;main.c: 168: int t_npd = 100;
  3335     15EF  3064               	movlw	100
  3336     15F0  0020               	movlb	0	; select bank0
  3337     15F1  00E7               	movwf	main@t_npd
  3338     15F2  3000               	movlw	0
  3339     15F3  00E8               	movwf	main@t_npd+1
  3340     15F4                     l3940:
  3341                           
  3342                           ;main.c: 169: int nsp = 500;
  3343     15F4  30F4               	movlw	244
  3344     15F5  00E1               	movwf	main@nsp
  3345     15F6  3001               	movlw	1
  3346     15F7  00E2               	movwf	main@nsp+1
  3347     15F8                     l3942:
  3348                           
  3349                           ;main.c: 170: char ln[4];;main.c: 171: int npos = 0;
  3350     15F8  0021               	movlb	1	; select bank1
  3351     15F9  01EC               	clrf	main@npos^(0+128)
  3352     15FA  01ED               	clrf	(main@npos+1)^(0+128)
  3353     15FB                     l3944:
  3354                           
  3355                           ;main.c: 172: int nip = 5000;
  3356     15FB  3088               	movlw	136
  3357     15FC  00D8               	movwf	main@nip^(0+128)
  3358     15FD  3013               	movlw	19
  3359     15FE  00D9               	movwf	(main@nip^(0+128)+1)
  3360     15FF                     l3946:
  3361                           
  3362                           ;main.c: 173: long int ndcnt = 0;
  3363     15FF  3000               	movlw	0
  3364     1600  00E7               	movwf	(main@ndcnt+3)^(0+128)
  3365     1601  3000               	movlw	0
  3366     1602  00E6               	movwf	(main@ndcnt+2)^(0+128)
  3367     1603  3000               	movlw	0
  3368     1604  00E5               	movwf	(main@ndcnt+1)^(0+128)
  3369     1605  3000               	movlw	0
  3370     1606  00E4               	movwf	main@ndcnt^(0+128)
  3371     1607                     l3948:
  3372                           
  3373                           ;main.c: 174: int pzt_l = 0;
  3374     1607  01D6               	clrf	main@pzt_l^(0+128)
  3375     1608  01D7               	clrf	(main@pzt_l+1)^(0+128)
  3376     1609                     l3950:
  3377                           
  3378                           ;main.c: 175: double pzt_l_d = 0;
  3379     1609  3000               	movlw	0
  3380     160A  0020               	movlb	0	; select bank0
  3381     160B  00E0               	movwf	main@pzt_l_d+3
  3382     160C  3000               	movlw	0
  3383     160D  00DF               	movwf	main@pzt_l_d+2
  3384     160E  3000               	movlw	0
  3385     160F  00DE               	movwf	main@pzt_l_d+1
  3386     1610  3000               	movlw	0
  3387     1611  00DD               	movwf	main@pzt_l_d
  3388     1612                     l3952:
  3389                           
  3390                           ;main.c: 176: int pzt_t = 100;
  3391     1612  3064               	movlw	100
  3392     1613  00ED               	movwf	main@pzt_t
  3393     1614  3000               	movlw	0
  3394     1615  00EE               	movwf	main@pzt_t+1
  3395     1616                     l3954:
  3396                           
  3397                           ;main.c: 177: double pzt_d = 0;
  3398     1616  3000               	movlw	0
  3399     1617  0021               	movlb	1	; select bank1
  3400     1618  00D5               	movwf	(main@pzt_d+3)^(0+128)
  3401     1619  3000               	movlw	0
  3402     161A  00D4               	movwf	(main@pzt_d+2)^(0+128)
  3403     161B  3000               	movlw	0
  3404     161C  00D3               	movwf	(main@pzt_d+1)^(0+128)
  3405     161D  3000               	movlw	0
  3406     161E  00D2               	movwf	main@pzt_d^(0+128)
  3407     161F                     l3956:
  3408                           
  3409                           ;main.c: 178: int c_pzt = 0;
  3410     161F  01E2               	clrf	main@c_pzt^(0+128)
  3411     1620  01E3               	clrf	(main@c_pzt+1)^(0+128)
  3412     1621                     l3958:
  3413                           
  3414                           ;main.c: 179: char *ptr;;main.c: 181: enum command cmd;;main.c: 183: unsigned int val;;m
      +                          ain.c: 185: RB1 = 1;
  3415     1621  0020               	movlb	0	; select bank0
  3416     1622  148D               	bsf	13,1	;volatile
  3417     1623                     l3960:
  3418                           
  3419                           ;main.c: 186: RB5 = 1;
  3420     1623  168D               	bsf	13,5	;volatile
  3421     1624                     l3962:
  3422                           
  3423                           ;main.c: 187: RB4 = 1;
  3424     1624  160D               	bsf	13,4	;volatile
  3425     1625                     l3964:
  3426                           
  3427                           ;main.c: 188: RB3 = 1;
  3428     1625  158D               	bsf	13,3	;volatile
  3429     1626                     l3966:
  3430                           
  3431                           ;main.c: 189: RB2 = 1;
  3432     1626  150D               	bsf	13,2	;volatile
  3433     1627                     l3968:
  3434                           
  3435                           ;main.c: 190: RB0 = 1;
  3436     1627  140D               	bsf	13,0	;volatile
  3437     1628                     l3970:
  3438                           
  3439                           ;main.c: 192: ndcnt = read_data_eeprom(NDCNT_ADR);
  3440     1628  0021               	movlb	1	; select bank1
  3441     1629  085D               	movf	(main@NDCNT_ADR+3)^(0+128),w
  3442     162A  00F7               	movwf	read_data_eeprom@adr+3
  3443     162B  085C               	movf	(main@NDCNT_ADR+2)^(0+128),w
  3444     162C  00F6               	movwf	read_data_eeprom@adr+2
  3445     162D  085B               	movf	(main@NDCNT_ADR+1)^(0+128),w
  3446     162E  00F5               	movwf	read_data_eeprom@adr+1
  3447     162F  085A               	movf	main@NDCNT_ADR^(0+128),w
  3448     1630  00F4               	movwf	read_data_eeprom@adr
  3449     1631  3190  2005  3195   	fcall	_read_data_eeprom
  3450     1634  0877               	movf	?_read_data_eeprom+3,w
  3451     1635  0021               	movlb	1	; select bank1
  3452     1636  00E7               	movwf	(main@ndcnt+3)^(0+128)
  3453     1637  0876               	movf	?_read_data_eeprom+2,w
  3454     1638  00E6               	movwf	(main@ndcnt+2)^(0+128)
  3455     1639  0875               	movf	?_read_data_eeprom+1,w
  3456     163A  00E5               	movwf	(main@ndcnt+1)^(0+128)
  3457     163B  0874               	movf	?_read_data_eeprom,w
  3458     163C  00E4               	movwf	main@ndcnt^(0+128)
  3459     163D                     l3972:
  3460                           
  3461                           ;main.c: 193: npd = read_data_eeprom(NPD_ADR);
  3462     163D  3000               	movlw	0
  3463     163E  00F7               	movwf	read_data_eeprom@adr+3
  3464     163F  3000               	movlw	0
  3465     1640  00F6               	movwf	read_data_eeprom@adr+2
  3466     1641  3000               	movlw	0
  3467     1642  00F5               	movwf	read_data_eeprom@adr+1
  3468     1643  300A               	movlw	10
  3469     1644  00F4               	movwf	read_data_eeprom@adr
  3470     1645  3190  2005  3195   	fcall	_read_data_eeprom
  3471     1648  0877               	movf	?_read_data_eeprom+3,w
  3472     1649  0021               	movlb	1	; select bank1
  3473     164A  00E1               	movwf	(main@npd+3)^(0+128)
  3474     164B  0876               	movf	?_read_data_eeprom+2,w
  3475     164C  00E0               	movwf	(main@npd+2)^(0+128)
  3476     164D  0875               	movf	?_read_data_eeprom+1,w
  3477     164E  00DF               	movwf	(main@npd+1)^(0+128)
  3478     164F  0874               	movf	?_read_data_eeprom,w
  3479     1650  00DE               	movwf	main@npd^(0+128)
  3480     1651                     l3974:
  3481                           
  3482                           ;main.c: 194: nip = read_data_eeprom(NIP_ADR);
  3483     1651  3000               	movlw	0
  3484     1652  00F7               	movwf	read_data_eeprom@adr+3
  3485     1653  3000               	movlw	0
  3486     1654  00F6               	movwf	read_data_eeprom@adr+2
  3487     1655  3000               	movlw	0
  3488     1656  00F5               	movwf	read_data_eeprom@adr+1
  3489     1657  300C               	movlw	12
  3490     1658  00F4               	movwf	read_data_eeprom@adr
  3491     1659  3190  2005  3195   	fcall	_read_data_eeprom
  3492     165C  0875               	movf	?_read_data_eeprom+1,w
  3493     165D  0021               	movlb	1	; select bank1
  3494     165E  00D9               	movwf	(main@nip+1)^(0+128)
  3495     165F  0874               	movf	?_read_data_eeprom,w
  3496     1660  00D8               	movwf	main@nip^(0+128)
  3497     1661                     l3976:
  3498                           
  3499                           ;main.c: 195: intvl = read_data_eeprom(INTVL_ADR);
  3500     1661  3000               	movlw	0
  3501     1662  00F7               	movwf	read_data_eeprom@adr+3
  3502     1663  3000               	movlw	0
  3503     1664  00F6               	movwf	read_data_eeprom@adr+2
  3504     1665  3000               	movlw	0
  3505     1666  00F5               	movwf	read_data_eeprom@adr+1
  3506     1667  3008               	movlw	8
  3507     1668  00F4               	movwf	read_data_eeprom@adr
  3508     1669  3190  2005  3195   	fcall	_read_data_eeprom
  3509     166C  0875               	movf	?_read_data_eeprom+1,w
  3510     166D  0022               	movlb	2	; select bank2
  3511     166E  00A4               	movwf	(main@intvl+1)^(0+256)
  3512     166F  0874               	movf	?_read_data_eeprom,w
  3513     1670  00A3               	movwf	main@intvl^(0+256)
  3514     1671                     l3978:
  3515                           
  3516                           ;main.c: 205: cmd = NON;
  3517     1671  301D               	movlw	29
  3518     1672  0020               	movlb	0	; select bank0
  3519     1673  00EF               	movwf	main@cmd
  3520     1674                     l3980:
  3521                           
  3522                           ;main.c: 207: rcmd[0] = 'Q';
  3523     1674  3051               	movlw	81
  3524     1675  0021               	movlb	1	; select bank1
  3525     1676  00E8               	movwf	main@rcmd^(0+128)
  3526     1677                     l3982:
  3527                           
  3528                           ;main.c: 208: rcmd[1] = 'Q';
  3529     1677  3051               	movlw	81
  3530     1678  00E9               	movwf	(main@rcmd^(0+128)+1)
  3531     1679                     l3984:
  3532                           
  3533                           ;main.c: 209: rcmd[2] = 'Q';
  3534     1679  3051               	movlw	81
  3535     167A  00EA               	movwf	(main@rcmd^(0+128)+2)
  3536     167B                     l3986:
  3537                           
  3538                           ;main.c: 210: rcmd[3] = '\0';
  3539     167B  01EB               	clrf	(main@rcmd^(0+128)+3)
  3540     167C                     l3988:
  3541                           
  3542                           ;main.c: 212: tmp[0] = 'Q';
  3543     167C  3051               	movlw	81
  3544     167D  00A0               	movwf	main@tmp^(0+128)
  3545     167E                     l3990:
  3546                           
  3547                           ;main.c: 213: tmp[1] = 'Q';
  3548     167E  3051               	movlw	81
  3549     167F  00A1               	movwf	(main@tmp^(0+128)+1)
  3550     1680                     l3992:
  3551                           
  3552                           ;main.c: 214: tmp[2] = 'Q';
  3553     1680  3051               	movlw	81
  3554     1681  00A2               	movwf	(main@tmp^(0+128)+2)
  3555     1682                     l3994:
  3556                           
  3557                           ;main.c: 215: tmp[3] = '\0';
  3558     1682  01A3               	clrf	(main@tmp^(0+128)+3)
  3559     1683                     l3996:
  3560                           
  3561                           ;main.c: 217: if (RB3 == 0){
  3562     1683  0020               	movlb	0	; select bank0
  3563     1684  198D               	btfsc	13,3	;volatile
  3564     1685  2E87               	goto	u4951
  3565     1686  2E88               	goto	u4950
  3566     1687                     u4951:
  3567     1687  2E9E               	goto	l4006
  3568     1688                     u4950:
  3569     1688                     l3998:
  3570                           
  3571                           ;main.c: 218: if(RB5 == 0){
  3572     1688  1A8D               	btfsc	13,5	;volatile
  3573     1689  2E8B               	goto	u4961
  3574     168A  2E8C               	goto	u4960
  3575     168B                     u4961:
  3576     168B  2E8F               	goto	l95
  3577     168C                     u4960:
  3578     168C                     l4000:
  3579                           
  3580                           ;main.c: 219: cmd = NDO;
  3581     168C  3007               	movlw	7
  3582     168D  00EF               	movwf	main@cmd
  3583                           
  3584                           ;main.c: 222: }else if(RB4 == 0){
  3585     168E  2EA2               	goto	l4008
  3586     168F                     l95:
  3587     168F  1A0D               	btfsc	13,4	;volatile
  3588     1690  2E92               	goto	u4971
  3589     1691  2E93               	goto	u4970
  3590     1692                     u4971:
  3591     1692  2E96               	goto	l97
  3592     1693                     u4970:
  3593     1693                     l4002:
  3594                           
  3595                           ;main.c: 223: cmd = NSC;
  3596     1693  300B               	movlw	11
  3597     1694  00EF               	movwf	main@cmd
  3598                           
  3599                           ;main.c: 224: }else if(RB2 == 0){
  3600     1695  2EA2               	goto	l4008
  3601     1696                     l97:
  3602     1696  190D               	btfsc	13,2	;volatile
  3603     1697  2E99               	goto	u4981
  3604     1698  2E9A               	goto	u4980
  3605     1699                     u4981:
  3606     1699  2E9D               	goto	l96
  3607     169A                     u4980:
  3608     169A                     l4004:
  3609                           
  3610                           ;main.c: 225: cmd = NOS;
  3611     169A  3005               	movlw	5
  3612     169B  00EF               	movwf	main@cmd
  3613     169C  2EA2               	goto	l4008
  3614     169D                     l96:
  3615                           
  3616                           ;main.c: 226: };main.c: 227: } else {
  3617     169D  2EA2               	goto	l4008
  3618     169E                     l4006:
  3619                           
  3620                           ;main.c: 228: gets(tmp);
  3621     169E  30A0               	movlw	(low (main@tmp| 0))& (0+255)
  3622     169F  319C  2427  3195   	fcall	_gets
  3623     16A2                     l4008:
  3624                           
  3625                           ;main.c: 229: };main.c: 240: rcmd[0] = tmp[1];
  3626     16A2  0021               	movlb	1	; select bank1
  3627     16A3  0821               	movf	(main@tmp^(0+128)+1),w
  3628     16A4  00E8               	movwf	main@rcmd^(0+128)
  3629     16A5                     l4010:
  3630                           
  3631                           ;main.c: 241: rcmd[1] = tmp[2];
  3632     16A5  0822               	movf	(main@tmp^(0+128)+2),w
  3633     16A6  00E9               	movwf	(main@rcmd^(0+128)+1)
  3634     16A7                     l4012:
  3635                           
  3636                           ;main.c: 242: rcmd[2] = tmp[3];
  3637     16A7  0823               	movf	(main@tmp^(0+128)+3),w
  3638     16A8  00EA               	movwf	(main@rcmd^(0+128)+2)
  3639     16A9                     l4014:
  3640                           
  3641                           ;main.c: 243: rcmd[3] = '\0';
  3642     16A9  01EB               	clrf	(main@rcmd^(0+128)+3)
  3643     16AA                     l4016:
  3644                           
  3645                           ;main.c: 253: if(strcmp(rcmd,"RPS") == 0) {
  3646     16AA  307A               	movlw	low (STR_1| (0+32768))
  3647     16AB  00F0               	movwf	strcmp@s2
  3648     16AC  30A1               	movlw	high (STR_1| (0+32768))
  3649     16AD  00F1               	movwf	strcmp@s2+1
  3650     16AE  30E8               	movlw	(low (main@rcmd| 0))& (0+255)
  3651     16AF  3180  2005  3195   	fcall	_strcmp
  3652     16B2  0870               	movf	?_strcmp,w
  3653     16B3  0471               	iorwf	?_strcmp+1,w
  3654     16B4  1D03               	btfss	3,2
  3655     16B5  2EB8               	goto	u4991
  3656     16B6  3192  2A2B         	goto	u4990
  3657     16B8                     u4991:
  3658     16B8  3192  2A2F         	goto	l4020
  3659                           
  3660                           	psect	text1
  3661     1DE7                     __ptext1:	
  3662 ;; *************** function _write_data_eeprom *****************
  3663 ;; Defined at:
  3664 ;;		line 85 in file "main.c"
  3665 ;; Parameters:    Size  Location     Type
  3666 ;;  adr             4    4[COMMON] long 
  3667 ;;  value           4    8[COMMON] long 
  3668 ;; Auto vars:     Size  Location     Type
  3669 ;;  set_value       4    5[BANK0 ] long 
  3670 ;; Return value:  Size  Location     Type
  3671 ;;                  1    wreg      void 
  3672 ;; Registers used:
  3673 ;;		wreg, status,2, status,0, pclath, cstack
  3674 ;; Tracked objects:
  3675 ;;		On entry : 0/0
  3676 ;;		On exit  : 0/0
  3677 ;;		Unchanged: 0/0
  3678 ;; Data sizes:     COMMON   BANK0   BANK1   BANK2   BANK3   BANK4   BANK5   BANK6   BANK7   BANK8   BANK9  BANK10  BANK1
      +1  BANK12  BANK13  BANK14  BANK15  BANK16  BANK17  BANK18  BANK19  BANK20  BANK21  BANK22  BANK23  BANK24  BANK25
  3679 ;;      Params:         8       0       0       0       0       0       0       0       0       0       0       0       
      +0       0       0       0       0       0       0       0       0       0       0       0       0       0       0
  3680 ;;      Locals:         0       4       0       0       0       0       0       0       0       0       0       0       
      +0       0       0       0       0       0       0       0       0       0       0       0       0       0       0
  3681 ;;      Temps:          0       5       0       0       0       0       0       0       0       0       0       0       
      +0       0       0       0       0       0       0       0       0       0       0       0       0       0       0
  3682 ;;      Totals:         8       9       0       0       0       0       0       0       0       0       0       0       
      +0       0       0       0       0       0       0       0       0       0       0       0       0       0       0
  3683 ;;Total ram usage:       17 bytes
  3684 ;; Hardware stack levels used: 1
  3685 ;; Hardware stack levels required when called: 1
  3686 ;; This function calls:
  3687 ;;		_eeprom_write
  3688 ;; This function is called by:
  3689 ;;		_main
  3690 ;; This function uses a non-reentrant model
  3691 ;;
  3692                           
  3693     1DE7                     _write_data_eeprom:	
  3694                           ;psect for function _write_data_eeprom
  3695                           
  3696     1DE7                     l3126:	
  3697                           ;incstack = 0
  3698                           ; Regs used in _write_data_eeprom: [wreg+status,2+status,0+pclath+cstack]
  3699                           
  3700                           
  3701                           ;main.c: 86: long set_value;;main.c: 88: set_value = value & 0x00FF;
  3702     1DE7  30FF               	movlw	255
  3703     1DE8  0578               	andwf	write_data_eeprom@value,w
  3704     1DE9  0020               	movlb	0	; select bank0
  3705     1DEA  00A5               	movwf	write_data_eeprom@set_value
  3706     1DEB  3000               	movlw	0
  3707     1DEC  0579               	andwf	write_data_eeprom@value+1,w
  3708     1DED  00A6               	movwf	write_data_eeprom@set_value+1
  3709     1DEE  3000               	movlw	0
  3710     1DEF  057A               	andwf	write_data_eeprom@value+2,w
  3711     1DF0  00A7               	movwf	write_data_eeprom@set_value+2
  3712     1DF1  3000               	movlw	0
  3713     1DF2  057B               	andwf	write_data_eeprom@value+3,w
  3714     1DF3  00A8               	movwf	write_data_eeprom@set_value+3
  3715     1DF4                     l3128:
  3716                           
  3717                           ;main.c: 89: eeprom_write(adr, set_value);
  3718     1DF4  0825               	movf	write_data_eeprom@set_value,w
  3719     1DF5  00F0               	movwf	eeprom_write@value
  3720     1DF6  0874               	movf	write_data_eeprom@adr,w
  3721     1DF7  319C  24ED  319D   	fcall	_eeprom_write
  3722     1DFA                     l3130:
  3723                           
  3724                           ;main.c: 91: set_value = value >> 8;
  3725     1DFA  0878               	movf	write_data_eeprom@value,w
  3726     1DFB  0020               	movlb	0	; select bank0
  3727     1DFC  00A0               	movwf	??_write_data_eeprom
  3728     1DFD  0879               	movf	write_data_eeprom@value+1,w
  3729     1DFE  00A1               	movwf	??_write_data_eeprom+1
  3730     1DFF  087A               	movf	write_data_eeprom@value+2,w
  3731     1E00  00A2               	movwf	??_write_data_eeprom+2
  3732     1E01  087B               	movf	write_data_eeprom@value+3,w
  3733     1E02  00A3               	movwf	??_write_data_eeprom+3
  3734     1E03  3008               	movlw	8
  3735     1E04  00A4               	movwf	??_write_data_eeprom+4
  3736     1E05                     u3405:
  3737     1E05  37A3               	asrf	??_write_data_eeprom+3,f
  3738     1E06  0CA2               	rrf	??_write_data_eeprom+2,f
  3739     1E07  0CA1               	rrf	??_write_data_eeprom+1,f
  3740     1E08  0CA0               	rrf	??_write_data_eeprom,f
  3741     1E09                     u3400:
  3742     1E09  0BA4               	decfsz	??_write_data_eeprom+4,f
  3743     1E0A  2E05               	goto	u3405
  3744     1E0B  0823               	movf	??_write_data_eeprom+3,w
  3745     1E0C  00A8               	movwf	write_data_eeprom@set_value+3
  3746     1E0D  0822               	movf	??_write_data_eeprom+2,w
  3747     1E0E  00A7               	movwf	write_data_eeprom@set_value+2
  3748     1E0F  0821               	movf	??_write_data_eeprom+1,w
  3749     1E10  00A6               	movwf	write_data_eeprom@set_value+1
  3750     1E11  0820               	movf	??_write_data_eeprom,w
  3751     1E12  00A5               	movwf	write_data_eeprom@set_value
  3752     1E13                     l3132:
  3753                           
  3754                           ;main.c: 92: set_value = set_value & 0x00FF;
  3755     1E13  30FF               	movlw	255
  3756     1E14  0525               	andwf	write_data_eeprom@set_value,w
  3757     1E15  00A0               	movwf	??_write_data_eeprom
  3758     1E16  3000               	movlw	0
  3759     1E17  0526               	andwf	write_data_eeprom@set_value+1,w
  3760     1E18  00A1               	movwf	??_write_data_eeprom+1
  3761     1E19  3000               	movlw	0
  3762     1E1A  0527               	andwf	write_data_eeprom@set_value+2,w
  3763     1E1B  00A2               	movwf	??_write_data_eeprom+2
  3764     1E1C  3000               	movlw	0
  3765     1E1D  0528               	andwf	write_data_eeprom@set_value+3,w
  3766     1E1E  00A3               	movwf	??_write_data_eeprom+3
  3767     1E1F  0823               	movf	??_write_data_eeprom+3,w
  3768     1E20  00A8               	movwf	write_data_eeprom@set_value+3
  3769     1E21  0822               	movf	??_write_data_eeprom+2,w
  3770     1E22  00A7               	movwf	write_data_eeprom@set_value+2
  3771     1E23  0821               	movf	??_write_data_eeprom+1,w
  3772     1E24  00A6               	movwf	write_data_eeprom@set_value+1
  3773     1E25  0820               	movf	??_write_data_eeprom,w
  3774     1E26  00A5               	movwf	write_data_eeprom@set_value
  3775     1E27                     l3134:
  3776                           
  3777                           ;main.c: 93: eeprom_write(adr+1, set_value);
  3778     1E27  0825               	movf	write_data_eeprom@set_value,w
  3779     1E28  00F0               	movwf	eeprom_write@value
  3780     1E29  0874               	movf	write_data_eeprom@adr,w
  3781     1E2A  3E01               	addlw	1
  3782     1E2B  319C  24ED  319D   	fcall	_eeprom_write
  3783     1E2E                     l79:
  3784     1E2E  0008               	return
  3785     1E2F                     __end_of_write_data_eeprom:
  3786                           
  3787                           	psect	text2
  3788     1CED                     __ptext2:	
  3789 ;; *************** function _eeprom_write *****************
  3790 ;; Defined at:
  3791 ;;		line 6 in file "C:\Program Files\Microchip\xc8\v2.41\pic\sources\c90\pic\__eewrite.c"
  3792 ;; Parameters:    Size  Location     Type
  3793 ;;  addr            1    wreg     unsigned char 
  3794 ;;  value           1    0[COMMON] unsigned char 
  3795 ;; Auto vars:     Size  Location     Type
  3796 ;;  addr            1    3[COMMON] unsigned char 
  3797 ;; Return value:  Size  Location     Type
  3798 ;;                  1    wreg      void 
  3799 ;; Registers used:
  3800 ;;		wreg, status,2, status,0
  3801 ;; Tracked objects:
  3802 ;;		On entry : 0/0
  3803 ;;		On exit  : 0/0
  3804 ;;		Unchanged: 0/0
  3805 ;; Data sizes:     COMMON   BANK0   BANK1   BANK2   BANK3   BANK4   BANK5   BANK6   BANK7   BANK8   BANK9  BANK10  BANK1
      +1  BANK12  BANK13  BANK14  BANK15  BANK16  BANK17  BANK18  BANK19  BANK20  BANK21  BANK22  BANK23  BANK24  BANK25
  3806 ;;      Params:         1       0       0       0       0       0       0       0       0       0       0       0       
      +0       0       0       0       0       0       0       0       0       0       0       0       0       0       0
  3807 ;;      Locals:         1       0       0       0       0       0       0       0       0       0       0       0       
      +0       0       0       0       0       0       0       0       0       0       0       0       0       0       0
  3808 ;;      Temps:          2       0       0       0       0       0       0       0       0       0       0       0       
      +0       0       0       0       0       0       0       0       0       0       0       0       0       0       0
  3809 ;;      Totals:         4       0       0       0       0       0       0       0       0       0       0       0       
      +0       0       0       0       0       0       0       0       0       0       0       0       0       0       0
  3810 ;;Total ram usage:        4 bytes
  3811 ;; Hardware stack levels used: 1
  3812 ;; This function calls:
  3813 ;;		Nothing
  3814 ;; This function is called by:
  3815 ;;		_write_data_eeprom
  3816 ;; This function uses a non-reentrant model
  3817 ;;
  3818                           
  3819     1CED                     _eeprom_write:	
  3820                           ;psect for function _eeprom_write
  3821                           
  3822                           
  3823                           ;incstack = 0
  3824                           ; Regs used in _eeprom_write: [wreg+status,2+status,0]
  3825                           ;eeprom_write@addr stored from wreg
  3826     1CED  00F3               	movwf	eeprom_write@addr
  3827     1CEE                     l583:	
  3828                           ;__eewrite.c: 8: do{ while (EECON1bits.WR) { continue; } EEADR = (addr); EEDATA = (value
      +                          ); EECON1 &= 0x3F; STATUSbits.CARRY = 0; if (INTCONbits.GIE) { STATUSbits.CARRY = 1; } I
      +                          NTCONbits.GIE = 0; EECON1bits.WREN = 1; EECON2 = 0x55; EECON2 = 0xAA; EECON1bits.WR = 1;
      +                           EE
  3829                           
  3830     1CEE                     l584:
  3831     1CEE  0023               	movlb	3	; select bank3
  3832     1CEF  1895               	btfsc	21,1	;volsfr
  3833     1CF0  2CF2               	goto	u3081
  3834     1CF1  2CF3               	goto	u3080
  3835     1CF2                     u3081:
  3836     1CF2  2CEE               	goto	l584
  3837     1CF3                     u3080:
  3838     1CF3                     l2956:
  3839     1CF3  0873               	movf	eeprom_write@addr,w
  3840     1CF4  00F1               	movwf	??_eeprom_write
  3841     1CF5  01F2               	clrf	??_eeprom_write+1
  3842     1CF6  0871               	movf	??_eeprom_write,w
  3843     1CF7  0091               	movwf	17	;volatile
  3844     1CF8  0872               	movf	??_eeprom_write+1,w
  3845     1CF9  0092               	movwf	18	;volatile
  3846     1CFA  0870               	movf	eeprom_write@value,w
  3847     1CFB  0093               	movwf	19	;volatile
  3848     1CFC                     l2958:
  3849     1CFC  303F               	movlw	63
  3850     1CFD  00F1               	movwf	??_eeprom_write
  3851     1CFE  0871               	movf	??_eeprom_write,w
  3852     1CFF  0595               	andwf	21,f	;volsfr
  3853     1D00                     l2960:
  3854     1D00  0020               	movlb	0	; select bank0
  3855     1D01  1003               	bcf	3,0	;volatile
  3856     1D02                     l2962:
  3857     1D02  1F8B               	btfss	11,7	;volatile
  3858     1D03  2D05               	goto	u3091
  3859     1D04  2D06               	goto	u3090
  3860     1D05                     u3091:
  3861     1D05  2D07               	goto	l587
  3862     1D06                     u3090:
  3863     1D06                     l2964:
  3864     1D06  1403               	bsf	3,0	;volatile
  3865     1D07                     l587:
  3866     1D07  138B               	bcf	11,7	;volatile
  3867     1D08  0023               	movlb	3	; select bank3
  3868     1D09  1515               	bsf	21,2	;volsfr
  3869     1D0A                     l2966:
  3870     1D0A  3055               	movlw	85
  3871     1D0B  0096               	movwf	22	;volsfr
  3872     1D0C  30AA               	movlw	170
  3873     1D0D  0096               	movwf	22	;volsfr
  3874     1D0E                     l2968:
  3875     1D0E  1495               	bsf	21,1	;volsfr
  3876     1D0F                     l2970:
  3877     1D0F  1115               	bcf	21,2	;volsfr
  3878     1D10                     l2972:
  3879     1D10  0020               	movlb	0	; select bank0
  3880     1D11  1C03               	btfss	3,0	;volatile
  3881     1D12  2D14               	goto	u3101
  3882     1D13  2D15               	goto	u3100
  3883     1D14                     u3101:
  3884     1D14  2D16               	goto	l590
  3885     1D15                     u3100:
  3886     1D15                     l2974:
  3887     1D15  178B               	bsf	11,7	;volatile
  3888     1D16                     l590:
  3889     1D16  0008               	return
  3890     1D17                     __end_of_eeprom_write:
  3891                           
  3892                           	psect	text3
  3893     0801                     __ptext3:	
  3894 ;; *************** function _strtok *****************
  3895 ;; Defined at:
  3896 ;;		line 8 in file "C:\Program Files\Microchip\xc8\v2.41\pic\sources\c90\common\strtok.c"
  3897 ;; Parameters:    Size  Location     Type
  3898 ;;  s1              1    wreg     PTR unsigned char 
  3899 ;;		 -> NULL(0), main@tmp(40), 
  3900 ;;  s2              2    0[BANK0 ] PTR const unsigned char 
  3901 ;;		 -> STR_71(2), STR_69(2), STR_67(2), STR_66(2), 
  3902 ;;		 -> STR_57(2), STR_55(2), STR_51(2), STR_46(2), 
  3903 ;;		 -> STR_45(2), STR_44(2), STR_43(2), STR_42(2), 
  3904 ;;		 -> STR_40(2), STR_38(2), STR_37(2), STR_36(2), 
  3905 ;;		 -> STR_34(2), STR_33(2), STR_32(2), STR_31(2), 
  3906 ;;		 -> STR_30(2), 
  3907 ;; Auto vars:     Size  Location     Type
  3908 ;;  s1              1    4[BANK0 ] PTR unsigned char 
  3909 ;;		 -> NULL(0), main@tmp(40), 
  3910 ;; Return value:  Size  Location     Type
  3911 ;;                  1    wreg      PTR unsigned char 
  3912 ;; Registers used:
  3913 ;;		wreg, fsr0l, fsr0h, fsr1l, fsr1h, status,2, status,0, pclath, cstack
  3914 ;; Tracked objects:
  3915 ;;		On entry : 0/0
  3916 ;;		On exit  : 0/0
  3917 ;;		Unchanged: 0/0
  3918 ;; Data sizes:     COMMON   BANK0   BANK1   BANK2   BANK3   BANK4   BANK5   BANK6   BANK7   BANK8   BANK9  BANK10  BANK1
      +1  BANK12  BANK13  BANK14  BANK15  BANK16  BANK17  BANK18  BANK19  BANK20  BANK21  BANK22  BANK23  BANK24  BANK25
  3919 ;;      Params:         0       2       0       0       0       0       0       0       0       0       0       0       
      +0       0       0       0       0       0       0       0       0       0       0       0       0       0       0
  3920 ;;      Locals:         0       1       0       0       0       0       0       0       0       0       0       0       
      +0       0       0       0       0       0       0       0       0       0       0       0       0       0       0
  3921 ;;      Temps:          0       2       0       0       0       0       0       0       0       0       0       0       
      +0       0       0       0       0       0       0       0       0       0       0       0       0       0       0
  3922 ;;      Totals:         0       5       0       0       0       0       0       0       0       0       0       0       
      +0       0       0       0       0       0       0       0       0       0       0       0       0       0       0
  3923 ;;Total ram usage:        5 bytes
  3924 ;; Hardware stack levels used: 1
  3925 ;; Hardware stack levels required when called: 2
  3926 ;; This function calls:
  3927 ;;		_strcspn
  3928 ;;		_strspn
  3929 ;; This function is called by:
  3930 ;;		_main
  3931 ;; This function uses a non-reentrant model
  3932 ;;
  3933                           
  3934     0801                     _strtok:	
  3935                           ;psect for function _strtok
  3936                           
  3937                           
  3938                           ;incstack = 0
  3939                           ; Regs used in _strtok: [wreg-fsr1h+status,2+status,0+pclath+cstack]
  3940                           ;strtok@s1 stored from wreg
  3941     0801  0020               	movlb	0	; select bank0
  3942     0802  00A4               	movwf	strtok@s1
  3943     0803                     l3174:
  3944     0803  0824               	movf	strtok@s1,w
  3945     0804  1D03               	btfss	3,2
  3946     0805  2807               	goto	u3451
  3947     0806  2808               	goto	u3450
  3948     0807                     u3451:
  3949     0807  280C               	goto	l3178
  3950     0808                     u3450:
  3951     0808                     l3176:
  3952     0808  0022               	movlb	2	; select bank2
  3953     0809  0827               	movf	strtok@sp^(0+256),w
  3954     080A  0020               	movlb	0	; select bank0
  3955     080B  00A4               	movwf	strtok@s1
  3956     080C                     l3178:
  3957     080C  0824               	movf	strtok@s1,w
  3958     080D  1D03               	btfss	3,2
  3959     080E  2810               	goto	u3461
  3960     080F  2811               	goto	u3460
  3961     0810                     u3461:
  3962     0810  2813               	goto	l3184
  3963     0811                     u3460:
  3964     0811                     l3180:
  3965     0811  3000               	movlw	0
  3966     0812  2853               	goto	l1139
  3967     0813                     l3184:
  3968     0813  0821               	movf	strtok@s2+1,w
  3969     0814  00F8               	movwf	strspn@s2+1
  3970     0815  0820               	movf	strtok@s2,w
  3971     0816  00F7               	movwf	strspn@s2
  3972     0817  0824               	movf	strtok@s1,w
  3973     0818  319D  2547  3188   	fcall	_strspn
  3974     081B  0877               	movf	?_strspn,w
  3975     081C  0020               	movlb	0	; select bank0
  3976     081D  00A2               	movwf	??_strtok
  3977     081E  0822               	movf	??_strtok,w
  3978     081F  07A4               	addwf	strtok@s1,f
  3979     0820                     l3186:
  3980     0820  0824               	movf	strtok@s1,w
  3981     0821  0086               	movwf	6
  3982     0822  0187               	clrf	7
  3983     0823  0801               	movf	1,w
  3984     0824  1D03               	btfss	3,2
  3985     0825  2827               	goto	u3471
  3986     0826  2828               	goto	u3470
  3987     0827                     u3471:
  3988     0827  282C               	goto	l3192
  3989     0828                     u3470:
  3990     0828                     l3188:
  3991     0828  0022               	movlb	2	; select bank2
  3992     0829  01A7               	clrf	strtok@sp^(0+256)
  3993     082A  3000               	movlw	0
  3994     082B  2853               	goto	l1139
  3995     082C                     l3192:
  3996     082C  0821               	movf	strtok@s2+1,w
  3997     082D  00F8               	movwf	strcspn@s2+1
  3998     082E  0820               	movf	strtok@s2,w
  3999     082F  00F7               	movwf	strcspn@s2
  4000     0830  0824               	movf	strtok@s1,w
  4001     0831  319D  2517  3188   	fcall	_strcspn
  4002     0834  0877               	movf	?_strcspn,w
  4003     0835  0020               	movlb	0	; select bank0
  4004     0836  00A2               	movwf	??_strtok
  4005     0837  0878               	movf	?_strcspn+1,w
  4006     0838  00A3               	movwf	??_strtok+1
  4007     0839  0824               	movf	strtok@s1,w
  4008     083A  0722               	addwf	??_strtok,w
  4009     083B  0022               	movlb	2	; select bank2
  4010     083C  00A7               	movwf	strtok@sp^(0+256)
  4011     083D                     l3194:
  4012     083D  0827               	movf	strtok@sp^(0+256),w
  4013     083E  0086               	movwf	6
  4014     083F  0187               	clrf	7
  4015     0840  0801               	movf	1,w
  4016     0841  1903               	btfsc	3,2
  4017     0842  2844               	goto	u3481
  4018     0843  2845               	goto	u3480
  4019     0844                     u3481:
  4020     0844  2850               	goto	l3200
  4021     0845                     u3480:
  4022     0845                     l3196:
  4023     0845  0827               	movf	strtok@sp^(0+256),w
  4024     0846  0086               	movwf	6
  4025     0847  0187               	clrf	7
  4026     0848  0181               	clrf	1
  4027     0849                     l3198:
  4028     0849  3001               	movlw	1
  4029     084A  0020               	movlb	0	; select bank0
  4030     084B  00A2               	movwf	??_strtok
  4031     084C  0822               	movf	??_strtok,w
  4032     084D  0022               	movlb	2	; select bank2
  4033     084E  07A7               	addwf	strtok@sp^(0+256),f
  4034     084F  2851               	goto	l3202
  4035     0850                     l3200:
  4036     0850  01A7               	clrf	strtok@sp^(0+256)
  4037     0851                     l3202:
  4038     0851  0020               	movlb	0	; select bank0
  4039     0852  0824               	movf	strtok@s1,w
  4040     0853                     l1139:
  4041     0853  0008               	return
  4042     0854                     __end_of_strtok:
  4043                           
  4044                           	psect	text4
  4045     1D47                     __ptext4:	
  4046 ;; *************** function _strspn *****************
  4047 ;; Defined at:
  4048 ;;		line 4 in file "C:\Program Files\Microchip\xc8\v2.41\pic\sources\c90\common\strspn.c"
  4049 ;; Parameters:    Size  Location     Type
  4050 ;;  s1              1    wreg     PTR const unsigned char 
  4051 ;;		 -> NULL(0), main@tmp(40), 
  4052 ;;  s2              2    7[COMMON] PTR const unsigned char 
  4053 ;;		 -> STR_71(2), STR_69(2), STR_67(2), STR_66(2), 
  4054 ;;		 -> STR_57(2), STR_55(2), STR_51(2), STR_46(2), 
  4055 ;;		 -> STR_45(2), STR_44(2), STR_43(2), STR_42(2), 
  4056 ;;		 -> STR_40(2), STR_38(2), STR_37(2), STR_36(2), 
  4057 ;;		 -> STR_34(2), STR_33(2), STR_32(2), STR_31(2), 
  4058 ;;		 -> STR_30(2), 
  4059 ;; Auto vars:     Size  Location     Type
  4060 ;;  s1              1   13[COMMON] PTR const unsigned char 
  4061 ;;		 -> NULL(0), main@tmp(40), 
  4062 ;;  i               2   11[COMMON] unsigned int 
  4063 ;; Return value:  Size  Location     Type
  4064 ;;                  2    7[COMMON] unsigned int 
  4065 ;; Registers used:
  4066 ;;		wreg, fsr0l, fsr0h, fsr1l, fsr1h, status,2, status,0, pclath, cstack
  4067 ;; Tracked objects:
  4068 ;;		On entry : 0/0
  4069 ;;		On exit  : 0/0
  4070 ;;		Unchanged: 0/0
  4071 ;; Data sizes:     COMMON   BANK0   BANK1   BANK2   BANK3   BANK4   BANK5   BANK6   BANK7   BANK8   BANK9  BANK10  BANK1
      +1  BANK12  BANK13  BANK14  BANK15  BANK16  BANK17  BANK18  BANK19  BANK20  BANK21  BANK22  BANK23  BANK24  BANK25
  4072 ;;      Params:         2       0       0       0       0       0       0       0       0       0       0       0       
      +0       0       0       0       0       0       0       0       0       0       0       0       0       0       0
  4073 ;;      Locals:         3       0       0       0       0       0       0       0       0       0       0       0       
      +0       0       0       0       0       0       0       0       0       0       0       0       0       0       0
  4074 ;;      Temps:          2       0       0       0       0       0       0       0       0       0       0       0       
      +0       0       0       0       0       0       0       0       0       0       0       0       0       0       0
  4075 ;;      Totals:         7       0       0       0       0       0       0       0       0       0       0       0       
      +0       0       0       0       0       0       0       0       0       0       0       0       0       0       0
  4076 ;;Total ram usage:        7 bytes
  4077 ;; Hardware stack levels used: 1
  4078 ;; Hardware stack levels required when called: 1
  4079 ;; This function calls:
  4080 ;;		_strchr
  4081 ;; This function is called by:
  4082 ;;		_strtok
  4083 ;; This function uses a non-reentrant model
  4084 ;;
  4085                           
  4086     1D47                     _strspn:	
  4087                           ;psect for function _strspn
  4088                           
  4089                           
  4090                           ;incstack = 0
  4091                           ; Regs used in _strspn: [wreg-fsr1h+status,2+status,0+pclath+cstack]
  4092                           ;strspn@s1 stored from wreg
  4093     1D47  00FD               	movwf	strspn@s1
  4094     1D48                     l3102:
  4095     1D48  01FB               	clrf	strspn@i
  4096     1D49  01FC               	clrf	strspn@i+1
  4097     1D4A  2D53               	goto	l3106
  4098     1D4B                     l3104:
  4099     1D4B  3001               	movlw	1
  4100     1D4C  00F9               	movwf	??_strspn
  4101     1D4D  0879               	movf	??_strspn,w
  4102     1D4E  07FD               	addwf	strspn@s1,f
  4103     1D4F  3001               	movlw	1
  4104     1D50  07FB               	addwf	strspn@i,f
  4105     1D51  3000               	movlw	0
  4106     1D52  3DFC               	addwfc	strspn@i+1,f
  4107     1D53                     l3106:
  4108     1D53  087D               	movf	strspn@s1,w
  4109     1D54  0086               	movwf	6
  4110     1D55  0187               	clrf	7
  4111     1D56  0801               	movf	1,w
  4112     1D57  1903               	btfsc	3,2
  4113     1D58  2D5A               	goto	u3361
  4114     1D59  2D5B               	goto	u3360
  4115     1D5A                     u3361:
  4116     1D5A  2D72               	goto	l3110
  4117     1D5B                     u3360:
  4118     1D5B                     l3108:
  4119     1D5B  0878               	movf	strspn@s2+1,w
  4120     1D5C  00F1               	movwf	strchr@ptr+1
  4121     1D5D  0877               	movf	strspn@s2,w
  4122     1D5E  00F0               	movwf	strchr@ptr
  4123     1D5F  087D               	movf	strspn@s1,w
  4124     1D60  0086               	movwf	6
  4125     1D61  0187               	clrf	7
  4126     1D62  0801               	movf	1,w
  4127     1D63  00F9               	movwf	??_strspn
  4128     1D64  01FA               	clrf	??_strspn+1
  4129     1D65  0879               	movf	??_strspn,w
  4130     1D66  00F2               	movwf	strchr@chr
  4131     1D67  087A               	movf	??_strspn+1,w
  4132     1D68  00F3               	movwf	strchr@chr+1
  4133     1D69  319C  248D  319D   	fcall	_strchr
  4134     1D6C  0870               	movf	?_strchr,w
  4135     1D6D  0471               	iorwf	?_strchr+1,w
  4136     1D6E  1D03               	btfss	3,2
  4137     1D6F  2D71               	goto	u3371
  4138     1D70  2D72               	goto	u3370
  4139     1D71                     u3371:
  4140     1D71  2D4B               	goto	l3104
  4141     1D72                     u3370:
  4142     1D72                     l3110:
  4143     1D72  087C               	movf	strspn@i+1,w
  4144     1D73  00F8               	movwf	?_strspn+1
  4145     1D74  087B               	movf	strspn@i,w
  4146     1D75  00F7               	movwf	?_strspn
  4147     1D76                     l1168:
  4148     1D76  0008               	return
  4149     1D77                     __end_of_strspn:
  4150                           
  4151                           	psect	text5
  4152     1D17                     __ptext5:	
  4153 ;; *************** function _strcspn *****************
  4154 ;; Defined at:
  4155 ;;		line 4 in file "C:\Program Files\Microchip\xc8\v2.41\pic\sources\c90\common\strcspn.c"
  4156 ;; Parameters:    Size  Location     Type
  4157 ;;  s1              1    wreg     PTR const unsigned char 
  4158 ;;		 -> NULL(0), main@tmp(40), 
  4159 ;;  s2              2    7[COMMON] PTR const unsigned char 
  4160 ;;		 -> STR_71(2), STR_69(2), STR_67(2), STR_66(2), 
  4161 ;;		 -> STR_57(2), STR_55(2), STR_51(2), STR_46(2), 
  4162 ;;		 -> STR_45(2), STR_44(2), STR_43(2), STR_42(2), 
  4163 ;;		 -> STR_40(2), STR_38(2), STR_37(2), STR_36(2), 
  4164 ;;		 -> STR_34(2), STR_33(2), STR_32(2), STR_31(2), 
  4165 ;;		 -> STR_30(2), 
  4166 ;; Auto vars:     Size  Location     Type
  4167 ;;  s1              1   13[COMMON] PTR const unsigned char 
  4168 ;;		 -> NULL(0), main@tmp(40), 
  4169 ;;  i               2   11[COMMON] unsigned int 
  4170 ;; Return value:  Size  Location     Type
  4171 ;;                  2    7[COMMON] unsigned int 
  4172 ;; Registers used:
  4173 ;;		wreg, fsr0l, fsr0h, fsr1l, fsr1h, status,2, status,0, pclath, cstack
  4174 ;; Tracked objects:
  4175 ;;		On entry : 0/0
  4176 ;;		On exit  : 0/0
  4177 ;;		Unchanged: 0/0
  4178 ;; Data sizes:     COMMON   BANK0   BANK1   BANK2   BANK3   BANK4   BANK5   BANK6   BANK7   BANK8   BANK9  BANK10  BANK1
      +1  BANK12  BANK13  BANK14  BANK15  BANK16  BANK17  BANK18  BANK19  BANK20  BANK21  BANK22  BANK23  BANK24  BANK25
  4179 ;;      Params:         2       0       0       0       0       0       0       0       0       0       0       0       
      +0       0       0       0       0       0       0       0       0       0       0       0       0       0       0
  4180 ;;      Locals:         3       0       0       0       0       0       0       0       0       0       0       0       
      +0       0       0       0       0       0       0       0       0       0       0       0       0       0       0
  4181 ;;      Temps:          2       0       0       0       0       0       0       0       0       0       0       0       
      +0       0       0       0       0       0       0       0       0       0       0       0       0       0       0
  4182 ;;      Totals:         7       0       0       0       0       0       0       0       0       0       0       0       
      +0       0       0       0       0       0       0       0       0       0       0       0       0       0       0
  4183 ;;Total ram usage:        7 bytes
  4184 ;; Hardware stack levels used: 1
  4185 ;; Hardware stack levels required when called: 1
  4186 ;; This function calls:
  4187 ;;		_strchr
  4188 ;; This function is called by:
  4189 ;;		_strtok
  4190 ;; This function uses a non-reentrant model
  4191 ;;
  4192                           
  4193     1D17                     _strcspn:	
  4194                           ;psect for function _strcspn
  4195                           
  4196                           
  4197                           ;incstack = 0
  4198                           ; Regs used in _strcspn: [wreg-fsr1h+status,2+status,0+pclath+cstack]
  4199                           ;strcspn@s1 stored from wreg
  4200     1D17  00FD               	movwf	strcspn@s1
  4201     1D18                     l3114:
  4202     1D18  01FB               	clrf	strcspn@i
  4203     1D19  01FC               	clrf	strcspn@i+1
  4204     1D1A  2D23               	goto	l3118
  4205     1D1B                     l3116:
  4206     1D1B  3001               	movlw	1
  4207     1D1C  00F9               	movwf	??_strcspn
  4208     1D1D  0879               	movf	??_strcspn,w
  4209     1D1E  07FD               	addwf	strcspn@s1,f
  4210     1D1F  3001               	movlw	1
  4211     1D20  07FB               	addwf	strcspn@i,f
  4212     1D21  3000               	movlw	0
  4213     1D22  3DFC               	addwfc	strcspn@i+1,f
  4214     1D23                     l3118:
  4215     1D23  087D               	movf	strcspn@s1,w
  4216     1D24  0086               	movwf	6
  4217     1D25  0187               	clrf	7
  4218     1D26  0801               	movf	1,w
  4219     1D27  1903               	btfsc	3,2
  4220     1D28  2D2A               	goto	u3381
  4221     1D29  2D2B               	goto	u3380
  4222     1D2A                     u3381:
  4223     1D2A  2D42               	goto	l3122
  4224     1D2B                     u3380:
  4225     1D2B                     l3120:
  4226     1D2B  0878               	movf	strcspn@s2+1,w
  4227     1D2C  00F1               	movwf	strchr@ptr+1
  4228     1D2D  0877               	movf	strcspn@s2,w
  4229     1D2E  00F0               	movwf	strchr@ptr
  4230     1D2F  087D               	movf	strcspn@s1,w
  4231     1D30  0086               	movwf	6
  4232     1D31  0187               	clrf	7
  4233     1D32  0801               	movf	1,w
  4234     1D33  00F9               	movwf	??_strcspn
  4235     1D34  01FA               	clrf	??_strcspn+1
  4236     1D35  0879               	movf	??_strcspn,w
  4237     1D36  00F2               	movwf	strchr@chr
  4238     1D37  087A               	movf	??_strcspn+1,w
  4239     1D38  00F3               	movwf	strchr@chr+1
  4240     1D39  319C  248D  319D   	fcall	_strchr
  4241     1D3C  0870               	movf	?_strchr,w
  4242     1D3D  0471               	iorwf	?_strchr+1,w
  4243     1D3E  1903               	btfsc	3,2
  4244     1D3F  2D41               	goto	u3391
  4245     1D40  2D42               	goto	u3390
  4246     1D41                     u3391:
  4247     1D41  2D1B               	goto	l3116
  4248     1D42                     u3390:
  4249     1D42                     l3122:
  4250     1D42  087C               	movf	strcspn@i+1,w
  4251     1D43  00F8               	movwf	?_strcspn+1
  4252     1D44  087B               	movf	strcspn@i,w
  4253     1D45  00F7               	movwf	?_strcspn
  4254     1D46                     l1152:
  4255     1D46  0008               	return
  4256     1D47                     __end_of_strcspn:
  4257                           
  4258                           	psect	text6
  4259     1C8D                     __ptext6:	
  4260 ;; *************** function _strchr *****************
  4261 ;; Defined at:
  4262 ;;		line 4 in file "C:\Program Files\Microchip\xc8\v2.41\pic\sources\c90\common\strchr.c"
  4263 ;; Parameters:    Size  Location     Type
  4264 ;;  ptr             2    0[COMMON] PTR const unsigned char 
  4265 ;;		 -> STR_71(2), STR_69(2), STR_67(2), STR_66(2), 
  4266 ;;		 -> STR_57(2), STR_55(2), STR_51(2), STR_46(2), 
  4267 ;;		 -> STR_45(2), STR_44(2), STR_43(2), STR_42(2), 
  4268 ;;		 -> STR_40(2), STR_38(2), STR_37(2), STR_36(2), 
  4269 ;;		 -> STR_34(2), STR_33(2), STR_32(2), STR_31(2), 
  4270 ;;		 -> STR_30(2), 
  4271 ;;  chr             2    2[COMMON] int 
  4272 ;; Auto vars:     Size  Location     Type
  4273 ;;		None
  4274 ;; Return value:  Size  Location     Type
  4275 ;;                  2    0[COMMON] PTR unsigned char 
  4276 ;; Registers used:
  4277 ;;		wreg, fsr0l, fsr0h, status,2, status,0, pclath
  4278 ;; Tracked objects:
  4279 ;;		On entry : 0/0
  4280 ;;		On exit  : 0/0
  4281 ;;		Unchanged: 0/0
  4282 ;; Data sizes:     COMMON   BANK0   BANK1   BANK2   BANK3   BANK4   BANK5   BANK6   BANK7   BANK8   BANK9  BANK10  BANK1
      +1  BANK12  BANK13  BANK14  BANK15  BANK16  BANK17  BANK18  BANK19  BANK20  BANK21  BANK22  BANK23  BANK24  BANK25
  4283 ;;      Params:         4       0       0       0       0       0       0       0       0       0       0       0       
      +0       0       0       0       0       0       0       0       0       0       0       0       0       0       0
  4284 ;;      Locals:         0       0       0       0       0       0       0       0       0       0       0       0       
      +0       0       0       0       0       0       0       0       0       0       0       0       0       0       0
  4285 ;;      Temps:          3       0       0       0       0       0       0       0       0       0       0       0       
      +0       0       0       0       0       0       0       0       0       0       0       0       0       0       0
  4286 ;;      Totals:         7       0       0       0       0       0       0       0       0       0       0       0       
      +0       0       0       0       0       0       0       0       0       0       0       0       0       0       0
  4287 ;;Total ram usage:        7 bytes
  4288 ;; Hardware stack levels used: 1
  4289 ;; This function calls:
  4290 ;;		Nothing
  4291 ;; This function is called by:
  4292 ;;		_strcspn
  4293 ;;		_strspn
  4294 ;; This function uses a non-reentrant model
  4295 ;;
  4296                           
  4297     1C8D                     _strchr:	
  4298                           ;psect for function _strchr
  4299                           
  4300     1C8D                     l1155:	
  4301                           ;incstack = 0
  4302                           ; Regs used in _strchr: [wreg-fsr0h+status,2+status,0+pclath]
  4303                           
  4304     1C8D                     l2946:
  4305     1C8D  0870               	movf	strchr@ptr,w
  4306     1C8E  0084               	movwf	4
  4307     1C8F  0871               	movf	strchr@ptr+1,w
  4308     1C90  0085               	movwf	5
  4309     1C91  0800               	movf	0,w	;code access
  4310     1C92  0672               	xorwf	strchr@chr,w
  4311     1C93  1D03               	skipz
  4312     1C94  2C96               	goto	u3061
  4313     1C95  2C97               	goto	u3060
  4314     1C96                     u3061:
  4315     1C96  2C98               	goto	l2950
  4316     1C97                     u3060:
  4317     1C97                     l2948:
  4318     1C97  2CAA               	goto	l1157
  4319     1C98                     l2950:
  4320     1C98  0871               	movf	strchr@ptr+1,w
  4321     1C99  00F5               	movwf	??_strchr+1
  4322     1C9A  0870               	movf	strchr@ptr,w
  4323     1C9B  00F4               	movwf	??_strchr
  4324     1C9C  0AF0               	incf	strchr@ptr,f
  4325     1C9D  1903               	skipnz
  4326     1C9E  0AF1               	incf	strchr@ptr+1,f
  4327     1C9F  0874               	movf	??_strchr,w
  4328     1CA0  0084               	movwf	4
  4329     1CA1  0875               	movf	??_strchr+1,w
  4330     1CA2  0085               	movwf	5
  4331     1CA3  0012               	moviw fsr0++
  4332     1CA4  1D03               	btfss	3,2
  4333     1CA5  2CA7               	goto	u3071
  4334     1CA6  2CA8               	goto	u3070
  4335     1CA7                     u3071:
  4336     1CA7  2C8D               	goto	l1155
  4337     1CA8                     u3070:
  4338     1CA8                     l2952:
  4339     1CA8  01F0               	clrf	?_strchr
  4340     1CA9  01F1               	clrf	?_strchr+1
  4341     1CAA                     l1157:
  4342     1CAA  0008               	return
  4343     1CAB                     __end_of_strchr:
  4344                           
  4345                           	psect	text7
  4346     0005                     __ptext7:	
  4347 ;; *************** function _strcmp *****************
  4348 ;; Defined at:
  4349 ;;		line 33 in file "C:\Program Files\Microchip\xc8\v2.41\pic\sources\c90\common\strcmp.c"
  4350 ;; Parameters:    Size  Location     Type
  4351 ;;  s1              1    wreg     PTR const unsigned char 
  4352 ;;		 -> main@rcmd(4), 
  4353 ;;  s2              2    0[COMMON] PTR const unsigned char 
  4354 ;;		 -> STR_29(4), STR_28(4), STR_27(4), STR_26(4), 
  4355 ;;		 -> STR_25(4), STR_24(4), STR_23(4), STR_22(4), 
  4356 ;;		 -> STR_21(4), STR_20(4), STR_19(4), STR_18(4), 
  4357 ;;		 -> STR_17(4), STR_16(4), STR_15(4), STR_14(4), 
  4358 ;;		 -> STR_13(4), STR_12(4), STR_11(4), STR_10(4), 
  4359 ;;		 -> STR_9(4), STR_8(4), STR_7(4), STR_6(4), 
  4360 ;;		 -> STR_5(4), STR_4(4), STR_3(4), STR_2(4), 
  4361 ;;		 -> STR_1(4), 
  4362 ;; Auto vars:     Size  Location     Type
  4363 ;;  s1              1    4[COMMON] PTR const unsigned char 
  4364 ;;		 -> main@rcmd(4), 
  4365 ;;  r               1    3[COMMON] char 
  4366 ;; Return value:  Size  Location     Type
  4367 ;;                  2    0[COMMON] int 
  4368 ;; Registers used:
  4369 ;;		wreg, fsr0l, fsr0h, fsr1l, fsr1h, status,2, status,0, pclath
  4370 ;; Tracked objects:
  4371 ;;		On entry : 0/0
  4372 ;;		On exit  : 0/0
  4373 ;;		Unchanged: 0/0
  4374 ;; Data sizes:     COMMON   BANK0   BANK1   BANK2   BANK3   BANK4   BANK5   BANK6   BANK7   BANK8   BANK9  BANK10  BANK1
      +1  BANK12  BANK13  BANK14  BANK15  BANK16  BANK17  BANK18  BANK19  BANK20  BANK21  BANK22  BANK23  BANK24  BANK25
  4375 ;;      Params:         2       0       0       0       0       0       0       0       0       0       0       0       
      +0       0       0       0       0       0       0       0       0       0       0       0       0       0       0
  4376 ;;      Locals:         2       0       0       0       0       0       0       0       0       0       0       0       
      +0       0       0       0       0       0       0       0       0       0       0       0       0       0       0
  4377 ;;      Temps:          1       0       0       0       0       0       0       0       0       0       0       0       
      +0       0       0       0       0       0       0       0       0       0       0       0       0       0       0
  4378 ;;      Totals:         5       0       0       0       0       0       0       0       0       0       0       0       
      +0       0       0       0       0       0       0       0       0       0       0       0       0       0       0
  4379 ;;Total ram usage:        5 bytes
  4380 ;; Hardware stack levels used: 1
  4381 ;; This function calls:
  4382 ;;		Nothing
  4383 ;; This function is called by:
  4384 ;;		_main
  4385 ;; This function uses a non-reentrant model
  4386 ;;
  4387                           
  4388     0005                     _strcmp:	
  4389                           ;psect for function _strcmp
  4390                           
  4391                           
  4392                           ;incstack = 0
  4393                           ; Regs used in _strcmp: [wreg-fsr1h+status,2+status,0+pclath]
  4394                           ;strcmp@s1 stored from wreg
  4395     0005  00F4               	movwf	strcmp@s1
  4396     0006                     l3162:
  4397     0006  280F               	goto	l3166
  4398     0007                     l3164:
  4399     0007  3001               	movlw	1
  4400     0008  00F2               	movwf	??_strcmp
  4401     0009  0872               	movf	??_strcmp,w
  4402     000A  07F4               	addwf	strcmp@s1,f
  4403     000B  3001               	movlw	1
  4404     000C  07F0               	addwf	strcmp@s2,f
  4405     000D  3000               	movlw	0
  4406     000E  3DF1               	addwfc	strcmp@s2+1,f
  4407     000F                     l3166:
  4408     000F  0874               	movf	strcmp@s1,w
  4409     0010  0086               	movwf	6
  4410     0011  0187               	clrf	7
  4411     0012  0870               	movf	strcmp@s2,w
  4412     0013  0084               	movwf	4
  4413     0014  0871               	movf	strcmp@s2+1,w
  4414     0015  0085               	movwf	5
  4415     0016  0800               	movf	0,w	;code access
  4416     0017  0201               	subwf	1,w
  4417     0018  00F3               	movwf	strcmp@r
  4418     0019  0873               	movf	strcmp@r,w
  4419     001A  1D03               	btfss	3,2
  4420     001B  281D               	goto	u3431
  4421     001C  281E               	goto	u3430
  4422     001D                     u3431:
  4423     001D  2826               	goto	l3170
  4424     001E                     u3430:
  4425     001E                     l3168:
  4426     001E  0874               	movf	strcmp@s1,w
  4427     001F  0086               	movwf	6
  4428     0020  0187               	clrf	7
  4429     0021  0801               	movf	1,w
  4430     0022  1D03               	btfss	3,2
  4431     0023  2825               	goto	u3441
  4432     0024  2826               	goto	u3440
  4433     0025                     u3441:
  4434     0025  2807               	goto	l3164
  4435     0026                     u3440:
  4436     0026                     l3170:
  4437     0026  0873               	movf	strcmp@r,w
  4438     0027  00F0               	movwf	?_strcmp
  4439     0028  01F1               	clrf	?_strcmp+1
  4440     0029  1BF0               	btfsc	?_strcmp,7
  4441     002A  03F1               	decf	?_strcmp+1,f
  4442     002B                     l1128:
  4443     002B  0008               	return
  4444     002C                     __end_of_strcmp:
  4445                           
  4446                           	psect	text8
  4447     1005                     __ptext8:	
  4448 ;; *************** function _read_data_eeprom *****************
  4449 ;; Defined at:
  4450 ;;		line 96 in file "main.c"
  4451 ;; Parameters:    Size  Location     Type
  4452 ;;  adr             4    4[COMMON] long 
  4453 ;; Auto vars:     Size  Location     Type
  4454 ;;  set_value_h     4    8[BANK0 ] long 
  4455 ;;  set_value       4    4[BANK0 ] long 
  4456 ;;  set_value_l     4    0[BANK0 ] long 
  4457 ;; Return value:  Size  Location     Type
  4458 ;;                  4    4[COMMON] long 
  4459 ;; Registers used:
  4460 ;;		wreg, status,2, status,0, pclath, cstack
  4461 ;; Tracked objects:
  4462 ;;		On entry : 0/0
  4463 ;;		On exit  : 0/0
  4464 ;;		Unchanged: 0/0
  4465 ;; Data sizes:     COMMON   BANK0   BANK1   BANK2   BANK3   BANK4   BANK5   BANK6   BANK7   BANK8   BANK9  BANK10  BANK1
      +1  BANK12  BANK13  BANK14  BANK15  BANK16  BANK17  BANK18  BANK19  BANK20  BANK21  BANK22  BANK23  BANK24  BANK25
  4466 ;;      Params:         4       0       0       0       0       0       0       0       0       0       0       0       
      +0       0       0       0       0       0       0       0       0       0       0       0       0       0       0
  4467 ;;      Locals:         0      12       0       0       0       0       0       0       0       0       0       0       
      +0       0       0       0       0       0       0       0       0       0       0       0       0       0       0
  4468 ;;      Temps:          4       0       0       0       0       0       0       0       0       0       0       0       
      +0       0       0       0       0       0       0       0       0       0       0       0       0       0       0
  4469 ;;      Totals:         8      12       0       0       0       0       0       0       0       0       0       0       
      +0       0       0       0       0       0       0       0       0       0       0       0       0       0       0
  4470 ;;Total ram usage:       20 bytes
  4471 ;; Hardware stack levels used: 1
  4472 ;; Hardware stack levels required when called: 1
  4473 ;; This function calls:
  4474 ;;		_eeprom_read
  4475 ;; This function is called by:
  4476 ;;		_main
  4477 ;; This function uses a non-reentrant model
  4478 ;;
  4479                           
  4480     1005                     _read_data_eeprom:	
  4481                           ;psect for function _read_data_eeprom
  4482                           
  4483     1005                     l3136:	
  4484                           ;incstack = 0
  4485                           ; Regs used in _read_data_eeprom: [wreg+status,2+status,0+pclath+cstack]
  4486                           
  4487                           
  4488                           ;main.c: 97: long set_value_h;;main.c: 98: long set_value_l;;main.c: 99: long set_value;
      +                          ;main.c: 101: set_value_l = eeprom_read(adr);
  4489     1005  0874               	movf	read_data_eeprom@adr,w
  4490     1006  319C  2478  3190   	fcall	_eeprom_read
  4491     1009  00F8               	movwf	??_read_data_eeprom
  4492     100A  01F9               	clrf	??_read_data_eeprom+1
  4493     100B  01FA               	clrf	??_read_data_eeprom+2
  4494     100C  01FB               	clrf	??_read_data_eeprom+3
  4495     100D  087B               	movf	??_read_data_eeprom+3,w
  4496     100E  0020               	movlb	0	; select bank0
  4497     100F  00A3               	movwf	read_data_eeprom@set_value_l+3
  4498     1010  087A               	movf	??_read_data_eeprom+2,w
  4499     1011  00A2               	movwf	read_data_eeprom@set_value_l+2
  4500     1012  0879               	movf	??_read_data_eeprom+1,w
  4501     1013  00A1               	movwf	read_data_eeprom@set_value_l+1
  4502     1014  0878               	movf	??_read_data_eeprom,w
  4503     1015  00A0               	movwf	read_data_eeprom@set_value_l
  4504                           
  4505                           ;main.c: 102: set_value_h = eeprom_read(adr+1);
  4506     1016  0874               	movf	read_data_eeprom@adr,w
  4507     1017  3E01               	addlw	1
  4508     1018  319C  2478  3190   	fcall	_eeprom_read
  4509     101B  00F8               	movwf	??_read_data_eeprom
  4510     101C  01F9               	clrf	??_read_data_eeprom+1
  4511     101D  01FA               	clrf	??_read_data_eeprom+2
  4512     101E  01FB               	clrf	??_read_data_eeprom+3
  4513     101F  087B               	movf	??_read_data_eeprom+3,w
  4514     1020  0020               	movlb	0	; select bank0
  4515     1021  00AB               	movwf	read_data_eeprom@set_value_h+3
  4516     1022  087A               	movf	??_read_data_eeprom+2,w
  4517     1023  00AA               	movwf	read_data_eeprom@set_value_h+2
  4518     1024  0879               	movf	??_read_data_eeprom+1,w
  4519     1025  00A9               	movwf	read_data_eeprom@set_value_h+1
  4520     1026  0878               	movf	??_read_data_eeprom,w
  4521     1027  00A8               	movwf	read_data_eeprom@set_value_h
  4522     1028                     l3138:
  4523                           
  4524                           ;main.c: 104: set_value_h = set_value_h << 8;
  4525     1028  0828               	movf	read_data_eeprom@set_value_h,w
  4526     1029  00F8               	movwf	??_read_data_eeprom
  4527     102A  0829               	movf	read_data_eeprom@set_value_h+1,w
  4528     102B  00F9               	movwf	??_read_data_eeprom+1
  4529     102C  082A               	movf	read_data_eeprom@set_value_h+2,w
  4530     102D  00FA               	movwf	??_read_data_eeprom+2
  4531     102E  082B               	movf	read_data_eeprom@set_value_h+3,w
  4532     102F  00FB               	movwf	??_read_data_eeprom+3
  4533     1030  3008               	movlw	8
  4534     1031                     u3415:
  4535     1031  35F8               	lslf	??_read_data_eeprom,f
  4536     1032  0DF9               	rlf	??_read_data_eeprom+1,f
  4537     1033  0DFA               	rlf	??_read_data_eeprom+2,f
  4538     1034  0DFB               	rlf	??_read_data_eeprom+3,f
  4539     1035                     u3410:
  4540     1035  0B89               	decfsz	9,f
  4541     1036  2831               	goto	u3415
  4542     1037  087B               	movf	??_read_data_eeprom+3,w
  4543     1038  00AB               	movwf	read_data_eeprom@set_value_h+3
  4544     1039  087A               	movf	??_read_data_eeprom+2,w
  4545     103A  00AA               	movwf	read_data_eeprom@set_value_h+2
  4546     103B  0879               	movf	??_read_data_eeprom+1,w
  4547     103C  00A9               	movwf	read_data_eeprom@set_value_h+1
  4548     103D  0878               	movf	??_read_data_eeprom,w
  4549     103E  00A8               	movwf	read_data_eeprom@set_value_h
  4550     103F                     l3140:
  4551                           
  4552                           ;main.c: 105: set_value = set_value_h | set_value_l;
  4553     103F  0820               	movf	read_data_eeprom@set_value_l,w
  4554     1040  0428               	iorwf	read_data_eeprom@set_value_h,w
  4555     1041  00A4               	movwf	read_data_eeprom@set_value
  4556     1042  0821               	movf	read_data_eeprom@set_value_l+1,w
  4557     1043  0429               	iorwf	read_data_eeprom@set_value_h+1,w
  4558     1044  00A5               	movwf	read_data_eeprom@set_value+1
  4559     1045  0822               	movf	read_data_eeprom@set_value_l+2,w
  4560     1046  042A               	iorwf	read_data_eeprom@set_value_h+2,w
  4561     1047  00A6               	movwf	read_data_eeprom@set_value+2
  4562     1048  0823               	movf	read_data_eeprom@set_value_l+3,w
  4563     1049  042B               	iorwf	read_data_eeprom@set_value_h+3,w
  4564     104A  00A7               	movwf	read_data_eeprom@set_value+3
  4565     104B                     l3142:
  4566                           
  4567                           ;main.c: 107: return set_value;
  4568     104B  0827               	movf	read_data_eeprom@set_value+3,w
  4569     104C  00F7               	movwf	?_read_data_eeprom+3
  4570     104D  0826               	movf	read_data_eeprom@set_value+2,w
  4571     104E  00F6               	movwf	?_read_data_eeprom+2
  4572     104F  0825               	movf	read_data_eeprom@set_value+1,w
  4573     1050  00F5               	movwf	?_read_data_eeprom+1
  4574     1051  0824               	movf	read_data_eeprom@set_value,w
  4575     1052  00F4               	movwf	?_read_data_eeprom
  4576     1053                     l82:
  4577     1053  0008               	return
  4578     1054                     __end_of_read_data_eeprom:
  4579                           
  4580                           	psect	text9
  4581     1C78                     __ptext9:	
  4582 ;; *************** function _eeprom_read *****************
  4583 ;; Defined at:
  4584 ;;		line 6 in file "C:\Program Files\Microchip\xc8\v2.41\pic\sources\c90\pic\__eeread.c"
  4585 ;; Parameters:    Size  Location     Type
  4586 ;;  addr            1    wreg     unsigned char 
  4587 ;; Auto vars:     Size  Location     Type
  4588 ;;  addr            1    3[COMMON] unsigned char 
  4589 ;; Return value:  Size  Location     Type
  4590 ;;                  1    wreg      unsigned char 
  4591 ;; Registers used:
  4592 ;;		wreg, status,2, status,0
  4593 ;; Tracked objects:
  4594 ;;		On entry : 0/0
  4595 ;;		On exit  : 0/0
  4596 ;;		Unchanged: 0/0
  4597 ;; Data sizes:     COMMON   BANK0   BANK1   BANK2   BANK3   BANK4   BANK5   BANK6   BANK7   BANK8   BANK9  BANK10  BANK1
      +1  BANK12  BANK13  BANK14  BANK15  BANK16  BANK17  BANK18  BANK19  BANK20  BANK21  BANK22  BANK23  BANK24  BANK25
  4598 ;;      Params:         0       0       0       0       0       0       0       0       0       0       0       0       
      +0       0       0       0       0       0       0       0       0       0       0       0       0       0       0
  4599 ;;      Locals:         1       0       0       0       0       0       0       0       0       0       0       0       
      +0       0       0       0       0       0       0       0       0       0       0       0       0       0       0
  4600 ;;      Temps:          3       0       0       0       0       0       0       0       0       0       0       0       
      +0       0       0       0       0       0       0       0       0       0       0       0       0       0       0
  4601 ;;      Totals:         4       0       0       0       0       0       0       0       0       0       0       0       
      +0       0       0       0       0       0       0       0       0       0       0       0       0       0       0
  4602 ;;Total ram usage:        4 bytes
  4603 ;; Hardware stack levels used: 1
  4604 ;; This function calls:
  4605 ;;		Nothing
  4606 ;; This function is called by:
  4607 ;;		_read_data_eeprom
  4608 ;; This function uses a non-reentrant model
  4609 ;;
  4610                           
  4611     1C78                     _eeprom_read:	
  4612                           ;psect for function _eeprom_read
  4613                           
  4614                           
  4615                           ;incstack = 0
  4616                           ; Regs used in _eeprom_read: [wreg+status,2+status,0]
  4617                           ;eeprom_read@addr stored from wreg
  4618     1C78  00F3               	movwf	eeprom_read@addr
  4619     1C79                     l564:	
  4620                           ;__eeread.c: 8: do
  4621                           
  4622     1C79  0064               	clrwdt	;# 
  4623                           
  4624                           ;__eeread.c: 12: while(EECON1bits.WR);
  4625     1C7A  0023               	movlb	3	; select bank3
  4626     1C7B  1895               	btfsc	21,1	;volsfr
  4627     1C7C  2C7E               	goto	u3111
  4628     1C7D  2C7F               	goto	u3110
  4629     1C7E                     u3111:
  4630     1C7E  2C79               	goto	l564
  4631     1C7F                     u3110:
  4632     1C7F                     l2976:
  4633                           
  4634                           ;__eeread.c: 18: return ( EEADR = addr, EECON1 &= 0x3F, EECON1bits.RD = 1, EEDATA);
  4635     1C7F  0873               	movf	eeprom_read@addr,w
  4636     1C80  00F0               	movwf	??_eeprom_read
  4637     1C81  01F1               	clrf	??_eeprom_read+1
  4638     1C82  0870               	movf	??_eeprom_read,w
  4639     1C83  0091               	movwf	17	;volatile
  4640     1C84  0871               	movf	??_eeprom_read+1,w
  4641     1C85  0092               	movwf	18	;volatile
  4642     1C86  303F               	movlw	63
  4643     1C87  00F2               	movwf	??_eeprom_read+2
  4644     1C88  0872               	movf	??_eeprom_read+2,w
  4645     1C89  0595               	andwf	21,f	;volsfr
  4646     1C8A  1415               	bsf	21,0	;volsfr
  4647     1C8B  0813               	movf	19,w	;volatile
  4648     1C8C                     l566:
  4649     1C8C  0008               	return
  4650     1C8D                     __end_of_eeprom_read:
  4651                           
  4652                           	psect	text10
  4653     1054                     __ptext10:	
  4654 ;; *************** function _printf *****************
  4655 ;; Defined at:
  4656 ;;		line 477 in file "C:\Program Files\Microchip\xc8\v2.41\pic\sources\c90\common\doprnt.c"
  4657 ;; Parameters:    Size  Location     Type
  4658 ;;  f               2    0[BANK0 ] PTR const unsigned char 
  4659 ;;		 -> STR_76(22), STR_75(10), STR_74(12), STR_73(11), 
  4660 ;;		 -> STR_72(8), STR_70(8), STR_68(8), STR_65(11), 
  4661 ;;		 -> STR_64(11), STR_63(11), STR_62(11), STR_61(11), 
  4662 ;;		 -> STR_60(11), STR_59(11), STR_58(8), STR_56(11), 
  4663 ;;		 -> STR_54(8), STR_53(8), STR_52(8), STR_50(8), 
  4664 ;;		 -> STR_49(8), STR_48(11), STR_47(8), STR_41(11), 
  4665 ;;		 -> STR_39(11), STR_35(8), 
  4666 ;; Auto vars:     Size  Location     Type
  4667 ;;  tmpval          4    0        struct .
  4668 ;;  val             2   13[BANK0 ] unsigned int 
  4669 ;;  cp              2    0        PTR const unsigned char 
  4670 ;;  len             2    0        unsigned int 
  4671 ;;  c               1   15[BANK0 ] unsigned char 
  4672 ;;  flag            1   12[BANK0 ] unsigned char 
  4673 ;;  ap              1   11[BANK0 ] PTR void [1]
  4674 ;;		 -> ?_printf(2), 
  4675 ;;  prec            1   10[BANK0 ] char 
  4676 ;; Return value:  Size  Location     Type
  4677 ;;                  2    0[BANK0 ] int 
  4678 ;; Registers used:
  4679 ;;		wreg, fsr0l, fsr0h, fsr1l, fsr1h, status,2, status,0, pclath, cstack
  4680 ;; Tracked objects:
  4681 ;;		On entry : 0/0
  4682 ;;		On exit  : 0/0
  4683 ;;		Unchanged: 0/0
  4684 ;; Data sizes:     COMMON   BANK0   BANK1   BANK2   BANK3   BANK4   BANK5   BANK6   BANK7   BANK8   BANK9  BANK10  BANK1
      +1  BANK12  BANK13  BANK14  BANK15  BANK16  BANK17  BANK18  BANK19  BANK20  BANK21  BANK22  BANK23  BANK24  BANK25
  4685 ;;      Params:         0       6       0       0       0       0       0       0       0       0       0       0       
      +0       0       0       0       0       0       0       0       0       0       0       0       0       0       0
  4686 ;;      Locals:         0       6       0       0       0       0       0       0       0       0       0       0       
      +0       0       0       0       0       0       0       0       0       0       0       0       0       0       0
  4687 ;;      Temps:          0       4       0       0       0       0       0       0       0       0       0       0       
      +0       0       0       0       0       0       0       0       0       0       0       0       0       0       0
  4688 ;;      Totals:         0      16       0       0       0       0       0       0       0       0       0       0       
      +0       0       0       0       0       0       0       0       0       0       0       0       0       0       0
  4689 ;;Total ram usage:       16 bytes
  4690 ;; Hardware stack levels used: 1
  4691 ;; Hardware stack levels required when called: 1
  4692 ;; This function calls:
  4693 ;;		___lwdiv
  4694 ;;		___lwmod
  4695 ;;		_putch
  4696 ;; This function is called by:
  4697 ;;		_main
  4698 ;; This function uses a non-reentrant model
  4699 ;;
  4700                           
  4701     1054                     _printf:	
  4702                           ;psect for function _printf
  4703                           
  4704     1054                     l3240:	
  4705                           ;incstack = 0
  4706                           ; Regs used in _printf: [wreg-fsr1h+status,2+status,0+pclath+cstack]
  4707                           
  4708                           
  4709                           ;doprnt.c: 479: va_list ap;;doprnt.c: 512: char c;;doprnt.c: 521: signed char prec;;dopr
      +                          nt.c: 525: unsigned char flag;;doprnt.c: 540: union {;doprnt.c: 541: unsigned long vd;;d
      +                          oprnt.c: 542: double integ;;doprnt.c: 543: } tmpval;;doprnt.c: 545: unsigned int val;;do
      +                          prnt.c: 546: unsigned len;;doprnt.c: 547: const char * cp;;doprnt.c: 550: *ap = __va_sta
      +                          rt();
  4710     1054  3022               	movlw	(low ((?_printf| 0+2)))& (0+255)
  4711     1055  0020               	movlb	0	; select bank0
  4712     1056  00AB               	movwf	printf@ap
  4713                           
  4714                           ;doprnt.c: 553: while((c = *f++)) {
  4715     1057  2912               	goto	l3290
  4716     1058                     l3242:
  4717                           
  4718                           ;doprnt.c: 555: if(c != '%')
  4719     1058  3025               	movlw	37
  4720     1059  062F               	xorwf	printf@c,w
  4721     105A  1903               	btfsc	3,2
  4722     105B  285D               	goto	u3551
  4723     105C  285E               	goto	u3550
  4724     105D                     u3551:
  4725     105D  2863               	goto	l3246
  4726     105E                     u3550:
  4727     105E                     l3244:
  4728                           
  4729                           ;doprnt.c: 557: {;doprnt.c: 558: (putch(c) );
  4730     105E  082F               	movf	printf@c,w
  4731     105F  319C  243D  3190   	fcall	_putch
  4732                           
  4733                           ;doprnt.c: 559: continue;
  4734     1062  2912               	goto	l3290
  4735     1063                     l3246:
  4736                           
  4737                           ;doprnt.c: 560: };doprnt.c: 565: flag = 0;
  4738     1063  01AC               	clrf	printf@flag
  4739                           
  4740                           ;doprnt.c: 661: switch(c = *f++) {
  4741     1064  2867               	goto	l3250
  4742     1065                     l611:	
  4743                           ;doprnt.c: 843: case 'u':
  4744                           
  4745                           
  4746                           ;doprnt.c: 844: flag |= 0x40;
  4747     1065  172C               	bsf	printf@flag,6
  4748                           
  4749                           ;doprnt.c: 845: break;
  4750     1066  2881               	goto	l609
  4751     1067                     l3250:
  4752     1067  0821               	movf	printf@f+1,w
  4753     1068  00A7               	movwf	??_printf+1
  4754     1069  0820               	movf	printf@f,w
  4755     106A  00A6               	movwf	??_printf
  4756     106B  0AA0               	incf	printf@f,f
  4757     106C  1903               	skipnz
  4758     106D  0AA1               	incf	printf@f+1,f
  4759     106E  0826               	movf	??_printf,w
  4760     106F  0084               	movwf	4
  4761     1070  0827               	movf	??_printf+1,w
  4762     1071  0085               	movwf	5
  4763     1072  0800               	movf	0,w	;code access
  4764     1073  00AF               	movwf	printf@c
  4765                           
  4766                           ; Switch size 1, requested type "simple"
  4767                           ; Number of cases is 4, Range of values is 0 to 117
  4768                           ; switch strategies available:
  4769                           ; Name         Instructions Cycles
  4770                           ; simple_byte           13     7 (average)
  4771                           ; direct_byte          242     6 (fixed)
  4772                           ; jumptable            260     6 (fixed)
  4773                           ;	Chosen strategy is simple_byte
  4774     1074  3A00               	xorlw	0	; case 0
  4775     1075  1903               	skipnz
  4776     1076  2925               	goto	l623
  4777     1077  3A64               	xorlw	100	; case 100
  4778     1078  1903               	skipnz
  4779     1079  2881               	goto	l609
  4780     107A  3A0D               	xorlw	13	; case 105
  4781     107B  1903               	skipnz
  4782     107C  2881               	goto	l609
  4783     107D  3A1C               	xorlw	28	; case 117
  4784     107E  1903               	skipnz
  4785     107F  2865               	goto	l611
  4786     1080  2912               	goto	l3290
  4787     1081                     l609:
  4788                           
  4789                           ;doprnt.c: 1277: if((flag & 0x40) == 0x00)
  4790     1081  1B2C               	btfsc	printf@flag,6
  4791     1082  2884               	goto	u3561
  4792     1083  2885               	goto	u3560
  4793     1084                     u3561:
  4794     1084  289E               	goto	l3262
  4795     1085                     u3560:
  4796     1085                     l3252:
  4797                           
  4798                           ;doprnt.c: 1279: {;doprnt.c: 1285: val = (unsigned int)(*(int *)__va_arg((*(int **)ap), 
      +                          (int)0));
  4799     1085  082B               	movf	printf@ap,w
  4800     1086  0086               	movwf	6
  4801     1087  0187               	clrf	7
  4802     1088  3F40               	moviw [0]fsr1
  4803     1089  00AD               	movwf	printf@val
  4804     108A  3F41               	moviw [1]fsr1
  4805     108B  00AE               	movwf	printf@val+1
  4806     108C                     l3254:
  4807     108C  3002               	movlw	2
  4808     108D  00A6               	movwf	??_printf
  4809     108E  0826               	movf	??_printf,w
  4810     108F  07AB               	addwf	printf@ap,f
  4811     1090                     l3256:
  4812                           
  4813                           ;doprnt.c: 1287: if((int)val < 0) {
  4814     1090  1FAE               	btfss	printf@val+1,7
  4815     1091  2893               	goto	u3571
  4816     1092  2894               	goto	u3570
  4817     1093                     u3571:
  4818     1093  28A9               	goto	l3266
  4819     1094                     u3570:
  4820     1094                     l3258:
  4821                           
  4822                           ;doprnt.c: 1288: flag |= 0x03;
  4823     1094  3003               	movlw	3
  4824     1095  00A6               	movwf	??_printf
  4825     1096  0826               	movf	??_printf,w
  4826     1097  04AC               	iorwf	printf@flag,f
  4827     1098                     l3260:
  4828                           
  4829                           ;doprnt.c: 1289: val = -val;
  4830     1098  09AD               	comf	printf@val,f
  4831     1099  09AE               	comf	printf@val+1,f
  4832     109A  0AAD               	incf	printf@val,f
  4833     109B  1903               	skipnz
  4834     109C  0AAE               	incf	printf@val+1,f
  4835     109D  28A9               	goto	l3266
  4836     109E                     l3262:
  4837                           
  4838                           ;doprnt.c: 1294: else;doprnt.c: 1299: {;doprnt.c: 1312: val = (*(unsigned *)__va_arg((*(
      +                          unsigned **)ap), (unsigned)0));
  4839     109E  082B               	movf	printf@ap,w
  4840     109F  0086               	movwf	6
  4841     10A0  0187               	clrf	7
  4842     10A1  3F40               	moviw [0]fsr1
  4843     10A2  00AD               	movwf	printf@val
  4844     10A3  3F41               	moviw [1]fsr1
  4845     10A4  00AE               	movwf	printf@val+1
  4846     10A5                     l3264:
  4847     10A5  3002               	movlw	2
  4848     10A6  00A6               	movwf	??_printf
  4849     10A7  0826               	movf	??_printf,w
  4850     10A8  07AB               	addwf	printf@ap,f
  4851     10A9                     l3266:
  4852                           
  4853                           ;doprnt.c: 1313: };doprnt.c: 1331: for(c = 1 ; c != sizeof dpowers/sizeof dpowers[0] ; c
      +                          ++)
  4854     10A9  01AF               	clrf	printf@c
  4855     10AA  0AAF               	incf	printf@c,f
  4856     10AB                     l3272:
  4857                           
  4858                           ;doprnt.c: 1332: if(val < dpowers[c])
  4859     10AB  082F               	movf	printf@c,w
  4860     10AC  00A6               	movwf	??_printf
  4861     10AD  01A7               	clrf	??_printf+1
  4862     10AE  35A6               	lslf	??_printf,f
  4863     10AF  0DA7               	rlf	??_printf+1,f
  4864     10B0  3000               	movlw	low _dpowers
  4865     10B1  0726               	addwf	??_printf,w
  4866     10B2  0084               	movwf	4
  4867     10B3  3020               	movlw	high _dpowers
  4868     10B4  3D27               	addwfc	??_printf+1,w
  4869     10B5  3880               	iorlw	128
  4870     10B6  0085               	movwf	5
  4871     10B7  3F00               	moviw [0]fsr0
  4872     10B8  00A8               	movwf	??_printf+2
  4873     10B9  3F01               	moviw [1]fsr0
  4874     10BA  00A9               	movwf	??_printf+3
  4875     10BB  0829               	movf	??_printf+3,w
  4876     10BC  022E               	subwf	printf@val+1,w
  4877     10BD  1D03               	skipz
  4878     10BE  28C1               	goto	u3585
  4879     10BF  0828               	movf	??_printf+2,w
  4880     10C0  022D               	subwf	printf@val,w
  4881     10C1                     u3585:
  4882     10C1  1803               	skipnc
  4883     10C2  28C4               	goto	u3581
  4884     10C3  28C5               	goto	u3580
  4885     10C4                     u3581:
  4886     10C4  28C6               	goto	l3276
  4887     10C5                     u3580:
  4888     10C5  28D0               	goto	l3278
  4889     10C6                     l3276:
  4890     10C6  3001               	movlw	1
  4891     10C7  00A6               	movwf	??_printf
  4892     10C8  0826               	movf	??_printf,w
  4893     10C9  07AF               	addwf	printf@c,f
  4894     10CA  3005               	movlw	5
  4895     10CB  062F               	xorwf	printf@c,w
  4896     10CC  1D03               	btfss	3,2
  4897     10CD  28CF               	goto	u3591
  4898     10CE  28D0               	goto	u3590
  4899     10CF                     u3591:
  4900     10CF  28AB               	goto	l3272
  4901     10D0                     u3590:
  4902     10D0                     l3278:
  4903                           
  4904                           ;doprnt.c: 1448: {;doprnt.c: 1464: if(flag & 0x03)
  4905     10D0  082C               	movf	printf@flag,w
  4906     10D1  3903               	andlw	3
  4907     10D2  1903               	btfsc	3,2
  4908     10D3  28D5               	goto	u3601
  4909     10D4  28D6               	goto	u3600
  4910     10D5                     u3601:
  4911     10D5  28DA               	goto	l3282
  4912     10D6                     u3600:
  4913     10D6                     l3280:
  4914                           
  4915                           ;doprnt.c: 1465: (putch('-') );
  4916     10D6  302D               	movlw	45
  4917     10D7  319C  243D  3190   	fcall	_putch
  4918     10DA                     l3282:
  4919                           
  4920                           ;doprnt.c: 1495: };doprnt.c: 1498: prec = c;
  4921     10DA  0020               	movlb	0	; select bank0
  4922     10DB  082F               	movf	printf@c,w
  4923     10DC  00AA               	movwf	printf@prec
  4924                           
  4925                           ;doprnt.c: 1500: while(prec--) {
  4926     10DD  2908               	goto	l3288
  4927     10DE                     l3284:
  4928                           
  4929                           ;doprnt.c: 1504: {;doprnt.c: 1515: c = (val / dpowers[(unsigned char)prec]) % 10 + '0';
  4930     10DE  300A               	movlw	10
  4931     10DF  00F8               	movwf	___lwmod@divisor
  4932     10E0  3000               	movlw	0
  4933     10E1  00F9               	movwf	___lwmod@divisor+1
  4934     10E2  082A               	movf	printf@prec,w
  4935     10E3  00A6               	movwf	??_printf
  4936     10E4  01A7               	clrf	??_printf+1
  4937     10E5  35A6               	lslf	??_printf,f
  4938     10E6  0DA7               	rlf	??_printf+1,f
  4939     10E7  3000               	movlw	low _dpowers
  4940     10E8  0726               	addwf	??_printf,w
  4941     10E9  0084               	movwf	4
  4942     10EA  3020               	movlw	high _dpowers
  4943     10EB  3D27               	addwfc	??_printf+1,w
  4944     10EC  3880               	iorlw	128
  4945     10ED  0085               	movwf	5
  4946     10EE  3F00               	moviw [0]fsr0
  4947     10EF  00F0               	movwf	___lwdiv@divisor
  4948     10F0  3F01               	moviw [1]fsr0
  4949     10F1  00F1               	movwf	___lwdiv@divisor+1
  4950     10F2  082E               	movf	printf@val+1,w
  4951     10F3  00F3               	movwf	___lwdiv@dividend+1
  4952     10F4  082D               	movf	printf@val,w
  4953     10F5  00F2               	movwf	___lwdiv@dividend
  4954     10F6  319D  25AB  3190   	fcall	___lwdiv
  4955     10F9  0871               	movf	?___lwdiv+1,w
  4956     10FA  00FB               	movwf	___lwmod@dividend+1
  4957     10FB  0870               	movf	?___lwdiv,w
  4958     10FC  00FA               	movwf	___lwmod@dividend
  4959     10FD  319D  2577  3190   	fcall	___lwmod
  4960     1100  0878               	movf	?___lwmod,w
  4961     1101  3E30               	addlw	48
  4962     1102  0020               	movlb	0	; select bank0
  4963     1103  00AF               	movwf	printf@c
  4964     1104                     l3286:
  4965                           
  4966                           ;doprnt.c: 1549: };doprnt.c: 1550: (putch(c) );
  4967     1104  082F               	movf	printf@c,w
  4968     1105  319C  243D  3190   	fcall	_putch
  4969     1108                     l3288:
  4970     1108  30FF               	movlw	255
  4971     1109  0020               	movlb	0	; select bank0
  4972     110A  00A6               	movwf	??_printf
  4973     110B  0826               	movf	??_printf,w
  4974     110C  07AA               	addwf	printf@prec,f
  4975     110D  0A2A               	incf	printf@prec,w
  4976     110E  1D03               	btfss	3,2
  4977     110F  2911               	goto	u3611
  4978     1110  2912               	goto	u3610
  4979     1111                     u3611:
  4980     1111  28DE               	goto	l3284
  4981     1112                     u3610:
  4982     1112                     l3290:
  4983     1112  0020               	movlb	0	; select bank0
  4984     1113  0821               	movf	printf@f+1,w
  4985     1114  00A7               	movwf	??_printf+1
  4986     1115  0820               	movf	printf@f,w
  4987     1116  00A6               	movwf	??_printf
  4988     1117  0AA0               	incf	printf@f,f
  4989     1118  1903               	skipnz
  4990     1119  0AA1               	incf	printf@f+1,f
  4991     111A  0826               	movf	??_printf,w
  4992     111B  0084               	movwf	4
  4993     111C  0827               	movf	??_printf+1,w
  4994     111D  0085               	movwf	5
  4995     111E  0800               	movf	0,w	;code access
  4996     111F  00AF               	movwf	printf@c
  4997     1120  082F               	movf	printf@c,w
  4998     1121  1D03               	btfss	3,2
  4999     1122  2924               	goto	u3621
  5000     1123  2925               	goto	u3620
  5001     1124                     u3621:
  5002     1124  2858               	goto	l3242
  5003     1125                     u3620:
  5004     1125                     l623:
  5005     1125  0008               	return
  5006     1126                     __end_of_printf:
  5007                           
  5008                           	psect	text11
  5009     1D77                     __ptext11:	
  5010 ;; *************** function ___lwmod *****************
  5011 ;; Defined at:
  5012 ;;		line 5 in file "C:\Program Files\Microchip\xc8\v2.41\pic\sources\c90\common\lwmod.c"
  5013 ;; Parameters:    Size  Location     Type
  5014 ;;  divisor         2    8[COMMON] unsigned int 
  5015 ;;  dividend        2   10[COMMON] unsigned int 
  5016 ;; Auto vars:     Size  Location     Type
  5017 ;;  counter         1   13[COMMON] unsigned char 
  5018 ;; Return value:  Size  Location     Type
  5019 ;;                  2    8[COMMON] unsigned int 
  5020 ;; Registers used:
  5021 ;;		wreg, status,2, status,0
  5022 ;; Tracked objects:
  5023 ;;		On entry : 0/0
  5024 ;;		On exit  : 0/0
  5025 ;;		Unchanged: 0/0
  5026 ;; Data sizes:     COMMON   BANK0   BANK1   BANK2   BANK3   BANK4   BANK5   BANK6   BANK7   BANK8   BANK9  BANK10  BANK1
      +1  BANK12  BANK13  BANK14  BANK15  BANK16  BANK17  BANK18  BANK19  BANK20  BANK21  BANK22  BANK23  BANK24  BANK25
  5027 ;;      Params:         4       0       0       0       0       0       0       0       0       0       0       0       
      +0       0       0       0       0       0       0       0       0       0       0       0       0       0       0
  5028 ;;      Locals:         1       0       0       0       0       0       0       0       0       0       0       0       
      +0       0       0       0       0       0       0       0       0       0       0       0       0       0       0
  5029 ;;      Temps:          1       0       0       0       0       0       0       0       0       0       0       0       
      +0       0       0       0       0       0       0       0       0       0       0       0       0       0       0
  5030 ;;      Totals:         6       0       0       0       0       0       0       0       0       0       0       0       
      +0       0       0       0       0       0       0       0       0       0       0       0       0       0       0
  5031 ;;Total ram usage:        6 bytes
  5032 ;; Hardware stack levels used: 1
  5033 ;; This function calls:
  5034 ;;		Nothing
  5035 ;; This function is called by:
  5036 ;;		_printf
  5037 ;; This function uses a non-reentrant model
  5038 ;;
  5039                           
  5040     1D77                     ___lwmod:	
  5041                           ;psect for function ___lwmod
  5042                           
  5043     1D77                     l3020:	
  5044                           ;incstack = 0
  5045                           ; Regs used in ___lwmod: [wreg+status,2+status,0]
  5046                           
  5047     1D77  0878               	movf	___lwmod@divisor,w
  5048     1D78  0479               	iorwf	___lwmod@divisor+1,w
  5049     1D79  1903               	btfsc	3,2
  5050     1D7A  2D7C               	goto	u3231
  5051     1D7B  2D7D               	goto	u3230
  5052     1D7C                     u3231:
  5053     1D7C  2DA6               	goto	l3038
  5054     1D7D                     u3230:
  5055     1D7D                     l3022:
  5056     1D7D  01FD               	clrf	___lwmod@counter
  5057     1D7E  0AFD               	incf	___lwmod@counter,f
  5058     1D7F  2D89               	goto	l3028
  5059     1D80                     l3024:
  5060     1D80  3001               	movlw	1
  5061     1D81                     u3245:
  5062     1D81  35F8               	lslf	___lwmod@divisor,f
  5063     1D82  0DF9               	rlf	___lwmod@divisor+1,f
  5064     1D83  0B89               	decfsz	9,f
  5065     1D84  2D81               	goto	u3245
  5066     1D85                     l3026:
  5067     1D85  3001               	movlw	1
  5068     1D86  00FC               	movwf	??___lwmod
  5069     1D87  087C               	movf	??___lwmod,w
  5070     1D88  07FD               	addwf	___lwmod@counter,f
  5071     1D89                     l3028:
  5072     1D89  1FF9               	btfss	___lwmod@divisor+1,7
  5073     1D8A  2D8C               	goto	u3251
  5074     1D8B  2D8D               	goto	u3250
  5075     1D8C                     u3251:
  5076     1D8C  2D80               	goto	l3024
  5077     1D8D                     u3250:
  5078     1D8D                     l3030:
  5079     1D8D  0879               	movf	___lwmod@divisor+1,w
  5080     1D8E  027B               	subwf	___lwmod@dividend+1,w
  5081     1D8F  1D03               	skipz
  5082     1D90  2D93               	goto	u3265
  5083     1D91  0878               	movf	___lwmod@divisor,w
  5084     1D92  027A               	subwf	___lwmod@dividend,w
  5085     1D93                     u3265:
  5086     1D93  1C03               	skipc
  5087     1D94  2D96               	goto	u3261
  5088     1D95  2D97               	goto	u3260
  5089     1D96                     u3261:
  5090     1D96  2D9B               	goto	l3034
  5091     1D97                     u3260:
  5092     1D97                     l3032:
  5093     1D97  0878               	movf	___lwmod@divisor,w
  5094     1D98  02FA               	subwf	___lwmod@dividend,f
  5095     1D99  0879               	movf	___lwmod@divisor+1,w
  5096     1D9A  3BFB               	subwfb	___lwmod@dividend+1,f
  5097     1D9B                     l3034:
  5098     1D9B  3001               	movlw	1
  5099     1D9C                     u3275:
  5100     1D9C  36F9               	lsrf	___lwmod@divisor+1,f
  5101     1D9D  0CF8               	rrf	___lwmod@divisor,f
  5102     1D9E  0B89               	decfsz	9,f
  5103     1D9F  2D9C               	goto	u3275
  5104     1DA0                     l3036:
  5105     1DA0  3001               	movlw	1
  5106     1DA1  02FD               	subwf	___lwmod@counter,f
  5107     1DA2  1D03               	btfss	3,2
  5108     1DA3  2DA5               	goto	u3281
  5109     1DA4  2DA6               	goto	u3280
  5110     1DA5                     u3281:
  5111     1DA5  2D8D               	goto	l3030
  5112     1DA6                     u3280:
  5113     1DA6                     l3038:
  5114     1DA6  087B               	movf	___lwmod@dividend+1,w
  5115     1DA7  00F9               	movwf	?___lwmod+1
  5116     1DA8  087A               	movf	___lwmod@dividend,w
  5117     1DA9  00F8               	movwf	?___lwmod
  5118     1DAA                     l909:
  5119     1DAA  0008               	return
  5120     1DAB                     __end_of___lwmod:
  5121                           
  5122                           	psect	text12
  5123     1DAB                     __ptext12:	
  5124 ;; *************** function ___lwdiv *****************
  5125 ;; Defined at:
  5126 ;;		line 5 in file "C:\Program Files\Microchip\xc8\v2.41\pic\sources\c90\common\lwdiv.c"
  5127 ;; Parameters:    Size  Location     Type
  5128 ;;  divisor         2    0[COMMON] unsigned int 
  5129 ;;  dividend        2    2[COMMON] unsigned int 
  5130 ;; Auto vars:     Size  Location     Type
  5131 ;;  quotient        2    5[COMMON] unsigned int 
  5132 ;;  counter         1    7[COMMON] unsigned char 
  5133 ;; Return value:  Size  Location     Type
  5134 ;;                  2    0[COMMON] unsigned int 
  5135 ;; Registers used:
  5136 ;;		wreg, status,2, status,0
  5137 ;; Tracked objects:
  5138 ;;		On entry : 0/0
  5139 ;;		On exit  : 0/0
  5140 ;;		Unchanged: 0/0
  5141 ;; Data sizes:     COMMON   BANK0   BANK1   BANK2   BANK3   BANK4   BANK5   BANK6   BANK7   BANK8   BANK9  BANK10  BANK1
      +1  BANK12  BANK13  BANK14  BANK15  BANK16  BANK17  BANK18  BANK19  BANK20  BANK21  BANK22  BANK23  BANK24  BANK25
  5142 ;;      Params:         4       0       0       0       0       0       0       0       0       0       0       0       
      +0       0       0       0       0       0       0       0       0       0       0       0       0       0       0
  5143 ;;      Locals:         3       0       0       0       0       0       0       0       0       0       0       0       
      +0       0       0       0       0       0       0       0       0       0       0       0       0       0       0
  5144 ;;      Temps:          1       0       0       0       0       0       0       0       0       0       0       0       
      +0       0       0       0       0       0       0       0       0       0       0       0       0       0       0
  5145 ;;      Totals:         8       0       0       0       0       0       0       0       0       0       0       0       
      +0       0       0       0       0       0       0       0       0       0       0       0       0       0       0
  5146 ;;Total ram usage:        8 bytes
  5147 ;; Hardware stack levels used: 1
  5148 ;; This function calls:
  5149 ;;		Nothing
  5150 ;; This function is called by:
  5151 ;;		_printf
  5152 ;; This function uses a non-reentrant model
  5153 ;;
  5154                           
  5155     1DAB                     ___lwdiv:	
  5156                           ;psect for function ___lwdiv
  5157                           
  5158     1DAB                     l2994:	
  5159                           ;incstack = 0
  5160                           ; Regs used in ___lwdiv: [wreg+status,2+status,0]
  5161                           
  5162     1DAB  01F5               	clrf	___lwdiv@quotient
  5163     1DAC  01F6               	clrf	___lwdiv@quotient+1
  5164     1DAD                     l2996:
  5165     1DAD  0870               	movf	___lwdiv@divisor,w
  5166     1DAE  0471               	iorwf	___lwdiv@divisor+1,w
  5167     1DAF  1903               	btfsc	3,2
  5168     1DB0  2DB2               	goto	u3161
  5169     1DB1  2DB3               	goto	u3160
  5170     1DB2                     u3161:
  5171     1DB2  2DE2               	goto	l3016
  5172     1DB3                     u3160:
  5173     1DB3                     l2998:
  5174     1DB3  01F7               	clrf	___lwdiv@counter
  5175     1DB4  0AF7               	incf	___lwdiv@counter,f
  5176     1DB5  2DBF               	goto	l3004
  5177     1DB6                     l3000:
  5178     1DB6  3001               	movlw	1
  5179     1DB7                     u3175:
  5180     1DB7  35F0               	lslf	___lwdiv@divisor,f
  5181     1DB8  0DF1               	rlf	___lwdiv@divisor+1,f
  5182     1DB9  0B89               	decfsz	9,f
  5183     1DBA  2DB7               	goto	u3175
  5184     1DBB                     l3002:
  5185     1DBB  3001               	movlw	1
  5186     1DBC  00F4               	movwf	??___lwdiv
  5187     1DBD  0874               	movf	??___lwdiv,w
  5188     1DBE  07F7               	addwf	___lwdiv@counter,f
  5189     1DBF                     l3004:
  5190     1DBF  1FF1               	btfss	___lwdiv@divisor+1,7
  5191     1DC0  2DC2               	goto	u3181
  5192     1DC1  2DC3               	goto	u3180
  5193     1DC2                     u3181:
  5194     1DC2  2DB6               	goto	l3000
  5195     1DC3                     u3180:
  5196     1DC3                     l3006:
  5197     1DC3  3001               	movlw	1
  5198     1DC4                     u3195:
  5199     1DC4  35F5               	lslf	___lwdiv@quotient,f
  5200     1DC5  0DF6               	rlf	___lwdiv@quotient+1,f
  5201     1DC6  0B89               	decfsz	9,f
  5202     1DC7  2DC4               	goto	u3195
  5203     1DC8  0871               	movf	___lwdiv@divisor+1,w
  5204     1DC9  0273               	subwf	___lwdiv@dividend+1,w
  5205     1DCA  1D03               	skipz
  5206     1DCB  2DCE               	goto	u3205
  5207     1DCC  0870               	movf	___lwdiv@divisor,w
  5208     1DCD  0272               	subwf	___lwdiv@dividend,w
  5209     1DCE                     u3205:
  5210     1DCE  1C03               	skipc
  5211     1DCF  2DD1               	goto	u3201
  5212     1DD0  2DD2               	goto	u3200
  5213     1DD1                     u3201:
  5214     1DD1  2DD7               	goto	l3012
  5215     1DD2                     u3200:
  5216     1DD2                     l3008:
  5217     1DD2  0870               	movf	___lwdiv@divisor,w
  5218     1DD3  02F2               	subwf	___lwdiv@dividend,f
  5219     1DD4  0871               	movf	___lwdiv@divisor+1,w
  5220     1DD5  3BF3               	subwfb	___lwdiv@dividend+1,f
  5221     1DD6                     l3010:
  5222     1DD6  1475               	bsf	___lwdiv@quotient,0
  5223     1DD7                     l3012:
  5224     1DD7  3001               	movlw	1
  5225     1DD8                     u3215:
  5226     1DD8  36F1               	lsrf	___lwdiv@divisor+1,f
  5227     1DD9  0CF0               	rrf	___lwdiv@divisor,f
  5228     1DDA  0B89               	decfsz	9,f
  5229     1DDB  2DD8               	goto	u3215
  5230     1DDC                     l3014:
  5231     1DDC  3001               	movlw	1
  5232     1DDD  02F7               	subwf	___lwdiv@counter,f
  5233     1DDE  1D03               	btfss	3,2
  5234     1DDF  2DE1               	goto	u3221
  5235     1DE0  2DE2               	goto	u3220
  5236     1DE1                     u3221:
  5237     1DE1  2DC3               	goto	l3006
  5238     1DE2                     u3220:
  5239     1DE2                     l3016:
  5240     1DE2  0876               	movf	___lwdiv@quotient+1,w
  5241     1DE3  00F1               	movwf	?___lwdiv+1
  5242     1DE4  0875               	movf	___lwdiv@quotient,w
  5243     1DE5  00F0               	movwf	?___lwdiv
  5244     1DE6                     l899:
  5245     1DE6  0008               	return
  5246     1DE7                     __end_of___lwdiv:
  5247                           
  5248                           	psect	text13
  5249     1C35                     __ptext13:	
  5250 ;; *************** function _initUART *****************
  5251 ;; Defined at:
  5252 ;;		line 6 in file "uart.c"
  5253 ;; Parameters:    Size  Location     Type
  5254 ;;		None
  5255 ;; Auto vars:     Size  Location     Type
  5256 ;;		None
  5257 ;; Return value:  Size  Location     Type
  5258 ;;                  1    wreg      void 
  5259 ;; Registers used:
  5260 ;;		wreg
  5261 ;; Tracked objects:
  5262 ;;		On entry : 0/0
  5263 ;;		On exit  : 0/0
  5264 ;;		Unchanged: 0/0
  5265 ;; Data sizes:     COMMON   BANK0   BANK1   BANK2   BANK3   BANK4   BANK5   BANK6   BANK7   BANK8   BANK9  BANK10  BANK1
      +1  BANK12  BANK13  BANK14  BANK15  BANK16  BANK17  BANK18  BANK19  BANK20  BANK21  BANK22  BANK23  BANK24  BANK25
  5266 ;;      Params:         0       0       0       0       0       0       0       0       0       0       0       0       
      +0       0       0       0       0       0       0       0       0       0       0       0       0       0       0
  5267 ;;      Locals:         0       0       0       0       0       0       0       0       0       0       0       0       
      +0       0       0       0       0       0       0       0       0       0       0       0       0       0       0
  5268 ;;      Temps:          0       0       0       0       0       0       0       0       0       0       0       0       
      +0       0       0       0       0       0       0       0       0       0       0       0       0       0       0
  5269 ;;      Totals:         0       0       0       0       0       0       0       0       0       0       0       0       
      +0       0       0       0       0       0       0       0       0       0       0       0       0       0       0
  5270 ;;Total ram usage:        0 bytes
  5271 ;; Hardware stack levels used: 1
  5272 ;; This function calls:
  5273 ;;		Nothing
  5274 ;; This function is called by:
  5275 ;;		_main
  5276 ;; This function uses a non-reentrant model
  5277 ;;
  5278                           
  5279     1C35                     _initUART:	
  5280                           ;psect for function _initUART
  5281                           
  5282     1C35                     l3156:	
  5283                           ;incstack = 0
  5284                           ; Regs used in _initUART: [wreg]
  5285                           
  5286                           
  5287                           ;uart.c: 8: SPBRG = ((unsigned char)(((4000000 / 16) / 9600) - 1));
  5288     1C35  3019               	movlw	25
  5289     1C36  0023               	movlb	3	; select bank3
  5290     1C37  009B               	movwf	27	;volatile
  5291                           
  5292                           ;uart.c: 9: TXSTA = (0x00 | 0x04 | 0x20);
  5293     1C38  3024               	movlw	36
  5294     1C39  009E               	movwf	30	;volatile
  5295                           
  5296                           ;uart.c: 10: RCSTA = (0x00 | 0x90);
  5297     1C3A  3090               	movlw	144
  5298     1C3B  009D               	movwf	29	;volatile
  5299     1C3C                     l392:
  5300     1C3C  0008               	return
  5301     1C3D                     __end_of_initUART:
  5302                           
  5303                           	psect	text14
  5304     1C27                     __ptext14:	
  5305 ;; *************** function _gets *****************
  5306 ;; Defined at:
  5307 ;;		line 10 in file "C:\Program Files\Microchip\xc8\v2.41\pic\sources\c90\common\gets.c"
  5308 ;; Parameters:    Size  Location     Type
  5309 ;;  s               1    wreg     PTR unsigned char 
  5310 ;;		 -> main@tmp(40), 
  5311 ;; Auto vars:     Size  Location     Type
  5312 ;;  s               1   10[COMMON] PTR unsigned char 
  5313 ;;		 -> main@tmp(40), 
  5314 ;; Return value:  Size  Location     Type
  5315 ;;                  1    wreg      PTR unsigned char 
  5316 ;; Registers used:
  5317 ;;		wreg, fsr0l, fsr0h, fsr1l, fsr1h, status,2, status,0, pclath, cstack
  5318 ;; Tracked objects:
  5319 ;;		On entry : 0/0
  5320 ;;		On exit  : 0/0
  5321 ;;		Unchanged: 0/0
  5322 ;; Data sizes:     COMMON   BANK0   BANK1   BANK2   BANK3   BANK4   BANK5   BANK6   BANK7   BANK8   BANK9  BANK10  BANK1
      +1  BANK12  BANK13  BANK14  BANK15  BANK16  BANK17  BANK18  BANK19  BANK20  BANK21  BANK22  BANK23  BANK24  BANK25
  5323 ;;      Params:         0       0       0       0       0       0       0       0       0       0       0       0       
      +0       0       0       0       0       0       0       0       0       0       0       0       0       0       0
  5324 ;;      Locals:         1       0       0       0       0       0       0       0       0       0       0       0       
      +0       0       0       0       0       0       0       0       0       0       0       0       0       0       0
  5325 ;;      Temps:          0       0       0       0       0       0       0       0       0       0       0       0       
      +0       0       0       0       0       0       0       0       0       0       0       0       0       0       0
  5326 ;;      Totals:         1       0       0       0       0       0       0       0       0       0       0       0       
      +0       0       0       0       0       0       0       0       0       0       0       0       0       0       0
  5327 ;;Total ram usage:        1 bytes
  5328 ;; Hardware stack levels used: 1
  5329 ;; Hardware stack levels required when called: 3
  5330 ;; This function calls:
  5331 ;;		_cgets
  5332 ;; This function is called by:
  5333 ;;		_main
  5334 ;; This function uses a non-reentrant model
  5335 ;;
  5336                           
  5337     1C27                     _gets:	
  5338                           ;psect for function _gets
  5339                           
  5340                           
  5341                           ;incstack = 0
  5342                           ; Regs used in _gets: [wreg-fsr1h+status,2+status,0+pclath+cstack]
  5343                           ;gets@s stored from wreg
  5344     1C27  00FA               	movwf	gets@s
  5345     1C28                     l3158:
  5346                           
  5347                           ;	Return value of _gets is never used
  5348     1C28  087A               	movf	gets@s,w
  5349     1C29  319E  262F  319C   	fcall	_cgets
  5350     1C2C                     l1095:
  5351     1C2C  0008               	return
  5352     1C2D                     __end_of_gets:
  5353                           
  5354                           	psect	text15
  5355     1E2F                     __ptext15:	
  5356 ;; *************** function _cgets *****************
  5357 ;; Defined at:
  5358 ;;		line 4 in file "C:\Program Files\Microchip\xc8\v2.41\pic\sources\c90\common\cgets.c"
  5359 ;; Parameters:    Size  Location     Type
  5360 ;;  s               1    wreg     PTR unsigned char 
  5361 ;;		 -> main@tmp(40), 
  5362 ;; Auto vars:     Size  Location     Type
  5363 ;;  s               1    8[COMMON] PTR unsigned char 
  5364 ;;		 -> main@tmp(40), 
  5365 ;;  c               2    6[COMMON] int 
  5366 ;;  s1              1    9[COMMON] PTR unsigned char 
  5367 ;;		 -> main@tmp(40), 
  5368 ;; Return value:  Size  Location     Type
  5369 ;;                  1    wreg      PTR unsigned char 
  5370 ;; Registers used:
  5371 ;;		wreg, fsr0l, fsr0h, fsr1l, fsr1h, status,2, status,0, pclath, cstack
  5372 ;; Tracked objects:
  5373 ;;		On entry : 0/0
  5374 ;;		On exit  : 0/0
  5375 ;;		Unchanged: 0/0
  5376 ;; Data sizes:     COMMON   BANK0   BANK1   BANK2   BANK3   BANK4   BANK5   BANK6   BANK7   BANK8   BANK9  BANK10  BANK1
      +1  BANK12  BANK13  BANK14  BANK15  BANK16  BANK17  BANK18  BANK19  BANK20  BANK21  BANK22  BANK23  BANK24  BANK25
  5377 ;;      Params:         2       0       0       0       0       0       0       0       0       0       0       0       
      +0       0       0       0       0       0       0       0       0       0       0       0       0       0       0
  5378 ;;      Locals:         4       0       0       0       0       0       0       0       0       0       0       0       
      +0       0       0       0       0       0       0       0       0       0       0       0       0       0       0
  5379 ;;      Temps:          2       0       0       0       0       0       0       0       0       0       0       0       
      +0       0       0       0       0       0       0       0       0       0       0       0       0       0       0
  5380 ;;      Totals:         8       0       0       0       0       0       0       0       0       0       0       0       
      +0       0       0       0       0       0       0       0       0       0       0       0       0       0       0
  5381 ;;Total ram usage:        8 bytes
  5382 ;; Hardware stack levels used: 1
  5383 ;; Hardware stack levels required when called: 2
  5384 ;; This function calls:
  5385 ;;		_getche
  5386 ;;		_putch
  5387 ;; This function is called by:
  5388 ;;		_gets
  5389 ;; This function uses a non-reentrant model
  5390 ;;
  5391                           
  5392     1E2F                     _cgets:	
  5393                           ;psect for function _cgets
  5394                           
  5395                           
  5396                           ;incstack = 0
  5397                           ; Regs used in _cgets: [wreg-fsr1h+status,2+status,0+pclath+cstack]
  5398                           ;cgets@s stored from wreg
  5399     1E2F  00F8               	movwf	cgets@s
  5400     1E30                     l3068:
  5401     1E30  0878               	movf	cgets@s,w
  5402     1E31  00F9               	movwf	cgets@s1
  5403     1E32  2E69               	goto	l3096
  5404     1E33                     l3070:
  5405     1E33  0878               	movf	cgets@s,w
  5406     1E34  0679               	xorwf	cgets@s1,w
  5407     1E35  1D03               	skipz
  5408     1E36  2E38               	goto	u3341
  5409     1E37  2E39               	goto	u3340
  5410     1E38                     u3341:
  5411     1E38  2E3A               	goto	l3074
  5412     1E39                     u3340:
  5413     1E39  2E69               	goto	l3096
  5414     1E3A                     l3074:
  5415     1E3A  3020               	movlw	32
  5416     1E3B  319C  243D  319E   	fcall	_putch
  5417     1E3E  3008               	movlw	8
  5418     1E3F  319C  243D  319E   	fcall	_putch
  5419     1E42                     l3076:
  5420     1E42  3001               	movlw	1
  5421     1E43  02F9               	subwf	cgets@s1,f
  5422     1E44  2E69               	goto	l3096
  5423     1E45                     l3078:
  5424     1E45  3008               	movlw	8
  5425     1E46  319C  243D  319E   	fcall	_putch
  5426     1E49  3020               	movlw	32
  5427     1E4A  319C  243D  319E   	fcall	_putch
  5428     1E4D  3008               	movlw	8
  5429     1E4E  319C  243D  319E   	fcall	_putch
  5430     1E51                     l3080:
  5431     1E51  3001               	movlw	1
  5432     1E52  02F9               	subwf	cgets@s1,f
  5433     1E53                     l3082:
  5434     1E53  0879               	movf	cgets@s1,w
  5435     1E54  0278               	subwf	cgets@s,w
  5436     1E55  1C03               	skipc
  5437     1E56  2E58               	goto	u3351
  5438     1E57  2E59               	goto	u3350
  5439     1E58                     u3351:
  5440     1E58  2E45               	goto	l3078
  5441     1E59                     u3350:
  5442     1E59  2E69               	goto	l3096
  5443     1E5A                     l3084:
  5444     1E5A  0879               	movf	cgets@s1,w
  5445     1E5B  0086               	movwf	6
  5446     1E5C  0187               	clrf	7
  5447     1E5D  0181               	clrf	1
  5448     1E5E                     l3086:
  5449     1E5E  0878               	movf	cgets@s,w
  5450     1E5F  2E85               	goto	l1113
  5451     1E60                     l3090:
  5452     1E60  0879               	movf	cgets@s1,w
  5453     1E61  0086               	movwf	6
  5454     1E62  0187               	clrf	7
  5455     1E63  0876               	movf	cgets@c,w
  5456     1E64  0081               	movwf	1
  5457     1E65                     l3092:
  5458     1E65  3001               	movlw	1
  5459     1E66  00F4               	movwf	??_cgets
  5460     1E67  0874               	movf	??_cgets,w
  5461     1E68  07F9               	addwf	cgets@s1,f
  5462     1E69                     l3096:
  5463     1E69  319C  2447  319E   	fcall	_getche
  5464     1E6C  00F4               	movwf	??_cgets
  5465     1E6D  01F5               	clrf	??_cgets+1
  5466     1E6E  0874               	movf	??_cgets,w
  5467     1E6F  00F6               	movwf	cgets@c
  5468     1E70  0875               	movf	??_cgets+1,w
  5469     1E71  00F7               	movwf	cgets@c+1
  5470                           
  5471                           ; Switch on 2 bytes has been partitioned into a top level switch of size 1, and 1 sub-sw
      +                          itches
  5472                           ; Switch size 1, requested type "simple"
  5473                           ; Number of cases is 1, Range of values is 0 to 0
  5474                           ; switch strategies available:
  5475                           ; Name         Instructions Cycles
  5476                           ; simple_byte            4     3 (average)
  5477                           ; direct_byte            8     6 (fixed)
  5478                           ; jumptable            260     6 (fixed)
  5479                           ;	Chosen strategy is simple_byte
  5480     1E72  0877               	movf	cgets@c+1,w
  5481     1E73  3A00               	xorlw	0	; case 0
  5482     1E74  1903               	skipnz
  5483     1E75  2E77               	goto	l4630
  5484     1E76  2E60               	goto	l3090
  5485     1E77                     l4630:
  5486                           
  5487                           ; Switch size 1, requested type "simple"
  5488                           ; Number of cases is 4, Range of values is 8 to 21
  5489                           ; switch strategies available:
  5490                           ; Name         Instructions Cycles
  5491                           ; simple_byte           13     7 (average)
  5492                           ; direct_byte           37     9 (fixed)
  5493                           ; jumptable            263     9 (fixed)
  5494                           ;	Chosen strategy is simple_byte
  5495     1E77  0876               	movf	cgets@c,w
  5496     1E78  3A08               	xorlw	8	; case 8
  5497     1E79  1903               	skipnz
  5498     1E7A  2E33               	goto	l3070
  5499     1E7B  3A02               	xorlw	2	; case 10
  5500     1E7C  1903               	skipnz
  5501     1E7D  2E5A               	goto	l3084
  5502     1E7E  3A07               	xorlw	7	; case 13
  5503     1E7F  1903               	skipnz
  5504     1E80  2E5A               	goto	l3084
  5505     1E81  3A18               	xorlw	24	; case 21
  5506     1E82  1903               	skipnz
  5507     1E83  2E53               	goto	l3082
  5508     1E84  2E60               	goto	l3090
  5509     1E85                     l1113:
  5510     1E85  0008               	return
  5511     1E86                     __end_of_cgets:
  5512                           
  5513                           	psect	text16
  5514     1C47                     __ptext16:	
  5515 ;; *************** function _getche *****************
  5516 ;; Defined at:
  5517 ;;		line 30 in file "uart.c"
  5518 ;; Parameters:    Size  Location     Type
  5519 ;;		None
  5520 ;; Auto vars:     Size  Location     Type
  5521 ;;  c               1    1[COMMON] unsigned char 
  5522 ;; Return value:  Size  Location     Type
  5523 ;;                  1    wreg      unsigned char 
  5524 ;; Registers used:
  5525 ;;		wreg, status,2, status,0, pclath, cstack
  5526 ;; Tracked objects:
  5527 ;;		On entry : 0/0
  5528 ;;		On exit  : 0/0
  5529 ;;		Unchanged: 0/0
  5530 ;; Data sizes:     COMMON   BANK0   BANK1   BANK2   BANK3   BANK4   BANK5   BANK6   BANK7   BANK8   BANK9  BANK10  BANK1
      +1  BANK12  BANK13  BANK14  BANK15  BANK16  BANK17  BANK18  BANK19  BANK20  BANK21  BANK22  BANK23  BANK24  BANK25
  5531 ;;      Params:         0       0       0       0       0       0       0       0       0       0       0       0       
      +0       0       0       0       0       0       0       0       0       0       0       0       0       0       0
  5532 ;;      Locals:         1       0       0       0       0       0       0       0       0       0       0       0       
      +0       0       0       0       0       0       0       0       0       0       0       0       0       0       0
  5533 ;;      Temps:          0       0       0       0       0       0       0       0       0       0       0       0       
      +0       0       0       0       0       0       0       0       0       0       0       0       0       0       0
  5534 ;;      Totals:         1       0       0       0       0       0       0       0       0       0       0       0       
      +0       0       0       0       0       0       0       0       0       0       0       0       0       0       0
  5535 ;;Total ram usage:        1 bytes
  5536 ;; Hardware stack levels used: 1
  5537 ;; Hardware stack levels required when called: 1
  5538 ;; This function calls:
  5539 ;;		_getch
  5540 ;;		_putch
  5541 ;; This function is called by:
  5542 ;;		_cgets
  5543 ;; This function uses a non-reentrant model
  5544 ;;
  5545                           
  5546     1C47                     _getche:	
  5547                           ;psect for function _getche
  5548                           
  5549     1C47                     l2938:	
  5550                           ;incstack = 0
  5551                           ; Regs used in _getche: [wreg+status,2+status,0+pclath+cstack]
  5552                           
  5553                           
  5554                           ;uart.c: 32: unsigned char c;;uart.c: 34: c = getch();
  5555     1C47  319C  242D  319C   	fcall	_getch
  5556     1C4A  00F1               	movwf	getche@c
  5557     1C4B                     l2940:
  5558                           
  5559                           ;uart.c: 35: putch(c);
  5560     1C4B  0871               	movf	getche@c,w
  5561     1C4C  319C  243D  319C   	fcall	_putch
  5562     1C4F                     l2942:
  5563                           
  5564                           ;uart.c: 37: return c;
  5565     1C4F  0871               	movf	getche@c,w
  5566     1C50                     l407:
  5567     1C50  0008               	return
  5568     1C51                     __end_of_getche:
  5569                           
  5570                           	psect	text17
  5571     1C3D                     __ptext17:	
  5572 ;; *************** function _putch *****************
  5573 ;; Defined at:
  5574 ;;		line 15 in file "uart.c"
  5575 ;; Parameters:    Size  Location     Type
  5576 ;;  byte            1    wreg     unsigned char 
  5577 ;; Auto vars:     Size  Location     Type
  5578 ;;  byte            1    0[COMMON] unsigned char 
  5579 ;; Return value:  Size  Location     Type
  5580 ;;                  1    wreg      void 
  5581 ;; Registers used:
  5582 ;;		wreg
  5583 ;; Tracked objects:
  5584 ;;		On entry : 0/0
  5585 ;;		On exit  : 0/0
  5586 ;;		Unchanged: 0/0
  5587 ;; Data sizes:     COMMON   BANK0   BANK1   BANK2   BANK3   BANK4   BANK5   BANK6   BANK7   BANK8   BANK9  BANK10  BANK1
      +1  BANK12  BANK13  BANK14  BANK15  BANK16  BANK17  BANK18  BANK19  BANK20  BANK21  BANK22  BANK23  BANK24  BANK25
  5588 ;;      Params:         0       0       0       0       0       0       0       0       0       0       0       0       
      +0       0       0       0       0       0       0       0       0       0       0       0       0       0       0
  5589 ;;      Locals:         1       0       0       0       0       0       0       0       0       0       0       0       
      +0       0       0       0       0       0       0       0       0       0       0       0       0       0       0
  5590 ;;      Temps:          0       0       0       0       0       0       0       0       0       0       0       0       
      +0       0       0       0       0       0       0       0       0       0       0       0       0       0       0
  5591 ;;      Totals:         1       0       0       0       0       0       0       0       0       0       0       0       
      +0       0       0       0       0       0       0       0       0       0       0       0       0       0       0
  5592 ;;Total ram usage:        1 bytes
  5593 ;; Hardware stack levels used: 1
  5594 ;; This function calls:
  5595 ;;		Nothing
  5596 ;; This function is called by:
  5597 ;;		_getche
  5598 ;;		_printf
  5599 ;;		_cgets
  5600 ;; This function uses a non-reentrant model
  5601 ;;
  5602                           
  5603     1C3D                     _putch:	
  5604                           ;psect for function _putch
  5605                           
  5606                           
  5607                           ;incstack = 0
  5608                           ; Regs used in _putch: [wreg]
  5609                           ;putch@byte stored from wreg
  5610     1C3D  00F0               	movwf	putch@byte
  5611     1C3E                     l2928:
  5612     1C3E                     l395:	
  5613                           ;uart.c: 17: while(!TXIF){
  5614                           
  5615     1C3E  0020               	movlb	0	; select bank0
  5616     1C3F  1E11               	btfss	17,4	;volatile
  5617     1C40  2C42               	goto	u3041
  5618     1C41  2C43               	goto	u3040
  5619     1C42                     u3041:
  5620     1C42  2C3E               	goto	l395
  5621     1C43                     u3040:
  5622     1C43                     l2930:
  5623                           
  5624                           ;uart.c: 18: };uart.c: 19: TXREG = byte;
  5625     1C43  0870               	movf	putch@byte,w
  5626     1C44  0023               	movlb	3	; select bank3
  5627     1C45  009A               	movwf	26	;volatile
  5628     1C46                     l398:
  5629     1C46  0008               	return
  5630     1C47                     __end_of_putch:
  5631                           
  5632                           	psect	text18
  5633     1C2D                     __ptext18:	
  5634 ;; *************** function _getch *****************
  5635 ;; Defined at:
  5636 ;;		line 22 in file "uart.c"
  5637 ;; Parameters:    Size  Location     Type
  5638 ;;		None
  5639 ;; Auto vars:     Size  Location     Type
  5640 ;;		None
  5641 ;; Return value:  Size  Location     Type
  5642 ;;                  1    wreg      unsigned char 
  5643 ;; Registers used:
  5644 ;;		wreg
  5645 ;; Tracked objects:
  5646 ;;		On entry : 0/0
  5647 ;;		On exit  : 0/0
  5648 ;;		Unchanged: 0/0
  5649 ;; Data sizes:     COMMON   BANK0   BANK1   BANK2   BANK3   BANK4   BANK5   BANK6   BANK7   BANK8   BANK9  BANK10  BANK1
      +1  BANK12  BANK13  BANK14  BANK15  BANK16  BANK17  BANK18  BANK19  BANK20  BANK21  BANK22  BANK23  BANK24  BANK25
  5650 ;;      Params:         0       0       0       0       0       0       0       0       0       0       0       0       
      +0       0       0       0       0       0       0       0       0       0       0       0       0       0       0
  5651 ;;      Locals:         0       0       0       0       0       0       0       0       0       0       0       0       
      +0       0       0       0       0       0       0       0       0       0       0       0       0       0       0
  5652 ;;      Temps:          0       0       0       0       0       0       0       0       0       0       0       0       
      +0       0       0       0       0       0       0       0       0       0       0       0       0       0       0
  5653 ;;      Totals:         0       0       0       0       0       0       0       0       0       0       0       0       
      +0       0       0       0       0       0       0       0       0       0       0       0       0       0       0
  5654 ;;Total ram usage:        0 bytes
  5655 ;; Hardware stack levels used: 1
  5656 ;; This function calls:
  5657 ;;		Nothing
  5658 ;; This function is called by:
  5659 ;;		_getche
  5660 ;; This function uses a non-reentrant model
  5661 ;;
  5662                           
  5663     1C2D                     _getch:	
  5664                           ;psect for function _getch
  5665                           
  5666     1C2D                     l2932:	
  5667                           ;incstack = 0
  5668                           ; Regs used in _getch: [wreg]
  5669                           
  5670     1C2D                     l401:	
  5671                           ;uart.c: 24: while(!RCIF){
  5672                           
  5673     1C2D  0020               	movlb	0	; select bank0
  5674     1C2E  1E91               	btfss	17,5	;volatile
  5675     1C2F  2C31               	goto	u3051
  5676     1C30  2C32               	goto	u3050
  5677     1C31                     u3051:
  5678     1C31  2C2D               	goto	l401
  5679     1C32                     u3050:
  5680     1C32                     l2934:
  5681                           
  5682                           ;uart.c: 25: };uart.c: 27: return RCREG;
  5683     1C32  0023               	movlb	3	; select bank3
  5684     1C33  0819               	movf	25,w	;volatile
  5685     1C34                     l404:
  5686     1C34  0008               	return
  5687     1C35                     __end_of_getch:
  5688                           
  5689                           	psect	text19
  5690     002C                     __ptext19:	
  5691 ;; *************** function _atoi *****************
  5692 ;; Defined at:
  5693 ;;		line 5 in file "C:\Program Files\Microchip\xc8\v2.41\pic\sources\c90\common\atoi.c"
  5694 ;; Parameters:    Size  Location     Type
  5695 ;;  s               1    wreg     PTR const unsigned char 
  5696 ;;		 -> NULL(0), main@tmp(40), 
  5697 ;; Auto vars:     Size  Location     Type
  5698 ;;  s               1    3[BANK0 ] PTR const unsigned char 
  5699 ;;		 -> NULL(0), main@tmp(40), 
  5700 ;;  a               2    1[BANK0 ] int 
  5701 ;;  sign            1    0[BANK0 ] unsigned char 
  5702 ;; Return value:  Size  Location     Type
  5703 ;;                  2    6[COMMON] int 
  5704 ;; Registers used:
  5705 ;;		wreg, fsr1l, fsr1h, status,2, status,0, pclath, cstack
  5706 ;; Tracked objects:
  5707 ;;		On entry : 0/0
  5708 ;;		On exit  : 0/0
  5709 ;;		Unchanged: 0/0
  5710 ;; Data sizes:     COMMON   BANK0   BANK1   BANK2   BANK3   BANK4   BANK5   BANK6   BANK7   BANK8   BANK9  BANK10  BANK1
      +1  BANK12  BANK13  BANK14  BANK15  BANK16  BANK17  BANK18  BANK19  BANK20  BANK21  BANK22  BANK23  BANK24  BANK25
  5711 ;;      Params:         2       0       0       0       0       0       0       0       0       0       0       0       
      +0       0       0       0       0       0       0       0       0       0       0       0       0       0       0
  5712 ;;      Locals:         0       4       0       0       0       0       0       0       0       0       0       0       
      +0       0       0       0       0       0       0       0       0       0       0       0       0       0       0
  5713 ;;      Temps:          4       0       0       0       0       0       0       0       0       0       0       0       
      +0       0       0       0       0       0       0       0       0       0       0       0       0       0       0
  5714 ;;      Totals:         6       4       0       0       0       0       0       0       0       0       0       0       
      +0       0       0       0       0       0       0       0       0       0       0       0       0       0       0
  5715 ;;Total ram usage:       10 bytes
  5716 ;; Hardware stack levels used: 1
  5717 ;; Hardware stack levels required when called: 1
  5718 ;; This function calls:
  5719 ;;		___wmul
  5720 ;;		_isdigit
  5721 ;; This function is called by:
  5722 ;;		_main
  5723 ;; This function uses a non-reentrant model
  5724 ;;
  5725                           
  5726     002C                     _atoi:	
  5727                           ;psect for function _atoi
  5728                           
  5729                           
  5730                           ;incstack = 0
  5731                           ; Regs used in _atoi: [wreg+fsr1l+fsr1h+status,2+status,0+pclath+cstack]
  5732                           ;atoi@s stored from wreg
  5733     002C  0020               	movlb	0	; select bank0
  5734     002D  00A3               	movwf	atoi@s
  5735     002E                     l3206:
  5736     002E  2833               	goto	l3210
  5737     002F                     l3208:
  5738     002F  3001               	movlw	1
  5739     0030  00F8               	movwf	??_atoi
  5740     0031  0878               	movf	??_atoi,w
  5741     0032  07A3               	addwf	atoi@s,f
  5742     0033                     l3210:
  5743     0033  0823               	movf	atoi@s,w
  5744     0034  0086               	movwf	6
  5745     0035  0187               	clrf	7
  5746     0036  3020               	movlw	32
  5747     0037  0601               	xorwf	1,w
  5748     0038  1903               	btfsc	3,2
  5749     0039  283B               	goto	u3491
  5750     003A  283C               	goto	u3490
  5751     003B                     u3491:
  5752     003B  282F               	goto	l3208
  5753     003C                     u3490:
  5754     003C                     l3212:
  5755     003C  0823               	movf	atoi@s,w
  5756     003D  0086               	movwf	6
  5757     003E  0187               	clrf	7
  5758     003F  3009               	movlw	9
  5759     0040  0601               	xorwf	1,w
  5760     0041  1903               	btfsc	3,2
  5761     0042  2844               	goto	u3501
  5762     0043  2845               	goto	u3500
  5763     0044                     u3501:
  5764     0044  282F               	goto	l3208
  5765     0045                     u3500:
  5766     0045                     l3214:
  5767     0045  01A1               	clrf	atoi@a
  5768     0046  01A2               	clrf	atoi@a+1
  5769     0047  01A0               	clrf	atoi@sign
  5770     0048                     l3216:
  5771     0048  0823               	movf	atoi@s,w
  5772     0049  0086               	movwf	6
  5773     004A  0187               	clrf	7
  5774     004B  302D               	movlw	45
  5775     004C  0601               	xorwf	1,w
  5776     004D  1D03               	btfss	3,2
  5777     004E  2850               	goto	u3511
  5778     004F  2851               	goto	u3510
  5779     0050                     u3511:
  5780     0050  285A               	goto	l3220
  5781     0051                     u3510:
  5782     0051                     l3218:
  5783     0051  3001               	movlw	1
  5784     0052  00F8               	movwf	??_atoi
  5785     0053  0878               	movf	??_atoi,w
  5786     0054  07A0               	addwf	atoi@sign,f
  5787     0055  3001               	movlw	1
  5788     0056  00F8               	movwf	??_atoi
  5789     0057  0878               	movf	??_atoi,w
  5790     0058  07A3               	addwf	atoi@s,f
  5791     0059  2888               	goto	l3228
  5792     005A                     l3220:
  5793     005A  0823               	movf	atoi@s,w
  5794     005B  0086               	movwf	6
  5795     005C  0187               	clrf	7
  5796     005D  302B               	movlw	43
  5797     005E  0601               	xorwf	1,w
  5798     005F  1D03               	btfss	3,2
  5799     0060  2862               	goto	u3521
  5800     0061  2863               	goto	u3520
  5801     0062                     u3521:
  5802     0062  2888               	goto	l3228
  5803     0063                     u3520:
  5804     0063                     l3222:
  5805     0063  3001               	movlw	1
  5806     0064  00F8               	movwf	??_atoi
  5807     0065  0878               	movf	??_atoi,w
  5808     0066  07A3               	addwf	atoi@s,f
  5809     0067  2888               	goto	l3228
  5810     0068                     l3224:
  5811     0068  0020               	movlb	0	; select bank0
  5812     0069  0823               	movf	atoi@s,w
  5813     006A  0086               	movwf	6
  5814     006B  0187               	clrf	7
  5815     006C  0801               	movf	1,w
  5816     006D  00F8               	movwf	??_atoi
  5817     006E  01F9               	clrf	??_atoi+1
  5818     006F  0822               	movf	atoi@a+1,w
  5819     0070  00F1               	movwf	___wmul@multiplier+1
  5820     0071  0821               	movf	atoi@a,w
  5821     0072  00F0               	movwf	___wmul@multiplier
  5822     0073  300A               	movlw	10
  5823     0074  00F2               	movwf	___wmul@multiplicand
  5824     0075  3000               	movlw	0
  5825     0076  00F3               	movwf	___wmul@multiplicand+1
  5826     0077  319C  24AB  3180   	fcall	___wmul
  5827     007A  0878               	movf	??_atoi,w
  5828     007B  0770               	addwf	?___wmul,w
  5829     007C  00FA               	movwf	??_atoi+2
  5830     007D  0879               	movf	??_atoi+1,w
  5831     007E  3D71               	addwfc	?___wmul+1,w
  5832     007F  00FB               	movwf	??_atoi+3
  5833     0080  087A               	movf	??_atoi+2,w
  5834     0081  3ED0               	addlw	208
  5835     0082  0020               	movlb	0	; select bank0
  5836     0083  00A1               	movwf	atoi@a
  5837     0084  30FF               	movlw	255
  5838     0085  3D7B               	addwfc	??_atoi+3,w
  5839     0086  00A2               	movwf	atoi@a+1
  5840     0087  2863               	goto	l3222
  5841     0088                     l3228:
  5842     0088  0823               	movf	atoi@s,w
  5843     0089  0086               	movwf	6
  5844     008A  0187               	clrf	7
  5845     008B  0801               	movf	1,w
  5846     008C  319C  2451  3180   	fcall	_isdigit
  5847     008F  1803               	btfsc	3,0
  5848     0090  2892               	goto	u3531
  5849     0091  2893               	goto	u3530
  5850     0092                     u3531:
  5851     0092  2868               	goto	l3224
  5852     0093                     u3530:
  5853     0093                     l3230:
  5854     0093  0020               	movlb	0	; select bank0
  5855     0094  0820               	movf	atoi@sign,w
  5856     0095  1903               	btfsc	3,2
  5857     0096  2898               	goto	u3541
  5858     0097  2899               	goto	u3540
  5859     0098                     u3541:
  5860     0098  28A5               	goto	l3236
  5861     0099                     u3540:
  5862     0099                     l3232:
  5863     0099  0921               	comf	atoi@a,w
  5864     009A  00F8               	movwf	??_atoi
  5865     009B  0922               	comf	atoi@a+1,w
  5866     009C  00F9               	movwf	??_atoi+1
  5867     009D  0AF8               	incf	??_atoi,f
  5868     009E  1903               	skipnz
  5869     009F  0AF9               	incf	??_atoi+1,f
  5870     00A0  0878               	movf	??_atoi,w
  5871     00A1  00F6               	movwf	?_atoi
  5872     00A2  0879               	movf	??_atoi+1,w
  5873     00A3  00F7               	movwf	?_atoi+1
  5874     00A4  28A9               	goto	l1090
  5875     00A5                     l3236:
  5876     00A5  0822               	movf	atoi@a+1,w
  5877     00A6  00F7               	movwf	?_atoi+1
  5878     00A7  0821               	movf	atoi@a,w
  5879     00A8  00F6               	movwf	?_atoi
  5880     00A9                     l1090:
  5881     00A9  0008               	return
  5882     00AA                     __end_of_atoi:
  5883                           
  5884                           	psect	text20
  5885     1C51                     __ptext20:	
  5886 ;; *************** function _isdigit *****************
  5887 ;; Defined at:
  5888 ;;		line 8 in file "C:\Program Files\Microchip\xc8\v2.41\pic\sources\c90\common\isdigit.c"
  5889 ;; Parameters:    Size  Location     Type
  5890 ;;  c               1    wreg     unsigned char 
  5891 ;; Auto vars:     Size  Location     Type
  5892 ;;  c               1    1[COMMON] unsigned char 
  5893 ;; Return value:  Size  Location     Type
  5894 ;;		None               void
  5895 ;; Registers used:
  5896 ;;		wreg, status,2, status,0
  5897 ;; Tracked objects:
  5898 ;;		On entry : 0/0
  5899 ;;		On exit  : 0/0
  5900 ;;		Unchanged: 0/0
  5901 ;; Data sizes:     COMMON   BANK0   BANK1   BANK2   BANK3   BANK4   BANK5   BANK6   BANK7   BANK8   BANK9  BANK10  BANK1
      +1  BANK12  BANK13  BANK14  BANK15  BANK16  BANK17  BANK18  BANK19  BANK20  BANK21  BANK22  BANK23  BANK24  BANK25
  5902 ;;      Params:         0       0       0       0       0       0       0       0       0       0       0       0       
      +0       0       0       0       0       0       0       0       0       0       0       0       0       0       0
  5903 ;;      Locals:         2       0       0       0       0       0       0       0       0       0       0       0       
      +0       0       0       0       0       0       0       0       0       0       0       0       0       0       0
  5904 ;;      Temps:          0       0       0       0       0       0       0       0       0       0       0       0       
      +0       0       0       0       0       0       0       0       0       0       0       0       0       0       0
  5905 ;;      Totals:         2       0       0       0       0       0       0       0       0       0       0       0       
      +0       0       0       0       0       0       0       0       0       0       0       0       0       0       0
  5906 ;;Total ram usage:        2 bytes
  5907 ;; Hardware stack levels used: 1
  5908 ;; This function calls:
  5909 ;;		Nothing
  5910 ;; This function is called by:
  5911 ;;		_atoi
  5912 ;; This function uses a non-reentrant model
  5913 ;;
  5914                           
  5915     1C51                     _isdigit:	
  5916                           ;psect for function _isdigit
  5917                           
  5918                           
  5919                           ;incstack = 0
  5920                           ; Regs used in _isdigit: [wreg+status,2+status,0]
  5921                           ;isdigit@c stored from wreg
  5922     1C51  00F1               	movwf	isdigit@c
  5923     1C52                     l3056:
  5924     1C52  01F0               	clrf	_isdigit$906
  5925     1C53                     l3058:
  5926     1C53  303A               	movlw	58
  5927     1C54  0271               	subwf	isdigit@c,w
  5928     1C55  1803               	skipnc
  5929     1C56  2C58               	goto	u3321
  5930     1C57  2C59               	goto	u3320
  5931     1C58                     u3321:
  5932     1C58  2C61               	goto	l3064
  5933     1C59                     u3320:
  5934     1C59                     l3060:
  5935     1C59  3030               	movlw	48
  5936     1C5A  0271               	subwf	isdigit@c,w
  5937     1C5B  1C03               	skipc
  5938     1C5C  2C5E               	goto	u3331
  5939     1C5D  2C5F               	goto	u3330
  5940     1C5E                     u3331:
  5941     1C5E  2C61               	goto	l3064
  5942     1C5F                     u3330:
  5943     1C5F                     l3062:
  5944     1C5F  01F0               	clrf	_isdigit$906
  5945     1C60  0AF0               	incf	_isdigit$906,f
  5946     1C61                     l3064:
  5947     1C61  0C70               	rrf	_isdigit$906,w
  5948     1C62                     l1120:
  5949     1C62  0008               	return
  5950     1C63                     __end_of_isdigit:
  5951                           
  5952                           	psect	text21
  5953     1CAB                     __ptext21:	
  5954 ;; *************** function ___wmul *****************
  5955 ;; Defined at:
  5956 ;;		line 15 in file "C:\Program Files\Microchip\xc8\v2.41\pic\sources\c90\common\Umul16.c"
  5957 ;; Parameters:    Size  Location     Type
  5958 ;;  multiplier      2    0[COMMON] unsigned int 
  5959 ;;  multiplicand    2    2[COMMON] unsigned int 
  5960 ;; Auto vars:     Size  Location     Type
  5961 ;;  product         2    4[COMMON] unsigned int 
  5962 ;; Return value:  Size  Location     Type
  5963 ;;                  2    0[COMMON] unsigned int 
  5964 ;; Registers used:
  5965 ;;		wreg, status,2, status,0
  5966 ;; Tracked objects:
  5967 ;;		On entry : 0/0
  5968 ;;		On exit  : 0/0
  5969 ;;		Unchanged: 0/0
  5970 ;; Data sizes:     COMMON   BANK0   BANK1   BANK2   BANK3   BANK4   BANK5   BANK6   BANK7   BANK8   BANK9  BANK10  BANK1
      +1  BANK12  BANK13  BANK14  BANK15  BANK16  BANK17  BANK18  BANK19  BANK20  BANK21  BANK22  BANK23  BANK24  BANK25
  5971 ;;      Params:         4       0       0       0       0       0       0       0       0       0       0       0       
      +0       0       0       0       0       0       0       0       0       0       0       0       0       0       0
  5972 ;;      Locals:         2       0       0       0       0       0       0       0       0       0       0       0       
      +0       0       0       0       0       0       0       0       0       0       0       0       0       0       0
  5973 ;;      Temps:          0       0       0       0       0       0       0       0       0       0       0       0       
      +0       0       0       0       0       0       0       0       0       0       0       0       0       0       0
  5974 ;;      Totals:         6       0       0       0       0       0       0       0       0       0       0       0       
      +0       0       0       0       0       0       0       0       0       0       0       0       0       0       0
  5975 ;;Total ram usage:        6 bytes
  5976 ;; Hardware stack levels used: 1
  5977 ;; This function calls:
  5978 ;;		Nothing
  5979 ;; This function is called by:
  5980 ;;		_main
  5981 ;;		_atoi
  5982 ;; This function uses a non-reentrant model
  5983 ;;
  5984                           
  5985     1CAB                     ___wmul:	
  5986                           ;psect for function ___wmul
  5987                           
  5988     1CAB                     l2980:	
  5989                           ;incstack = 0
  5990                           ; Regs used in ___wmul: [wreg+status,2+status,0]
  5991                           
  5992     1CAB  01F4               	clrf	___wmul@product
  5993     1CAC  01F5               	clrf	___wmul@product+1
  5994     1CAD                     l2982:
  5995     1CAD  1C70               	btfss	___wmul@multiplier,0
  5996     1CAE  2CB0               	goto	u3121
  5997     1CAF  2CB1               	goto	u3120
  5998     1CB0                     u3121:
  5999     1CB0  2CB5               	goto	l627
  6000     1CB1                     u3120:
  6001     1CB1                     l2984:
  6002     1CB1  0872               	movf	___wmul@multiplicand,w
  6003     1CB2  07F4               	addwf	___wmul@product,f
  6004     1CB3  0873               	movf	___wmul@multiplicand+1,w
  6005     1CB4  3DF5               	addwfc	___wmul@product+1,f
  6006     1CB5                     l627:
  6007     1CB5  3001               	movlw	1
  6008     1CB6                     u3135:
  6009     1CB6  35F2               	lslf	___wmul@multiplicand,f
  6010     1CB7  0DF3               	rlf	___wmul@multiplicand+1,f
  6011     1CB8  0B89               	decfsz	9,f
  6012     1CB9  2CB6               	goto	u3135
  6013     1CBA                     l2986:
  6014     1CBA  3001               	movlw	1
  6015     1CBB                     u3145:
  6016     1CBB  36F1               	lsrf	___wmul@multiplier+1,f
  6017     1CBC  0CF0               	rrf	___wmul@multiplier,f
  6018     1CBD  0B89               	decfsz	9,f
  6019     1CBE  2CBB               	goto	u3145
  6020     1CBF                     l2988:
  6021     1CBF  0870               	movf	___wmul@multiplier,w
  6022     1CC0  0471               	iorwf	___wmul@multiplier+1,w
  6023     1CC1  1D03               	btfss	3,2
  6024     1CC2  2CC4               	goto	u3151
  6025     1CC3  2CC5               	goto	u3150
  6026     1CC4                     u3151:
  6027     1CC4  2CAD               	goto	l2982
  6028     1CC5                     u3150:
  6029     1CC5                     l2990:
  6030     1CC5  0875               	movf	___wmul@product+1,w
  6031     1CC6  00F1               	movwf	?___wmul+1
  6032     1CC7  0874               	movf	___wmul@product,w
  6033     1CC8  00F0               	movwf	?___wmul
  6034     1CC9                     l629:
  6035     1CC9  0008               	return
  6036     1CCA                     __end_of___wmul:
  6037                           
  6038                           	psect	text22
  6039     1F56                     __ptext22:	
  6040 ;; *************** function ___xxtofl *****************
  6041 ;; Defined at:
  6042 ;;		line 10 in file "C:\Program Files\Microchip\xc8\v2.41\pic\sources\c90\common\xxtofl.c"
  6043 ;; Parameters:    Size  Location     Type
  6044 ;;  sign            1    wreg     unsigned char 
  6045 ;;  val             4    0[COMMON] long 
  6046 ;; Auto vars:     Size  Location     Type
  6047 ;;  sign            1    8[COMMON] unsigned char 
  6048 ;;  arg             4   10[COMMON] unsigned long 
  6049 ;;  exp             1    9[COMMON] unsigned char 
  6050 ;; Return value:  Size  Location     Type
  6051 ;;                  4    0[COMMON] unsigned char 
  6052 ;; Registers used:
  6053 ;;		wreg, status,2, status,0
  6054 ;; Tracked objects:
  6055 ;;		On entry : 0/0
  6056 ;;		On exit  : 0/0
  6057 ;;		Unchanged: 0/0
  6058 ;; Data sizes:     COMMON   BANK0   BANK1   BANK2   BANK3   BANK4   BANK5   BANK6   BANK7   BANK8   BANK9  BANK10  BANK1
      +1  BANK12  BANK13  BANK14  BANK15  BANK16  BANK17  BANK18  BANK19  BANK20  BANK21  BANK22  BANK23  BANK24  BANK25
  6059 ;;      Params:         4       0       0       0       0       0       0       0       0       0       0       0       
      +0       0       0       0       0       0       0       0       0       0       0       0       0       0       0
  6060 ;;      Locals:         6       0       0       0       0       0       0       0       0       0       0       0       
      +0       0       0       0       0       0       0       0       0       0       0       0       0       0       0
  6061 ;;      Temps:          4       0       0       0       0       0       0       0       0       0       0       0       
      +0       0       0       0       0       0       0       0       0       0       0       0       0       0       0
  6062 ;;      Totals:        14       0       0       0       0       0       0       0       0       0       0       0       
      +0       0       0       0       0       0       0       0       0       0       0       0       0       0       0
  6063 ;;Total ram usage:       14 bytes
  6064 ;; Hardware stack levels used: 1
  6065 ;; This function calls:
  6066 ;;		Nothing
  6067 ;; This function is called by:
  6068 ;;		_main
  6069 ;; This function uses a non-reentrant model
  6070 ;;
  6071                           
  6072     1F56                     ___xxtofl:	
  6073                           ;psect for function ___xxtofl
  6074                           
  6075                           
  6076                           ;incstack = 0
  6077                           ; Regs used in ___xxtofl: [wreg+status,2+status,0]
  6078                           ;___xxtofl@sign stored from wreg
  6079     1F56  00F8               	movwf	___xxtofl@sign
  6080     1F57                     l3846:
  6081     1F57  0878               	movf	___xxtofl@sign,w
  6082     1F58  1903               	btfsc	3,2
  6083     1F59  2F5B               	goto	u4811
  6084     1F5A  2F5C               	goto	u4810
  6085     1F5B                     u4811:
  6086     1F5B  2F70               	goto	l3852
  6087     1F5C                     u4810:
  6088     1F5C                     l3848:
  6089     1F5C  1FF3               	btfss	___xxtofl@val+3,7
  6090     1F5D  2F5F               	goto	u4821
  6091     1F5E  2F60               	goto	u4820
  6092     1F5F                     u4821:
  6093     1F5F  2F70               	goto	l3852
  6094     1F60                     u4820:
  6095     1F60                     l3850:
  6096     1F60  0970               	comf	___xxtofl@val,w
  6097     1F61  00FA               	movwf	___xxtofl@arg
  6098     1F62  0971               	comf	___xxtofl@val+1,w
  6099     1F63  00FB               	movwf	___xxtofl@arg+1
  6100     1F64  0972               	comf	___xxtofl@val+2,w
  6101     1F65  00FC               	movwf	___xxtofl@arg+2
  6102     1F66  0973               	comf	___xxtofl@val+3,w
  6103     1F67  00FD               	movwf	___xxtofl@arg+3
  6104     1F68  0AFA               	incf	___xxtofl@arg,f
  6105     1F69  1903               	skipnz
  6106     1F6A  0AFB               	incf	___xxtofl@arg+1,f
  6107     1F6B  1903               	skipnz
  6108     1F6C  0AFC               	incf	___xxtofl@arg+2,f
  6109     1F6D  1903               	skipnz
  6110     1F6E  0AFD               	incf	___xxtofl@arg+3,f
  6111     1F6F  2F78               	goto	l1060
  6112     1F70                     l3852:
  6113     1F70  0873               	movf	___xxtofl@val+3,w
  6114     1F71  00FD               	movwf	___xxtofl@arg+3
  6115     1F72  0872               	movf	___xxtofl@val+2,w
  6116     1F73  00FC               	movwf	___xxtofl@arg+2
  6117     1F74  0871               	movf	___xxtofl@val+1,w
  6118     1F75  00FB               	movwf	___xxtofl@arg+1
  6119     1F76  0870               	movf	___xxtofl@val,w
  6120     1F77  00FA               	movwf	___xxtofl@arg
  6121     1F78                     l1060:
  6122     1F78  0873               	movf	___xxtofl@val+3,w
  6123     1F79  0472               	iorwf	___xxtofl@val+2,w
  6124     1F7A  0471               	iorwf	___xxtofl@val+1,w
  6125     1F7B  0470               	iorwf	___xxtofl@val,w
  6126     1F7C  1D03               	skipz
  6127     1F7D  2F7F               	goto	u4831
  6128     1F7E  2F80               	goto	u4830
  6129     1F7F                     u4831:
  6130     1F7F  2F89               	goto	l3858
  6131     1F80                     u4830:
  6132     1F80                     l3854:
  6133     1F80  3000               	movlw	0
  6134     1F81  00F3               	movwf	?___xxtofl+3
  6135     1F82  3000               	movlw	0
  6136     1F83  00F2               	movwf	?___xxtofl+2
  6137     1F84  3000               	movlw	0
  6138     1F85  00F1               	movwf	?___xxtofl+1
  6139     1F86  3000               	movlw	0
  6140     1F87  00F0               	movwf	?___xxtofl
  6141     1F88  2FFF               	goto	l1062
  6142     1F89                     l3858:
  6143     1F89  3096               	movlw	150
  6144     1F8A  00F9               	movwf	___xxtofl@exp
  6145     1F8B  2F97               	goto	l3862
  6146     1F8C                     l3860:
  6147     1F8C  3001               	movlw	1
  6148     1F8D  00F4               	movwf	??___xxtofl
  6149     1F8E  0874               	movf	??___xxtofl,w
  6150     1F8F  07F9               	addwf	___xxtofl@exp,f
  6151     1F90  3001               	movlw	1
  6152     1F91                     u4845:
  6153     1F91  36FD               	lsrf	___xxtofl@arg+3,f
  6154     1F92  0CFC               	rrf	___xxtofl@arg+2,f
  6155     1F93  0CFB               	rrf	___xxtofl@arg+1,f
  6156     1F94  0CFA               	rrf	___xxtofl@arg,f
  6157     1F95  0B89               	decfsz	9,f
  6158     1F96  2F91               	goto	u4845
  6159     1F97                     l3862:
  6160     1F97  30FE               	movlw	254
  6161     1F98  057D               	andwf	___xxtofl@arg+3,w
  6162     1F99  1D03               	btfss	3,2
  6163     1F9A  2F9C               	goto	u4851
  6164     1F9B  2F9D               	goto	u4850
  6165     1F9C                     u4851:
  6166     1F9C  2F8C               	goto	l3860
  6167     1F9D                     u4850:
  6168     1F9D  2FB1               	goto	l1066
  6169     1F9E                     l3864:
  6170     1F9E  3001               	movlw	1
  6171     1F9F  00F4               	movwf	??___xxtofl
  6172     1FA0  0874               	movf	??___xxtofl,w
  6173     1FA1  07F9               	addwf	___xxtofl@exp,f
  6174     1FA2                     l3866:
  6175     1FA2  3001               	movlw	1
  6176     1FA3  07FA               	addwf	___xxtofl@arg,f
  6177     1FA4  3000               	movlw	0
  6178     1FA5  3DFB               	addwfc	___xxtofl@arg+1,f
  6179     1FA6  3000               	movlw	0
  6180     1FA7  3DFC               	addwfc	___xxtofl@arg+2,f
  6181     1FA8  3000               	movlw	0
  6182     1FA9  3DFD               	addwfc	___xxtofl@arg+3,f
  6183     1FAA                     l3868:
  6184     1FAA  3001               	movlw	1
  6185     1FAB                     u4865:
  6186     1FAB  36FD               	lsrf	___xxtofl@arg+3,f
  6187     1FAC  0CFC               	rrf	___xxtofl@arg+2,f
  6188     1FAD  0CFB               	rrf	___xxtofl@arg+1,f
  6189     1FAE  0CFA               	rrf	___xxtofl@arg,f
  6190     1FAF  0B89               	decfsz	9,f
  6191     1FB0  2FAB               	goto	u4865
  6192     1FB1                     l1066:
  6193     1FB1  30FF               	movlw	255
  6194     1FB2  057D               	andwf	___xxtofl@arg+3,w
  6195     1FB3  1D03               	btfss	3,2
  6196     1FB4  2FB6               	goto	u4871
  6197     1FB5  2FB7               	goto	u4870
  6198     1FB6                     u4871:
  6199     1FB6  2F9E               	goto	l3864
  6200     1FB7                     u4870:
  6201     1FB7  2FC1               	goto	l3872
  6202     1FB8                     l3870:
  6203     1FB8  3001               	movlw	1
  6204     1FB9  02F9               	subwf	___xxtofl@exp,f
  6205     1FBA  3001               	movlw	1
  6206     1FBB                     u4885:
  6207     1FBB  35FA               	lslf	___xxtofl@arg,f
  6208     1FBC  0DFB               	rlf	___xxtofl@arg+1,f
  6209     1FBD  0DFC               	rlf	___xxtofl@arg+2,f
  6210     1FBE  0DFD               	rlf	___xxtofl@arg+3,f
  6211     1FBF  0B89               	decfsz	9,f
  6212     1FC0  2FBB               	goto	u4885
  6213     1FC1                     l3872:
  6214     1FC1  1BFC               	btfsc	___xxtofl@arg+2,7
  6215     1FC2  2FC4               	goto	u4891
  6216     1FC3  2FC5               	goto	u4890
  6217     1FC4                     u4891:
  6218     1FC4  2FCB               	goto	l1073
  6219     1FC5                     u4890:
  6220     1FC5                     l3874:
  6221     1FC5  3002               	movlw	2
  6222     1FC6  0279               	subwf	___xxtofl@exp,w
  6223     1FC7  1803               	skipnc
  6224     1FC8  2FCA               	goto	u4901
  6225     1FC9  2FCB               	goto	u4900
  6226     1FCA                     u4901:
  6227     1FCA  2FB8               	goto	l3870
  6228     1FCB                     u4900:
  6229     1FCB                     l1073:
  6230     1FCB  1879               	btfsc	___xxtofl@exp,0
  6231     1FCC  2FCE               	goto	u4911
  6232     1FCD  2FCF               	goto	u4910
  6233     1FCE                     u4911:
  6234     1FCE  2FD7               	goto	l1074
  6235     1FCF                     u4910:
  6236     1FCF                     l3876:
  6237     1FCF  30FF               	movlw	255
  6238     1FD0  05FA               	andwf	___xxtofl@arg,f
  6239     1FD1  30FF               	movlw	255
  6240     1FD2  05FB               	andwf	___xxtofl@arg+1,f
  6241     1FD3  307F               	movlw	127
  6242     1FD4  05FC               	andwf	___xxtofl@arg+2,f
  6243     1FD5  30FF               	movlw	255
  6244     1FD6  05FD               	andwf	___xxtofl@arg+3,f
  6245     1FD7                     l1074:
  6246     1FD7  1003               	clrc
  6247     1FD8  0CF9               	rrf	___xxtofl@exp,f
  6248     1FD9                     l3878:
  6249     1FD9  0879               	movf	___xxtofl@exp,w
  6250     1FDA  00F4               	movwf	??___xxtofl
  6251     1FDB  01F5               	clrf	??___xxtofl+1
  6252     1FDC  01F6               	clrf	??___xxtofl+2
  6253     1FDD  01F7               	clrf	??___xxtofl+3
  6254     1FDE  3018               	movlw	24
  6255     1FDF                     u4925:
  6256     1FDF  35F4               	lslf	??___xxtofl,f
  6257     1FE0  0DF5               	rlf	??___xxtofl+1,f
  6258     1FE1  0DF6               	rlf	??___xxtofl+2,f
  6259     1FE2  0DF7               	rlf	??___xxtofl+3,f
  6260     1FE3                     u4920:
  6261     1FE3  0B89               	decfsz	9,f
  6262     1FE4  2FDF               	goto	u4925
  6263     1FE5  0874               	movf	??___xxtofl,w
  6264     1FE6  04FA               	iorwf	___xxtofl@arg,f
  6265     1FE7  0875               	movf	??___xxtofl+1,w
  6266     1FE8  04FB               	iorwf	___xxtofl@arg+1,f
  6267     1FE9  0876               	movf	??___xxtofl+2,w
  6268     1FEA  04FC               	iorwf	___xxtofl@arg+2,f
  6269     1FEB  0877               	movf	??___xxtofl+3,w
  6270     1FEC  04FD               	iorwf	___xxtofl@arg+3,f
  6271     1FED                     l3880:
  6272     1FED  0878               	movf	___xxtofl@sign,w
  6273     1FEE  1903               	btfsc	3,2
  6274     1FEF  2FF1               	goto	u4931
  6275     1FF0  2FF2               	goto	u4930
  6276     1FF1                     u4931:
  6277     1FF1  2FF7               	goto	l3886
  6278     1FF2                     u4930:
  6279     1FF2                     l3882:
  6280     1FF2  1FF3               	btfss	___xxtofl@val+3,7
  6281     1FF3  2FF5               	goto	u4941
  6282     1FF4  2FF6               	goto	u4940
  6283     1FF5                     u4941:
  6284     1FF5  2FF7               	goto	l3886
  6285     1FF6                     u4940:
  6286     1FF6                     l3884:
  6287     1FF6  17FD               	bsf	___xxtofl@arg+3,7
  6288     1FF7                     l3886:
  6289     1FF7  087D               	movf	___xxtofl@arg+3,w
  6290     1FF8  00F3               	movwf	?___xxtofl+3
  6291     1FF9  087C               	movf	___xxtofl@arg+2,w
  6292     1FFA  00F2               	movwf	?___xxtofl+2
  6293     1FFB  087B               	movf	___xxtofl@arg+1,w
  6294     1FFC  00F1               	movwf	?___xxtofl+1
  6295     1FFD  087A               	movf	___xxtofl@arg,w
  6296     1FFE  00F0               	movwf	?___xxtofl
  6297     1FFF                     l1062:
  6298     1FFF  0008               	return
  6299     2000                     __end_of___xxtofl:
  6300                           
  6301                           	psect	text23
  6302     1EE5                     __ptext23:	
  6303 ;; *************** function ___fltol *****************
  6304 ;; Defined at:
  6305 ;;		line 43 in file "C:\Program Files\Microchip\xc8\v2.41\pic\sources\c90\common\fltol.c"
  6306 ;; Parameters:    Size  Location     Type
  6307 ;;  f1              4   26[BANK0 ] unsigned char 
  6308 ;; Auto vars:     Size  Location     Type
  6309 ;;  exp1            1   35[BANK0 ] unsigned char 
  6310 ;;  sign1           1   34[BANK0 ] unsigned char 
  6311 ;; Return value:  Size  Location     Type
  6312 ;;                  4   26[BANK0 ] long 
  6313 ;; Registers used:
  6314 ;;		wreg, status,2, status,0
  6315 ;; Tracked objects:
  6316 ;;		On entry : 0/0
  6317 ;;		On exit  : 0/0
  6318 ;;		Unchanged: 0/0
  6319 ;; Data sizes:     COMMON   BANK0   BANK1   BANK2   BANK3   BANK4   BANK5   BANK6   BANK7   BANK8   BANK9  BANK10  BANK1
      +1  BANK12  BANK13  BANK14  BANK15  BANK16  BANK17  BANK18  BANK19  BANK20  BANK21  BANK22  BANK23  BANK24  BANK25
  6320 ;;      Params:         0       4       0       0       0       0       0       0       0       0       0       0       
      +0       0       0       0       0       0       0       0       0       0       0       0       0       0       0
  6321 ;;      Locals:         0       2       0       0       0       0       0       0       0       0       0       0       
      +0       0       0       0       0       0       0       0       0       0       0       0       0       0       0
  6322 ;;      Temps:          0       4       0       0       0       0       0       0       0       0       0       0       
      +0       0       0       0       0       0       0       0       0       0       0       0       0       0       0
  6323 ;;      Totals:         0      10       0       0       0       0       0       0       0       0       0       0       
      +0       0       0       0       0       0       0       0       0       0       0       0       0       0       0
  6324 ;;Total ram usage:       10 bytes
  6325 ;; Hardware stack levels used: 1
  6326 ;; This function calls:
  6327 ;;		Nothing
  6328 ;; This function is called by:
  6329 ;;		_main
  6330 ;; This function uses a non-reentrant model
  6331 ;;
  6332                           
  6333     1EE5                     ___fltol:	
  6334                           ;psect for function ___fltol
  6335                           
  6336     1EE5                     l3336:	
  6337                           ;incstack = 0
  6338                           ; Regs used in ___fltol: [wreg+status,2+status,0]
  6339                           
  6340     1EE5  1003               	clrc
  6341     1EE6  0020               	movlb	0	; select bank0
  6342     1EE7  0D3C               	rlf	___fltol@f1+2,w
  6343     1EE8  0D3D               	rlf	___fltol@f1+3,w
  6344     1EE9  00C3               	movwf	___fltol@exp1
  6345     1EEA  0843               	movf	___fltol@exp1,w
  6346     1EEB  1D03               	btfss	3,2
  6347     1EEC  2EEE               	goto	u3731
  6348     1EED  2EEF               	goto	u3730
  6349     1EEE                     u3731:
  6350     1EEE  2EF8               	goto	l3342
  6351     1EEF                     u3730:
  6352     1EEF                     l3338:
  6353     1EEF  3000               	movlw	0
  6354     1EF0  00BD               	movwf	?___fltol+3
  6355     1EF1  3000               	movlw	0
  6356     1EF2  00BC               	movwf	?___fltol+2
  6357     1EF3  3000               	movlw	0
  6358     1EF4  00BB               	movwf	?___fltol+1
  6359     1EF5  3000               	movlw	0
  6360     1EF6  00BA               	movwf	?___fltol
  6361     1EF7  2F55               	goto	l813
  6362     1EF8                     l3342:
  6363     1EF8  083A               	movf	___fltol@f1,w
  6364     1EF9  00BE               	movwf	??___fltol
  6365     1EFA  083B               	movf	___fltol@f1+1,w
  6366     1EFB  00BF               	movwf	??___fltol+1
  6367     1EFC  083C               	movf	___fltol@f1+2,w
  6368     1EFD  00C0               	movwf	??___fltol+2
  6369     1EFE  083D               	movf	___fltol@f1+3,w
  6370     1EFF  00C1               	movwf	??___fltol+3
  6371     1F00  301F               	movlw	31
  6372     1F01                     u3745:
  6373     1F01  36C1               	lsrf	??___fltol+3,f
  6374     1F02  0CC0               	rrf	??___fltol+2,f
  6375     1F03  0CBF               	rrf	??___fltol+1,f
  6376     1F04  0CBE               	rrf	??___fltol,f
  6377     1F05                     u3740:
  6378     1F05  0B89               	decfsz	9,f
  6379     1F06  2F01               	goto	u3745
  6380     1F07  083E               	movf	??___fltol,w
  6381     1F08  00C2               	movwf	___fltol@sign1
  6382     1F09                     l3344:
  6383     1F09  17BC               	bsf	___fltol@f1+2,7
  6384     1F0A                     l3346:
  6385     1F0A  30FF               	movlw	255
  6386     1F0B  05BA               	andwf	___fltol@f1,f
  6387     1F0C  30FF               	movlw	255
  6388     1F0D  05BB               	andwf	___fltol@f1+1,f
  6389     1F0E  30FF               	movlw	255
  6390     1F0F  05BC               	andwf	___fltol@f1+2,f
  6391     1F10  3000               	movlw	0
  6392     1F11  05BD               	andwf	___fltol@f1+3,f
  6393     1F12                     l3348:
  6394     1F12  3096               	movlw	150
  6395     1F13  02C3               	subwf	___fltol@exp1,f
  6396     1F14                     l3350:
  6397     1F14  1FC3               	btfss	___fltol@exp1,7
  6398     1F15  2F17               	goto	u3751
  6399     1F16  2F18               	goto	u3750
  6400     1F17                     u3751:
  6401     1F17  2F30               	goto	l3360
  6402     1F18                     u3750:
  6403     1F18                     l3352:
  6404     1F18  0843               	movf	___fltol@exp1,w
  6405     1F19  3A80               	xorlw	128
  6406     1F1A  3E97               	addlw	151
  6407     1F1B  1803               	skipnc
  6408     1F1C  2F1E               	goto	u3761
  6409     1F1D  2F1F               	goto	u3760
  6410     1F1E                     u3761:
  6411     1F1E  2F20               	goto	l3358
  6412     1F1F                     u3760:
  6413     1F1F  2EEF               	goto	l3338
  6414     1F20                     l3358:
  6415     1F20  3001               	movlw	1
  6416     1F21                     u3775:
  6417     1F21  36BD               	lsrf	___fltol@f1+3,f
  6418     1F22  0CBC               	rrf	___fltol@f1+2,f
  6419     1F23  0CBB               	rrf	___fltol@f1+1,f
  6420     1F24  0CBA               	rrf	___fltol@f1,f
  6421     1F25  0B89               	decfsz	9,f
  6422     1F26  2F21               	goto	u3775
  6423     1F27  3001               	movlw	1
  6424     1F28  00BE               	movwf	??___fltol
  6425     1F29  083E               	movf	??___fltol,w
  6426     1F2A  07C3               	addwf	___fltol@exp1,f
  6427     1F2B  1D03               	btfss	3,2
  6428     1F2C  2F2E               	goto	u3781
  6429     1F2D  2F2F               	goto	u3780
  6430     1F2E                     u3781:
  6431     1F2E  2F20               	goto	l3358
  6432     1F2F                     u3780:
  6433     1F2F  2F45               	goto	l3368
  6434     1F30                     l3360:
  6435     1F30  3020               	movlw	32
  6436     1F31  0243               	subwf	___fltol@exp1,w
  6437     1F32  1C03               	skipc
  6438     1F33  2F35               	goto	u3791
  6439     1F34  2F36               	goto	u3790
  6440     1F35                     u3791:
  6441     1F35  2F40               	goto	l820
  6442     1F36                     u3790:
  6443     1F36  2EEF               	goto	l3338
  6444     1F37                     l3366:
  6445     1F37  3001               	movlw	1
  6446     1F38                     u3805:
  6447     1F38  35BA               	lslf	___fltol@f1,f
  6448     1F39  0DBB               	rlf	___fltol@f1+1,f
  6449     1F3A  0DBC               	rlf	___fltol@f1+2,f
  6450     1F3B  0DBD               	rlf	___fltol@f1+3,f
  6451     1F3C  0B89               	decfsz	9,f
  6452     1F3D  2F38               	goto	u3805
  6453     1F3E  3001               	movlw	1
  6454     1F3F  02C3               	subwf	___fltol@exp1,f
  6455     1F40                     l820:
  6456     1F40  0843               	movf	___fltol@exp1,w
  6457     1F41  1D03               	btfss	3,2
  6458     1F42  2F44               	goto	u3811
  6459     1F43  2F45               	goto	u3810
  6460     1F44                     u3811:
  6461     1F44  2F37               	goto	l3366
  6462     1F45                     u3810:
  6463     1F45                     l3368:
  6464     1F45  0842               	movf	___fltol@sign1,w
  6465     1F46  1903               	btfsc	3,2
  6466     1F47  2F49               	goto	u3821
  6467     1F48  2F4A               	goto	u3820
  6468     1F49                     u3821:
  6469     1F49  2F55               	goto	l823
  6470     1F4A                     u3820:
  6471     1F4A                     l3370:
  6472     1F4A  09BA               	comf	___fltol@f1,f
  6473     1F4B  09BB               	comf	___fltol@f1+1,f
  6474     1F4C  09BC               	comf	___fltol@f1+2,f
  6475     1F4D  09BD               	comf	___fltol@f1+3,f
  6476     1F4E  0ABA               	incf	___fltol@f1,f
  6477     1F4F  1903               	skipnz
  6478     1F50  0ABB               	incf	___fltol@f1+1,f
  6479     1F51  1903               	skipnz
  6480     1F52  0ABC               	incf	___fltol@f1+2,f
  6481     1F53  1903               	skipnz
  6482     1F54  0ABD               	incf	___fltol@f1+3,f
  6483     1F55                     l823:
  6484     1F55                     l813:
  6485     1F55  0008               	return
  6486     1F56                     __end_of___fltol:
  6487                           
  6488                           	psect	text24
  6489     0DC5                     __ptext24:	
  6490 ;; *************** function ___flmul *****************
  6491 ;; Defined at:
  6492 ;;		line 8 in file "C:\Program Files\Microchip\xc8\v2.41\pic\sources\c90\common\sprcmul.c"
  6493 ;; Parameters:    Size  Location     Type
  6494 ;;  b               4    0[BANK0 ] long 
  6495 ;;  a               4    4[BANK0 ] long 
  6496 ;; Auto vars:     Size  Location     Type
  6497 ;;  prod            4   20[BANK0 ] struct .
  6498 ;;  grs             4   14[BANK0 ] unsigned long 
  6499 ;;  temp            2   24[BANK0 ] struct .
  6500 ;;  bexp            1   19[BANK0 ] unsigned char 
  6501 ;;  aexp            1   18[BANK0 ] unsigned char 
  6502 ;;  sign            1   13[BANK0 ] unsigned char 
  6503 ;; Return value:  Size  Location     Type
  6504 ;;                  4    0[BANK0 ] unsigned char 
  6505 ;; Registers used:
  6506 ;;		wreg, status,2, status,0, pclath, cstack
  6507 ;; Tracked objects:
  6508 ;;		On entry : 0/0
  6509 ;;		On exit  : 0/0
  6510 ;;		Unchanged: 0/0
  6511 ;; Data sizes:     COMMON   BANK0   BANK1   BANK2   BANK3   BANK4   BANK5   BANK6   BANK7   BANK8   BANK9  BANK10  BANK1
      +1  BANK12  BANK13  BANK14  BANK15  BANK16  BANK17  BANK18  BANK19  BANK20  BANK21  BANK22  BANK23  BANK24  BANK25
  6512 ;;      Params:         0       8       0       0       0       0       0       0       0       0       0       0       
      +0       0       0       0       0       0       0       0       0       0       0       0       0       0       0
  6513 ;;      Locals:         0      13       0       0       0       0       0       0       0       0       0       0       
      +0       0       0       0       0       0       0       0       0       0       0       0       0       0       0
  6514 ;;      Temps:          0       5       0       0       0       0       0       0       0       0       0       0       
      +0       0       0       0       0       0       0       0       0       0       0       0       0       0       0
  6515 ;;      Totals:         0      26       0       0       0       0       0       0       0       0       0       0       
      +0       0       0       0       0       0       0       0       0       0       0       0       0       0       0
  6516 ;;Total ram usage:       26 bytes
  6517 ;; Hardware stack levels used: 1
  6518 ;; Hardware stack levels required when called: 1
  6519 ;; This function calls:
  6520 ;;		__Umul8_16
  6521 ;; This function is called by:
  6522 ;;		_main
  6523 ;; This function uses a non-reentrant model
  6524 ;;
  6525                           
  6526     0DC5                     ___flmul:	
  6527                           ;psect for function ___flmul
  6528                           
  6529     0DC5                     l3706:	
  6530                           ;incstack = 0
  6531                           ; Regs used in ___flmul: [wreg+status,2+status,0+pclath+cstack]
  6532                           
  6533     0DC5  0020               	movlb	0	; select bank0
  6534     0DC6  0823               	movf	___flmul@b+3,w
  6535     0DC7  3980               	andlw	128
  6536     0DC8  00AD               	movwf	___flmul@sign
  6537     0DC9                     l3708:
  6538     0DC9  3523               	lslf	___flmul@b+3,w
  6539     0DCA  00B3               	movwf	___flmul@bexp
  6540     0DCB                     l3710:
  6541     0DCB  1FA2               	btfss	___flmul@b+2,7
  6542     0DCC  2DCE               	goto	u4551
  6543     0DCD  2DCF               	goto	u4550
  6544     0DCE                     u4551:
  6545     0DCE  2DD0               	goto	l3714
  6546     0DCF                     u4550:
  6547     0DCF                     l3712:
  6548     0DCF  1433               	bsf	___flmul@bexp,0
  6549     0DD0                     l3714:
  6550     0DD0  0833               	movf	___flmul@bexp,w
  6551     0DD1  1903               	btfsc	3,2
  6552     0DD2  2DD4               	goto	u4561
  6553     0DD3  2DD5               	goto	u4560
  6554     0DD4                     u4561:
  6555     0DD4  2DE4               	goto	l3722
  6556     0DD5                     u4560:
  6557     0DD5                     l3716:
  6558     0DD5  0A33               	incf	___flmul@bexp,w
  6559     0DD6  1D03               	btfss	3,2
  6560     0DD7  2DD9               	goto	u4571
  6561     0DD8  2DDA               	goto	u4570
  6562     0DD9                     u4571:
  6563     0DD9  2DE2               	goto	l3720
  6564     0DDA                     u4570:
  6565     0DDA                     l3718:
  6566     0DDA  3000               	movlw	0
  6567     0DDB  00A3               	movwf	___flmul@b+3
  6568     0DDC  3000               	movlw	0
  6569     0DDD  00A2               	movwf	___flmul@b+2
  6570     0DDE  3000               	movlw	0
  6571     0DDF  00A1               	movwf	___flmul@b+1
  6572     0DE0  3000               	movlw	0
  6573     0DE1  00A0               	movwf	___flmul@b
  6574     0DE2                     l3720:
  6575     0DE2  17A2               	bsf	___flmul@b+2,7
  6576     0DE3  2DEC               	goto	l3724
  6577     0DE4                     l3722:
  6578     0DE4  3000               	movlw	0
  6579     0DE5  00A3               	movwf	___flmul@b+3
  6580     0DE6  3000               	movlw	0
  6581     0DE7  00A2               	movwf	___flmul@b+2
  6582     0DE8  3000               	movlw	0
  6583     0DE9  00A1               	movwf	___flmul@b+1
  6584     0DEA  3000               	movlw	0
  6585     0DEB  00A0               	movwf	___flmul@b
  6586     0DEC                     l3724:
  6587     0DEC  0827               	movf	___flmul@a+3,w
  6588     0DED  3980               	andlw	128
  6589     0DEE  00A8               	movwf	??___flmul
  6590     0DEF  0828               	movf	??___flmul,w
  6591     0DF0  06AD               	xorwf	___flmul@sign,f
  6592     0DF1                     l3726:
  6593     0DF1  3527               	lslf	___flmul@a+3,w
  6594     0DF2  00B2               	movwf	___flmul@aexp
  6595     0DF3                     l3728:
  6596     0DF3  1FA6               	btfss	___flmul@a+2,7
  6597     0DF4  2DF6               	goto	u4581
  6598     0DF5  2DF7               	goto	u4580
  6599     0DF6                     u4581:
  6600     0DF6  2DF8               	goto	l3732
  6601     0DF7                     u4580:
  6602     0DF7                     l3730:
  6603     0DF7  1432               	bsf	___flmul@aexp,0
  6604     0DF8                     l3732:
  6605     0DF8  0832               	movf	___flmul@aexp,w
  6606     0DF9  1903               	btfsc	3,2
  6607     0DFA  2DFC               	goto	u4591
  6608     0DFB  2DFD               	goto	u4590
  6609     0DFC                     u4591:
  6610     0DFC  2E0C               	goto	l3740
  6611     0DFD                     u4590:
  6612     0DFD                     l3734:
  6613     0DFD  0A32               	incf	___flmul@aexp,w
  6614     0DFE  1D03               	btfss	3,2
  6615     0DFF  2E01               	goto	u4601
  6616     0E00  2E02               	goto	u4600
  6617     0E01                     u4601:
  6618     0E01  2E0A               	goto	l3738
  6619     0E02                     u4600:
  6620     0E02                     l3736:
  6621     0E02  3000               	movlw	0
  6622     0E03  00A7               	movwf	___flmul@a+3
  6623     0E04  3000               	movlw	0
  6624     0E05  00A6               	movwf	___flmul@a+2
  6625     0E06  3000               	movlw	0
  6626     0E07  00A5               	movwf	___flmul@a+1
  6627     0E08  3000               	movlw	0
  6628     0E09  00A4               	movwf	___flmul@a
  6629     0E0A                     l3738:
  6630     0E0A  17A6               	bsf	___flmul@a+2,7
  6631     0E0B  2E14               	goto	l3742
  6632     0E0C                     l3740:
  6633     0E0C  3000               	movlw	0
  6634     0E0D  00A7               	movwf	___flmul@a+3
  6635     0E0E  3000               	movlw	0
  6636     0E0F  00A6               	movwf	___flmul@a+2
  6637     0E10  3000               	movlw	0
  6638     0E11  00A5               	movwf	___flmul@a+1
  6639     0E12  3000               	movlw	0
  6640     0E13  00A4               	movwf	___flmul@a
  6641     0E14                     l3742:
  6642     0E14  0832               	movf	___flmul@aexp,w
  6643     0E15  1903               	btfsc	3,2
  6644     0E16  2E18               	goto	u4611
  6645     0E17  2E19               	goto	u4610
  6646     0E18                     u4611:
  6647     0E18  2E1E               	goto	l3746
  6648     0E19                     u4610:
  6649     0E19                     l3744:
  6650     0E19  0833               	movf	___flmul@bexp,w
  6651     0E1A  1D03               	btfss	3,2
  6652     0E1B  2E1D               	goto	u4621
  6653     0E1C  2E1E               	goto	u4620
  6654     0E1D                     u4621:
  6655     0E1D  2E27               	goto	l3750
  6656     0E1E                     u4620:
  6657     0E1E                     l3746:
  6658     0E1E  3000               	movlw	0
  6659     0E1F  00A3               	movwf	?___flmul+3
  6660     0E20  3000               	movlw	0
  6661     0E21  00A2               	movwf	?___flmul+2
  6662     0E22  3000               	movlw	0
  6663     0E23  00A1               	movwf	?___flmul+1
  6664     0E24  3000               	movlw	0
  6665     0E25  00A0               	movwf	?___flmul
  6666     0E26  2FFF               	goto	l1016
  6667     0E27                     l3750:
  6668     0E27  0820               	movf	___flmul@b,w
  6669     0E28  00F0               	movwf	__Umul8_16@multiplicand
  6670     0E29  0826               	movf	___flmul@a+2,w
  6671     0E2A  319C  24CA  318D   	fcall	__Umul8_16
  6672     0E2D  0871               	movf	?__Umul8_16+1,w
  6673     0E2E  0020               	movlb	0	; select bank0
  6674     0E2F  00B9               	movwf	___flmul@temp+1
  6675     0E30  0870               	movf	?__Umul8_16,w
  6676     0E31  00B8               	movwf	___flmul@temp
  6677     0E32                     l3752:
  6678     0E32  0838               	movf	___flmul@temp,w
  6679     0E33  00A8               	movwf	??___flmul
  6680     0E34  01A9               	clrf	??___flmul+1
  6681     0E35  01AA               	clrf	??___flmul+2
  6682     0E36  01AB               	clrf	??___flmul+3
  6683     0E37  082B               	movf	??___flmul+3,w
  6684     0E38  00B1               	movwf	___flmul@grs+3
  6685     0E39  082A               	movf	??___flmul+2,w
  6686     0E3A  00B0               	movwf	___flmul@grs+2
  6687     0E3B  0829               	movf	??___flmul+1,w
  6688     0E3C  00AF               	movwf	___flmul@grs+1
  6689     0E3D  0828               	movf	??___flmul,w
  6690     0E3E  00AE               	movwf	___flmul@grs
  6691     0E3F                     l3754:
  6692     0E3F  0839               	movf	___flmul@temp+1,w
  6693     0E40  00A8               	movwf	??___flmul
  6694     0E41  01A9               	clrf	??___flmul+1
  6695     0E42  01AA               	clrf	??___flmul+2
  6696     0E43  01AB               	clrf	??___flmul+3
  6697     0E44  082B               	movf	??___flmul+3,w
  6698     0E45  00B7               	movwf	___flmul@prod+3
  6699     0E46  082A               	movf	??___flmul+2,w
  6700     0E47  00B6               	movwf	___flmul@prod+2
  6701     0E48  0829               	movf	??___flmul+1,w
  6702     0E49  00B5               	movwf	___flmul@prod+1
  6703     0E4A  0828               	movf	??___flmul,w
  6704     0E4B  00B4               	movwf	___flmul@prod
  6705     0E4C  0821               	movf	___flmul@b+1,w
  6706     0E4D  00F0               	movwf	__Umul8_16@multiplicand
  6707     0E4E  0825               	movf	___flmul@a+1,w
  6708     0E4F  319C  24CA  318D   	fcall	__Umul8_16
  6709     0E52  0871               	movf	?__Umul8_16+1,w
  6710     0E53  0020               	movlb	0	; select bank0
  6711     0E54  00B9               	movwf	___flmul@temp+1
  6712     0E55  0870               	movf	?__Umul8_16,w
  6713     0E56  00B8               	movwf	___flmul@temp
  6714     0E57                     l3756:
  6715     0E57  0838               	movf	___flmul@temp,w
  6716     0E58  00A8               	movwf	??___flmul
  6717     0E59  01A9               	clrf	??___flmul+1
  6718     0E5A  01AA               	clrf	??___flmul+2
  6719     0E5B  01AB               	clrf	??___flmul+3
  6720     0E5C  0828               	movf	??___flmul,w
  6721     0E5D  07AE               	addwf	___flmul@grs,f
  6722     0E5E  0829               	movf	??___flmul+1,w
  6723     0E5F  3DAF               	addwfc	___flmul@grs+1,f
  6724     0E60  082A               	movf	??___flmul+2,w
  6725     0E61  3DB0               	addwfc	___flmul@grs+2,f
  6726     0E62  082B               	movf	??___flmul+3,w
  6727     0E63  3DB1               	addwfc	___flmul@grs+3,f
  6728     0E64                     l3758:
  6729     0E64  0839               	movf	___flmul@temp+1,w
  6730     0E65  00A8               	movwf	??___flmul
  6731     0E66  01A9               	clrf	??___flmul+1
  6732     0E67  01AA               	clrf	??___flmul+2
  6733     0E68  01AB               	clrf	??___flmul+3
  6734     0E69  0828               	movf	??___flmul,w
  6735     0E6A  07B4               	addwf	___flmul@prod,f
  6736     0E6B  0829               	movf	??___flmul+1,w
  6737     0E6C  3DB5               	addwfc	___flmul@prod+1,f
  6738     0E6D  082A               	movf	??___flmul+2,w
  6739     0E6E  3DB6               	addwfc	___flmul@prod+2,f
  6740     0E6F  082B               	movf	??___flmul+3,w
  6741     0E70  3DB7               	addwfc	___flmul@prod+3,f
  6742     0E71  0822               	movf	___flmul@b+2,w
  6743     0E72  00F0               	movwf	__Umul8_16@multiplicand
  6744     0E73  0824               	movf	___flmul@a,w
  6745     0E74  319C  24CA  318D   	fcall	__Umul8_16
  6746     0E77  0871               	movf	?__Umul8_16+1,w
  6747     0E78  0020               	movlb	0	; select bank0
  6748     0E79  00B9               	movwf	___flmul@temp+1
  6749     0E7A  0870               	movf	?__Umul8_16,w
  6750     0E7B  00B8               	movwf	___flmul@temp
  6751     0E7C                     l3760:
  6752     0E7C  0838               	movf	___flmul@temp,w
  6753     0E7D  00A8               	movwf	??___flmul
  6754     0E7E  01A9               	clrf	??___flmul+1
  6755     0E7F  01AA               	clrf	??___flmul+2
  6756     0E80  01AB               	clrf	??___flmul+3
  6757     0E81  0828               	movf	??___flmul,w
  6758     0E82  07AE               	addwf	___flmul@grs,f
  6759     0E83  0829               	movf	??___flmul+1,w
  6760     0E84  3DAF               	addwfc	___flmul@grs+1,f
  6761     0E85  082A               	movf	??___flmul+2,w
  6762     0E86  3DB0               	addwfc	___flmul@grs+2,f
  6763     0E87  082B               	movf	??___flmul+3,w
  6764     0E88  3DB1               	addwfc	___flmul@grs+3,f
  6765     0E89                     l3762:
  6766     0E89  0839               	movf	___flmul@temp+1,w
  6767     0E8A  00A8               	movwf	??___flmul
  6768     0E8B  01A9               	clrf	??___flmul+1
  6769     0E8C  01AA               	clrf	??___flmul+2
  6770     0E8D  01AB               	clrf	??___flmul+3
  6771     0E8E  0828               	movf	??___flmul,w
  6772     0E8F  07B4               	addwf	___flmul@prod,f
  6773     0E90  0829               	movf	??___flmul+1,w
  6774     0E91  3DB5               	addwfc	___flmul@prod+1,f
  6775     0E92  082A               	movf	??___flmul+2,w
  6776     0E93  3DB6               	addwfc	___flmul@prod+2,f
  6777     0E94  082B               	movf	??___flmul+3,w
  6778     0E95  3DB7               	addwfc	___flmul@prod+3,f
  6779     0E96                     l3764:
  6780     0E96  3008               	movlw	8
  6781     0E97                     u4635:
  6782     0E97  35AE               	lslf	___flmul@grs,f
  6783     0E98  0DAF               	rlf	___flmul@grs+1,f
  6784     0E99  0DB0               	rlf	___flmul@grs+2,f
  6785     0E9A  0DB1               	rlf	___flmul@grs+3,f
  6786     0E9B  0B89               	decfsz	9,f
  6787     0E9C  2E97               	goto	u4635
  6788     0E9D                     l3766:
  6789     0E9D  0821               	movf	___flmul@b+1,w
  6790     0E9E  00F0               	movwf	__Umul8_16@multiplicand
  6791     0E9F  0824               	movf	___flmul@a,w
  6792     0EA0  319C  24CA  318D   	fcall	__Umul8_16
  6793     0EA3  0871               	movf	?__Umul8_16+1,w
  6794     0EA4  0020               	movlb	0	; select bank0
  6795     0EA5  00B9               	movwf	___flmul@temp+1
  6796     0EA6  0870               	movf	?__Umul8_16,w
  6797     0EA7  00B8               	movwf	___flmul@temp
  6798     0EA8                     l3768:
  6799     0EA8  0838               	movf	___flmul@temp,w
  6800     0EA9  07AE               	addwf	___flmul@grs,f
  6801     0EAA  0839               	movf	___flmul@temp+1,w
  6802     0EAB  3DAF               	addwfc	___flmul@grs+1,f
  6803     0EAC  3000               	movlw	0
  6804     0EAD  3DB0               	addwfc	___flmul@grs+2,f
  6805     0EAE  3DB1               	addwfc	___flmul@grs+3,f
  6806     0EAF                     l3770:
  6807     0EAF  0820               	movf	___flmul@b,w
  6808     0EB0  00F0               	movwf	__Umul8_16@multiplicand
  6809     0EB1  0825               	movf	___flmul@a+1,w
  6810     0EB2  319C  24CA  318D   	fcall	__Umul8_16
  6811     0EB5  0871               	movf	?__Umul8_16+1,w
  6812     0EB6  0020               	movlb	0	; select bank0
  6813     0EB7  00B9               	movwf	___flmul@temp+1
  6814     0EB8  0870               	movf	?__Umul8_16,w
  6815     0EB9  00B8               	movwf	___flmul@temp
  6816     0EBA                     l3772:
  6817     0EBA  0838               	movf	___flmul@temp,w
  6818     0EBB  07AE               	addwf	___flmul@grs,f
  6819     0EBC  0839               	movf	___flmul@temp+1,w
  6820     0EBD  3DAF               	addwfc	___flmul@grs+1,f
  6821     0EBE  3000               	movlw	0
  6822     0EBF  3DB0               	addwfc	___flmul@grs+2,f
  6823     0EC0  3DB1               	addwfc	___flmul@grs+3,f
  6824     0EC1                     l3774:
  6825     0EC1  3008               	movlw	8
  6826     0EC2                     u4645:
  6827     0EC2  35AE               	lslf	___flmul@grs,f
  6828     0EC3  0DAF               	rlf	___flmul@grs+1,f
  6829     0EC4  0DB0               	rlf	___flmul@grs+2,f
  6830     0EC5  0DB1               	rlf	___flmul@grs+3,f
  6831     0EC6  0B89               	decfsz	9,f
  6832     0EC7  2EC2               	goto	u4645
  6833     0EC8  0820               	movf	___flmul@b,w
  6834     0EC9  00F0               	movwf	__Umul8_16@multiplicand
  6835     0ECA  0824               	movf	___flmul@a,w
  6836     0ECB  319C  24CA  318D   	fcall	__Umul8_16
  6837     0ECE  0871               	movf	?__Umul8_16+1,w
  6838     0ECF  0020               	movlb	0	; select bank0
  6839     0ED0  00B9               	movwf	___flmul@temp+1
  6840     0ED1  0870               	movf	?__Umul8_16,w
  6841     0ED2  00B8               	movwf	___flmul@temp
  6842     0ED3                     l3776:
  6843     0ED3  0838               	movf	___flmul@temp,w
  6844     0ED4  07AE               	addwf	___flmul@grs,f
  6845     0ED5  0839               	movf	___flmul@temp+1,w
  6846     0ED6  3DAF               	addwfc	___flmul@grs+1,f
  6847     0ED7  3000               	movlw	0
  6848     0ED8  3DB0               	addwfc	___flmul@grs+2,f
  6849     0ED9  3DB1               	addwfc	___flmul@grs+3,f
  6850     0EDA                     l3778:
  6851     0EDA  0821               	movf	___flmul@b+1,w
  6852     0EDB  00F0               	movwf	__Umul8_16@multiplicand
  6853     0EDC  0826               	movf	___flmul@a+2,w
  6854     0EDD  319C  24CA  318D   	fcall	__Umul8_16
  6855     0EE0  0871               	movf	?__Umul8_16+1,w
  6856     0EE1  0020               	movlb	0	; select bank0
  6857     0EE2  00B9               	movwf	___flmul@temp+1
  6858     0EE3  0870               	movf	?__Umul8_16,w
  6859     0EE4  00B8               	movwf	___flmul@temp
  6860     0EE5  0838               	movf	___flmul@temp,w
  6861     0EE6  07B4               	addwf	___flmul@prod,f
  6862     0EE7  0839               	movf	___flmul@temp+1,w
  6863     0EE8  3DB5               	addwfc	___flmul@prod+1,f
  6864     0EE9  3000               	movlw	0
  6865     0EEA  3DB6               	addwfc	___flmul@prod+2,f
  6866     0EEB  3DB7               	addwfc	___flmul@prod+3,f
  6867     0EEC                     l3780:
  6868     0EEC  0822               	movf	___flmul@b+2,w
  6869     0EED  00F0               	movwf	__Umul8_16@multiplicand
  6870     0EEE  0825               	movf	___flmul@a+1,w
  6871     0EEF  319C  24CA  318D   	fcall	__Umul8_16
  6872     0EF2  0871               	movf	?__Umul8_16+1,w
  6873     0EF3  0020               	movlb	0	; select bank0
  6874     0EF4  00B9               	movwf	___flmul@temp+1
  6875     0EF5  0870               	movf	?__Umul8_16,w
  6876     0EF6  00B8               	movwf	___flmul@temp
  6877     0EF7                     l3782:
  6878     0EF7  0838               	movf	___flmul@temp,w
  6879     0EF8  07B4               	addwf	___flmul@prod,f
  6880     0EF9  0839               	movf	___flmul@temp+1,w
  6881     0EFA  3DB5               	addwfc	___flmul@prod+1,f
  6882     0EFB  3000               	movlw	0
  6883     0EFC  3DB6               	addwfc	___flmul@prod+2,f
  6884     0EFD  3DB7               	addwfc	___flmul@prod+3,f
  6885     0EFE  0822               	movf	___flmul@b+2,w
  6886     0EFF  00F0               	movwf	__Umul8_16@multiplicand
  6887     0F00  0826               	movf	___flmul@a+2,w
  6888     0F01  319C  24CA  318D   	fcall	__Umul8_16
  6889     0F04  0871               	movf	?__Umul8_16+1,w
  6890     0F05  0020               	movlb	0	; select bank0
  6891     0F06  00B9               	movwf	___flmul@temp+1
  6892     0F07  0870               	movf	?__Umul8_16,w
  6893     0F08  00B8               	movwf	___flmul@temp
  6894     0F09                     l3784:
  6895     0F09  0838               	movf	___flmul@temp,w
  6896     0F0A  00A8               	movwf	??___flmul
  6897     0F0B  0839               	movf	___flmul@temp+1,w
  6898     0F0C  00A9               	movwf	??___flmul+1
  6899     0F0D  01AA               	clrf	??___flmul+2
  6900     0F0E  01AB               	clrf	??___flmul+3
  6901     0F0F  3008               	movlw	8
  6902     0F10                     u4655:
  6903     0F10  35A8               	lslf	??___flmul,f
  6904     0F11  0DA9               	rlf	??___flmul+1,f
  6905     0F12  0DAA               	rlf	??___flmul+2,f
  6906     0F13  0DAB               	rlf	??___flmul+3,f
  6907     0F14                     u4650:
  6908     0F14  0B89               	decfsz	9,f
  6909     0F15  2F10               	goto	u4655
  6910     0F16  0828               	movf	??___flmul,w
  6911     0F17  07B4               	addwf	___flmul@prod,f
  6912     0F18  0829               	movf	??___flmul+1,w
  6913     0F19  3DB5               	addwfc	___flmul@prod+1,f
  6914     0F1A  082A               	movf	??___flmul+2,w
  6915     0F1B  3DB6               	addwfc	___flmul@prod+2,f
  6916     0F1C  082B               	movf	??___flmul+3,w
  6917     0F1D  3DB7               	addwfc	___flmul@prod+3,f
  6918     0F1E                     l3786:
  6919     0F1E  082E               	movf	___flmul@grs,w
  6920     0F1F  00A8               	movwf	??___flmul
  6921     0F20  082F               	movf	___flmul@grs+1,w
  6922     0F21  00A9               	movwf	??___flmul+1
  6923     0F22  0830               	movf	___flmul@grs+2,w
  6924     0F23  00AA               	movwf	??___flmul+2
  6925     0F24  0831               	movf	___flmul@grs+3,w
  6926     0F25  00AB               	movwf	??___flmul+3
  6927     0F26  3018               	movlw	24
  6928     0F27                     u4665:
  6929     0F27  36AB               	lsrf	??___flmul+3,f
  6930     0F28  0CAA               	rrf	??___flmul+2,f
  6931     0F29  0CA9               	rrf	??___flmul+1,f
  6932     0F2A  0CA8               	rrf	??___flmul,f
  6933     0F2B                     u4660:
  6934     0F2B  0B89               	decfsz	9,f
  6935     0F2C  2F27               	goto	u4665
  6936     0F2D  0828               	movf	??___flmul,w
  6937     0F2E  07B4               	addwf	___flmul@prod,f
  6938     0F2F  0829               	movf	??___flmul+1,w
  6939     0F30  3DB5               	addwfc	___flmul@prod+1,f
  6940     0F31  082A               	movf	??___flmul+2,w
  6941     0F32  3DB6               	addwfc	___flmul@prod+2,f
  6942     0F33  082B               	movf	??___flmul+3,w
  6943     0F34  3DB7               	addwfc	___flmul@prod+3,f
  6944     0F35                     l3788:
  6945     0F35  3008               	movlw	8
  6946     0F36                     u4675:
  6947     0F36  35AE               	lslf	___flmul@grs,f
  6948     0F37  0DAF               	rlf	___flmul@grs+1,f
  6949     0F38  0DB0               	rlf	___flmul@grs+2,f
  6950     0F39  0DB1               	rlf	___flmul@grs+3,f
  6951     0F3A  0B89               	decfsz	9,f
  6952     0F3B  2F36               	goto	u4675
  6953     0F3C                     l3790:
  6954     0F3C  0833               	movf	___flmul@bexp,w
  6955     0F3D  0732               	addwf	___flmul@aexp,w
  6956     0F3E  00A8               	movwf	??___flmul
  6957     0F3F  01A9               	clrf	??___flmul+1
  6958     0F40  0DA9               	rlf	??___flmul+1,f
  6959     0F41  0828               	movf	??___flmul,w
  6960     0F42  3E82               	addlw	130
  6961     0F43  00B8               	movwf	___flmul@temp
  6962     0F44  30FF               	movlw	255
  6963     0F45  3D29               	addwfc	??___flmul+1,w
  6964     0F46  00B9               	movwf	___flmul@temp+1
  6965     0F47  2F5F               	goto	l3802
  6966     0F48                     l3792:
  6967     0F48  3001               	movlw	1
  6968     0F49                     u4685:
  6969     0F49  35B4               	lslf	___flmul@prod,f
  6970     0F4A  0DB5               	rlf	___flmul@prod+1,f
  6971     0F4B  0DB6               	rlf	___flmul@prod+2,f
  6972     0F4C  0DB7               	rlf	___flmul@prod+3,f
  6973     0F4D  0B89               	decfsz	9,f
  6974     0F4E  2F49               	goto	u4685
  6975     0F4F                     l3794:
  6976     0F4F  1FB1               	btfss	___flmul@grs+3,7
  6977     0F50  2F52               	goto	u4691
  6978     0F51  2F53               	goto	u4690
  6979     0F52                     u4691:
  6980     0F52  2F54               	goto	l3798
  6981     0F53                     u4690:
  6982     0F53                     l3796:
  6983     0F53  1434               	bsf	___flmul@prod,0
  6984     0F54                     l3798:
  6985     0F54  3001               	movlw	1
  6986     0F55                     u4705:
  6987     0F55  35AE               	lslf	___flmul@grs,f
  6988     0F56  0DAF               	rlf	___flmul@grs+1,f
  6989     0F57  0DB0               	rlf	___flmul@grs+2,f
  6990     0F58  0DB1               	rlf	___flmul@grs+3,f
  6991     0F59  0B89               	decfsz	9,f
  6992     0F5A  2F55               	goto	u4705
  6993     0F5B                     l3800:
  6994     0F5B  30FF               	movlw	255
  6995     0F5C  07B8               	addwf	___flmul@temp,f
  6996     0F5D  30FF               	movlw	255
  6997     0F5E  3DB9               	addwfc	___flmul@temp+1,f
  6998     0F5F                     l3802:
  6999     0F5F  1FB6               	btfss	___flmul@prod+2,7
  7000     0F60  2F62               	goto	u4711
  7001     0F61  2F63               	goto	u4710
  7002     0F62                     u4711:
  7003     0F62  2F48               	goto	l3792
  7004     0F63                     u4710:
  7005     0F63                     l3804:
  7006     0F63  01B2               	clrf	___flmul@aexp
  7007     0F64                     l3806:
  7008     0F64  1FB1               	btfss	___flmul@grs+3,7
  7009     0F65  2F67               	goto	u4721
  7010     0F66  2F68               	goto	u4720
  7011     0F67                     u4721:
  7012     0F67  2F84               	goto	l3814
  7013     0F68                     u4720:
  7014     0F68                     l3808:
  7015     0F68  30FF               	movlw	255
  7016     0F69  052E               	andwf	___flmul@grs,w
  7017     0F6A  00A8               	movwf	??___flmul
  7018     0F6B  30FF               	movlw	255
  7019     0F6C  052F               	andwf	___flmul@grs+1,w
  7020     0F6D  00A9               	movwf	??___flmul+1
  7021     0F6E  30FF               	movlw	255
  7022     0F6F  0530               	andwf	___flmul@grs+2,w
  7023     0F70  00AA               	movwf	??___flmul+2
  7024     0F71  307F               	movlw	127
  7025     0F72  0531               	andwf	___flmul@grs+3,w
  7026     0F73  00AB               	movwf	??___flmul+3
  7027     0F74  082B               	movf	??___flmul+3,w
  7028     0F75  042A               	iorwf	??___flmul+2,w
  7029     0F76  0429               	iorwf	??___flmul+1,w
  7030     0F77  0428               	iorwf	??___flmul,w
  7031     0F78  1903               	skipnz
  7032     0F79  2F7B               	goto	u4731
  7033     0F7A  2F7C               	goto	u4730
  7034     0F7B                     u4731:
  7035     0F7B  2F7F               	goto	l1022
  7036     0F7C                     u4730:
  7037     0F7C                     l3810:
  7038     0F7C  01B2               	clrf	___flmul@aexp
  7039     0F7D  0AB2               	incf	___flmul@aexp,f
  7040     0F7E  2F84               	goto	l3814
  7041     0F7F                     l1022:
  7042     0F7F  1C34               	btfss	___flmul@prod,0
  7043     0F80  2F82               	goto	u4741
  7044     0F81  2F83               	goto	u4740
  7045     0F82                     u4741:
  7046     0F82  2F84               	goto	l3814
  7047     0F83                     u4740:
  7048     0F83  2F7C               	goto	l3810
  7049     0F84                     l3814:
  7050     0F84  0832               	movf	___flmul@aexp,w
  7051     0F85  1903               	btfsc	3,2
  7052     0F86  2F88               	goto	u4751
  7053     0F87  2F89               	goto	u4750
  7054     0F88                     u4751:
  7055     0F88  2FB1               	goto	l3824
  7056     0F89                     u4750:
  7057     0F89                     l3816:
  7058     0F89  3001               	movlw	1
  7059     0F8A  07B4               	addwf	___flmul@prod,f
  7060     0F8B  3000               	movlw	0
  7061     0F8C  3DB5               	addwfc	___flmul@prod+1,f
  7062     0F8D  3000               	movlw	0
  7063     0F8E  3DB6               	addwfc	___flmul@prod+2,f
  7064     0F8F  3000               	movlw	0
  7065     0F90  3DB7               	addwfc	___flmul@prod+3,f
  7066     0F91                     l3818:
  7067     0F91  1C37               	btfss	___flmul@prod+3,0
  7068     0F92  2F94               	goto	u4761
  7069     0F93  2F95               	goto	u4760
  7070     0F94                     u4761:
  7071     0F94  2FB1               	goto	l3824
  7072     0F95                     u4760:
  7073     0F95                     l3820:
  7074     0F95  0834               	movf	___flmul@prod,w
  7075     0F96  00A8               	movwf	??___flmul
  7076     0F97  0835               	movf	___flmul@prod+1,w
  7077     0F98  00A9               	movwf	??___flmul+1
  7078     0F99  0836               	movf	___flmul@prod+2,w
  7079     0F9A  00AA               	movwf	??___flmul+2
  7080     0F9B  0837               	movf	___flmul@prod+3,w
  7081     0F9C  00AB               	movwf	??___flmul+3
  7082     0F9D  3001               	movlw	1
  7083     0F9E  00AC               	movwf	??___flmul+4
  7084     0F9F                     u4775:
  7085     0F9F  37AB               	asrf	??___flmul+3,f
  7086     0FA0  0CAA               	rrf	??___flmul+2,f
  7087     0FA1  0CA9               	rrf	??___flmul+1,f
  7088     0FA2  0CA8               	rrf	??___flmul,f
  7089     0FA3                     u4770:
  7090     0FA3  0BAC               	decfsz	??___flmul+4,f
  7091     0FA4  2F9F               	goto	u4775
  7092     0FA5  082B               	movf	??___flmul+3,w
  7093     0FA6  00B7               	movwf	___flmul@prod+3
  7094     0FA7  082A               	movf	??___flmul+2,w
  7095     0FA8  00B6               	movwf	___flmul@prod+2
  7096     0FA9  0829               	movf	??___flmul+1,w
  7097     0FAA  00B5               	movwf	___flmul@prod+1
  7098     0FAB  0828               	movf	??___flmul,w
  7099     0FAC  00B4               	movwf	___flmul@prod
  7100     0FAD                     l3822:
  7101     0FAD  3001               	movlw	1
  7102     0FAE  07B8               	addwf	___flmul@temp,f
  7103     0FAF  3000               	movlw	0
  7104     0FB0  3DB9               	addwfc	___flmul@temp+1,f
  7105     0FB1                     l3824:
  7106     0FB1  0839               	movf	___flmul@temp+1,w
  7107     0FB2  3A80               	xorlw	128
  7108     0FB3  00A8               	movwf	??___flmul
  7109     0FB4  3080               	movlw	128
  7110     0FB5  0228               	subwf	??___flmul,w
  7111     0FB6  1D03               	skipz
  7112     0FB7  2FBA               	goto	u4785
  7113     0FB8  30FF               	movlw	255
  7114     0FB9  0238               	subwf	___flmul@temp,w
  7115     0FBA                     u4785:
  7116     0FBA  1C03               	skipc
  7117     0FBB  2FBD               	goto	u4781
  7118     0FBC  2FBE               	goto	u4780
  7119     0FBD                     u4781:
  7120     0FBD  2FC8               	goto	l3828
  7121     0FBE                     u4780:
  7122     0FBE                     l3826:
  7123     0FBE  307F               	movlw	127
  7124     0FBF  0020               	movlb	0	; select bank0
  7125     0FC0  00B7               	movwf	___flmul@prod+3
  7126     0FC1  3080               	movlw	128
  7127     0FC2  00B6               	movwf	___flmul@prod+2
  7128     0FC3  3000               	movlw	0
  7129     0FC4  00B5               	movwf	___flmul@prod+1
  7130     0FC5  3000               	movlw	0
  7131     0FC6  00B4               	movwf	___flmul@prod
  7132     0FC7  2FF3               	goto	l1028
  7133     0FC8                     l3828:
  7134     0FC8  0020               	movlb	0	; select bank0
  7135     0FC9  0839               	movf	___flmul@temp+1,w
  7136     0FCA  3A80               	xorlw	128
  7137     0FCB  00A8               	movwf	??___flmul
  7138     0FCC  3080               	movlw	128
  7139     0FCD  0228               	subwf	??___flmul,w
  7140     0FCE  1D03               	skipz
  7141     0FCF  2FD2               	goto	u4795
  7142     0FD0  3001               	movlw	1
  7143     0FD1  0238               	subwf	___flmul@temp,w
  7144     0FD2                     u4795:
  7145     0FD2  1803               	skipnc
  7146     0FD3  2FD5               	goto	u4791
  7147     0FD4  2FD6               	goto	u4790
  7148     0FD5                     u4791:
  7149     0FD5  2FE1               	goto	l3834
  7150     0FD6                     u4790:
  7151     0FD6                     l3830:
  7152     0FD6  3000               	movlw	0
  7153     0FD7  0020               	movlb	0	; select bank0
  7154     0FD8  00B7               	movwf	___flmul@prod+3
  7155     0FD9  3000               	movlw	0
  7156     0FDA  00B6               	movwf	___flmul@prod+2
  7157     0FDB  3000               	movlw	0
  7158     0FDC  00B5               	movwf	___flmul@prod+1
  7159     0FDD  3000               	movlw	0
  7160     0FDE  00B4               	movwf	___flmul@prod
  7161     0FDF                     l3832:
  7162     0FDF  01AD               	clrf	___flmul@sign
  7163     0FE0  2FF3               	goto	l1028
  7164     0FE1                     l3834:
  7165     0FE1  0020               	movlb	0	; select bank0
  7166     0FE2  0838               	movf	___flmul@temp,w
  7167     0FE3  00B3               	movwf	___flmul@bexp
  7168     0FE4  30FF               	movlw	255
  7169     0FE5  05B4               	andwf	___flmul@prod,f
  7170     0FE6  30FF               	movlw	255
  7171     0FE7  05B5               	andwf	___flmul@prod+1,f
  7172     0FE8  307F               	movlw	127
  7173     0FE9  05B6               	andwf	___flmul@prod+2,f
  7174     0FEA  3000               	movlw	0
  7175     0FEB  05B7               	andwf	___flmul@prod+3,f
  7176     0FEC                     l3836:
  7177     0FEC  1C33               	btfss	___flmul@bexp,0
  7178     0FED  2FEF               	goto	u4801
  7179     0FEE  2FF0               	goto	u4800
  7180     0FEF                     u4801:
  7181     0FEF  2FF1               	goto	l3840
  7182     0FF0                     u4800:
  7183     0FF0                     l3838:
  7184     0FF0  17B6               	bsf	___flmul@prod+2,7
  7185     0FF1                     l3840:
  7186     0FF1  3633               	lsrf	___flmul@bexp,w
  7187     0FF2  00B7               	movwf	___flmul@prod+3
  7188     0FF3                     l1028:
  7189     0FF3  082D               	movf	___flmul@sign,w
  7190     0FF4  00A8               	movwf	??___flmul
  7191     0FF5  0828               	movf	??___flmul,w
  7192     0FF6  04B7               	iorwf	___flmul@prod+3,f
  7193     0FF7                     l3842:
  7194     0FF7  0837               	movf	___flmul@prod+3,w
  7195     0FF8  00A3               	movwf	?___flmul+3
  7196     0FF9  0836               	movf	___flmul@prod+2,w
  7197     0FFA  00A2               	movwf	?___flmul+2
  7198     0FFB  0835               	movf	___flmul@prod+1,w
  7199     0FFC  00A1               	movwf	?___flmul+1
  7200     0FFD  0834               	movf	___flmul@prod,w
  7201     0FFE  00A0               	movwf	?___flmul
  7202     0FFF                     l1016:
  7203     0FFF  0008               	return
  7204     1000                     __end_of___flmul:
  7205                           
  7206                           	psect	text25
  7207     1CCA                     __ptext25:	
  7208 ;; *************** function __Umul8_16 *****************
  7209 ;; Defined at:
  7210 ;;		line 4 in file "C:\Program Files\Microchip\xc8\v2.41\pic\sources\c90\common\Umul8_16.c"
  7211 ;; Parameters:    Size  Location     Type
  7212 ;;  multiplier      1    wreg     unsigned char 
  7213 ;;  multiplicand    1    0[COMMON] unsigned char 
  7214 ;; Auto vars:     Size  Location     Type
  7215 ;;  multiplier      1    8[COMMON] unsigned char 
  7216 ;;  word_mpld       2    6[COMMON] unsigned int 
  7217 ;;  product         2    4[COMMON] unsigned int 
  7218 ;; Return value:  Size  Location     Type
  7219 ;;                  2    0[COMMON] unsigned int 
  7220 ;; Registers used:
  7221 ;;		wreg, status,2, status,0
  7222 ;; Tracked objects:
  7223 ;;		On entry : 0/0
  7224 ;;		On exit  : 0/0
  7225 ;;		Unchanged: 0/0
  7226 ;; Data sizes:     COMMON   BANK0   BANK1   BANK2   BANK3   BANK4   BANK5   BANK6   BANK7   BANK8   BANK9  BANK10  BANK1
      +1  BANK12  BANK13  BANK14  BANK15  BANK16  BANK17  BANK18  BANK19  BANK20  BANK21  BANK22  BANK23  BANK24  BANK25
  7227 ;;      Params:         2       0       0       0       0       0       0       0       0       0       0       0       
      +0       0       0       0       0       0       0       0       0       0       0       0       0       0       0
  7228 ;;      Locals:         5       0       0       0       0       0       0       0       0       0       0       0       
      +0       0       0       0       0       0       0       0       0       0       0       0       0       0       0
  7229 ;;      Temps:          2       0       0       0       0       0       0       0       0       0       0       0       
      +0       0       0       0       0       0       0       0       0       0       0       0       0       0       0
  7230 ;;      Totals:         9       0       0       0       0       0       0       0       0       0       0       0       
      +0       0       0       0       0       0       0       0       0       0       0       0       0       0       0
  7231 ;;Total ram usage:        9 bytes
  7232 ;; Hardware stack levels used: 1
  7233 ;; This function calls:
  7234 ;;		Nothing
  7235 ;; This function is called by:
  7236 ;;		___flmul
  7237 ;; This function uses a non-reentrant model
  7238 ;;
  7239                           
  7240     1CCA                     __Umul8_16:	
  7241                           ;psect for function __Umul8_16
  7242                           
  7243                           
  7244                           ;incstack = 0
  7245                           ; Regs used in __Umul8_16: [wreg+status,2+status,0]
  7246                           ;__Umul8_16@multiplier stored from wreg
  7247     1CCA  00F8               	movwf	__Umul8_16@multiplier
  7248     1CCB                     l3042:
  7249     1CCB  01F4               	clrf	__Umul8_16@product
  7250     1CCC  01F5               	clrf	__Umul8_16@product+1
  7251     1CCD                     l3044:
  7252     1CCD  0870               	movf	__Umul8_16@multiplicand,w
  7253     1CCE  00F2               	movwf	??__Umul8_16
  7254     1CCF  01F3               	clrf	??__Umul8_16+1
  7255     1CD0  0872               	movf	??__Umul8_16,w
  7256     1CD1  00F6               	movwf	__Umul8_16@word_mpld
  7257     1CD2  0873               	movf	??__Umul8_16+1,w
  7258     1CD3  00F7               	movwf	__Umul8_16@word_mpld+1
  7259     1CD4                     l3046:
  7260     1CD4  1C78               	btfss	__Umul8_16@multiplier,0
  7261     1CD5  2CD7               	goto	u3291
  7262     1CD6  2CD8               	goto	u3290
  7263     1CD7                     u3291:
  7264     1CD7  2CDC               	goto	l1035
  7265     1CD8                     u3290:
  7266     1CD8                     l3048:
  7267     1CD8  0876               	movf	__Umul8_16@word_mpld,w
  7268     1CD9  07F4               	addwf	__Umul8_16@product,f
  7269     1CDA  0877               	movf	__Umul8_16@word_mpld+1,w
  7270     1CDB  3DF5               	addwfc	__Umul8_16@product+1,f
  7271     1CDC                     l1035:
  7272     1CDC  3001               	movlw	1
  7273     1CDD                     u3305:
  7274     1CDD  35F6               	lslf	__Umul8_16@word_mpld,f
  7275     1CDE  0DF7               	rlf	__Umul8_16@word_mpld+1,f
  7276     1CDF  0B89               	decfsz	9,f
  7277     1CE0  2CDD               	goto	u3305
  7278     1CE1  1003               	clrc
  7279     1CE2  0CF8               	rrf	__Umul8_16@multiplier,f
  7280     1CE3                     l3050:
  7281     1CE3  0878               	movf	__Umul8_16@multiplier,w
  7282     1CE4  1D03               	btfss	3,2
  7283     1CE5  2CE7               	goto	u3311
  7284     1CE6  2CE8               	goto	u3310
  7285     1CE7                     u3311:
  7286     1CE7  2CD4               	goto	l3046
  7287     1CE8                     u3310:
  7288     1CE8                     l3052:
  7289     1CE8  0875               	movf	__Umul8_16@product+1,w
  7290     1CE9  00F1               	movwf	?__Umul8_16+1
  7291     1CEA  0874               	movf	__Umul8_16@product,w
  7292     1CEB  00F0               	movwf	?__Umul8_16
  7293     1CEC                     l1037:
  7294     1CEC  0008               	return
  7295     1CED                     __end_of__Umul8_16:
  7296                           
  7297                           	psect	text26
  7298     0854                     __ptext26:	
  7299 ;; *************** function ___fldiv *****************
  7300 ;; Defined at:
  7301 ;;		line 8 in file "C:\Program Files\Microchip\xc8\v2.41\pic\sources\c90\common\sprcdiv.c"
  7302 ;; Parameters:    Size  Location     Type
  7303 ;;  a               4   26[BANK0 ] unsigned int 
  7304 ;;  b               4   30[BANK0 ] unsigned int 
  7305 ;; Auto vars:     Size  Location     Type
  7306 ;;  grs             4   46[BANK0 ] unsigned long 
  7307 ;;  rem             4   39[BANK0 ] unsigned long 
  7308 ;;  new_exp         2   44[BANK0 ] int 
  7309 ;;  aexp            1   51[BANK0 ] unsigned char 
  7310 ;;  bexp            1   50[BANK0 ] unsigned char 
  7311 ;;  sign            1   43[BANK0 ] unsigned char 
  7312 ;; Return value:  Size  Location     Type
  7313 ;;                  4   26[BANK0 ] unsigned char 
  7314 ;; Registers used:
  7315 ;;		wreg, status,2, status,0
  7316 ;; Tracked objects:
  7317 ;;		On entry : 0/0
  7318 ;;		On exit  : 0/0
  7319 ;;		Unchanged: 0/0
  7320 ;; Data sizes:     COMMON   BANK0   BANK1   BANK2   BANK3   BANK4   BANK5   BANK6   BANK7   BANK8   BANK9  BANK10  BANK1
      +1  BANK12  BANK13  BANK14  BANK15  BANK16  BANK17  BANK18  BANK19  BANK20  BANK21  BANK22  BANK23  BANK24  BANK25
  7321 ;;      Params:         0       8       0       0       0       0       0       0       0       0       0       0       
      +0       0       0       0       0       0       0       0       0       0       0       0       0       0       0
  7322 ;;      Locals:         0      13       0       0       0       0       0       0       0       0       0       0       
      +0       0       0       0       0       0       0       0       0       0       0       0       0       0       0
  7323 ;;      Temps:          0       5       0       0       0       0       0       0       0       0       0       0       
      +0       0       0       0       0       0       0       0       0       0       0       0       0       0       0
  7324 ;;      Totals:         0      26       0       0       0       0       0       0       0       0       0       0       
      +0       0       0       0       0       0       0       0       0       0       0       0       0       0       0
  7325 ;;Total ram usage:       26 bytes
  7326 ;; Hardware stack levels used: 1
  7327 ;; This function calls:
  7328 ;;		Nothing
  7329 ;; This function is called by:
  7330 ;;		_main
  7331 ;; This function uses a non-reentrant model
  7332 ;;
  7333                           
  7334     0854                     ___fldiv:	
  7335                           ;psect for function ___fldiv
  7336                           
  7337     0854                     l3566:	
  7338                           ;incstack = 0
  7339                           ; Regs used in ___fldiv: [wreg+status,2+status,0]
  7340                           
  7341     0854  0020               	movlb	0	; select bank0
  7342     0855  0841               	movf	___fldiv@b+3,w
  7343     0856  3980               	andlw	128
  7344     0857  00CB               	movwf	___fldiv@sign
  7345     0858                     l3568:
  7346     0858  3541               	lslf	___fldiv@b+3,w
  7347     0859  00D2               	movwf	___fldiv@bexp
  7348     085A                     l3570:
  7349     085A  1FC0               	btfss	___fldiv@b+2,7
  7350     085B  285D               	goto	u4261
  7351     085C  285E               	goto	u4260
  7352     085D                     u4261:
  7353     085D  285F               	goto	l3574
  7354     085E                     u4260:
  7355     085E                     l3572:
  7356     085E  1452               	bsf	___fldiv@bexp,0
  7357     085F                     l3574:
  7358     085F  0852               	movf	___fldiv@bexp,w
  7359     0860  1903               	btfsc	3,2
  7360     0861  2863               	goto	u4271
  7361     0862  2864               	goto	u4270
  7362     0863                     u4271:
  7363     0863  2874               	goto	l3584
  7364     0864                     u4270:
  7365     0864                     l3576:
  7366     0864  0A52               	incf	___fldiv@bexp,w
  7367     0865  1D03               	btfss	3,2
  7368     0866  2868               	goto	u4281
  7369     0867  2869               	goto	u4280
  7370     0868                     u4281:
  7371     0868  2871               	goto	l3580
  7372     0869                     u4280:
  7373     0869                     l3578:
  7374     0869  3000               	movlw	0
  7375     086A  00C1               	movwf	___fldiv@b+3
  7376     086B  3000               	movlw	0
  7377     086C  00C0               	movwf	___fldiv@b+2
  7378     086D  3000               	movlw	0
  7379     086E  00BF               	movwf	___fldiv@b+1
  7380     086F  3000               	movlw	0
  7381     0870  00BE               	movwf	___fldiv@b
  7382     0871                     l3580:
  7383     0871  17C0               	bsf	___fldiv@b+2,7
  7384     0872                     l3582:
  7385     0872  01C1               	clrf	___fldiv@b+3
  7386     0873  287C               	goto	l3586
  7387     0874                     l3584:
  7388     0874  3000               	movlw	0
  7389     0875  00C1               	movwf	___fldiv@b+3
  7390     0876  3000               	movlw	0
  7391     0877  00C0               	movwf	___fldiv@b+2
  7392     0878  3000               	movlw	0
  7393     0879  00BF               	movwf	___fldiv@b+1
  7394     087A  3000               	movlw	0
  7395     087B  00BE               	movwf	___fldiv@b
  7396     087C                     l3586:
  7397     087C  083D               	movf	___fldiv@a+3,w
  7398     087D  3980               	andlw	128
  7399     087E  00C2               	movwf	??___fldiv
  7400     087F  0842               	movf	??___fldiv,w
  7401     0880  06CB               	xorwf	___fldiv@sign,f
  7402     0881                     l3588:
  7403     0881  353D               	lslf	___fldiv@a+3,w
  7404     0882  00D3               	movwf	___fldiv@aexp
  7405     0883                     l3590:
  7406     0883  1FBC               	btfss	___fldiv@a+2,7
  7407     0884  2886               	goto	u4291
  7408     0885  2887               	goto	u4290
  7409     0886                     u4291:
  7410     0886  2888               	goto	l3594
  7411     0887                     u4290:
  7412     0887                     l3592:
  7413     0887  1453               	bsf	___fldiv@aexp,0
  7414     0888                     l3594:
  7415     0888  0853               	movf	___fldiv@aexp,w
  7416     0889  1903               	btfsc	3,2
  7417     088A  288C               	goto	u4301
  7418     088B  288D               	goto	u4300
  7419     088C                     u4301:
  7420     088C  289D               	goto	l3604
  7421     088D                     u4300:
  7422     088D                     l3596:
  7423     088D  0A53               	incf	___fldiv@aexp,w
  7424     088E  1D03               	btfss	3,2
  7425     088F  2891               	goto	u4311
  7426     0890  2892               	goto	u4310
  7427     0891                     u4311:
  7428     0891  289A               	goto	l3600
  7429     0892                     u4310:
  7430     0892                     l3598:
  7431     0892  3000               	movlw	0
  7432     0893  00BD               	movwf	___fldiv@a+3
  7433     0894  3000               	movlw	0
  7434     0895  00BC               	movwf	___fldiv@a+2
  7435     0896  3000               	movlw	0
  7436     0897  00BB               	movwf	___fldiv@a+1
  7437     0898  3000               	movlw	0
  7438     0899  00BA               	movwf	___fldiv@a
  7439     089A                     l3600:
  7440     089A  17BC               	bsf	___fldiv@a+2,7
  7441     089B                     l3602:
  7442     089B  01BD               	clrf	___fldiv@a+3
  7443     089C  28A5               	goto	l976
  7444     089D                     l3604:
  7445     089D  3000               	movlw	0
  7446     089E  00BD               	movwf	___fldiv@a+3
  7447     089F  3000               	movlw	0
  7448     08A0  00BC               	movwf	___fldiv@a+2
  7449     08A1  3000               	movlw	0
  7450     08A2  00BB               	movwf	___fldiv@a+1
  7451     08A3  3000               	movlw	0
  7452     08A4  00BA               	movwf	___fldiv@a
  7453     08A5                     l976:
  7454     08A5  083D               	movf	___fldiv@a+3,w
  7455     08A6  043C               	iorwf	___fldiv@a+2,w
  7456     08A7  043B               	iorwf	___fldiv@a+1,w
  7457     08A8  043A               	iorwf	___fldiv@a,w
  7458     08A9  1D03               	skipz
  7459     08AA  28AC               	goto	u4321
  7460     08AB  28AD               	goto	u4320
  7461     08AC                     u4321:
  7462     08AC  28C6               	goto	l3614
  7463     08AD                     u4320:
  7464     08AD                     l3606:
  7465     08AD  3000               	movlw	0
  7466     08AE  00C1               	movwf	___fldiv@b+3
  7467     08AF  3000               	movlw	0
  7468     08B0  00C0               	movwf	___fldiv@b+2
  7469     08B1  3000               	movlw	0
  7470     08B2  00BF               	movwf	___fldiv@b+1
  7471     08B3  3000               	movlw	0
  7472     08B4  00BE               	movwf	___fldiv@b
  7473     08B5  3080               	movlw	128
  7474     08B6  04C0               	iorwf	___fldiv@b+2,f
  7475     08B7  307F               	movlw	127
  7476     08B8  04C1               	iorwf	___fldiv@b+3,f
  7477     08B9                     l3608:
  7478     08B9  084B               	movf	___fldiv@sign,w
  7479     08BA  00C2               	movwf	??___fldiv
  7480     08BB  0842               	movf	??___fldiv,w
  7481     08BC  04C1               	iorwf	___fldiv@b+3,f
  7482     08BD                     l3610:
  7483     08BD  0841               	movf	___fldiv@b+3,w
  7484     08BE  00BD               	movwf	?___fldiv+3
  7485     08BF  0840               	movf	___fldiv@b+2,w
  7486     08C0  00BC               	movwf	?___fldiv+2
  7487     08C1  083F               	movf	___fldiv@b+1,w
  7488     08C2  00BB               	movwf	?___fldiv+1
  7489     08C3  083E               	movf	___fldiv@b,w
  7490     08C4  00BA               	movwf	?___fldiv
  7491     08C5  29FD               	goto	l978
  7492     08C6                     l3614:
  7493     08C6  0852               	movf	___fldiv@bexp,w
  7494     08C7  1D03               	btfss	3,2
  7495     08C8  28CA               	goto	u4331
  7496     08C9  28CB               	goto	u4330
  7497     08CA                     u4331:
  7498     08CA  28D4               	goto	l3620
  7499     08CB                     u4330:
  7500     08CB                     l3616:
  7501     08CB  3000               	movlw	0
  7502     08CC  00BD               	movwf	?___fldiv+3
  7503     08CD  3000               	movlw	0
  7504     08CE  00BC               	movwf	?___fldiv+2
  7505     08CF  3000               	movlw	0
  7506     08D0  00BB               	movwf	?___fldiv+1
  7507     08D1  3000               	movlw	0
  7508     08D2  00BA               	movwf	?___fldiv
  7509     08D3  29FD               	goto	l978
  7510     08D4                     l3620:
  7511     08D4  0852               	movf	___fldiv@bexp,w
  7512     08D5  00C2               	movwf	??___fldiv
  7513     08D6  01C3               	clrf	??___fldiv+1
  7514     08D7  0843               	movf	??___fldiv+1,w
  7515     08D8  00C5               	movwf	??___fldiv+3
  7516     08D9  0853               	movf	___fldiv@aexp,w
  7517     08DA  0242               	subwf	??___fldiv,w
  7518     08DB  00C4               	movwf	??___fldiv+2
  7519     08DC  1C03               	skipc
  7520     08DD  03C5               	decf	??___fldiv+3,f
  7521     08DE  0844               	movf	??___fldiv+2,w
  7522     08DF  3E7F               	addlw	127
  7523     08E0  00CC               	movwf	___fldiv@new_exp
  7524     08E1  3000               	movlw	0
  7525     08E2  3D45               	addwfc	??___fldiv+3,w
  7526     08E3  00CD               	movwf	___fldiv@new_exp+1
  7527     08E4                     l3622:
  7528     08E4  0841               	movf	___fldiv@b+3,w
  7529     08E5  00CA               	movwf	___fldiv@rem+3
  7530     08E6  0840               	movf	___fldiv@b+2,w
  7531     08E7  00C9               	movwf	___fldiv@rem+2
  7532     08E8  083F               	movf	___fldiv@b+1,w
  7533     08E9  00C8               	movwf	___fldiv@rem+1
  7534     08EA  083E               	movf	___fldiv@b,w
  7535     08EB  00C7               	movwf	___fldiv@rem
  7536     08EC                     l3624:
  7537     08EC  3000               	movlw	0
  7538     08ED  00C1               	movwf	___fldiv@b+3
  7539     08EE  3000               	movlw	0
  7540     08EF  00C0               	movwf	___fldiv@b+2
  7541     08F0  3000               	movlw	0
  7542     08F1  00BF               	movwf	___fldiv@b+1
  7543     08F2  3000               	movlw	0
  7544     08F3  00BE               	movwf	___fldiv@b
  7545     08F4                     l3626:
  7546     08F4  3000               	movlw	0
  7547     08F5  00D1               	movwf	___fldiv@grs+3
  7548     08F6  3000               	movlw	0
  7549     08F7  00D0               	movwf	___fldiv@grs+2
  7550     08F8  3000               	movlw	0
  7551     08F9  00CF               	movwf	___fldiv@grs+1
  7552     08FA  3000               	movlw	0
  7553     08FB  00CE               	movwf	___fldiv@grs
  7554     08FC                     l3628:
  7555     08FC  01D3               	clrf	___fldiv@aexp
  7556     08FD  293C               	goto	l3648
  7557     08FE                     l3630:
  7558     08FE  0853               	movf	___fldiv@aexp,w
  7559     08FF  1903               	btfsc	3,2
  7560     0900  2902               	goto	u4341
  7561     0901  2903               	goto	u4340
  7562     0902                     u4341:
  7563     0902  291D               	goto	l3640
  7564     0903                     u4340:
  7565     0903                     l3632:
  7566     0903  3001               	movlw	1
  7567     0904                     u4355:
  7568     0904  35C7               	lslf	___fldiv@rem,f
  7569     0905  0DC8               	rlf	___fldiv@rem+1,f
  7570     0906  0DC9               	rlf	___fldiv@rem+2,f
  7571     0907  0DCA               	rlf	___fldiv@rem+3,f
  7572     0908  0B89               	decfsz	9,f
  7573     0909  2904               	goto	u4355
  7574     090A  3001               	movlw	1
  7575     090B                     u4365:
  7576     090B  35BE               	lslf	___fldiv@b,f
  7577     090C  0DBF               	rlf	___fldiv@b+1,f
  7578     090D  0DC0               	rlf	___fldiv@b+2,f
  7579     090E  0DC1               	rlf	___fldiv@b+3,f
  7580     090F  0B89               	decfsz	9,f
  7581     0910  290B               	goto	u4365
  7582     0911                     l3634:
  7583     0911  1FD1               	btfss	___fldiv@grs+3,7
  7584     0912  2914               	goto	u4371
  7585     0913  2915               	goto	u4370
  7586     0914                     u4371:
  7587     0914  2916               	goto	l3638
  7588     0915                     u4370:
  7589     0915                     l3636:
  7590     0915  143E               	bsf	___fldiv@b,0
  7591     0916                     l3638:
  7592     0916  3001               	movlw	1
  7593     0917                     u4385:
  7594     0917  35CE               	lslf	___fldiv@grs,f
  7595     0918  0DCF               	rlf	___fldiv@grs+1,f
  7596     0919  0DD0               	rlf	___fldiv@grs+2,f
  7597     091A  0DD1               	rlf	___fldiv@grs+3,f
  7598     091B  0B89               	decfsz	9,f
  7599     091C  2917               	goto	u4385
  7600     091D                     l3640:
  7601     091D  083D               	movf	___fldiv@a+3,w
  7602     091E  024A               	subwf	___fldiv@rem+3,w
  7603     091F  1D03               	skipz
  7604     0920  292B               	goto	u4395
  7605     0921  083C               	movf	___fldiv@a+2,w
  7606     0922  0249               	subwf	___fldiv@rem+2,w
  7607     0923  1D03               	skipz
  7608     0924  292B               	goto	u4395
  7609     0925  083B               	movf	___fldiv@a+1,w
  7610     0926  0248               	subwf	___fldiv@rem+1,w
  7611     0927  1D03               	skipz
  7612     0928  292B               	goto	u4395
  7613     0929  083A               	movf	___fldiv@a,w
  7614     092A  0247               	subwf	___fldiv@rem,w
  7615     092B                     u4395:
  7616     092B  1C03               	skipc
  7617     092C  292E               	goto	u4391
  7618     092D  292F               	goto	u4390
  7619     092E                     u4391:
  7620     092E  2938               	goto	l3646
  7621     092F                     u4390:
  7622     092F                     l3642:
  7623     092F  1751               	bsf	___fldiv@grs+3,6
  7624     0930                     l3644:
  7625     0930  083A               	movf	___fldiv@a,w
  7626     0931  02C7               	subwf	___fldiv@rem,f
  7627     0932  083B               	movf	___fldiv@a+1,w
  7628     0933  3BC8               	subwfb	___fldiv@rem+1,f
  7629     0934  083C               	movf	___fldiv@a+2,w
  7630     0935  3BC9               	subwfb	___fldiv@rem+2,f
  7631     0936  083D               	movf	___fldiv@a+3,w
  7632     0937  3BCA               	subwfb	___fldiv@rem+3,f
  7633     0938                     l3646:
  7634     0938  3001               	movlw	1
  7635     0939  00C2               	movwf	??___fldiv
  7636     093A  0842               	movf	??___fldiv,w
  7637     093B  07D3               	addwf	___fldiv@aexp,f
  7638     093C                     l3648:
  7639     093C  301A               	movlw	26
  7640     093D  0253               	subwf	___fldiv@aexp,w
  7641     093E  1C03               	skipc
  7642     093F  2941               	goto	u4401
  7643     0940  2942               	goto	u4400
  7644     0941                     u4401:
  7645     0941  28FE               	goto	l3630
  7646     0942                     u4400:
  7647     0942                     l3650:
  7648     0942  084A               	movf	___fldiv@rem+3,w
  7649     0943  0449               	iorwf	___fldiv@rem+2,w
  7650     0944  0448               	iorwf	___fldiv@rem+1,w
  7651     0945  0447               	iorwf	___fldiv@rem,w
  7652     0946  1903               	skipnz
  7653     0947  2949               	goto	u4411
  7654     0948  294A               	goto	u4410
  7655     0949                     u4411:
  7656     0949  2963               	goto	l3664
  7657     094A                     u4410:
  7658     094A                     l3652:
  7659     094A  144E               	bsf	___fldiv@grs,0
  7660     094B  2963               	goto	l3664
  7661     094C                     l3654:
  7662     094C  3001               	movlw	1
  7663     094D                     u4425:
  7664     094D  35BE               	lslf	___fldiv@b,f
  7665     094E  0DBF               	rlf	___fldiv@b+1,f
  7666     094F  0DC0               	rlf	___fldiv@b+2,f
  7667     0950  0DC1               	rlf	___fldiv@b+3,f
  7668     0951  0B89               	decfsz	9,f
  7669     0952  294D               	goto	u4425
  7670     0953                     l3656:
  7671     0953  1FD1               	btfss	___fldiv@grs+3,7
  7672     0954  2956               	goto	u4431
  7673     0955  2957               	goto	u4430
  7674     0956                     u4431:
  7675     0956  2958               	goto	l3660
  7676     0957                     u4430:
  7677     0957                     l3658:
  7678     0957  143E               	bsf	___fldiv@b,0
  7679     0958                     l3660:
  7680     0958  3001               	movlw	1
  7681     0959                     u4445:
  7682     0959  35CE               	lslf	___fldiv@grs,f
  7683     095A  0DCF               	rlf	___fldiv@grs+1,f
  7684     095B  0DD0               	rlf	___fldiv@grs+2,f
  7685     095C  0DD1               	rlf	___fldiv@grs+3,f
  7686     095D  0B89               	decfsz	9,f
  7687     095E  2959               	goto	u4445
  7688     095F                     l3662:
  7689     095F  30FF               	movlw	255
  7690     0960  07CC               	addwf	___fldiv@new_exp,f
  7691     0961  30FF               	movlw	255
  7692     0962  3DCD               	addwfc	___fldiv@new_exp+1,f
  7693     0963                     l3664:
  7694     0963  1FC0               	btfss	___fldiv@b+2,7
  7695     0964  2966               	goto	u4451
  7696     0965  2967               	goto	u4450
  7697     0966                     u4451:
  7698     0966  294C               	goto	l3654
  7699     0967                     u4450:
  7700     0967                     l3666:
  7701     0967  01D3               	clrf	___fldiv@aexp
  7702     0968                     l3668:
  7703     0968  1FD1               	btfss	___fldiv@grs+3,7
  7704     0969  296B               	goto	u4461
  7705     096A  296C               	goto	u4460
  7706     096B                     u4461:
  7707     096B  2988               	goto	l3676
  7708     096C                     u4460:
  7709     096C                     l3670:
  7710     096C  30FF               	movlw	255
  7711     096D  054E               	andwf	___fldiv@grs,w
  7712     096E  00C2               	movwf	??___fldiv
  7713     096F  30FF               	movlw	255
  7714     0970  054F               	andwf	___fldiv@grs+1,w
  7715     0971  00C3               	movwf	??___fldiv+1
  7716     0972  30FF               	movlw	255
  7717     0973  0550               	andwf	___fldiv@grs+2,w
  7718     0974  00C4               	movwf	??___fldiv+2
  7719     0975  307F               	movlw	127
  7720     0976  0551               	andwf	___fldiv@grs+3,w
  7721     0977  00C5               	movwf	??___fldiv+3
  7722     0978  0845               	movf	??___fldiv+3,w
  7723     0979  0444               	iorwf	??___fldiv+2,w
  7724     097A  0443               	iorwf	??___fldiv+1,w
  7725     097B  0442               	iorwf	??___fldiv,w
  7726     097C  1903               	skipnz
  7727     097D  297F               	goto	u4471
  7728     097E  2980               	goto	u4470
  7729     097F                     u4471:
  7730     097F  2983               	goto	l992
  7731     0980                     u4470:
  7732     0980                     l3672:
  7733     0980  01D3               	clrf	___fldiv@aexp
  7734     0981  0AD3               	incf	___fldiv@aexp,f
  7735     0982  2988               	goto	l3676
  7736     0983                     l992:
  7737     0983  1C3E               	btfss	___fldiv@b,0
  7738     0984  2986               	goto	u4481
  7739     0985  2987               	goto	u4480
  7740     0986                     u4481:
  7741     0986  2988               	goto	l3676
  7742     0987                     u4480:
  7743     0987  2980               	goto	l3672
  7744     0988                     l3676:
  7745     0988  0853               	movf	___fldiv@aexp,w
  7746     0989  1903               	btfsc	3,2
  7747     098A  298C               	goto	u4491
  7748     098B  298D               	goto	u4490
  7749     098C                     u4491:
  7750     098C  29B5               	goto	l3686
  7751     098D                     u4490:
  7752     098D                     l3678:
  7753     098D  3001               	movlw	1
  7754     098E  07BE               	addwf	___fldiv@b,f
  7755     098F  3000               	movlw	0
  7756     0990  3DBF               	addwfc	___fldiv@b+1,f
  7757     0991  3000               	movlw	0
  7758     0992  3DC0               	addwfc	___fldiv@b+2,f
  7759     0993  3000               	movlw	0
  7760     0994  3DC1               	addwfc	___fldiv@b+3,f
  7761     0995                     l3680:
  7762     0995  1C41               	btfss	___fldiv@b+3,0
  7763     0996  2998               	goto	u4501
  7764     0997  2999               	goto	u4500
  7765     0998                     u4501:
  7766     0998  29B5               	goto	l3686
  7767     0999                     u4500:
  7768     0999                     l3682:
  7769     0999  083E               	movf	___fldiv@b,w
  7770     099A  00C2               	movwf	??___fldiv
  7771     099B  083F               	movf	___fldiv@b+1,w
  7772     099C  00C3               	movwf	??___fldiv+1
  7773     099D  0840               	movf	___fldiv@b+2,w
  7774     099E  00C4               	movwf	??___fldiv+2
  7775     099F  0841               	movf	___fldiv@b+3,w
  7776     09A0  00C5               	movwf	??___fldiv+3
  7777     09A1  3001               	movlw	1
  7778     09A2  00C6               	movwf	??___fldiv+4
  7779     09A3                     u4515:
  7780     09A3  37C5               	asrf	??___fldiv+3,f
  7781     09A4  0CC4               	rrf	??___fldiv+2,f
  7782     09A5  0CC3               	rrf	??___fldiv+1,f
  7783     09A6  0CC2               	rrf	??___fldiv,f
  7784     09A7                     u4510:
  7785     09A7  0BC6               	decfsz	??___fldiv+4,f
  7786     09A8  29A3               	goto	u4515
  7787     09A9  0845               	movf	??___fldiv+3,w
  7788     09AA  00C1               	movwf	___fldiv@b+3
  7789     09AB  0844               	movf	??___fldiv+2,w
  7790     09AC  00C0               	movwf	___fldiv@b+2
  7791     09AD  0843               	movf	??___fldiv+1,w
  7792     09AE  00BF               	movwf	___fldiv@b+1
  7793     09AF  0842               	movf	??___fldiv,w
  7794     09B0  00BE               	movwf	___fldiv@b
  7795     09B1                     l3684:
  7796     09B1  3001               	movlw	1
  7797     09B2  07CC               	addwf	___fldiv@new_exp,f
  7798     09B3  3000               	movlw	0
  7799     09B4  3DCD               	addwfc	___fldiv@new_exp+1,f
  7800     09B5                     l3686:
  7801     09B5  084D               	movf	___fldiv@new_exp+1,w
  7802     09B6  3A80               	xorlw	128
  7803     09B7  00C2               	movwf	??___fldiv
  7804     09B8  3080               	movlw	128
  7805     09B9  0242               	subwf	??___fldiv,w
  7806     09BA  1D03               	skipz
  7807     09BB  29BE               	goto	u4525
  7808     09BC  30FF               	movlw	255
  7809     09BD  024C               	subwf	___fldiv@new_exp,w
  7810     09BE                     u4525:
  7811     09BE  1C03               	skipc
  7812     09BF  29C1               	goto	u4521
  7813     09C0  29C2               	goto	u4520
  7814     09C1                     u4521:
  7815     09C1  29CF               	goto	l997
  7816     09C2                     u4520:
  7817     09C2                     l3688:
  7818     09C2  30FF               	movlw	255
  7819     09C3  0020               	movlb	0	; select bank0
  7820     09C4  00CC               	movwf	___fldiv@new_exp
  7821     09C5  3000               	movlw	0
  7822     09C6  00CD               	movwf	___fldiv@new_exp+1
  7823     09C7  3000               	movlw	0
  7824     09C8  00C1               	movwf	___fldiv@b+3
  7825     09C9  3000               	movlw	0
  7826     09CA  00C0               	movwf	___fldiv@b+2
  7827     09CB  3000               	movlw	0
  7828     09CC  00BF               	movwf	___fldiv@b+1
  7829     09CD  3000               	movlw	0
  7830     09CE  00BE               	movwf	___fldiv@b
  7831     09CF                     l997:
  7832     09CF  0020               	movlb	0	; select bank0
  7833     09D0  084D               	movf	___fldiv@new_exp+1,w
  7834     09D1  3A80               	xorlw	128
  7835     09D2  00C2               	movwf	??___fldiv
  7836     09D3  3080               	movlw	128
  7837     09D4  0242               	subwf	??___fldiv,w
  7838     09D5  1D03               	skipz
  7839     09D6  29D9               	goto	u4535
  7840     09D7  3001               	movlw	1
  7841     09D8  024C               	subwf	___fldiv@new_exp,w
  7842     09D9                     u4535:
  7843     09D9  1803               	skipnc
  7844     09DA  29DC               	goto	u4531
  7845     09DB  29DD               	goto	u4530
  7846     09DC                     u4531:
  7847     09DC  29E9               	goto	l998
  7848     09DD                     u4530:
  7849     09DD                     l3690:
  7850     09DD  0020               	movlb	0	; select bank0
  7851     09DE  01CC               	clrf	___fldiv@new_exp
  7852     09DF  01CD               	clrf	___fldiv@new_exp+1
  7853     09E0                     l3692:
  7854     09E0  3000               	movlw	0
  7855     09E1  00C1               	movwf	___fldiv@b+3
  7856     09E2  3000               	movlw	0
  7857     09E3  00C0               	movwf	___fldiv@b+2
  7858     09E4  3000               	movlw	0
  7859     09E5  00BF               	movwf	___fldiv@b+1
  7860     09E6  3000               	movlw	0
  7861     09E7  00BE               	movwf	___fldiv@b
  7862     09E8                     l3694:
  7863     09E8  01CB               	clrf	___fldiv@sign
  7864     09E9                     l998:
  7865     09E9  0020               	movlb	0	; select bank0
  7866     09EA  084C               	movf	___fldiv@new_exp,w
  7867     09EB  00D2               	movwf	___fldiv@bexp
  7868     09EC                     l3696:
  7869     09EC  1C52               	btfss	___fldiv@bexp,0
  7870     09ED  29EF               	goto	u4541
  7871     09EE  29F0               	goto	u4540
  7872     09EF                     u4541:
  7873     09EF  29F2               	goto	l3700
  7874     09F0                     u4540:
  7875     09F0                     l3698:
  7876     09F0  17C0               	bsf	___fldiv@b+2,7
  7877     09F1  29F6               	goto	l1000
  7878     09F2                     l3700:
  7879     09F2  307F               	movlw	127
  7880     09F3  00C2               	movwf	??___fldiv
  7881     09F4  0842               	movf	??___fldiv,w
  7882     09F5  05C0               	andwf	___fldiv@b+2,f
  7883     09F6                     l1000:
  7884     09F6  3652               	lsrf	___fldiv@bexp,w
  7885     09F7  00C1               	movwf	___fldiv@b+3
  7886     09F8  084B               	movf	___fldiv@sign,w
  7887     09F9  00C2               	movwf	??___fldiv
  7888     09FA  0842               	movf	??___fldiv,w
  7889     09FB  04C1               	iorwf	___fldiv@b+3,f
  7890     09FC  28BD               	goto	l3610
  7891     09FD                     l978:
  7892     09FD  0008               	return
  7893     09FE                     __end_of___fldiv:
  7894                           
  7895                           	psect	text27
  7896     0BB9                     __ptext27:	
  7897 ;; *************** function ___fladd *****************
  7898 ;; Defined at:
  7899 ;;		line 10 in file "C:\Program Files\Microchip\xc8\v2.41\pic\sources\c90\common\sprcadd.c"
  7900 ;; Parameters:    Size  Location     Type
  7901 ;;  b               4    0[COMMON] unsigned char 
  7902 ;;  a               4    4[COMMON] unsigned char 
  7903 ;; Auto vars:     Size  Location     Type
  7904 ;;  grs             1   11[COMMON] unsigned char 
  7905 ;;  bexp            1   10[COMMON] unsigned char 
  7906 ;;  aexp            1    9[COMMON] unsigned char 
  7907 ;;  signs           1    8[COMMON] unsigned char 
  7908 ;; Return value:  Size  Location     Type
  7909 ;;                  4    0[COMMON] unsigned char 
  7910 ;; Registers used:
  7911 ;;		wreg, status,2, status,0
  7912 ;; Tracked objects:
  7913 ;;		On entry : 0/0
  7914 ;;		On exit  : 0/0
  7915 ;;		Unchanged: 0/0
  7916 ;; Data sizes:     COMMON   BANK0   BANK1   BANK2   BANK3   BANK4   BANK5   BANK6   BANK7   BANK8   BANK9  BANK10  BANK1
      +1  BANK12  BANK13  BANK14  BANK15  BANK16  BANK17  BANK18  BANK19  BANK20  BANK21  BANK22  BANK23  BANK24  BANK25
  7917 ;;      Params:         8       0       0       0       0       0       0       0       0       0       0       0       
      +0       0       0       0       0       0       0       0       0       0       0       0       0       0       0
  7918 ;;      Locals:         4       0       0       0       0       0       0       0       0       0       0       0       
      +0       0       0       0       0       0       0       0       0       0       0       0       0       0       0
  7919 ;;      Temps:          0       8       0       0       0       0       0       0       0       0       0       0       
      +0       0       0       0       0       0       0       0       0       0       0       0       0       0       0
  7920 ;;      Totals:        12       8       0       0       0       0       0       0       0       0       0       0       
      +0       0       0       0       0       0       0       0       0       0       0       0       0       0       0
  7921 ;;Total ram usage:       20 bytes
  7922 ;; Hardware stack levels used: 1
  7923 ;; This function calls:
  7924 ;;		Nothing
  7925 ;; This function is called by:
  7926 ;;		_main
  7927 ;; This function uses a non-reentrant model
  7928 ;;
  7929                           
  7930     0BB9                     ___fladd:	
  7931                           ;psect for function ___fladd
  7932                           
  7933     0BB9                     l3372:	
  7934                           ;incstack = 0
  7935                           ; Regs used in ___fladd: [wreg+status,2+status,0]
  7936                           
  7937     0BB9  0873               	movf	___fladd@b+3,w
  7938     0BBA  3980               	andlw	128
  7939     0BBB  00F8               	movwf	___fladd@signs
  7940     0BBC                     l3374:
  7941     0BBC  3573               	lslf	___fladd@b+3,w
  7942     0BBD  00FA               	movwf	___fladd@bexp
  7943     0BBE                     l3376:
  7944     0BBE  1FF2               	btfss	___fladd@b+2,7
  7945     0BBF  2BC1               	goto	u3831
  7946     0BC0  2BC2               	goto	u3830
  7947     0BC1                     u3831:
  7948     0BC1  2BC3               	goto	l3380
  7949     0BC2                     u3830:
  7950     0BC2                     l3378:
  7951     0BC2  147A               	bsf	___fladd@bexp,0
  7952     0BC3                     l3380:
  7953     0BC3  087A               	movf	___fladd@bexp,w
  7954     0BC4  1903               	btfsc	3,2
  7955     0BC5  2BC7               	goto	u3841
  7956     0BC6  2BC8               	goto	u3840
  7957     0BC7                     u3841:
  7958     0BC7  2BD8               	goto	l3390
  7959     0BC8                     u3840:
  7960     0BC8                     l3382:
  7961     0BC8  0A7A               	incf	___fladd@bexp,w
  7962     0BC9  1D03               	btfss	3,2
  7963     0BCA  2BCC               	goto	u3851
  7964     0BCB  2BCD               	goto	u3850
  7965     0BCC                     u3851:
  7966     0BCC  2BD5               	goto	l3386
  7967     0BCD                     u3850:
  7968     0BCD                     l3384:
  7969     0BCD  3000               	movlw	0
  7970     0BCE  00F3               	movwf	___fladd@b+3
  7971     0BCF  3000               	movlw	0
  7972     0BD0  00F2               	movwf	___fladd@b+2
  7973     0BD1  3000               	movlw	0
  7974     0BD2  00F1               	movwf	___fladd@b+1
  7975     0BD3  3000               	movlw	0
  7976     0BD4  00F0               	movwf	___fladd@b
  7977     0BD5                     l3386:
  7978     0BD5  17F2               	bsf	___fladd@b+2,7
  7979     0BD6                     l3388:
  7980     0BD6  01F3               	clrf	___fladd@b+3
  7981     0BD7  2BE0               	goto	l3392
  7982     0BD8                     l3390:
  7983     0BD8  3000               	movlw	0
  7984     0BD9  00F3               	movwf	___fladd@b+3
  7985     0BDA  3000               	movlw	0
  7986     0BDB  00F2               	movwf	___fladd@b+2
  7987     0BDC  3000               	movlw	0
  7988     0BDD  00F1               	movwf	___fladd@b+1
  7989     0BDE  3000               	movlw	0
  7990     0BDF  00F0               	movwf	___fladd@b
  7991     0BE0                     l3392:
  7992     0BE0  0877               	movf	___fladd@a+3,w
  7993     0BE1  3980               	andlw	128
  7994     0BE2  00F9               	movwf	___fladd@aexp
  7995     0BE3                     l3394:
  7996     0BE3  0879               	movf	___fladd@aexp,w
  7997     0BE4  0678               	xorwf	___fladd@signs,w
  7998     0BE5  1903               	skipnz
  7999     0BE6  2BE8               	goto	u3861
  8000     0BE7  2BE9               	goto	u3860
  8001     0BE8                     u3861:
  8002     0BE8  2BEA               	goto	l3398
  8003     0BE9                     u3860:
  8004     0BE9                     l3396:
  8005     0BE9  1778               	bsf	___fladd@signs,6
  8006     0BEA                     l3398:
  8007     0BEA  3577               	lslf	___fladd@a+3,w
  8008     0BEB  00F9               	movwf	___fladd@aexp
  8009     0BEC                     l3400:
  8010     0BEC  1FF6               	btfss	___fladd@a+2,7
  8011     0BED  2BEF               	goto	u3871
  8012     0BEE  2BF0               	goto	u3870
  8013     0BEF                     u3871:
  8014     0BEF  2BF1               	goto	l3404
  8015     0BF0                     u3870:
  8016     0BF0                     l3402:
  8017     0BF0  1479               	bsf	___fladd@aexp,0
  8018     0BF1                     l3404:
  8019     0BF1  0879               	movf	___fladd@aexp,w
  8020     0BF2  1903               	btfsc	3,2
  8021     0BF3  2BF5               	goto	u3881
  8022     0BF4  2BF6               	goto	u3880
  8023     0BF5                     u3881:
  8024     0BF5  2C06               	goto	l3414
  8025     0BF6                     u3880:
  8026     0BF6                     l3406:
  8027     0BF6  0A79               	incf	___fladd@aexp,w
  8028     0BF7  1D03               	btfss	3,2
  8029     0BF8  2BFA               	goto	u3891
  8030     0BF9  2BFB               	goto	u3890
  8031     0BFA                     u3891:
  8032     0BFA  2C03               	goto	l3410
  8033     0BFB                     u3890:
  8034     0BFB                     l3408:
  8035     0BFB  3000               	movlw	0
  8036     0BFC  00F7               	movwf	___fladd@a+3
  8037     0BFD  3000               	movlw	0
  8038     0BFE  00F6               	movwf	___fladd@a+2
  8039     0BFF  3000               	movlw	0
  8040     0C00  00F5               	movwf	___fladd@a+1
  8041     0C01  3000               	movlw	0
  8042     0C02  00F4               	movwf	___fladd@a
  8043     0C03                     l3410:
  8044     0C03  17F6               	bsf	___fladd@a+2,7
  8045     0C04                     l3412:
  8046     0C04  01F7               	clrf	___fladd@a+3
  8047     0C05  2C0E               	goto	l920
  8048     0C06                     l3414:
  8049     0C06  3000               	movlw	0
  8050     0C07  00F7               	movwf	___fladd@a+3
  8051     0C08  3000               	movlw	0
  8052     0C09  00F6               	movwf	___fladd@a+2
  8053     0C0A  3000               	movlw	0
  8054     0C0B  00F5               	movwf	___fladd@a+1
  8055     0C0C  3000               	movlw	0
  8056     0C0D  00F4               	movwf	___fladd@a
  8057     0C0E                     l920:
  8058     0C0E  087A               	movf	___fladd@bexp,w
  8059     0C0F  0279               	subwf	___fladd@aexp,w
  8060     0C10  1803               	skipnc
  8061     0C11  2C13               	goto	u3901
  8062     0C12  2C14               	goto	u3900
  8063     0C13                     u3901:
  8064     0C13  2C3B               	goto	l3450
  8065     0C14                     u3900:
  8066     0C14                     l3416:
  8067     0C14  1F78               	btfss	___fladd@signs,6
  8068     0C15  2C17               	goto	u3911
  8069     0C16  2C18               	goto	u3910
  8070     0C17                     u3911:
  8071     0C17  2C1D               	goto	l3420
  8072     0C18                     u3910:
  8073     0C18                     l3418:
  8074     0C18  3080               	movlw	128
  8075     0C19  0020               	movlb	0	; select bank0
  8076     0C1A  00A0               	movwf	??___fladd
  8077     0C1B  0820               	movf	??___fladd,w
  8078     0C1C  06F8               	xorwf	___fladd@signs,f
  8079     0C1D                     l3420:
  8080     0C1D  087A               	movf	___fladd@bexp,w
  8081     0C1E  00FB               	movwf	___fladd@grs
  8082     0C1F                     l3422:
  8083     0C1F  0879               	movf	___fladd@aexp,w
  8084     0C20  00FA               	movwf	___fladd@bexp
  8085     0C21                     l3424:
  8086     0C21  087B               	movf	___fladd@grs,w
  8087     0C22  00F9               	movwf	___fladd@aexp
  8088     0C23                     l3426:
  8089     0C23  0870               	movf	___fladd@b,w
  8090     0C24  00FB               	movwf	___fladd@grs
  8091     0C25                     l3428:
  8092     0C25  0874               	movf	___fladd@a,w
  8093     0C26  00F0               	movwf	___fladd@b
  8094     0C27                     l3430:
  8095     0C27  087B               	movf	___fladd@grs,w
  8096     0C28  00F4               	movwf	___fladd@a
  8097     0C29                     l3432:
  8098     0C29  0871               	movf	___fladd@b+1,w
  8099     0C2A  00FB               	movwf	___fladd@grs
  8100     0C2B                     l3434:
  8101     0C2B  0875               	movf	___fladd@a+1,w
  8102     0C2C  00F1               	movwf	___fladd@b+1
  8103     0C2D                     l3436:
  8104     0C2D  087B               	movf	___fladd@grs,w
  8105     0C2E  00F5               	movwf	___fladd@a+1
  8106     0C2F                     l3438:
  8107     0C2F  0872               	movf	___fladd@b+2,w
  8108     0C30  00FB               	movwf	___fladd@grs
  8109     0C31                     l3440:
  8110     0C31  0876               	movf	___fladd@a+2,w
  8111     0C32  00F2               	movwf	___fladd@b+2
  8112     0C33                     l3442:
  8113     0C33  087B               	movf	___fladd@grs,w
  8114     0C34  00F6               	movwf	___fladd@a+2
  8115     0C35                     l3444:
  8116     0C35  0873               	movf	___fladd@b+3,w
  8117     0C36  00FB               	movwf	___fladd@grs
  8118     0C37                     l3446:
  8119     0C37  0877               	movf	___fladd@a+3,w
  8120     0C38  00F3               	movwf	___fladd@b+3
  8121     0C39                     l3448:
  8122     0C39  087B               	movf	___fladd@grs,w
  8123     0C3A  00F7               	movwf	___fladd@a+3
  8124     0C3B                     l3450:
  8125     0C3B  01FB               	clrf	___fladd@grs
  8126     0C3C                     l3452:
  8127     0C3C  0879               	movf	___fladd@aexp,w
  8128     0C3D  0020               	movlb	0	; select bank0
  8129     0C3E  00A0               	movwf	??___fladd
  8130     0C3F  01A1               	clrf	??___fladd+1
  8131     0C40  0821               	movf	??___fladd+1,w
  8132     0C41  00A3               	movwf	??___fladd+3
  8133     0C42  087A               	movf	___fladd@bexp,w
  8134     0C43  0220               	subwf	??___fladd,w
  8135     0C44  00A2               	movwf	??___fladd+2
  8136     0C45  1C03               	skipc
  8137     0C46  03A3               	decf	??___fladd+3,f
  8138     0C47  0823               	movf	??___fladd+3,w
  8139     0C48  3A80               	xorlw	128
  8140     0C49  00A4               	movwf	??___fladd+4
  8141     0C4A  3080               	movlw	128
  8142     0C4B  0224               	subwf	??___fladd+4,w
  8143     0C4C  1D03               	skipz
  8144     0C4D  2C50               	goto	u3925
  8145     0C4E  301A               	movlw	26
  8146     0C4F  0222               	subwf	??___fladd+2,w
  8147     0C50                     u3925:
  8148     0C50  1C03               	skipc
  8149     0C51  2C53               	goto	u3921
  8150     0C52  2C54               	goto	u3920
  8151     0C53                     u3921:
  8152     0C53  2C86               	goto	l3468
  8153     0C54                     u3920:
  8154     0C54                     l3454:
  8155     0C54  0873               	movf	___fladd@b+3,w
  8156     0C55  0472               	iorwf	___fladd@b+2,w
  8157     0C56  0471               	iorwf	___fladd@b+1,w
  8158     0C57  0470               	iorwf	___fladd@b,w
  8159     0C58  1D03               	skipz
  8160     0C59  2C5B               	goto	u3931
  8161     0C5A  2C5D               	goto	u3930
  8162     0C5B                     u3931:
  8163     0C5B  3001               	movlw	1
  8164     0C5C  2C5E               	goto	u3940
  8165     0C5D                     u3930:
  8166     0C5D  3000               	movlw	0
  8167     0C5E                     u3940:
  8168     0C5E  00FB               	movwf	___fladd@grs
  8169     0C5F  3000               	movlw	0
  8170     0C60  00F3               	movwf	___fladd@b+3
  8171     0C61  3000               	movlw	0
  8172     0C62  00F2               	movwf	___fladd@b+2
  8173     0C63  3000               	movlw	0
  8174     0C64  00F1               	movwf	___fladd@b+1
  8175     0C65  3000               	movlw	0
  8176     0C66  00F0               	movwf	___fladd@b
  8177     0C67  0879               	movf	___fladd@aexp,w
  8178     0C68  00FA               	movwf	___fladd@bexp
  8179     0C69  2C8C               	goto	l924
  8180     0C6A                     l926:
  8181     0C6A  1C7B               	btfss	___fladd@grs,0
  8182     0C6B  2C6D               	goto	u3951
  8183     0C6C  2C6E               	goto	u3950
  8184     0C6D                     u3951:
  8185     0C6D  2C72               	goto	l3458
  8186     0C6E                     u3950:
  8187     0C6E                     l3456:
  8188     0C6E  367B               	lsrf	___fladd@grs,w
  8189     0C6F  3801               	iorlw	1
  8190     0C70  00FB               	movwf	___fladd@grs
  8191     0C71  2C74               	goto	l3460
  8192     0C72                     l3458:
  8193     0C72  1003               	clrc
  8194     0C73  0CFB               	rrf	___fladd@grs,f
  8195     0C74                     l3460:
  8196     0C74  1C70               	btfss	___fladd@b,0
  8197     0C75  2C77               	goto	u3961
  8198     0C76  2C78               	goto	u3960
  8199     0C77                     u3961:
  8200     0C77  2C79               	goto	l3464
  8201     0C78                     u3960:
  8202     0C78                     l3462:
  8203     0C78  17FB               	bsf	___fladd@grs,7
  8204     0C79                     l3464:
  8205     0C79  3001               	movlw	1
  8206     0C7A  0020               	movlb	0	; select bank0
  8207     0C7B  00A0               	movwf	??___fladd
  8208     0C7C                     u3975:
  8209     0C7C  37F3               	asrf	___fladd@b+3,f
  8210     0C7D  0CF2               	rrf	___fladd@b+2,f
  8211     0C7E  0CF1               	rrf	___fladd@b+1,f
  8212     0C7F  0CF0               	rrf	___fladd@b,f
  8213     0C80  0BA0               	decfsz	??___fladd& (0+127),f
  8214     0C81  2C7C               	goto	u3975
  8215     0C82                     l3466:
  8216     0C82  3001               	movlw	1
  8217     0C83  00A0               	movwf	??___fladd
  8218     0C84  0820               	movf	??___fladd,w
  8219     0C85  07FA               	addwf	___fladd@bexp,f
  8220     0C86                     l3468:
  8221     0C86  0879               	movf	___fladd@aexp,w
  8222     0C87  027A               	subwf	___fladd@bexp,w
  8223     0C88  1C03               	skipc
  8224     0C89  2C8B               	goto	u3981
  8225     0C8A  2C8C               	goto	u3980
  8226     0C8B                     u3981:
  8227     0C8B  2C6A               	goto	l926
  8228     0C8C                     u3980:
  8229     0C8C                     l924:
  8230     0C8C  1B78               	btfsc	___fladd@signs,6
  8231     0C8D  2C8F               	goto	u3991
  8232     0C8E  2C90               	goto	u3990
  8233     0C8F                     u3991:
  8234     0C8F  2CC7               	goto	l3494
  8235     0C90                     u3990:
  8236     0C90                     l3470:
  8237     0C90  087A               	movf	___fladd@bexp,w
  8238     0C91  1D03               	btfss	3,2
  8239     0C92  2C94               	goto	u4001
  8240     0C93  2C95               	goto	u4000
  8241     0C94                     u4001:
  8242     0C94  2C9E               	goto	l3476
  8243     0C95                     u4000:
  8244     0C95                     l3472:
  8245     0C95  3000               	movlw	0
  8246     0C96  00F3               	movwf	?___fladd+3
  8247     0C97  3000               	movlw	0
  8248     0C98  00F2               	movwf	?___fladd+2
  8249     0C99  3000               	movlw	0
  8250     0C9A  00F1               	movwf	?___fladd+1
  8251     0C9B  3000               	movlw	0
  8252     0C9C  00F0               	movwf	?___fladd
  8253     0C9D  2DC4               	goto	l933
  8254     0C9E                     l3476:
  8255     0C9E  0874               	movf	___fladd@a,w
  8256     0C9F  07F0               	addwf	___fladd@b,f
  8257     0CA0  0875               	movf	___fladd@a+1,w
  8258     0CA1  3DF1               	addwfc	___fladd@b+1,f
  8259     0CA2  0876               	movf	___fladd@a+2,w
  8260     0CA3  3DF2               	addwfc	___fladd@b+2,f
  8261     0CA4  0877               	movf	___fladd@a+3,w
  8262     0CA5  3DF3               	addwfc	___fladd@b+3,f
  8263     0CA6                     l3478:
  8264     0CA6  1C73               	btfss	___fladd@b+3,0
  8265     0CA7  2CA9               	goto	u4011
  8266     0CA8  2CAA               	goto	u4010
  8267     0CA9                     u4011:
  8268     0CA9  2D54               	goto	l3528
  8269     0CAA                     u4010:
  8270     0CAA                     l3480:
  8271     0CAA  1C7B               	btfss	___fladd@grs,0
  8272     0CAB  2CAD               	goto	u4021
  8273     0CAC  2CAE               	goto	u4020
  8274     0CAD                     u4021:
  8275     0CAD  2CB2               	goto	l3484
  8276     0CAE                     u4020:
  8277     0CAE                     l3482:
  8278     0CAE  367B               	lsrf	___fladd@grs,w
  8279     0CAF  3801               	iorlw	1
  8280     0CB0  00FB               	movwf	___fladd@grs
  8281     0CB1  2CB4               	goto	l3486
  8282     0CB2                     l3484:
  8283     0CB2  1003               	clrc
  8284     0CB3  0CFB               	rrf	___fladd@grs,f
  8285     0CB4                     l3486:
  8286     0CB4  1C70               	btfss	___fladd@b,0
  8287     0CB5  2CB7               	goto	u4031
  8288     0CB6  2CB8               	goto	u4030
  8289     0CB7                     u4031:
  8290     0CB7  2CB9               	goto	l3490
  8291     0CB8                     u4030:
  8292     0CB8                     l3488:
  8293     0CB8  17FB               	bsf	___fladd@grs,7
  8294     0CB9                     l3490:
  8295     0CB9  3001               	movlw	1
  8296     0CBA  0020               	movlb	0	; select bank0
  8297     0CBB  00A0               	movwf	??___fladd
  8298     0CBC                     u4045:
  8299     0CBC  37F3               	asrf	___fladd@b+3,f
  8300     0CBD  0CF2               	rrf	___fladd@b+2,f
  8301     0CBE  0CF1               	rrf	___fladd@b+1,f
  8302     0CBF  0CF0               	rrf	___fladd@b,f
  8303     0CC0  0BA0               	decfsz	??___fladd& (0+127),f
  8304     0CC1  2CBC               	goto	u4045
  8305     0CC2                     l3492:
  8306     0CC2  3001               	movlw	1
  8307     0CC3  00A0               	movwf	??___fladd
  8308     0CC4  0820               	movf	??___fladd,w
  8309     0CC5  07FA               	addwf	___fladd@bexp,f
  8310     0CC6  2D54               	goto	l3528
  8311     0CC7                     l3494:
  8312     0CC7  0873               	movf	___fladd@b+3,w
  8313     0CC8  3A80               	xorlw	128
  8314     0CC9  0020               	movlb	0	; select bank0
  8315     0CCA  00A0               	movwf	??___fladd
  8316     0CCB  0877               	movf	___fladd@a+3,w
  8317     0CCC  3A80               	xorlw	128
  8318     0CCD  0220               	subwf	??___fladd,w
  8319     0CCE  1D03               	skipz
  8320     0CCF  2CDA               	goto	u4053
  8321     0CD0  0876               	movf	___fladd@a+2,w
  8322     0CD1  0272               	subwf	___fladd@b+2,w
  8323     0CD2  1D03               	skipz
  8324     0CD3  2CDA               	goto	u4053
  8325     0CD4  0875               	movf	___fladd@a+1,w
  8326     0CD5  0271               	subwf	___fladd@b+1,w
  8327     0CD6  1D03               	skipz
  8328     0CD7  2CDA               	goto	u4053
  8329     0CD8  0874               	movf	___fladd@a,w
  8330     0CD9  0270               	subwf	___fladd@b,w
  8331     0CDA                     u4053:
  8332     0CDA  1803               	skipnc
  8333     0CDB  2CDD               	goto	u4051
  8334     0CDC  2CDE               	goto	u4050
  8335     0CDD                     u4051:
  8336     0CDD  2D16               	goto	l3504
  8337     0CDE                     u4050:
  8338     0CDE                     l3496:
  8339     0CDE  30FF               	movlw	255
  8340     0CDF  00A0               	movwf	??___fladd
  8341     0CE0  30FF               	movlw	255
  8342     0CE1  00A1               	movwf	??___fladd+1
  8343     0CE2  30FF               	movlw	255
  8344     0CE3  00A2               	movwf	??___fladd+2
  8345     0CE4  30FF               	movlw	255
  8346     0CE5  00A3               	movwf	??___fladd+3
  8347     0CE6  0870               	movf	___fladd@b,w
  8348     0CE7  0274               	subwf	___fladd@a,w
  8349     0CE8  00A4               	movwf	??___fladd+4
  8350     0CE9  0871               	movf	___fladd@b+1,w
  8351     0CEA  3B75               	subwfb	___fladd@a+1,w
  8352     0CEB  00A5               	movwf	??___fladd+5
  8353     0CEC  0872               	movf	___fladd@b+2,w
  8354     0CED  3B76               	subwfb	___fladd@a+2,w
  8355     0CEE  00A6               	movwf	??___fladd+6
  8356     0CEF  0873               	movf	___fladd@b+3,w
  8357     0CF0  3B77               	subwfb	___fladd@a+3,w
  8358     0CF1  00A7               	movwf	??___fladd+7
  8359     0CF2  0824               	movf	??___fladd+4,w
  8360     0CF3  07A0               	addwf	??___fladd,f
  8361     0CF4  0825               	movf	??___fladd+5,w
  8362     0CF5  3DA1               	addwfc	??___fladd+1,f
  8363     0CF6  0826               	movf	??___fladd+6,w
  8364     0CF7  3DA2               	addwfc	??___fladd+2,f
  8365     0CF8  0827               	movf	??___fladd+7,w
  8366     0CF9  3DA3               	addwfc	??___fladd+3,f
  8367     0CFA  0823               	movf	??___fladd+3,w
  8368     0CFB  00F3               	movwf	___fladd@b+3
  8369     0CFC  0822               	movf	??___fladd+2,w
  8370     0CFD  00F2               	movwf	___fladd@b+2
  8371     0CFE  0821               	movf	??___fladd+1,w
  8372     0CFF  00F1               	movwf	___fladd@b+1
  8373     0D00  0820               	movf	??___fladd,w
  8374     0D01  00F0               	movwf	___fladd@b
  8375     0D02                     l3498:
  8376     0D02  3080               	movlw	128
  8377     0D03  00A0               	movwf	??___fladd
  8378     0D04  0820               	movf	??___fladd,w
  8379     0D05  06F8               	xorwf	___fladd@signs,f
  8380     0D06  09FB               	comf	___fladd@grs,f
  8381     0D07  0AFB               	incf	___fladd@grs,f
  8382     0D08                     l3500:
  8383     0D08  087B               	movf	___fladd@grs,w
  8384     0D09  1D03               	btfss	3,2
  8385     0D0A  2D0C               	goto	u4061
  8386     0D0B  2D0D               	goto	u4060
  8387     0D0C                     u4061:
  8388     0D0C  2D1E               	goto	l941
  8389     0D0D                     u4060:
  8390     0D0D                     l3502:
  8391     0D0D  3001               	movlw	1
  8392     0D0E  07F0               	addwf	___fladd@b,f
  8393     0D0F  3000               	movlw	0
  8394     0D10  3DF1               	addwfc	___fladd@b+1,f
  8395     0D11  3000               	movlw	0
  8396     0D12  3DF2               	addwfc	___fladd@b+2,f
  8397     0D13  3000               	movlw	0
  8398     0D14  3DF3               	addwfc	___fladd@b+3,f
  8399     0D15  2D1E               	goto	l941
  8400     0D16                     l3504:
  8401     0D16  0874               	movf	___fladd@a,w
  8402     0D17  02F0               	subwf	___fladd@b,f
  8403     0D18  0875               	movf	___fladd@a+1,w
  8404     0D19  3BF1               	subwfb	___fladd@b+1,f
  8405     0D1A  0876               	movf	___fladd@a+2,w
  8406     0D1B  3BF2               	subwfb	___fladd@b+2,f
  8407     0D1C  0877               	movf	___fladd@a+3,w
  8408     0D1D  3BF3               	subwfb	___fladd@b+3,f
  8409     0D1E                     l941:
  8410     0D1E  0873               	movf	___fladd@b+3,w
  8411     0D1F  0472               	iorwf	___fladd@b+2,w
  8412     0D20  0471               	iorwf	___fladd@b+1,w
  8413     0D21  0470               	iorwf	___fladd@b,w
  8414     0D22  1D03               	skipz
  8415     0D23  2D25               	goto	u4071
  8416     0D24  2D26               	goto	u4070
  8417     0D25                     u4071:
  8418     0D25  2D50               	goto	l3526
  8419     0D26                     u4070:
  8420     0D26                     l3506:
  8421     0D26  087B               	movf	___fladd@grs,w
  8422     0D27  1D03               	btfss	3,2
  8423     0D28  2D2A               	goto	u4081
  8424     0D29  2D2B               	goto	u4080
  8425     0D2A                     u4081:
  8426     0D2A  2D50               	goto	l3526
  8427     0D2B                     u4080:
  8428     0D2B                     l3508:
  8429     0D2B  3000               	movlw	0
  8430     0D2C  00F3               	movwf	?___fladd+3
  8431     0D2D  3000               	movlw	0
  8432     0D2E  00F2               	movwf	?___fladd+2
  8433     0D2F  3000               	movlw	0
  8434     0D30  00F1               	movwf	?___fladd+1
  8435     0D31  3000               	movlw	0
  8436     0D32  00F0               	movwf	?___fladd
  8437     0D33  2DC4               	goto	l933
  8438     0D34                     l3512:
  8439     0D34  3001               	movlw	1
  8440     0D35                     u4095:
  8441     0D35  35F0               	lslf	___fladd@b,f
  8442     0D36  0DF1               	rlf	___fladd@b+1,f
  8443     0D37  0DF2               	rlf	___fladd@b+2,f
  8444     0D38  0DF3               	rlf	___fladd@b+3,f
  8445     0D39  0B89               	decfsz	9,f
  8446     0D3A  2D35               	goto	u4095
  8447     0D3B                     l3514:
  8448     0D3B  1FFB               	btfss	___fladd@grs,7
  8449     0D3C  2D3E               	goto	u4101
  8450     0D3D  2D3F               	goto	u4100
  8451     0D3E                     u4101:
  8452     0D3E  2D40               	goto	l945
  8453     0D3F                     u4100:
  8454     0D3F                     l3516:
  8455     0D3F  1470               	bsf	___fladd@b,0
  8456     0D40                     l945:
  8457     0D40  1C7B               	btfss	___fladd@grs,0
  8458     0D41  2D43               	goto	u4111
  8459     0D42  2D44               	goto	u4110
  8460     0D43                     u4111:
  8461     0D43  2D47               	goto	l3520
  8462     0D44                     u4110:
  8463     0D44                     l3518:
  8464     0D44  1403               	setc
  8465     0D45  0DFB               	rlf	___fladd@grs,f
  8466     0D46  2D49               	goto	l3522
  8467     0D47                     l3520:
  8468     0D47  1003               	clrc
  8469     0D48  0DFB               	rlf	___fladd@grs,f
  8470     0D49                     l3522:
  8471     0D49  087A               	movf	___fladd@bexp,w
  8472     0D4A  1903               	btfsc	3,2
  8473     0D4B  2D4D               	goto	u4121
  8474     0D4C  2D4E               	goto	u4120
  8475     0D4D                     u4121:
  8476     0D4D  2D50               	goto	l3526
  8477     0D4E                     u4120:
  8478     0D4E                     l3524:
  8479     0D4E  3001               	movlw	1
  8480     0D4F  02FA               	subwf	___fladd@bexp,f
  8481     0D50                     l3526:
  8482     0D50  1FF2               	btfss	___fladd@b+2,7
  8483     0D51  2D53               	goto	u4131
  8484     0D52  2D54               	goto	u4130
  8485     0D53                     u4131:
  8486     0D53  2D34               	goto	l3512
  8487     0D54                     u4130:
  8488     0D54                     l3528:
  8489     0D54  01F9               	clrf	___fladd@aexp
  8490     0D55                     l3530:
  8491     0D55  1FFB               	btfss	___fladd@grs,7
  8492     0D56  2D58               	goto	u4141
  8493     0D57  2D59               	goto	u4140
  8494     0D58                     u4141:
  8495     0D58  2D67               	goto	l3538
  8496     0D59                     u4140:
  8497     0D59                     l3532:
  8498     0D59  087B               	movf	___fladd@grs,w
  8499     0D5A  397F               	andlw	127
  8500     0D5B  1903               	btfsc	3,2
  8501     0D5C  2D5E               	goto	u4151
  8502     0D5D  2D5F               	goto	u4150
  8503     0D5E                     u4151:
  8504     0D5E  2D62               	goto	l951
  8505     0D5F                     u4150:
  8506     0D5F                     l3534:
  8507     0D5F  01F9               	clrf	___fladd@aexp
  8508     0D60  0AF9               	incf	___fladd@aexp,f
  8509     0D61  2D67               	goto	l3538
  8510     0D62                     l951:
  8511     0D62  1C70               	btfss	___fladd@b,0
  8512     0D63  2D65               	goto	u4161
  8513     0D64  2D66               	goto	u4160
  8514     0D65                     u4161:
  8515     0D65  2D67               	goto	l3538
  8516     0D66                     u4160:
  8517     0D66  2D5F               	goto	l3534
  8518     0D67                     l3538:
  8519     0D67  0879               	movf	___fladd@aexp,w
  8520     0D68  1903               	btfsc	3,2
  8521     0D69  2D6B               	goto	u4171
  8522     0D6A  2D6C               	goto	u4170
  8523     0D6B                     u4171:
  8524     0D6B  2D9A               	goto	l954
  8525     0D6C                     u4170:
  8526     0D6C                     l3540:
  8527     0D6C  3001               	movlw	1
  8528     0D6D  07F0               	addwf	___fladd@b,f
  8529     0D6E  3000               	movlw	0
  8530     0D6F  3DF1               	addwfc	___fladd@b+1,f
  8531     0D70  3000               	movlw	0
  8532     0D71  3DF2               	addwfc	___fladd@b+2,f
  8533     0D72  3000               	movlw	0
  8534     0D73  3DF3               	addwfc	___fladd@b+3,f
  8535     0D74                     l3542:
  8536     0D74  1C73               	btfss	___fladd@b+3,0
  8537     0D75  2D77               	goto	u4181
  8538     0D76  2D78               	goto	u4180
  8539     0D77                     u4181:
  8540     0D77  2D9A               	goto	l954
  8541     0D78                     u4180:
  8542     0D78                     l3544:
  8543     0D78  0870               	movf	___fladd@b,w
  8544     0D79  0020               	movlb	0	; select bank0
  8545     0D7A  00A0               	movwf	??___fladd
  8546     0D7B  0871               	movf	___fladd@b+1,w
  8547     0D7C  00A1               	movwf	??___fladd+1
  8548     0D7D  0872               	movf	___fladd@b+2,w
  8549     0D7E  00A2               	movwf	??___fladd+2
  8550     0D7F  0873               	movf	___fladd@b+3,w
  8551     0D80  00A3               	movwf	??___fladd+3
  8552     0D81  3001               	movlw	1
  8553     0D82  00A4               	movwf	??___fladd+4
  8554     0D83                     u4195:
  8555     0D83  37A3               	asrf	??___fladd+3,f
  8556     0D84  0CA2               	rrf	??___fladd+2,f
  8557     0D85  0CA1               	rrf	??___fladd+1,f
  8558     0D86  0CA0               	rrf	??___fladd,f
  8559     0D87                     u4190:
  8560     0D87  0BA4               	decfsz	??___fladd+4,f
  8561     0D88  2D83               	goto	u4195
  8562     0D89  0823               	movf	??___fladd+3,w
  8563     0D8A  00F3               	movwf	___fladd@b+3
  8564     0D8B  0822               	movf	??___fladd+2,w
  8565     0D8C  00F2               	movwf	___fladd@b+2
  8566     0D8D  0821               	movf	??___fladd+1,w
  8567     0D8E  00F1               	movwf	___fladd@b+1
  8568     0D8F  0820               	movf	??___fladd,w
  8569     0D90  00F0               	movwf	___fladd@b
  8570     0D91  0A7A               	incf	___fladd@bexp,w
  8571     0D92  1903               	btfsc	3,2
  8572     0D93  2D95               	goto	u4201
  8573     0D94  2D96               	goto	u4200
  8574     0D95                     u4201:
  8575     0D95  2D9A               	goto	l954
  8576     0D96                     u4200:
  8577     0D96                     l3546:
  8578     0D96  3001               	movlw	1
  8579     0D97  00A0               	movwf	??___fladd
  8580     0D98  0820               	movf	??___fladd,w
  8581     0D99  07FA               	addwf	___fladd@bexp,f
  8582     0D9A                     l954:
  8583     0D9A  0A7A               	incf	___fladd@bexp,w
  8584     0D9B  1903               	btfsc	3,2
  8585     0D9C  2D9E               	goto	u4211
  8586     0D9D  2D9F               	goto	u4210
  8587     0D9E                     u4211:
  8588     0D9E  2DA4               	goto	l3550
  8589     0D9F                     u4210:
  8590     0D9F                     l3548:
  8591     0D9F  087A               	movf	___fladd@bexp,w
  8592     0DA0  1D03               	btfss	3,2
  8593     0DA1  2DA3               	goto	u4221
  8594     0DA2  2DA4               	goto	u4220
  8595     0DA3                     u4221:
  8596     0DA3  2DB2               	goto	l3556
  8597     0DA4                     u4220:
  8598     0DA4                     l3550:
  8599     0DA4  3000               	movlw	0
  8600     0DA5  00F3               	movwf	___fladd@b+3
  8601     0DA6  3000               	movlw	0
  8602     0DA7  00F2               	movwf	___fladd@b+2
  8603     0DA8  3000               	movlw	0
  8604     0DA9  00F1               	movwf	___fladd@b+1
  8605     0DAA  3000               	movlw	0
  8606     0DAB  00F0               	movwf	___fladd@b
  8607     0DAC                     l3552:
  8608     0DAC  087A               	movf	___fladd@bexp,w
  8609     0DAD  1D03               	btfss	3,2
  8610     0DAE  2DB0               	goto	u4231
  8611     0DAF  2DB1               	goto	u4230
  8612     0DB0                     u4231:
  8613     0DB0  2DB2               	goto	l3556
  8614     0DB1                     u4230:
  8615     0DB1                     l3554:
  8616     0DB1  01F8               	clrf	___fladd@signs
  8617     0DB2                     l3556:
  8618     0DB2  1C7A               	btfss	___fladd@bexp,0
  8619     0DB3  2DB5               	goto	u4241
  8620     0DB4  2DB6               	goto	u4240
  8621     0DB5                     u4241:
  8622     0DB5  2DB8               	goto	l3560
  8623     0DB6                     u4240:
  8624     0DB6                     l3558:
  8625     0DB6  17F2               	bsf	___fladd@b+2,7
  8626     0DB7  2DBD               	goto	l962
  8627     0DB8                     l3560:
  8628     0DB8  307F               	movlw	127
  8629     0DB9  0020               	movlb	0	; select bank0
  8630     0DBA  00A0               	movwf	??___fladd
  8631     0DBB  0820               	movf	??___fladd,w
  8632     0DBC  05F2               	andwf	___fladd@b+2,f
  8633     0DBD                     l962:
  8634     0DBD  367A               	lsrf	___fladd@bexp,w
  8635     0DBE  00F3               	movwf	___fladd@b+3
  8636     0DBF                     l3562:
  8637     0DBF  1FF8               	btfss	___fladd@signs,7
  8638     0DC0  2DC2               	goto	u4251
  8639     0DC1  2DC3               	goto	u4250
  8640     0DC2                     u4251:
  8641     0DC2  2DC4               	goto	l963
  8642     0DC3                     u4250:
  8643     0DC3                     l3564:
  8644     0DC3  17F3               	bsf	___fladd@b+3,7
  8645     0DC4                     l963:
  8646     0DC4                     l933:
  8647     0DC4  0008               	return
  8648     0DC5                     __end_of___fladd:
  8649                           
  8650                           	psect	text28
  8651     1E86                     __ptext28:	
  8652 ;; *************** function ___awdiv *****************
  8653 ;; Defined at:
  8654 ;;		line 5 in file "C:\Program Files\Microchip\xc8\v2.41\pic\sources\c90\common\awdiv.c"
  8655 ;; Parameters:    Size  Location     Type
  8656 ;;  divisor         2    0[COMMON] int 
  8657 ;;  dividend        2    2[COMMON] int 
  8658 ;; Auto vars:     Size  Location     Type
  8659 ;;  quotient        2    7[COMMON] int 
  8660 ;;  sign            1    6[COMMON] unsigned char 
  8661 ;;  counter         1    5[COMMON] unsigned char 
  8662 ;; Return value:  Size  Location     Type
  8663 ;;                  2    0[COMMON] int 
  8664 ;; Registers used:
  8665 ;;		wreg, status,2, status,0
  8666 ;; Tracked objects:
  8667 ;;		On entry : 0/0
  8668 ;;		On exit  : 0/0
  8669 ;;		Unchanged: 0/0
  8670 ;; Data sizes:     COMMON   BANK0   BANK1   BANK2   BANK3   BANK4   BANK5   BANK6   BANK7   BANK8   BANK9  BANK10  BANK1
      +1  BANK12  BANK13  BANK14  BANK15  BANK16  BANK17  BANK18  BANK19  BANK20  BANK21  BANK22  BANK23  BANK24  BANK25
  8671 ;;      Params:         4       0       0       0       0       0       0       0       0       0       0       0       
      +0       0       0       0       0       0       0       0       0       0       0       0       0       0       0
  8672 ;;      Locals:         4       0       0       0       0       0       0       0       0       0       0       0       
      +0       0       0       0       0       0       0       0       0       0       0       0       0       0       0
  8673 ;;      Temps:          1       0       0       0       0       0       0       0       0       0       0       0       
      +0       0       0       0       0       0       0       0       0       0       0       0       0       0       0
  8674 ;;      Totals:         9       0       0       0       0       0       0       0       0       0       0       0       
      +0       0       0       0       0       0       0       0       0       0       0       0       0       0       0
  8675 ;;Total ram usage:        9 bytes
  8676 ;; Hardware stack levels used: 1
  8677 ;; This function calls:
  8678 ;;		Nothing
  8679 ;; This function is called by:
  8680 ;;		_main
  8681 ;; This function uses a non-reentrant model
  8682 ;;
  8683                           
  8684     1E86                     ___awdiv:	
  8685                           ;psect for function ___awdiv
  8686                           
  8687     1E86                     l3292:	
  8688                           ;incstack = 0
  8689                           ; Regs used in ___awdiv: [wreg+status,2+status,0]
  8690                           
  8691     1E86  01F6               	clrf	___awdiv@sign
  8692     1E87                     l3294:
  8693     1E87  1FF1               	btfss	___awdiv@divisor+1,7
  8694     1E88  2E8A               	goto	u3631
  8695     1E89  2E8B               	goto	u3630
  8696     1E8A                     u3631:
  8697     1E8A  2E92               	goto	l3300
  8698     1E8B                     u3630:
  8699     1E8B                     l3296:
  8700     1E8B  09F0               	comf	___awdiv@divisor,f
  8701     1E8C  09F1               	comf	___awdiv@divisor+1,f
  8702     1E8D  0AF0               	incf	___awdiv@divisor,f
  8703     1E8E  1903               	skipnz
  8704     1E8F  0AF1               	incf	___awdiv@divisor+1,f
  8705     1E90                     l3298:
  8706     1E90  01F6               	clrf	___awdiv@sign
  8707     1E91  0AF6               	incf	___awdiv@sign,f
  8708     1E92                     l3300:
  8709     1E92  1FF3               	btfss	___awdiv@dividend+1,7
  8710     1E93  2E95               	goto	u3641
  8711     1E94  2E96               	goto	u3640
  8712     1E95                     u3641:
  8713     1E95  2E9F               	goto	l3306
  8714     1E96                     u3640:
  8715     1E96                     l3302:
  8716     1E96  09F2               	comf	___awdiv@dividend,f
  8717     1E97  09F3               	comf	___awdiv@dividend+1,f
  8718     1E98  0AF2               	incf	___awdiv@dividend,f
  8719     1E99  1903               	skipnz
  8720     1E9A  0AF3               	incf	___awdiv@dividend+1,f
  8721     1E9B                     l3304:
  8722     1E9B  3001               	movlw	1
  8723     1E9C  00F4               	movwf	??___awdiv
  8724     1E9D  0874               	movf	??___awdiv,w
  8725     1E9E  06F6               	xorwf	___awdiv@sign,f
  8726     1E9F                     l3306:
  8727     1E9F  01F7               	clrf	___awdiv@quotient
  8728     1EA0  01F8               	clrf	___awdiv@quotient+1
  8729     1EA1                     l3308:
  8730     1EA1  0870               	movf	___awdiv@divisor,w
  8731     1EA2  0471               	iorwf	___awdiv@divisor+1,w
  8732     1EA3  1903               	btfsc	3,2
  8733     1EA4  2EA6               	goto	u3651
  8734     1EA5  2EA7               	goto	u3650
  8735     1EA6                     u3651:
  8736     1EA6  2ED6               	goto	l3328
  8737     1EA7                     u3650:
  8738     1EA7                     l3310:
  8739     1EA7  01F5               	clrf	___awdiv@counter
  8740     1EA8  0AF5               	incf	___awdiv@counter,f
  8741     1EA9  2EB3               	goto	l3316
  8742     1EAA                     l3312:
  8743     1EAA  3001               	movlw	1
  8744     1EAB                     u3665:
  8745     1EAB  35F0               	lslf	___awdiv@divisor,f
  8746     1EAC  0DF1               	rlf	___awdiv@divisor+1,f
  8747     1EAD  0B89               	decfsz	9,f
  8748     1EAE  2EAB               	goto	u3665
  8749     1EAF                     l3314:
  8750     1EAF  3001               	movlw	1
  8751     1EB0  00F4               	movwf	??___awdiv
  8752     1EB1  0874               	movf	??___awdiv,w
  8753     1EB2  07F5               	addwf	___awdiv@counter,f
  8754     1EB3                     l3316:
  8755     1EB3  1FF1               	btfss	___awdiv@divisor+1,7
  8756     1EB4  2EB6               	goto	u3671
  8757     1EB5  2EB7               	goto	u3670
  8758     1EB6                     u3671:
  8759     1EB6  2EAA               	goto	l3312
  8760     1EB7                     u3670:
  8761     1EB7                     l3318:
  8762     1EB7  3001               	movlw	1
  8763     1EB8                     u3685:
  8764     1EB8  35F7               	lslf	___awdiv@quotient,f
  8765     1EB9  0DF8               	rlf	___awdiv@quotient+1,f
  8766     1EBA  0B89               	decfsz	9,f
  8767     1EBB  2EB8               	goto	u3685
  8768     1EBC  0871               	movf	___awdiv@divisor+1,w
  8769     1EBD  0273               	subwf	___awdiv@dividend+1,w
  8770     1EBE  1D03               	skipz
  8771     1EBF  2EC2               	goto	u3695
  8772     1EC0  0870               	movf	___awdiv@divisor,w
  8773     1EC1  0272               	subwf	___awdiv@dividend,w
  8774     1EC2                     u3695:
  8775     1EC2  1C03               	skipc
  8776     1EC3  2EC5               	goto	u3691
  8777     1EC4  2EC6               	goto	u3690
  8778     1EC5                     u3691:
  8779     1EC5  2ECB               	goto	l3324
  8780     1EC6                     u3690:
  8781     1EC6                     l3320:
  8782     1EC6  0870               	movf	___awdiv@divisor,w
  8783     1EC7  02F2               	subwf	___awdiv@dividend,f
  8784     1EC8  0871               	movf	___awdiv@divisor+1,w
  8785     1EC9  3BF3               	subwfb	___awdiv@dividend+1,f
  8786     1ECA                     l3322:
  8787     1ECA  1477               	bsf	___awdiv@quotient,0
  8788     1ECB                     l3324:
  8789     1ECB  3001               	movlw	1
  8790     1ECC                     u3705:
  8791     1ECC  36F1               	lsrf	___awdiv@divisor+1,f
  8792     1ECD  0CF0               	rrf	___awdiv@divisor,f
  8793     1ECE  0B89               	decfsz	9,f
  8794     1ECF  2ECC               	goto	u3705
  8795     1ED0                     l3326:
  8796     1ED0  3001               	movlw	1
  8797     1ED1  02F5               	subwf	___awdiv@counter,f
  8798     1ED2  1D03               	btfss	3,2
  8799     1ED3  2ED5               	goto	u3711
  8800     1ED4  2ED6               	goto	u3710
  8801     1ED5                     u3711:
  8802     1ED5  2EB7               	goto	l3318
  8803     1ED6                     u3710:
  8804     1ED6                     l3328:
  8805     1ED6  0876               	movf	___awdiv@sign,w
  8806     1ED7  1903               	btfsc	3,2
  8807     1ED8  2EDA               	goto	u3721
  8808     1ED9  2EDB               	goto	u3720
  8809     1EDA                     u3721:
  8810     1EDA  2EE0               	goto	l3332
  8811     1EDB                     u3720:
  8812     1EDB                     l3330:
  8813     1EDB  09F7               	comf	___awdiv@quotient,f
  8814     1EDC  09F8               	comf	___awdiv@quotient+1,f
  8815     1EDD  0AF7               	incf	___awdiv@quotient,f
  8816     1EDE  1903               	skipnz
  8817     1EDF  0AF8               	incf	___awdiv@quotient+1,f
  8818     1EE0                     l3332:
  8819     1EE0  0878               	movf	___awdiv@quotient+1,w
  8820     1EE1  00F1               	movwf	?___awdiv+1
  8821     1EE2  0877               	movf	___awdiv@quotient,w
  8822     1EE3  00F0               	movwf	?___awdiv
  8823     1EE4                     l780:
  8824     1EE4  0008               	return
  8825     1EE5                     __end_of___awdiv:
  8826                           
  8827                           	psect	text29
  8828     1C63                     __ptext29:	
  8829 ;; *************** function _AD_convert *****************
  8830 ;; Defined at:
  8831 ;;		line 111 in file "main.c"
  8832 ;; Parameters:    Size  Location     Type
  8833 ;;  channel         1    wreg     unsigned char 
  8834 ;; Auto vars:     Size  Location     Type
  8835 ;;  channel         1    0[COMMON] unsigned char 
  8836 ;; Return value:  Size  Location     Type
  8837 ;;                  2    0[COMMON] unsigned int 
  8838 ;; Registers used:
  8839 ;;		wreg
  8840 ;; Tracked objects:
  8841 ;;		On entry : 0/0
  8842 ;;		On exit  : 0/0
  8843 ;;		Unchanged: 0/0
  8844 ;; Data sizes:     COMMON   BANK0   BANK1   BANK2   BANK3   BANK4   BANK5   BANK6   BANK7   BANK8   BANK9  BANK10  BANK1
      +1  BANK12  BANK13  BANK14  BANK15  BANK16  BANK17  BANK18  BANK19  BANK20  BANK21  BANK22  BANK23  BANK24  BANK25
  8845 ;;      Params:         2       0       0       0       0       0       0       0       0       0       0       0       
      +0       0       0       0       0       0       0       0       0       0       0       0       0       0       0
  8846 ;;      Locals:         0       0       0       0       0       0       0       0       0       0       0       0       
      +0       0       0       0       0       0       0       0       0       0       0       0       0       0       0
  8847 ;;      Temps:          0       0       0       0       0       0       0       0       0       0       0       0       
      +0       0       0       0       0       0       0       0       0       0       0       0       0       0       0
  8848 ;;      Totals:         2       0       0       0       0       0       0       0       0       0       0       0       
      +0       0       0       0       0       0       0       0       0       0       0       0       0       0       0
  8849 ;;Total ram usage:        2 bytes
  8850 ;; Hardware stack levels used: 1
  8851 ;; This function calls:
  8852 ;;		Nothing
  8853 ;; This function is called by:
  8854 ;;		_main
  8855 ;; This function uses a non-reentrant model
  8856 ;;
  8857                           
  8858     1C63                     _AD_convert:	
  8859                           ;psect for function _AD_convert
  8860                           
  8861     1C63                     l3146:	
  8862                           ;incstack = 0
  8863                           ; Regs used in _AD_convert: [wreg]
  8864                           
  8865                           
  8866                           ;main.c: 113: ADCON0bits.CHS0 = 0;
  8867     1C63  0021               	movlb	1	; select bank1
  8868     1C64  111D               	bcf	29,2	;volatile
  8869                           
  8870                           ;main.c: 114: ADCON0bits.CHS1 = 0;
  8871     1C65  119D               	bcf	29,3	;volatile
  8872                           
  8873                           ;main.c: 115: ADCON0bits.CHS2 = 1;
  8874     1C66  161D               	bsf	29,4	;volatile
  8875                           
  8876                           ;main.c: 116: ADCON0bits.CHS3 = 0;
  8877     1C67  129D               	bcf	29,5	;volatile
  8878                           
  8879                           ;main.c: 117: ADCON0bits.CHS4 = 0;
  8880     1C68  131D               	bcf	29,6	;volatile
  8881     1C69                     l3148:
  8882                           
  8883                           ;main.c: 118: _delay((unsigned long)((20)*(4000000/4000000.0)));
  8884     1C69  3006               	movlw	6
  8885     1C6A                     u6097:
  8886     1C6A  0B89               	decfsz	9,f
  8887     1C6B  2C6A               	goto	u6097
  8888     1C6C  3200               	nop2
  8889     1C6D                     l3150:
  8890                           
  8891                           ;main.c: 119: ADCON0bits.GO_nDONE = 1;
  8892     1C6D  0021               	movlb	1	; select bank1
  8893     1C6E  149D               	bsf	29,1	;volatile
  8894     1C6F                     l85:	
  8895                           ;main.c: 120: while(ADCON0bits.GO_nDONE){};
  8896                           
  8897     1C6F  189D               	btfsc	29,1	;volatile
  8898     1C70  2C72               	goto	u3421
  8899     1C71  2C73               	goto	u3420
  8900     1C72                     u3421:
  8901     1C72  2C6F               	goto	l85
  8902     1C73                     u3420:
  8903     1C73                     l3152:
  8904                           
  8905                           ;main.c: 122: return (ADRESH<<8) + ADRESL;
  8906     1C73  081C               	movf	28,w	;volatile
  8907     1C74  00F1               	movwf	?_AD_convert+1
  8908     1C75  081B               	movf	27,w	;volatile
  8909     1C76  00F0               	movwf	?_AD_convert
  8910     1C77                     l88:
  8911     1C77  0008               	return
  8912     1C78                     __end_of_AD_convert:
  8913     007E                     btemp	set	126	;btemp
  8914     007E                     wtemp0	set	126
  8915                           
  8916                           	psect	idloc
  8917                           
  8918                           ;Config register IDLOC0 @ 0x8000
  8919                           ;	unspecified, using default values
  8920     8000                     	org	32768
  8921     8000  3FFF               	dw	16383
  8922                           
  8923                           ;Config register IDLOC1 @ 0x8001
  8924                           ;	unspecified, using default values
  8925     8001                     	org	32769
  8926     8001  3FFF               	dw	16383
  8927                           
  8928                           ;Config register IDLOC2 @ 0x8002
  8929                           ;	unspecified, using default values
  8930     8002                     	org	32770
  8931     8002  3FFF               	dw	16383
  8932                           
  8933                           ;Config register IDLOC3 @ 0x8003
  8934                           ;	unspecified, using default values
  8935     8003                     	org	32771
  8936     8003  3FFF               	dw	16383
  8937                           
  8938                           	psect	config
  8939                           
  8940                           ;Config register CONFIG1 @ 0x8007
  8941                           ;	Oscillator Selection
  8942                           ;	FOSC = INTOSC, INTOSC oscillator: I/O function on CLKIN pin
  8943                           ;	Watchdog Timer Enable
  8944                           ;	WDTE = OFF, WDT disabled
  8945                           ;	Power-up Timer Enable
  8946                           ;	PWRTE = OFF, PWRT disabled
  8947                           ;	MCLR Pin Function Select
  8948                           ;	MCLRE = ON, MCLR/VPP pin function is MCLR
  8949                           ;	Flash Program Memory Code Protection
  8950                           ;	CP = OFF, Program memory code protection is disabled
  8951                           ;	Data Memory Code Protection
  8952                           ;	CPD = OFF, Data memory code protection is disabled
  8953                           ;	Brown-out Reset Enable
  8954                           ;	BOREN = ON, Brown-out Reset enabled
  8955                           ;	Clock Out Enable
  8956                           ;	CLKOUTEN = 0x1, unprogrammed default
  8957                           ;	Internal/External Switchover
  8958                           ;	IESO = 0x1, unprogrammed default
  8959                           ;	Fail-Safe Clock Monitor Enable
  8960                           ;	FCMEN = 0x1, unprogrammed default
  8961     8007                     	org	32775
  8962     8007  3FE4               	dw	16356
  8963                           
  8964                           ;Config register CONFIG2 @ 0x8008
  8965                           ;	Flash Memory Self-Write Protection
  8966                           ;	WRT = 0x3, unprogrammed default
  8967                           ;	Voltage Regulator Capacitor Enable bit
  8968                           ;	VCAPEN = 0x1, unprogrammed default
  8969                           ;	PLL Enable
  8970                           ;	PLLEN = 0x1, unprogrammed default
  8971                           ;	Stack Overflow/Underflow Reset Enable
  8972                           ;	STVREN = 0x1, unprogrammed default
  8973                           ;	Brown-out Reset Voltage Selection
  8974                           ;	BORV = 0x1, unprogrammed default
  8975                           ;	Low Power Brown-Out Reset Enable Bit
  8976                           ;	LPBOR = 0x1, unprogrammed default
  8977                           ;	Low-Voltage Programming Enable
  8978                           ;	LVP = OFF, High-voltage on MCLR/VPP must be used for programming
  8979     8008                     	org	32776
  8980     8008  1FFF               	dw	8191
  8981                           
  8982                           	psect	maintext_split_1
  8983     122B                     u4990:
  8984     122B                     l4018:
  8985                           
  8986                           ;main.c: 254: cmd = RPS;
  8987     122B  0020               	movlb	0	; select bank0
  8988     122C  01EF               	clrf	main@cmd
  8989     122D                     L1:
  8990                           
  8991                           ;main.c: 255: }else if(strcmp(rcmd,"WTB") == 0){
  8992     122D  318A  2AEC         	goto	l4132
  8993     122F                     l4020:
  8994     122F  3022               	movlw	low (STR_2| (0+32768))
  8995     1230  00F0               	movwf	strcmp@s2
  8996     1231  30A1               	movlw	high (STR_2| (0+32768))
  8997     1232  00F1               	movwf	strcmp@s2+1
  8998     1233  30E8               	movlw	(low (main@rcmd| 0))& (0+255)
  8999     1234  3180  2005  3192   	fcall	_strcmp
  9000     1237  0870               	movf	?_strcmp,w
  9001     1238  0471               	iorwf	?_strcmp+1,w
  9002     1239  1D03               	btfss	3,2
  9003     123A  2A3C               	goto	u5001
  9004     123B  2A3D               	goto	u5000
  9005     123C                     u5001:
  9006     123C  2A41               	goto	l4024
  9007     123D                     u5000:
  9008     123D                     l4022:
  9009                           
  9010                           ;main.c: 256: cmd = WTB;
  9011     123D  0020               	movlb	0	; select bank0
  9012     123E  01EF               	clrf	main@cmd
  9013     123F  0AEF               	incf	main@cmd,f
  9014                           
  9015                           ;main.c: 257: }else if(strcmp(rcmd,"WNI") == 0){
  9016     1240  2A2D               	goto	L1
  9017     1241                     l4024:
  9018     1241  304E               	movlw	low (STR_3| (0+32768))
  9019     1242  00F0               	movwf	strcmp@s2
  9020     1243  30A1               	movlw	high (STR_3| (0+32768))
  9021     1244  00F1               	movwf	strcmp@s2+1
  9022     1245  30E8               	movlw	(low (main@rcmd| 0))& (0+255)
  9023     1246  3180  2005  3192   	fcall	_strcmp
  9024     1249  0870               	movf	?_strcmp,w
  9025     124A  0471               	iorwf	?_strcmp+1,w
  9026     124B  1D03               	btfss	3,2
  9027     124C  2A4E               	goto	u5011
  9028     124D  2A4F               	goto	u5010
  9029     124E                     u5011:
  9030     124E  2A53               	goto	l4028
  9031     124F                     u5010:
  9032     124F                     l4026:
  9033                           
  9034                           ;main.c: 258: cmd = WNI;
  9035     124F  3002               	movlw	2
  9036     1250  0020               	movlb	0	; select bank0
  9037     1251  00EF               	movwf	main@cmd
  9038                           
  9039                           ;main.c: 259: }else if(strcmp(rcmd,"WPD") == 0){
  9040     1252  2A2D               	goto	L1
  9041     1253                     l4028:
  9042     1253  303E               	movlw	low (STR_4| (0+32768))
  9043     1254  00F0               	movwf	strcmp@s2
  9044     1255  30A1               	movlw	high (STR_4| (0+32768))
  9045     1256  00F1               	movwf	strcmp@s2+1
  9046     1257  30E8               	movlw	(low (main@rcmd| 0))& (0+255)
  9047     1258  3180  2005  3192   	fcall	_strcmp
  9048     125B  0870               	movf	?_strcmp,w
  9049     125C  0471               	iorwf	?_strcmp+1,w
  9050     125D  1D03               	btfss	3,2
  9051     125E  2A60               	goto	u5021
  9052     125F  2A61               	goto	u5020
  9053     1260                     u5021:
  9054     1260  2A65               	goto	l4032
  9055     1261                     u5020:
  9056     1261                     l4030:
  9057                           
  9058                           ;main.c: 260: cmd = WPD;
  9059     1261  3003               	movlw	3
  9060     1262  0020               	movlb	0	; select bank0
  9061     1263  00EF               	movwf	main@cmd
  9062                           
  9063                           ;main.c: 261: }else if(strcmp(rcmd,"OSC") == 0){
  9064     1264  2A2D               	goto	L1
  9065     1265                     l4032:
  9066     1265  3032               	movlw	low (STR_5| (0+32768))
  9067     1266  00F0               	movwf	strcmp@s2
  9068     1267  30A1               	movlw	high (STR_5| (0+32768))
  9069     1268  00F1               	movwf	strcmp@s2+1
  9070     1269  30E8               	movlw	(low (main@rcmd| 0))& (0+255)
  9071     126A  3180  2005  3192   	fcall	_strcmp
  9072     126D  0870               	movf	?_strcmp,w
  9073     126E  0471               	iorwf	?_strcmp+1,w
  9074     126F  1D03               	btfss	3,2
  9075     1270  2A72               	goto	u5031
  9076     1271  2A73               	goto	u5030
  9077     1272                     u5031:
  9078     1272  2A77               	goto	l4036
  9079     1273                     u5030:
  9080     1273                     l4034:
  9081                           
  9082                           ;main.c: 262: cmd = OSC;
  9083     1273  3004               	movlw	4
  9084     1274  0020               	movlb	0	; select bank0
  9085     1275  00EF               	movwf	main@cmd
  9086                           
  9087                           ;main.c: 263: }else if(strcmp(rcmd,"NOS") == 0){
  9088     1276  2A2D               	goto	L1
  9089     1277                     l4036:
  9090     1277  3076               	movlw	low (STR_6| (0+32768))
  9091     1278  00F0               	movwf	strcmp@s2
  9092     1279  30A1               	movlw	high (STR_6| (0+32768))
  9093     127A  00F1               	movwf	strcmp@s2+1
  9094     127B  30E8               	movlw	(low (main@rcmd| 0))& (0+255)
  9095     127C  3180  2005  3192   	fcall	_strcmp
  9096     127F  0870               	movf	?_strcmp,w
  9097     1280  0471               	iorwf	?_strcmp+1,w
  9098     1281  1D03               	btfss	3,2
  9099     1282  2A84               	goto	u5041
  9100     1283  2A85               	goto	u5040
  9101     1284                     u5041:
  9102     1284  2A89               	goto	l4040
  9103     1285                     u5040:
  9104     1285                     l4038:
  9105                           
  9106                           ;main.c: 264: cmd = NOS;
  9107     1285  3005               	movlw	5
  9108     1286  0020               	movlb	0	; select bank0
  9109     1287  00EF               	movwf	main@cmd
  9110                           
  9111                           ;main.c: 265: }else if(strcmp(rcmd,"NTD") == 0){
  9112     1288  2A2D               	goto	L1
  9113     1289                     l4040:
  9114     1289  3046               	movlw	low (STR_7| (0+32768))
  9115     128A  00F0               	movwf	strcmp@s2
  9116     128B  30A1               	movlw	high (STR_7| (0+32768))
  9117     128C  00F1               	movwf	strcmp@s2+1
  9118     128D  30E8               	movlw	(low (main@rcmd| 0))& (0+255)
  9119     128E  3180  2005  3192   	fcall	_strcmp
  9120     1291  0870               	movf	?_strcmp,w
  9121     1292  0471               	iorwf	?_strcmp+1,w
  9122     1293  1D03               	btfss	3,2
  9123     1294  2A96               	goto	u5051
  9124     1295  2A97               	goto	u5050
  9125     1296                     u5051:
  9126     1296  2A9B               	goto	l4044
  9127     1297                     u5050:
  9128     1297                     l4042:
  9129                           
  9130                           ;main.c: 266: cmd = NTD;
  9131     1297  3006               	movlw	6
  9132     1298  0020               	movlb	0	; select bank0
  9133     1299  00EF               	movwf	main@cmd
  9134                           
  9135                           ;main.c: 267: }else if(strcmp(rcmd,"NDO") == 0){
  9136     129A  2A2D               	goto	L1
  9137     129B                     l4044:
  9138     129B  305A               	movlw	low (STR_8| (0+32768))
  9139     129C  00F0               	movwf	strcmp@s2
  9140     129D  30A1               	movlw	high (STR_8| (0+32768))
  9141     129E  00F1               	movwf	strcmp@s2+1
  9142     129F  30E8               	movlw	(low (main@rcmd| 0))& (0+255)
  9143     12A0  3180  2005  3192   	fcall	_strcmp
  9144     12A3  0870               	movf	?_strcmp,w
  9145     12A4  0471               	iorwf	?_strcmp+1,w
  9146     12A5  1D03               	btfss	3,2
  9147     12A6  2AA8               	goto	u5061
  9148     12A7  2AA9               	goto	u5060
  9149     12A8                     u5061:
  9150     12A8  2AAD               	goto	l4048
  9151     12A9                     u5060:
  9152     12A9                     l4046:
  9153                           
  9154                           ;main.c: 268: cmd = NDO;
  9155     12A9  3007               	movlw	7
  9156     12AA  0020               	movlb	0	; select bank0
  9157     12AB  00EF               	movwf	main@cmd
  9158                           
  9159                           ;main.c: 269: }else if(strcmp(rcmd,"NDD") == 0){
  9160     12AC  2A2D               	goto	L1
  9161     12AD                     l4048:
  9162     12AD  3036               	movlw	low (STR_9| (0+32768))
  9163     12AE  00F0               	movwf	strcmp@s2
  9164     12AF  30A1               	movlw	high (STR_9| (0+32768))
  9165     12B0  00F1               	movwf	strcmp@s2+1
  9166     12B1  30E8               	movlw	(low (main@rcmd| 0))& (0+255)
  9167     12B2  3180  2005  3192   	fcall	_strcmp
  9168     12B5  0870               	movf	?_strcmp,w
  9169     12B6  0471               	iorwf	?_strcmp+1,w
  9170     12B7  1D03               	btfss	3,2
  9171     12B8  2ABA               	goto	u5071
  9172     12B9  2ABB               	goto	u5070
  9173     12BA                     u5071:
  9174     12BA  2ABF               	goto	l4052
  9175     12BB                     u5070:
  9176     12BB                     l4050:
  9177                           
  9178                           ;main.c: 270: cmd = NDD;
  9179     12BB  3008               	movlw	8
  9180     12BC  0020               	movlb	0	; select bank0
  9181     12BD  00EF               	movwf	main@cmd
  9182                           
  9183                           ;main.c: 271: }else if(strcmp(rcmd,"NSC") == 0){
  9184     12BE  2A2D               	goto	L1
  9185     12BF                     l4052:
  9186     12BF  302E               	movlw	low (STR_10| (0+32768))
  9187     12C0  00F0               	movwf	strcmp@s2
  9188     12C1  30A1               	movlw	high (STR_10| (0+32768))
  9189     12C2  00F1               	movwf	strcmp@s2+1
  9190     12C3  30E8               	movlw	(low (main@rcmd| 0))& (0+255)
  9191     12C4  3180  2005  3192   	fcall	_strcmp
  9192     12C7  0870               	movf	?_strcmp,w
  9193     12C8  0471               	iorwf	?_strcmp+1,w
  9194     12C9  1D03               	btfss	3,2
  9195     12CA  2ACC               	goto	u5081
  9196     12CB  2ACD               	goto	u5080
  9197     12CC                     u5081:
  9198     12CC  2AD1               	goto	l4056
  9199     12CD                     u5080:
  9200     12CD                     l4054:
  9201                           
  9202                           ;main.c: 272: cmd = NSC;
  9203     12CD  300B               	movlw	11
  9204     12CE  0020               	movlb	0	; select bank0
  9205     12CF  00EF               	movwf	main@cmd
  9206                           
  9207                           ;main.c: 273: }else if(strcmp(rcmd,"WRP") == 0){
  9208     12D0  2A2D               	goto	L1
  9209     12D1                     l4056:
  9210     12D1  3066               	movlw	low (STR_11| (0+32768))
  9211     12D2  00F0               	movwf	strcmp@s2
  9212     12D3  30A1               	movlw	high (STR_11| (0+32768))
  9213     12D4  00F1               	movwf	strcmp@s2+1
  9214     12D5  30E8               	movlw	(low (main@rcmd| 0))& (0+255)
  9215     12D6  3180  2005  3192   	fcall	_strcmp
  9216     12D9  0870               	movf	?_strcmp,w
  9217     12DA  0471               	iorwf	?_strcmp+1,w
  9218     12DB  1D03               	btfss	3,2
  9219     12DC  2ADE               	goto	u5091
  9220     12DD  2ADF               	goto	u5090
  9221     12DE                     u5091:
  9222     12DE  2AE3               	goto	l4060
  9223     12DF                     u5090:
  9224     12DF                     l4058:
  9225                           
  9226                           ;main.c: 274: cmd = WRP;
  9227     12DF  3010               	movlw	16
  9228     12E0  0020               	movlb	0	; select bank0
  9229     12E1  00EF               	movwf	main@cmd
  9230                           
  9231                           ;main.c: 275: }else if(strcmp(rcmd,"RDC") == 0){
  9232     12E2  2A2D               	goto	L1
  9233     12E3                     l4060:
  9234     12E3  3026               	movlw	low (STR_12| (0+32768))
  9235     12E4  00F0               	movwf	strcmp@s2
  9236     12E5  30A1               	movlw	high (STR_12| (0+32768))
  9237     12E6  00F1               	movwf	strcmp@s2+1
  9238     12E7  30E8               	movlw	(low (main@rcmd| 0))& (0+255)
  9239     12E8  3180  2005  3192   	fcall	_strcmp
  9240     12EB  0870               	movf	?_strcmp,w
  9241     12EC  0471               	iorwf	?_strcmp+1,w
  9242     12ED  1D03               	btfss	3,2
  9243     12EE  2AF0               	goto	u5101
  9244     12EF  2AF1               	goto	u5100
  9245     12F0                     u5101:
  9246     12F0  2AF5               	goto	l4064
  9247     12F1                     u5100:
  9248     12F1                     l4062:
  9249                           
  9250                           ;main.c: 276: cmd = RDC;
  9251     12F1  3011               	movlw	17
  9252     12F2  0020               	movlb	0	; select bank0
  9253     12F3  00EF               	movwf	main@cmd
  9254                           
  9255                           ;main.c: 277: }else if(strcmp(rcmd,"WDC") == 0){
  9256     12F4  2A2D               	goto	L1
  9257     12F5                     l4064:
  9258     12F5  302A               	movlw	low (STR_13| (0+32768))
  9259     12F6  00F0               	movwf	strcmp@s2
  9260     12F7  30A1               	movlw	high (STR_13| (0+32768))
  9261     12F8  00F1               	movwf	strcmp@s2+1
  9262     12F9  30E8               	movlw	(low (main@rcmd| 0))& (0+255)
  9263     12FA  3180  2005  3192   	fcall	_strcmp
  9264     12FD  0870               	movf	?_strcmp,w
  9265     12FE  0471               	iorwf	?_strcmp+1,w
  9266     12FF  1D03               	btfss	3,2
  9267     1300  2B02               	goto	u5111
  9268     1301  2B03               	goto	u5110
  9269     1302                     u5111:
  9270     1302  2B07               	goto	l4068
  9271     1303                     u5110:
  9272     1303                     l4066:
  9273                           
  9274                           ;main.c: 278: cmd = WDC;
  9275     1303  3012               	movlw	18
  9276     1304  0020               	movlb	0	; select bank0
  9277     1305  00EF               	movwf	main@cmd
  9278                           
  9279                           ;main.c: 279: }else if(strcmp(rcmd,"VER") == 0){
  9280     1306  2A2D               	goto	L1
  9281     1307                     l4068:
  9282     1307  306E               	movlw	low (STR_14| (0+32768))
  9283     1308  00F0               	movwf	strcmp@s2
  9284     1309  30A1               	movlw	high (STR_14| (0+32768))
  9285     130A  00F1               	movwf	strcmp@s2+1
  9286     130B  30E8               	movlw	(low (main@rcmd| 0))& (0+255)
  9287     130C  3180  2005  3192   	fcall	_strcmp
  9288     130F  0870               	movf	?_strcmp,w
  9289     1310  0471               	iorwf	?_strcmp+1,w
  9290     1311  1D03               	btfss	3,2
  9291     1312  2B14               	goto	u5121
  9292     1313  2B15               	goto	u5120
  9293     1314                     u5121:
  9294     1314  2B19               	goto	l4072
  9295     1315                     u5120:
  9296     1315                     l4070:
  9297                           
  9298                           ;main.c: 280: cmd = VER;
  9299     1315  3013               	movlw	19
  9300     1316  0020               	movlb	0	; select bank0
  9301     1317  00EF               	movwf	main@cmd
  9302                           
  9303                           ;main.c: 281: }else if(strcmp(rcmd,"STS") == 0){
  9304     1318  2A2D               	goto	L1
  9305     1319                     l4072:
  9306     1319  307E               	movlw	low (STR_15| (0+32768))
  9307     131A  00F0               	movwf	strcmp@s2
  9308     131B  30A1               	movlw	high (STR_15| (0+32768))
  9309     131C  00F1               	movwf	strcmp@s2+1
  9310     131D  30E8               	movlw	(low (main@rcmd| 0))& (0+255)
  9311     131E  3180  2005  3192   	fcall	_strcmp
  9312     1321  0870               	movf	?_strcmp,w
  9313     1322  0471               	iorwf	?_strcmp+1,w
  9314     1323  1D03               	btfss	3,2
  9315     1324  2B26               	goto	u5131
  9316     1325  2B27               	goto	u5130
  9317     1326                     u5131:
  9318     1326  2B2B               	goto	l4076
  9319     1327                     u5130:
  9320     1327                     l4074:
  9321                           
  9322                           ;main.c: 282: cmd = STS;
  9323     1327  3014               	movlw	20
  9324     1328  0020               	movlb	0	; select bank0
  9325     1329  00EF               	movwf	main@cmd
  9326                           
  9327                           ;main.c: 283: }else if(strcmp(rcmd,"NSP") == 0){
  9328     132A  2A2D               	goto	L1
  9329     132B                     l4076:
  9330     132B  306A               	movlw	low (STR_16| (0+32768))
  9331     132C  00F0               	movwf	strcmp@s2
  9332     132D  30A1               	movlw	high (STR_16| (0+32768))
  9333     132E  00F1               	movwf	strcmp@s2+1
  9334     132F  30E8               	movlw	(low (main@rcmd| 0))& (0+255)
  9335     1330  3180  2005  3192   	fcall	_strcmp
  9336     1333  0870               	movf	?_strcmp,w
  9337     1334  0471               	iorwf	?_strcmp+1,w
  9338     1335  1D03               	btfss	3,2
  9339     1336  2B39               	goto	u5141
  9340     1337  3189  29FE         	goto	u5140
  9341     1339                     u5141:
  9342     1339  318A  2A02         	goto	l4080
  9343                           
  9344                           	psect	maintext_split_2
  9345     09FE                     u5140:
  9346     09FE                     l4078:
  9347                           
  9348                           ;main.c: 284: cmd = NSP;
  9349     09FE  3009               	movlw	9
  9350     09FF  0020               	movlb	0	; select bank0
  9351     0A00  00EF               	movwf	main@cmd
  9352                           
  9353                           ;main.c: 285: }else if(strcmp(rcmd,"RNP") == 0){
  9354     0A01  2AEC               	goto	l4132
  9355     0A02                     l4080:
  9356     0A02  305E               	movlw	low (STR_17| (0+32768))
  9357     0A03  00F0               	movwf	strcmp@s2
  9358     0A04  30A1               	movlw	high (STR_17| (0+32768))
  9359     0A05  00F1               	movwf	strcmp@s2+1
  9360     0A06  30E8               	movlw	(low (main@rcmd| 0))& (0+255)
  9361     0A07  3180  2005  3189   	fcall	_strcmp
  9362     0A0A  0870               	movf	?_strcmp,w
  9363     0A0B  0471               	iorwf	?_strcmp+1,w
  9364     0A0C  1D03               	btfss	3,2
  9365     0A0D  2A0F               	goto	u5151
  9366     0A0E  2A10               	goto	u5150
  9367     0A0F                     u5151:
  9368     0A0F  2A14               	goto	l4084
  9369     0A10                     u5150:
  9370     0A10                     l4082:
  9371                           
  9372                           ;main.c: 286: cmd = RNP;
  9373     0A10  300C               	movlw	12
  9374     0A11  0020               	movlb	0	; select bank0
  9375     0A12  00EF               	movwf	main@cmd
  9376                           
  9377                           ;main.c: 287: }else if(strcmp(rcmd,"RNI") == 0){
  9378     0A13  2AEC               	goto	l4132
  9379     0A14                     l4084:
  9380     0A14  304A               	movlw	low (STR_18| (0+32768))
  9381     0A15  00F0               	movwf	strcmp@s2
  9382     0A16  30A1               	movlw	high (STR_18| (0+32768))
  9383     0A17  00F1               	movwf	strcmp@s2+1
  9384     0A18  30E8               	movlw	(low (main@rcmd| 0))& (0+255)
  9385     0A19  3180  2005  3189   	fcall	_strcmp
  9386     0A1C  0870               	movf	?_strcmp,w
  9387     0A1D  0471               	iorwf	?_strcmp+1,w
  9388     0A1E  1D03               	btfss	3,2
  9389     0A1F  2A21               	goto	u5161
  9390     0A20  2A22               	goto	u5160
  9391     0A21                     u5161:
  9392     0A21  2A26               	goto	l4088
  9393     0A22                     u5160:
  9394     0A22                     l4086:
  9395                           
  9396                           ;main.c: 288: cmd = RNI;
  9397     0A22  300D               	movlw	13
  9398     0A23  0020               	movlb	0	; select bank0
  9399     0A24  00EF               	movwf	main@cmd
  9400                           
  9401                           ;main.c: 289: }else if(strcmp(rcmd,"RPD") == 0){
  9402     0A25  2AEC               	goto	l4132
  9403     0A26                     l4088:
  9404     0A26  303A               	movlw	low (STR_19| (0+32768))
  9405     0A27  00F0               	movwf	strcmp@s2
  9406     0A28  30A1               	movlw	high (STR_19| (0+32768))
  9407     0A29  00F1               	movwf	strcmp@s2+1
  9408     0A2A  30E8               	movlw	(low (main@rcmd| 0))& (0+255)
  9409     0A2B  3180  2005  3189   	fcall	_strcmp
  9410     0A2E  0870               	movf	?_strcmp,w
  9411     0A2F  0471               	iorwf	?_strcmp+1,w
  9412     0A30  1D03               	btfss	3,2
  9413     0A31  2A33               	goto	u5171
  9414     0A32  2A34               	goto	u5170
  9415     0A33                     u5171:
  9416     0A33  2A38               	goto	l4092
  9417     0A34                     u5170:
  9418     0A34                     l4090:
  9419                           
  9420                           ;main.c: 290: cmd = RPD;
  9421     0A34  300E               	movlw	14
  9422     0A35  0020               	movlb	0	; select bank0
  9423     0A36  00EF               	movwf	main@cmd
  9424                           
  9425                           ;main.c: 291: }else if(strcmp(rcmd,"RLM") == 0){
  9426     0A37  2AEC               	goto	l4132
  9427     0A38                     l4092:
  9428     0A38  3052               	movlw	low (STR_20| (0+32768))
  9429     0A39  00F0               	movwf	strcmp@s2
  9430     0A3A  30A1               	movlw	high (STR_20| (0+32768))
  9431     0A3B  00F1               	movwf	strcmp@s2+1
  9432     0A3C  30E8               	movlw	(low (main@rcmd| 0))& (0+255)
  9433     0A3D  3180  2005  3189   	fcall	_strcmp
  9434     0A40  0870               	movf	?_strcmp,w
  9435     0A41  0471               	iorwf	?_strcmp+1,w
  9436     0A42  1D03               	btfss	3,2
  9437     0A43  2A45               	goto	u5181
  9438     0A44  2A46               	goto	u5180
  9439     0A45                     u5181:
  9440     0A45  2A4A               	goto	l4096
  9441     0A46                     u5180:
  9442     0A46                     l4094:
  9443                           
  9444                           ;main.c: 292: cmd = RLM;
  9445     0A46  300F               	movlw	15
  9446     0A47  0020               	movlb	0	; select bank0
  9447     0A48  00EF               	movwf	main@cmd
  9448                           
  9449                           ;main.c: 293: }else if(strcmp(rcmd,"DA0") == 0){
  9450     0A49  2AEC               	goto	l4132
  9451     0A4A                     l4096:
  9452     0A4A  3012               	movlw	low (STR_21| (0+32768))
  9453     0A4B  00F0               	movwf	strcmp@s2
  9454     0A4C  30A1               	movlw	high (STR_21| (0+32768))
  9455     0A4D  00F1               	movwf	strcmp@s2+1
  9456     0A4E  30E8               	movlw	(low (main@rcmd| 0))& (0+255)
  9457     0A4F  3180  2005  3189   	fcall	_strcmp
  9458     0A52  0870               	movf	?_strcmp,w
  9459     0A53  0471               	iorwf	?_strcmp+1,w
  9460     0A54  1D03               	btfss	3,2
  9461     0A55  2A57               	goto	u5191
  9462     0A56  2A58               	goto	u5190
  9463     0A57                     u5191:
  9464     0A57  2A5C               	goto	l4100
  9465     0A58                     u5190:
  9466     0A58                     l4098:
  9467                           
  9468                           ;main.c: 294: cmd = DA0;
  9469     0A58  3015               	movlw	21
  9470     0A59  0020               	movlb	0	; select bank0
  9471     0A5A  00EF               	movwf	main@cmd
  9472                           
  9473                           ;main.c: 295: }else if(strcmp(rcmd,"DA1") == 0){
  9474     0A5B  2AEC               	goto	l4132
  9475     0A5C                     l4100:
  9476     0A5C  3016               	movlw	low (STR_22| (0+32768))
  9477     0A5D  00F0               	movwf	strcmp@s2
  9478     0A5E  30A1               	movlw	high (STR_22| (0+32768))
  9479     0A5F  00F1               	movwf	strcmp@s2+1
  9480     0A60  30E8               	movlw	(low (main@rcmd| 0))& (0+255)
  9481     0A61  3180  2005  3189   	fcall	_strcmp
  9482     0A64  0870               	movf	?_strcmp,w
  9483     0A65  0471               	iorwf	?_strcmp+1,w
  9484     0A66  1D03               	btfss	3,2
  9485     0A67  2A69               	goto	u5201
  9486     0A68  2A6A               	goto	u5200
  9487     0A69                     u5201:
  9488     0A69  2A6E               	goto	l4104
  9489     0A6A                     u5200:
  9490     0A6A                     l4102:
  9491                           
  9492                           ;main.c: 296: cmd = DA1;
  9493     0A6A  3016               	movlw	22
  9494     0A6B  0020               	movlb	0	; select bank0
  9495     0A6C  00EF               	movwf	main@cmd
  9496                           
  9497                           ;main.c: 297: }else if(strcmp(rcmd,"DA2") == 0){
  9498     0A6D  2AEC               	goto	l4132
  9499     0A6E                     l4104:
  9500     0A6E  301A               	movlw	low (STR_23| (0+32768))
  9501     0A6F  00F0               	movwf	strcmp@s2
  9502     0A70  30A1               	movlw	high (STR_23| (0+32768))
  9503     0A71  00F1               	movwf	strcmp@s2+1
  9504     0A72  30E8               	movlw	(low (main@rcmd| 0))& (0+255)
  9505     0A73  3180  2005  3189   	fcall	_strcmp
  9506     0A76  0870               	movf	?_strcmp,w
  9507     0A77  0471               	iorwf	?_strcmp+1,w
  9508     0A78  1D03               	btfss	3,2
  9509     0A79  2A7B               	goto	u5211
  9510     0A7A  2A7C               	goto	u5210
  9511     0A7B                     u5211:
  9512     0A7B  2A80               	goto	l4108
  9513     0A7C                     u5210:
  9514     0A7C                     l4106:
  9515                           
  9516                           ;main.c: 298: cmd = DA2;
  9517     0A7C  3017               	movlw	23
  9518     0A7D  0020               	movlb	0	; select bank0
  9519     0A7E  00EF               	movwf	main@cmd
  9520                           
  9521                           ;main.c: 299: }else if(strcmp(rcmd,"PMV") == 0){
  9522     0A7F  2AEC               	goto	l4132
  9523     0A80                     l4108:
  9524     0A80  3082               	movlw	low (STR_24| (0+32768))
  9525     0A81  00F0               	movwf	strcmp@s2
  9526     0A82  30A1               	movlw	high (STR_24| (0+32768))
  9527     0A83  00F1               	movwf	strcmp@s2+1
  9528     0A84  30E8               	movlw	(low (main@rcmd| 0))& (0+255)
  9529     0A85  3180  2005  3189   	fcall	_strcmp
  9530     0A88  0870               	movf	?_strcmp,w
  9531     0A89  0471               	iorwf	?_strcmp+1,w
  9532     0A8A  1D03               	btfss	3,2
  9533     0A8B  2A8D               	goto	u5221
  9534     0A8C  2A8E               	goto	u5220
  9535     0A8D                     u5221:
  9536     0A8D  2A92               	goto	l4112
  9537     0A8E                     u5220:
  9538     0A8E                     l4110:
  9539                           
  9540                           ;main.c: 300: cmd = PMV;
  9541     0A8E  3018               	movlw	24
  9542     0A8F  0020               	movlb	0	; select bank0
  9543     0A90  00EF               	movwf	main@cmd
  9544                           
  9545                           ;main.c: 301: }else if(strcmp(rcmd,"PMA") == 0){
  9546     0A91  2AEC               	goto	l4132
  9547     0A92                     l4112:
  9548     0A92  301E               	movlw	low (STR_25| (0+32768))
  9549     0A93  00F0               	movwf	strcmp@s2
  9550     0A94  30A1               	movlw	high (STR_25| (0+32768))
  9551     0A95  00F1               	movwf	strcmp@s2+1
  9552     0A96  30E8               	movlw	(low (main@rcmd| 0))& (0+255)
  9553     0A97  3180  2005  3189   	fcall	_strcmp
  9554     0A9A  0870               	movf	?_strcmp,w
  9555     0A9B  0471               	iorwf	?_strcmp+1,w
  9556     0A9C  1D03               	btfss	3,2
  9557     0A9D  2A9F               	goto	u5231
  9558     0A9E  2AA0               	goto	u5230
  9559     0A9F                     u5231:
  9560     0A9F  2AA4               	goto	l4116
  9561     0AA0                     u5230:
  9562     0AA0                     l4114:
  9563                           
  9564                           ;main.c: 302: cmd = PMA;
  9565     0AA0  3019               	movlw	25
  9566     0AA1  0020               	movlb	0	; select bank0
  9567     0AA2  00EF               	movwf	main@cmd
  9568                           
  9569                           ;main.c: 303: }else if(strcmp(rcmd,"PMR") == 0){
  9570     0AA3  2AEC               	goto	l4132
  9571     0AA4                     l4116:
  9572     0AA4  3072               	movlw	low (STR_26| (0+32768))
  9573     0AA5  00F0               	movwf	strcmp@s2
  9574     0AA6  30A1               	movlw	high (STR_26| (0+32768))
  9575     0AA7  00F1               	movwf	strcmp@s2+1
  9576     0AA8  30E8               	movlw	(low (main@rcmd| 0))& (0+255)
  9577     0AA9  3180  2005  3189   	fcall	_strcmp
  9578     0AAC  0870               	movf	?_strcmp,w
  9579     0AAD  0471               	iorwf	?_strcmp+1,w
  9580     0AAE  1D03               	btfss	3,2
  9581     0AAF  2AB1               	goto	u5241
  9582     0AB0  2AB2               	goto	u5240
  9583     0AB1                     u5241:
  9584     0AB1  2AB6               	goto	l4120
  9585     0AB2                     u5240:
  9586     0AB2                     l4118:
  9587                           
  9588                           ;main.c: 304: cmd = PMR;
  9589     0AB2  301A               	movlw	26
  9590     0AB3  0020               	movlb	0	; select bank0
  9591     0AB4  00EF               	movwf	main@cmd
  9592                           
  9593                           ;main.c: 305: }else if(strcmp(rcmd,"RPP") == 0){
  9594     0AB5  2AEC               	goto	l4132
  9595     0AB6                     l4120:
  9596     0AB6  3062               	movlw	low (STR_27| (0+32768))
  9597     0AB7  00F0               	movwf	strcmp@s2
  9598     0AB8  30A1               	movlw	high (STR_27| (0+32768))
  9599     0AB9  00F1               	movwf	strcmp@s2+1
  9600     0ABA  30E8               	movlw	(low (main@rcmd| 0))& (0+255)
  9601     0ABB  3180  2005  3189   	fcall	_strcmp
  9602     0ABE  0870               	movf	?_strcmp,w
  9603     0ABF  0471               	iorwf	?_strcmp+1,w
  9604     0AC0  1D03               	btfss	3,2
  9605     0AC1  2AC3               	goto	u5251
  9606     0AC2  2AC4               	goto	u5250
  9607     0AC3                     u5251:
  9608     0AC3  2AC8               	goto	l4124
  9609     0AC4                     u5250:
  9610     0AC4                     l4122:
  9611                           
  9612                           ;main.c: 306: cmd = RPP;
  9613     0AC4  301B               	movlw	27
  9614     0AC5  0020               	movlb	0	; select bank0
  9615     0AC6  00EF               	movwf	main@cmd
  9616                           
  9617                           ;main.c: 307: }else if(strcmp(rcmd,"AIN") == 0){
  9618     0AC7  2AEC               	goto	l4132
  9619     0AC8                     l4124:
  9620     0AC8  3056               	movlw	low (STR_28| (0+32768))
  9621     0AC9  00F0               	movwf	strcmp@s2
  9622     0ACA  30A1               	movlw	high (STR_28| (0+32768))
  9623     0ACB  00F1               	movwf	strcmp@s2+1
  9624     0ACC  30E8               	movlw	(low (main@rcmd| 0))& (0+255)
  9625     0ACD  3180  2005  3189   	fcall	_strcmp
  9626     0AD0  0870               	movf	?_strcmp,w
  9627     0AD1  0471               	iorwf	?_strcmp+1,w
  9628     0AD2  1D03               	btfss	3,2
  9629     0AD3  2AD5               	goto	u5261
  9630     0AD4  2AD6               	goto	u5260
  9631     0AD5                     u5261:
  9632     0AD5  2ADA               	goto	l4128
  9633     0AD6                     u5260:
  9634     0AD6                     l4126:
  9635                           
  9636                           ;main.c: 308: cmd = AIN;
  9637     0AD6  301C               	movlw	28
  9638     0AD7  0020               	movlb	0	; select bank0
  9639     0AD8  00EF               	movwf	main@cmd
  9640                           
  9641                           ;main.c: 309: }else if(strcmp(rcmd,"NSD") == 0){
  9642     0AD9  2AEC               	goto	l4132
  9643     0ADA                     l4128:
  9644     0ADA  3042               	movlw	low (STR_29| (0+32768))
  9645     0ADB  00F0               	movwf	strcmp@s2
  9646     0ADC  30A1               	movlw	high (STR_29| (0+32768))
  9647     0ADD  00F1               	movwf	strcmp@s2+1
  9648     0ADE  30E8               	movlw	(low (main@rcmd| 0))& (0+255)
  9649     0ADF  3180  2005  3189   	fcall	_strcmp
  9650     0AE2  0870               	movf	?_strcmp,w
  9651     0AE3  0471               	iorwf	?_strcmp+1,w
  9652     0AE4  1D03               	btfss	3,2
  9653     0AE5  2AE7               	goto	u5271
  9654     0AE6  2AE8               	goto	u5270
  9655     0AE7                     u5271:
  9656     0AE7  2AEC               	goto	l152
  9657     0AE8                     u5270:
  9658     0AE8                     l4130:
  9659                           
  9660                           ;main.c: 310: cmd = NSD;
  9661     0AE8  300A               	movlw	10
  9662     0AE9  0020               	movlb	0	; select bank0
  9663     0AEA  00EF               	movwf	main@cmd
  9664     0AEB  2AEC               	goto	l4132
  9665     0AEC                     l152:
  9666     0AEC                     l4132:
  9667                           
  9668                           ;main.c: 311: };main.c: 312: ptr = strtok(tmp, "/");
  9669     0AEC  3086               	movlw	low (STR_30| (0+32768))
  9670     0AED  0020               	movlb	0	; select bank0
  9671     0AEE  00A0               	movwf	strtok@s2
  9672     0AEF  30A1               	movlw	high (STR_30| (0+32768))
  9673     0AF0  00A1               	movwf	strtok@s2+1
  9674     0AF1  30A0               	movlw	(low (main@tmp| 0))& (0+255)
  9675     0AF2  3188  2001  3189   	fcall	_strtok
  9676     0AF5  0022               	movlb	2	; select bank2
  9677     0AF6  00A2               	movwf	main@ptr^(0+256)
  9678     0AF7                     l4134:
  9679                           
  9680                           ;main.c: 314: RA3 = 1;
  9681     0AF7  0020               	movlb	0	; select bank0
  9682     0AF8  158C               	bsf	12,3	;volatile
  9683                           
  9684                           ;main.c: 316: switch(cmd){
  9685     0AF9  3187  2F8B         	goto	l4606
  9686     0AFB                     l4136:
  9687                           
  9688                           ;main.c: 319: ptr = strtok((0), "/");
  9689     0AFB  3086               	movlw	low (STR_30| (0+32768))
  9690     0AFC  00A0               	movwf	strtok@s2
  9691     0AFD  30A1               	movlw	high (STR_30| (0+32768))
  9692     0AFE  00A1               	movwf	strtok@s2+1
  9693     0AFF  0103               	clrw
  9694     0B00  3188  2001  3189   	fcall	_strtok
  9695     0B03  0022               	movlb	2	; select bank2
  9696     0B04  00A2               	movwf	main@ptr^(0+256)
  9697                           
  9698                           ;main.c: 320: ptr = strtok((0), "/");
  9699     0B05  3086               	movlw	low (STR_30| (0+32768))
  9700     0B06  0020               	movlb	0	; select bank0
  9701     0B07  00A0               	movwf	strtok@s2
  9702     0B08  30A1               	movlw	high (STR_30| (0+32768))
  9703     0B09  00A1               	movwf	strtok@s2+1
  9704     0B0A  0103               	clrw
  9705     0B0B  3188  2001  3189   	fcall	_strtok
  9706     0B0E  0022               	movlb	2	; select bank2
  9707     0B0F  00A2               	movwf	main@ptr^(0+256)
  9708                           
  9709                           ;main.c: 321: ptr = strtok((0), "/");
  9710     0B10  3086               	movlw	low (STR_30| (0+32768))
  9711     0B11  0020               	movlb	0	; select bank0
  9712     0B12  00A0               	movwf	strtok@s2
  9713     0B13  30A1               	movlw	high (STR_30| (0+32768))
  9714     0B14  00A1               	movwf	strtok@s2+1
  9715     0B15  0103               	clrw
  9716     0B16  3188  2001  3189   	fcall	_strtok
  9717     0B19  0022               	movlb	2	; select bank2
  9718     0B1A  00A2               	movwf	main@ptr^(0+256)
  9719                           
  9720                           ;main.c: 322: ptr = strtok((0), "/");
  9721     0B1B  3086               	movlw	low (STR_30| (0+32768))
  9722     0B1C  0020               	movlb	0	; select bank0
  9723     0B1D  00A0               	movwf	strtok@s2
  9724     0B1E  30A1               	movlw	high (STR_30| (0+32768))
  9725     0B1F  00A1               	movwf	strtok@s2+1
  9726     0B20  0103               	clrw
  9727     0B21  3188  2001  3189   	fcall	_strtok
  9728     0B24  0022               	movlb	2	; select bank2
  9729     0B25  00A2               	movwf	main@ptr^(0+256)
  9730     0B26                     l4138:
  9731                           
  9732                           ;main.c: 323: if(ptr != (0)) {
  9733     0B26  0822               	movf	main@ptr^(0+256),w
  9734     0B27  1903               	btfsc	3,2
  9735     0B28  2B2A               	goto	u5281
  9736     0B29  2B2B               	goto	u5280
  9737     0B2A                     u5281:
  9738     0B2A  2B34               	goto	l4142
  9739     0B2B                     u5280:
  9740     0B2B                     l4140:
  9741                           
  9742                           ;main.c: 324: dist = atoi(ptr);
  9743     0B2B  0822               	movf	main@ptr^(0+256),w
  9744     0B2C  3180  202C  3189   	fcall	_atoi
  9745     0B2F  0877               	movf	?_atoi+1,w
  9746     0B30  0021               	movlb	1	; select bank1
  9747     0B31  00EF               	movwf	(main@dist+1)^(0+128)
  9748     0B32  0876               	movf	?_atoi,w
  9749     0B33  00EE               	movwf	main@dist^(0+128)
  9750     0B34                     l4142:
  9751                           
  9752                           ;main.c: 325: };main.c: 327: if (dist > 0){
  9753     0B34  0021               	movlb	1	; select bank1
  9754     0B35  086F               	movf	(main@dist+1)^(0+128),w
  9755     0B36  3A80               	xorlw	128
  9756     0B37  0020               	movlb	0	; select bank0
  9757     0B38  00D4               	movwf	??_main
  9758     0B39  3080               	movlw	128
  9759     0B3A  0254               	subwf	??_main,w
  9760     0B3B  1D03               	skipz
  9761     0B3C  2B40               	goto	u5295
  9762     0B3D  3001               	movlw	1
  9763     0B3E  0021               	movlb	1	; select bank1
  9764     0B3F  026E               	subwf	main@dist^(0+128),w
  9765     0B40                     u5295:
  9766     0B40  1C03               	skipc
  9767     0B41  2B43               	goto	u5291
  9768     0B42  2B44               	goto	u5290
  9769     0B43                     u5291:
  9770     0B43  2BA3               	goto	l4158
  9771     0B44                     u5290:
  9772     0B44                     l4144:
  9773                           
  9774                           ;main.c: 328: for(k = 0 ; k < dist ; k++){
  9775     0B44  0022               	movlb	2	; select bank2
  9776     0B45  01A0               	clrf	main@k^(0+256)
  9777     0B46  01A1               	clrf	(main@k+1)^(0+256)
  9778     0B47  2B8E               	goto	l162
  9779     0B48                     l163:
  9780                           
  9781                           ;main.c: 329: RA0 = 1;
  9782     0B48  0020               	movlb	0	; select bank0
  9783     0B49  140C               	bsf	12,0	;volatile
  9784     0B4A                     l4146:
  9785                           
  9786                           ;main.c: 330: npos += 1;
  9787     0B4A  3001               	movlw	1
  9788     0B4B  0021               	movlb	1	; select bank1
  9789     0B4C  07EC               	addwf	main@npos^(0+128),f
  9790     0B4D  3000               	movlw	0
  9791     0B4E  3DED               	addwfc	(main@npos+1)^(0+128),f
  9792     0B4F                     l4148:
  9793                           
  9794                           ;main.c: 331: for(j = 0 ; j < intvl ; j++){
  9795     0B4F  0022               	movlb	2	; select bank2
  9796     0B50  01A5               	clrf	main@j^(0+256)
  9797     0B51  01A6               	clrf	(main@j+1)^(0+256)
  9798     0B52  2B59               	goto	l164
  9799     0B53                     l165:
  9800                           
  9801                           ;main.c: 332: _delay((unsigned long)((1)*(4000000/4000000.0)));
  9802     0B53  0000               	nop
  9803     0B54                     l4150:
  9804     0B54  3001               	movlw	1
  9805     0B55  0022               	movlb	2	; select bank2
  9806     0B56  07A5               	addwf	main@j^(0+256),f
  9807     0B57  3000               	movlw	0
  9808     0B58  3DA6               	addwfc	(main@j+1)^(0+256),f
  9809     0B59                     l164:
  9810     0B59  0826               	movf	(main@j+1)^(0+256),w
  9811     0B5A  3A80               	xorlw	128
  9812     0B5B  0020               	movlb	0	; select bank0
  9813     0B5C  00D4               	movwf	??_main
  9814     0B5D  0022               	movlb	2	; select bank2
  9815     0B5E  0824               	movf	(main@intvl+1)^(0+256),w
  9816     0B5F  3A80               	xorlw	128
  9817     0B60  0020               	movlb	0	; select bank0
  9818     0B61  0254               	subwf	??_main,w
  9819     0B62  1D03               	skipz
  9820     0B63  2B67               	goto	u5305
  9821     0B64  0022               	movlb	2	; select bank2
  9822     0B65  0823               	movf	main@intvl^(0+256),w
  9823     0B66  0225               	subwf	main@j^(0+256),w
  9824     0B67                     u5305:
  9825     0B67  1C03               	skipc
  9826     0B68  2B6A               	goto	u5301
  9827     0B69  2B6B               	goto	u5300
  9828     0B6A                     u5301:
  9829     0B6A  2B53               	goto	l165
  9830     0B6B                     u5300:
  9831     0B6B                     l166:
  9832                           
  9833                           ;main.c: 333: };main.c: 334: RA0 = 0;
  9834     0B6B  0020               	movlb	0	; select bank0
  9835     0B6C  100C               	bcf	12,0	;volatile
  9836     0B6D                     l4152:
  9837                           
  9838                           ;main.c: 335: for(j = 0 ; j < intvl ; j++){
  9839     0B6D  0022               	movlb	2	; select bank2
  9840     0B6E  01A5               	clrf	main@j^(0+256)
  9841     0B6F  01A6               	clrf	(main@j+1)^(0+256)
  9842     0B70  2B77               	goto	l167
  9843     0B71                     l168:
  9844                           
  9845                           ;main.c: 336: _delay((unsigned long)((1)*(4000000/4000000.0)));
  9846     0B71  0000               	nop
  9847     0B72                     l4154:
  9848     0B72  3001               	movlw	1
  9849     0B73  0022               	movlb	2	; select bank2
  9850     0B74  07A5               	addwf	main@j^(0+256),f
  9851     0B75  3000               	movlw	0
  9852     0B76  3DA6               	addwfc	(main@j+1)^(0+256),f
  9853     0B77                     l167:
  9854     0B77  0826               	movf	(main@j+1)^(0+256),w
  9855     0B78  3A80               	xorlw	128
  9856     0B79  0020               	movlb	0	; select bank0
  9857     0B7A  00D4               	movwf	??_main
  9858     0B7B  0022               	movlb	2	; select bank2
  9859     0B7C  0824               	movf	(main@intvl+1)^(0+256),w
  9860     0B7D  3A80               	xorlw	128
  9861     0B7E  0020               	movlb	0	; select bank0
  9862     0B7F  0254               	subwf	??_main,w
  9863     0B80  1D03               	skipz
  9864     0B81  2B85               	goto	u5315
  9865     0B82  0022               	movlb	2	; select bank2
  9866     0B83  0823               	movf	main@intvl^(0+256),w
  9867     0B84  0225               	subwf	main@j^(0+256),w
  9868     0B85                     u5315:
  9869     0B85  1C03               	skipc
  9870     0B86  2B88               	goto	u5311
  9871     0B87  2B89               	goto	u5310
  9872     0B88                     u5311:
  9873     0B88  2B71               	goto	l168
  9874     0B89                     u5310:
  9875     0B89                     l4156:
  9876     0B89  3001               	movlw	1
  9877     0B8A  0022               	movlb	2	; select bank2
  9878     0B8B  07A0               	addwf	main@k^(0+256),f
  9879     0B8C  3000               	movlw	0
  9880     0B8D  3DA1               	addwfc	(main@k+1)^(0+256),f
  9881     0B8E                     l162:
  9882     0B8E  0821               	movf	(main@k+1)^(0+256),w
  9883     0B8F  3A80               	xorlw	128
  9884     0B90  0020               	movlb	0	; select bank0
  9885     0B91  00D4               	movwf	??_main
  9886     0B92  0021               	movlb	1	; select bank1
  9887     0B93  086F               	movf	(main@dist+1)^(0+128),w
  9888     0B94  3A80               	xorlw	128
  9889     0B95  0020               	movlb	0	; select bank0
  9890     0B96  0254               	subwf	??_main,w
  9891     0B97  1D03               	skipz
  9892     0B98  2B9D               	goto	u5325
  9893     0B99  0021               	movlb	1	; select bank1
  9894     0B9A  086E               	movf	main@dist^(0+128),w
  9895     0B9B  0022               	movlb	2	; select bank2
  9896     0B9C  0220               	subwf	main@k^(0+256),w
  9897     0B9D                     u5325:
  9898     0B9D  1C03               	skipc
  9899     0B9E  2BA0               	goto	u5321
  9900     0B9F  2BA1               	goto	u5320
  9901     0BA0                     u5321:
  9902     0BA0  2B48               	goto	l163
  9903     0BA1                     u5320:
  9904     0BA1  3194  2CCD         	goto	l4176
  9905     0BA3                     l4158:
  9906                           
  9907                           ;main.c: 340: dist *= -1;
  9908     0BA3  30FF               	movlw	255
  9909     0BA4  00F0               	movwf	___wmul@multiplier
  9910     0BA5  30FF               	movlw	255
  9911     0BA6  00F1               	movwf	___wmul@multiplier+1
  9912     0BA7  0021               	movlb	1	; select bank1
  9913     0BA8  086F               	movf	(main@dist+1)^(0+128),w
  9914     0BA9  00F3               	movwf	___wmul@multiplicand+1
  9915     0BAA  086E               	movf	main@dist^(0+128),w
  9916     0BAB  00F2               	movwf	___wmul@multiplicand
  9917     0BAC  319C  24AB  3189   	fcall	___wmul
  9918     0BAF  0871               	movf	?___wmul+1,w
  9919     0BB0  0021               	movlb	1	; select bank1
  9920     0BB1  00EF               	movwf	(main@dist+1)^(0+128)
  9921     0BB2  0870               	movf	?___wmul,w
  9922     0BB3  00EE               	movwf	main@dist^(0+128)
  9923     0BB4                     l4160:
  9924                           
  9925                           ;main.c: 341: for(k = 0 ; k < dist ; k++){
  9926     0BB4  0022               	movlb	2	; select bank2
  9927     0BB5  01A0               	clrf	main@k^(0+256)
  9928     0BB6  01A1               	clrf	(main@k+1)^(0+256)
  9929     0BB7  3194  2CBA         	goto	l172
  9930                           
  9931                           	psect	maintext_split_3
  9932     1460                     l173:
  9933                           
  9934                           ;main.c: 342: RA1 = 1;
  9935     1460  0020               	movlb	0	; select bank0
  9936     1461  148C               	bsf	12,1	;volatile
  9937     1462                     l4162:
  9938                           
  9939                           ;main.c: 343: if(npos > 1){
  9940     1462  0021               	movlb	1	; select bank1
  9941     1463  086D               	movf	(main@npos+1)^(0+128),w
  9942     1464  3A80               	xorlw	128
  9943     1465  0020               	movlb	0	; select bank0
  9944     1466  00D4               	movwf	??_main
  9945     1467  3080               	movlw	128
  9946     1468  0254               	subwf	??_main,w
  9947     1469  1D03               	skipz
  9948     146A  2C6E               	goto	u5335
  9949     146B  3002               	movlw	2
  9950     146C  0021               	movlb	1	; select bank1
  9951     146D  026C               	subwf	main@npos^(0+128),w
  9952     146E                     u5335:
  9953     146E  1C03               	skipc
  9954     146F  2C71               	goto	u5331
  9955     1470  2C72               	goto	u5330
  9956     1471                     u5331:
  9957     1471  2C78               	goto	l4166
  9958     1472                     u5330:
  9959     1472                     l4164:
  9960                           
  9961                           ;main.c: 344: npos -= 1;
  9962     1472  30FF               	movlw	255
  9963     1473  0021               	movlb	1	; select bank1
  9964     1474  07EC               	addwf	main@npos^(0+128),f
  9965     1475  30FF               	movlw	255
  9966     1476  3DED               	addwfc	(main@npos+1)^(0+128),f
  9967                           
  9968                           ;main.c: 345: }else{
  9969     1477  2C7B               	goto	l175
  9970     1478                     l4166:
  9971                           
  9972                           ;main.c: 346: npos = 0;
  9973     1478  0021               	movlb	1	; select bank1
  9974     1479  01EC               	clrf	main@npos^(0+128)
  9975     147A  01ED               	clrf	(main@npos+1)^(0+128)
  9976     147B                     l175:
  9977                           
  9978                           ;main.c: 347: };main.c: 348: for(j = 0 ; j < intvl ; j++){
  9979     147B  0022               	movlb	2	; select bank2
  9980     147C  01A5               	clrf	main@j^(0+256)
  9981     147D  01A6               	clrf	(main@j+1)^(0+256)
  9982     147E  2C85               	goto	l176
  9983     147F                     l177:
  9984                           
  9985                           ;main.c: 349: _delay((unsigned long)((1)*(4000000/4000000.0)));
  9986     147F  0000               	nop
  9987     1480                     l4168:
  9988     1480  3001               	movlw	1
  9989     1481  0022               	movlb	2	; select bank2
  9990     1482  07A5               	addwf	main@j^(0+256),f
  9991     1483  3000               	movlw	0
  9992     1484  3DA6               	addwfc	(main@j+1)^(0+256),f
  9993     1485                     l176:
  9994     1485  0826               	movf	(main@j+1)^(0+256),w
  9995     1486  3A80               	xorlw	128
  9996     1487  0020               	movlb	0	; select bank0
  9997     1488  00D4               	movwf	??_main
  9998     1489  0022               	movlb	2	; select bank2
  9999     148A  0824               	movf	(main@intvl+1)^(0+256),w
 10000     148B  3A80               	xorlw	128
 10001     148C  0020               	movlb	0	; select bank0
 10002     148D  0254               	subwf	??_main,w
 10003     148E  1D03               	skipz
 10004     148F  2C93               	goto	u5345
 10005     1490  0022               	movlb	2	; select bank2
 10006     1491  0823               	movf	main@intvl^(0+256),w
 10007     1492  0225               	subwf	main@j^(0+256),w
 10008     1493                     u5345:
 10009     1493  1C03               	skipc
 10010     1494  2C96               	goto	u5341
 10011     1495  2C97               	goto	u5340
 10012     1496                     u5341:
 10013     1496  2C7F               	goto	l177
 10014     1497                     u5340:
 10015     1497                     l178:
 10016                           
 10017                           ;main.c: 350: };main.c: 351: RA1 = 0;
 10018     1497  0020               	movlb	0	; select bank0
 10019     1498  108C               	bcf	12,1	;volatile
 10020     1499                     l4170:
 10021                           
 10022                           ;main.c: 352: for(j = 0 ; j < intvl ; j++){
 10023     1499  0022               	movlb	2	; select bank2
 10024     149A  01A5               	clrf	main@j^(0+256)
 10025     149B  01A6               	clrf	(main@j+1)^(0+256)
 10026     149C  2CA3               	goto	l179
 10027     149D                     l180:
 10028                           
 10029                           ;main.c: 353: _delay((unsigned long)((1)*(4000000/4000000.0)));
 10030     149D  0000               	nop
 10031     149E                     l4172:
 10032     149E  3001               	movlw	1
 10033     149F  0022               	movlb	2	; select bank2
 10034     14A0  07A5               	addwf	main@j^(0+256),f
 10035     14A1  3000               	movlw	0
 10036     14A2  3DA6               	addwfc	(main@j+1)^(0+256),f
 10037     14A3                     l179:
 10038     14A3  0826               	movf	(main@j+1)^(0+256),w
 10039     14A4  3A80               	xorlw	128
 10040     14A5  0020               	movlb	0	; select bank0
 10041     14A6  00D4               	movwf	??_main
 10042     14A7  0022               	movlb	2	; select bank2
 10043     14A8  0824               	movf	(main@intvl+1)^(0+256),w
 10044     14A9  3A80               	xorlw	128
 10045     14AA  0020               	movlb	0	; select bank0
 10046     14AB  0254               	subwf	??_main,w
 10047     14AC  1D03               	skipz
 10048     14AD  2CB1               	goto	u5355
 10049     14AE  0022               	movlb	2	; select bank2
 10050     14AF  0823               	movf	main@intvl^(0+256),w
 10051     14B0  0225               	subwf	main@j^(0+256),w
 10052     14B1                     u5355:
 10053     14B1  1C03               	skipc
 10054     14B2  2CB4               	goto	u5351
 10055     14B3  2CB5               	goto	u5350
 10056     14B4                     u5351:
 10057     14B4  2C9D               	goto	l180
 10058     14B5                     u5350:
 10059     14B5                     l4174:
 10060     14B5  3001               	movlw	1
 10061     14B6  0022               	movlb	2	; select bank2
 10062     14B7  07A0               	addwf	main@k^(0+256),f
 10063     14B8  3000               	movlw	0
 10064     14B9  3DA1               	addwfc	(main@k+1)^(0+256),f
 10065     14BA                     l172:
 10066     14BA  0821               	movf	(main@k+1)^(0+256),w
 10067     14BB  3A80               	xorlw	128
 10068     14BC  0020               	movlb	0	; select bank0
 10069     14BD  00D4               	movwf	??_main
 10070     14BE  0021               	movlb	1	; select bank1
 10071     14BF  086F               	movf	(main@dist+1)^(0+128),w
 10072     14C0  3A80               	xorlw	128
 10073     14C1  0020               	movlb	0	; select bank0
 10074     14C2  0254               	subwf	??_main,w
 10075     14C3  1D03               	skipz
 10076     14C4  2CC9               	goto	u5365
 10077     14C5  0021               	movlb	1	; select bank1
 10078     14C6  086E               	movf	main@dist^(0+128),w
 10079     14C7  0022               	movlb	2	; select bank2
 10080     14C8  0220               	subwf	main@k^(0+256),w
 10081     14C9                     u5365:
 10082     14C9  1C03               	skipc
 10083     14CA  2CCC               	goto	u5361
 10084     14CB  2CCD               	goto	u5360
 10085     14CC                     u5361:
 10086     14CC  2C60               	goto	l173
 10087     14CD                     u5360:
 10088     14CD                     l4176:
 10089                           
 10090                           ;main.c: 354: };main.c: 355: };main.c: 356: };main.c: 359: printf("C\tRPS\r\n");
 10091     14CD  3002               	movlw	low (STR_35| (0+32768))
 10092     14CE  0020               	movlb	0	; select bank0
 10093     14CF  00A0               	movwf	printf@f
 10094     14D0  30A1               	movlw	high (STR_35| (0+32768))
 10095     14D1  00A1               	movwf	printf@f+1
 10096     14D2  3190  2054  3194   	fcall	_printf
 10097     14D5                     L3:
 10098                           
 10099                           ;main.c: 360: break;
 10100     14D5  3187  2FE6         	goto	l183
 10101     14D7                     l4178:
 10102                           
 10103                           ;main.c: 363: ptr = strtok((0), "/");
 10104     14D7  3086               	movlw	low (STR_30| (0+32768))
 10105     14D8  00A0               	movwf	strtok@s2
 10106     14D9  30A1               	movlw	high (STR_30| (0+32768))
 10107     14DA  00A1               	movwf	strtok@s2+1
 10108     14DB  0103               	clrw
 10109     14DC  3188  2001  3194   	fcall	_strtok
 10110     14DF  0022               	movlb	2	; select bank2
 10111     14E0  00A2               	movwf	main@ptr^(0+256)
 10112                           
 10113                           ;main.c: 364: ptr = strtok((0), "/");
 10114     14E1  3086               	movlw	low (STR_30| (0+32768))
 10115     14E2  0020               	movlb	0	; select bank0
 10116     14E3  00A0               	movwf	strtok@s2
 10117     14E4  30A1               	movlw	high (STR_30| (0+32768))
 10118     14E5  00A1               	movwf	strtok@s2+1
 10119     14E6  0103               	clrw
 10120     14E7  3188  2001  3194   	fcall	_strtok
 10121     14EA  0022               	movlb	2	; select bank2
 10122     14EB  00A2               	movwf	main@ptr^(0+256)
 10123                           
 10124                           ;main.c: 365: ptr = strtok((0), "/");
 10125     14EC  3086               	movlw	low (STR_30| (0+32768))
 10126     14ED  0020               	movlb	0	; select bank0
 10127     14EE  00A0               	movwf	strtok@s2
 10128     14EF  30A1               	movlw	high (STR_30| (0+32768))
 10129     14F0  00A1               	movwf	strtok@s2+1
 10130     14F1  0103               	clrw
 10131     14F2  3188  2001  3194   	fcall	_strtok
 10132     14F5  0022               	movlb	2	; select bank2
 10133     14F6  00A2               	movwf	main@ptr^(0+256)
 10134     14F7                     l4180:
 10135                           
 10136                           ;main.c: 366: if(ptr != (0)) {
 10137     14F7  0822               	movf	main@ptr^(0+256),w
 10138     14F8  1903               	btfsc	3,2
 10139     14F9  2CFB               	goto	u5371
 10140     14FA  2CFC               	goto	u5370
 10141     14FB                     u5371:
 10142     14FB  2D05               	goto	l4184
 10143     14FC                     u5370:
 10144     14FC                     l4182:
 10145                           
 10146                           ;main.c: 367: set_spd = atoi(ptr);
 10147     14FC  0822               	movf	main@ptr^(0+256),w
 10148     14FD  3180  202C  3194   	fcall	_atoi
 10149     1500  0877               	movf	?_atoi+1,w
 10150     1501  0020               	movlb	0	; select bank0
 10151     1502  00DC               	movwf	main@set_spd+1
 10152     1503  0876               	movf	?_atoi,w
 10153     1504  00DB               	movwf	main@set_spd
 10154     1505                     l4184:
 10155                           
 10156                           ;main.c: 368: };main.c: 369: intvl = mx_spd / set_spd;
 10157     1505  0020               	movlb	0	; select bank0
 10158     1506  085C               	movf	main@set_spd+1,w
 10159     1507  00F1               	movwf	___awdiv@divisor+1
 10160     1508  085B               	movf	main@set_spd,w
 10161     1509  00F0               	movwf	___awdiv@divisor
 10162     150A  085A               	movf	main@mx_spd+1,w
 10163     150B  00F3               	movwf	___awdiv@dividend+1
 10164     150C  0859               	movf	main@mx_spd,w
 10165     150D  00F2               	movwf	___awdiv@dividend
 10166     150E  319E  2686  3194   	fcall	___awdiv
 10167     1511  0871               	movf	?___awdiv+1,w
 10168     1512  0022               	movlb	2	; select bank2
 10169     1513  00A4               	movwf	(main@intvl+1)^(0+256)
 10170     1514  0870               	movf	?___awdiv,w
 10171     1515  00A3               	movwf	main@intvl^(0+256)
 10172     1516                     l4186:
 10173                           
 10174                           ;main.c: 370: if (intvl == 0){
 10175     1516  0823               	movf	main@intvl^(0+256),w
 10176     1517  0424               	iorwf	(main@intvl+1)^(0+256),w
 10177     1518  1D03               	btfss	3,2
 10178     1519  2D1B               	goto	u5381
 10179     151A  2D1C               	goto	u5380
 10180     151B                     u5381:
 10181     151B  2D20               	goto	l4190
 10182     151C                     u5380:
 10183     151C                     l4188:
 10184                           
 10185                           ;main.c: 371: intvl = 1;
 10186     151C  3001               	movlw	1
 10187     151D  00A3               	movwf	main@intvl^(0+256)
 10188     151E  3000               	movlw	0
 10189     151F  00A4               	movwf	(main@intvl^(0+256)+1)
 10190     1520                     l4190:
 10191                           
 10192                           ;main.c: 372: };main.c: 374: write_data_eeprom(INTVL_ADR, intvl);
 10193     1520  0020               	movlb	0	; select bank0
 10194     1521  086C               	movf	main@INTVL_ADR+3,w
 10195     1522  00F7               	movwf	write_data_eeprom@adr+3
 10196     1523  086B               	movf	main@INTVL_ADR+2,w
 10197     1524  00F6               	movwf	write_data_eeprom@adr+2
 10198     1525  086A               	movf	main@INTVL_ADR+1,w
 10199     1526  00F5               	movwf	write_data_eeprom@adr+1
 10200     1527  0869               	movf	main@INTVL_ADR,w
 10201     1528  00F4               	movwf	write_data_eeprom@adr
 10202     1529  0022               	movlb	2	; select bank2
 10203     152A  0823               	movf	main@intvl^(0+256),w
 10204     152B  00F8               	movwf	write_data_eeprom@value
 10205     152C  0824               	movf	(main@intvl+1)^(0+256),w
 10206     152D  00F9               	movwf	write_data_eeprom@value+1
 10207     152E  0D89               	rlf	9,f
 10208     152F  3B89               	subwfb	9,f
 10209     1530  0989               	comf	9,f
 10210     1531  00FA               	movwf	write_data_eeprom@value+2
 10211     1532  00FB               	movwf	write_data_eeprom@value+3
 10212     1533  319D  25E7  3194   	fcall	_write_data_eeprom
 10213     1536                     l4192:
 10214                           
 10215                           ;main.c: 375: printf("C\tWTB\t%d\r\n", intvl);
 10216     1536  3037               	movlw	low (STR_39| (0+32768))
 10217     1537  0020               	movlb	0	; select bank0
 10218     1538  00A0               	movwf	printf@f
 10219     1539  30A0               	movlw	high (STR_39| (0+32768))
 10220     153A  00A1               	movwf	printf@f+1
 10221     153B  0022               	movlb	2	; select bank2
 10222     153C  0824               	movf	(main@intvl+1)^(0+256),w
 10223     153D  0020               	movlb	0	; select bank0
 10224     153E  00A3               	movwf	?_printf+3
 10225     153F  0022               	movlb	2	; select bank2
 10226     1540  0823               	movf	main@intvl^(0+256),w
 10227     1541  0020               	movlb	0	; select bank0
 10228     1542  00A2               	movwf	?_printf+2
 10229     1543  3190  2054  3194   	fcall	_printf
 10230                           
 10231                           ;main.c: 377: break;
 10232     1546  2CD5               	goto	L3
 10233     1547                     l4194:
 10234                           
 10235                           ;main.c: 380: ptr = strtok((0), "/");
 10236     1547  3086               	movlw	low (STR_30| (0+32768))
 10237     1548  00A0               	movwf	strtok@s2
 10238     1549  30A1               	movlw	high (STR_30| (0+32768))
 10239     154A  00A1               	movwf	strtok@s2+1
 10240     154B  0103               	clrw
 10241     154C  3188  2001  3194   	fcall	_strtok
 10242     154F  0022               	movlb	2	; select bank2
 10243     1550  00A2               	movwf	main@ptr^(0+256)
 10244     1551                     l4196:
 10245                           
 10246                           ;main.c: 381: if(ptr != (0)) {
 10247     1551  0822               	movf	main@ptr^(0+256),w
 10248     1552  1903               	btfsc	3,2
 10249     1553  2D55               	goto	u5391
 10250     1554  2D56               	goto	u5390
 10251     1555                     u5391:
 10252     1555  2D5F               	goto	l4200
 10253     1556                     u5390:
 10254     1556                     l4198:
 10255                           
 10256                           ;main.c: 382: nip = atoi(ptr);
 10257     1556  0822               	movf	main@ptr^(0+256),w
 10258     1557  3180  202C  3194   	fcall	_atoi
 10259     155A  0877               	movf	?_atoi+1,w
 10260     155B  0021               	movlb	1	; select bank1
 10261     155C  00D9               	movwf	(main@nip+1)^(0+128)
 10262     155D  0876               	movf	?_atoi,w
 10263     155E  00D8               	movwf	main@nip^(0+128)
 10264     155F                     l4200:
 10265                           
 10266                           ;main.c: 383: };main.c: 385: write_data_eeprom(NIP_ADR, nip);
 10267     155F  0021               	movlb	1	; select bank1
 10268     1560  084F               	movf	(main@NIP_ADR+3)^(0+128),w
 10269     1561  00F7               	movwf	write_data_eeprom@adr+3
 10270     1562  084E               	movf	(main@NIP_ADR+2)^(0+128),w
 10271     1563  00F6               	movwf	write_data_eeprom@adr+2
 10272     1564  084D               	movf	(main@NIP_ADR+1)^(0+128),w
 10273     1565  00F5               	movwf	write_data_eeprom@adr+1
 10274     1566  084C               	movf	main@NIP_ADR^(0+128),w
 10275     1567  00F4               	movwf	write_data_eeprom@adr
 10276     1568  0858               	movf	main@nip^(0+128),w
 10277     1569  00F8               	movwf	write_data_eeprom@value
 10278     156A  0859               	movf	(main@nip+1)^(0+128),w
 10279     156B  00F9               	movwf	write_data_eeprom@value+1
 10280     156C  0D89               	rlf	9,f
 10281     156D  3B89               	subwfb	9,f
 10282     156E  0989               	comf	9,f
 10283     156F  00FA               	movwf	write_data_eeprom@value+2
 10284     1570  00FB               	movwf	write_data_eeprom@value+3
 10285     1571  319D  25E7  3194   	fcall	_write_data_eeprom
 10286     1574                     l4202:
 10287                           
 10288                           ;main.c: 386: printf("C\tWNI\t%d\r\n", nip);
 10289     1574  304D               	movlw	low (STR_41| (0+32768))
 10290     1575  0020               	movlb	0	; select bank0
 10291     1576  00A0               	movwf	printf@f
 10292     1577  30A0               	movlw	high (STR_41| (0+32768))
 10293     1578  00A1               	movwf	printf@f+1
 10294     1579  0021               	movlb	1	; select bank1
 10295     157A  0859               	movf	(main@nip+1)^(0+128),w
 10296     157B  0020               	movlb	0	; select bank0
 10297     157C  00A3               	movwf	?_printf+3
 10298     157D  0021               	movlb	1	; select bank1
 10299     157E  0858               	movf	main@nip^(0+128),w
 10300     157F  0020               	movlb	0	; select bank0
 10301     1580  00A2               	movwf	?_printf+2
 10302     1581  3190  2054  3194   	fcall	_printf
 10303                           
 10304                           ;main.c: 388: break;
 10305     1584  2CD5               	goto	L3
 10306                           
 10307                           	psect	maintext_split_4
 10308     133B                     l4204:
 10309                           
 10310                           ;main.c: 391: ptr = strtok((0), "/");
 10311     133B  3086               	movlw	low (STR_30| (0+32768))
 10312     133C  00A0               	movwf	strtok@s2
 10313     133D  30A1               	movlw	high (STR_30| (0+32768))
 10314     133E  00A1               	movwf	strtok@s2+1
 10315     133F  0103               	clrw
 10316     1340  3188  2001  3193   	fcall	_strtok
 10317     1343  0022               	movlb	2	; select bank2
 10318     1344  00A2               	movwf	main@ptr^(0+256)
 10319                           
 10320                           ;main.c: 392: ptr = strtok((0), "/");
 10321     1345  3086               	movlw	low (STR_30| (0+32768))
 10322     1346  0020               	movlb	0	; select bank0
 10323     1347  00A0               	movwf	strtok@s2
 10324     1348  30A1               	movlw	high (STR_30| (0+32768))
 10325     1349  00A1               	movwf	strtok@s2+1
 10326     134A  0103               	clrw
 10327     134B  3188  2001  3193   	fcall	_strtok
 10328     134E  0022               	movlb	2	; select bank2
 10329     134F  00A2               	movwf	main@ptr^(0+256)
 10330                           
 10331                           ;main.c: 393: ptr = strtok((0), "/");
 10332     1350  3086               	movlw	low (STR_30| (0+32768))
 10333     1351  0020               	movlb	0	; select bank0
 10334     1352  00A0               	movwf	strtok@s2
 10335     1353  30A1               	movlw	high (STR_30| (0+32768))
 10336     1354  00A1               	movwf	strtok@s2+1
 10337     1355  0103               	clrw
 10338     1356  3188  2001  3193   	fcall	_strtok
 10339     1359  0022               	movlb	2	; select bank2
 10340     135A  00A2               	movwf	main@ptr^(0+256)
 10341                           
 10342                           ;main.c: 394: ptr = strtok((0), "/");
 10343     135B  3086               	movlw	low (STR_30| (0+32768))
 10344     135C  0020               	movlb	0	; select bank0
 10345     135D  00A0               	movwf	strtok@s2
 10346     135E  30A1               	movlw	high (STR_30| (0+32768))
 10347     135F  00A1               	movwf	strtok@s2+1
 10348     1360  0103               	clrw
 10349     1361  3188  2001  3193   	fcall	_strtok
 10350     1364  0022               	movlb	2	; select bank2
 10351     1365  00A2               	movwf	main@ptr^(0+256)
 10352                           
 10353                           ;main.c: 395: ptr = strtok((0), "/");
 10354     1366  3086               	movlw	low (STR_30| (0+32768))
 10355     1367  0020               	movlb	0	; select bank0
 10356     1368  00A0               	movwf	strtok@s2
 10357     1369  30A1               	movlw	high (STR_30| (0+32768))
 10358     136A  00A1               	movwf	strtok@s2+1
 10359     136B  0103               	clrw
 10360     136C  3188  2001  3193   	fcall	_strtok
 10361     136F  0022               	movlb	2	; select bank2
 10362     1370  00A2               	movwf	main@ptr^(0+256)
 10363     1371                     l4206:
 10364                           
 10365                           ;main.c: 396: if(ptr != (0)) {
 10366     1371  0822               	movf	main@ptr^(0+256),w
 10367     1372  1903               	btfsc	3,2
 10368     1373  2B75               	goto	u5401
 10369     1374  2B76               	goto	u5400
 10370     1375                     u5401:
 10371     1375  2B7F               	goto	l4210
 10372     1376                     u5400:
 10373     1376                     l4208:
 10374                           
 10375                           ;main.c: 397: dist = atoi(ptr);
 10376     1376  0822               	movf	main@ptr^(0+256),w
 10377     1377  3180  202C  3193   	fcall	_atoi
 10378     137A  0877               	movf	?_atoi+1,w
 10379     137B  0021               	movlb	1	; select bank1
 10380     137C  00EF               	movwf	(main@dist+1)^(0+128)
 10381     137D  0876               	movf	?_atoi,w
 10382     137E  00EE               	movwf	main@dist^(0+128)
 10383     137F                     l4210:
 10384                           
 10385                           ;main.c: 398: };main.c: 400: if (dist > 0){
 10386     137F  0021               	movlb	1	; select bank1
 10387     1380  086F               	movf	(main@dist+1)^(0+128),w
 10388     1381  3A80               	xorlw	128
 10389     1382  0020               	movlb	0	; select bank0
 10390     1383  00D4               	movwf	??_main
 10391     1384  3080               	movlw	128
 10392     1385  0254               	subwf	??_main,w
 10393     1386  1D03               	skipz
 10394     1387  2B8B               	goto	u5415
 10395     1388  3001               	movlw	1
 10396     1389  0021               	movlb	1	; select bank1
 10397     138A  026E               	subwf	main@dist^(0+128),w
 10398     138B                     u5415:
 10399     138B  1C03               	skipc
 10400     138C  2B8E               	goto	u5411
 10401     138D  2B90               	goto	u5410
 10402     138E                     u5411:
 10403     138E  3191  2926         	goto	l4242
 10404     1390                     u5410:
 10405     1390                     l4212:
 10406                           
 10407                           ;main.c: 401: for(k = 0 ; k < dist ; k++){
 10408     1390  0022               	movlb	2	; select bank2
 10409     1391  01A0               	clrf	main@k^(0+256)
 10410     1392  01A1               	clrf	(main@k+1)^(0+256)
 10411     1393  2BDA               	goto	l192
 10412     1394                     l193:
 10413                           
 10414                           ;main.c: 402: RA0 = 1;
 10415     1394  0020               	movlb	0	; select bank0
 10416     1395  140C               	bsf	12,0	;volatile
 10417     1396                     l4214:
 10418                           
 10419                           ;main.c: 403: npos += 1;
 10420     1396  3001               	movlw	1
 10421     1397  0021               	movlb	1	; select bank1
 10422     1398  07EC               	addwf	main@npos^(0+128),f
 10423     1399  3000               	movlw	0
 10424     139A  3DED               	addwfc	(main@npos+1)^(0+128),f
 10425     139B                     l4216:
 10426                           
 10427                           ;main.c: 404: for(j = 0 ; j < intvl ; j++){
 10428     139B  0022               	movlb	2	; select bank2
 10429     139C  01A5               	clrf	main@j^(0+256)
 10430     139D  01A6               	clrf	(main@j+1)^(0+256)
 10431     139E  2BA5               	goto	l194
 10432     139F                     l195:
 10433                           
 10434                           ;main.c: 405: _delay((unsigned long)((1)*(4000000/4000000.0)));
 10435     139F  0000               	nop
 10436     13A0                     l4218:
 10437     13A0  3001               	movlw	1
 10438     13A1  0022               	movlb	2	; select bank2
 10439     13A2  07A5               	addwf	main@j^(0+256),f
 10440     13A3  3000               	movlw	0
 10441     13A4  3DA6               	addwfc	(main@j+1)^(0+256),f
 10442     13A5                     l194:
 10443     13A5  0826               	movf	(main@j+1)^(0+256),w
 10444     13A6  3A80               	xorlw	128
 10445     13A7  0020               	movlb	0	; select bank0
 10446     13A8  00D4               	movwf	??_main
 10447     13A9  0022               	movlb	2	; select bank2
 10448     13AA  0824               	movf	(main@intvl+1)^(0+256),w
 10449     13AB  3A80               	xorlw	128
 10450     13AC  0020               	movlb	0	; select bank0
 10451     13AD  0254               	subwf	??_main,w
 10452     13AE  1D03               	skipz
 10453     13AF  2BB3               	goto	u5425
 10454     13B0  0022               	movlb	2	; select bank2
 10455     13B1  0823               	movf	main@intvl^(0+256),w
 10456     13B2  0225               	subwf	main@j^(0+256),w
 10457     13B3                     u5425:
 10458     13B3  1C03               	skipc
 10459     13B4  2BB6               	goto	u5421
 10460     13B5  2BB7               	goto	u5420
 10461     13B6                     u5421:
 10462     13B6  2B9F               	goto	l195
 10463     13B7                     u5420:
 10464     13B7                     l196:
 10465                           
 10466                           ;main.c: 406: };main.c: 407: RA0 = 0;
 10467     13B7  0020               	movlb	0	; select bank0
 10468     13B8  100C               	bcf	12,0	;volatile
 10469     13B9                     l4220:
 10470                           
 10471                           ;main.c: 408: for(j = 0 ; j < intvl ; j++){
 10472     13B9  0022               	movlb	2	; select bank2
 10473     13BA  01A5               	clrf	main@j^(0+256)
 10474     13BB  01A6               	clrf	(main@j+1)^(0+256)
 10475     13BC  2BC3               	goto	l197
 10476     13BD                     l198:
 10477                           
 10478                           ;main.c: 409: _delay((unsigned long)((1)*(4000000/4000000.0)));
 10479     13BD  0000               	nop
 10480     13BE                     l4222:
 10481     13BE  3001               	movlw	1
 10482     13BF  0022               	movlb	2	; select bank2
 10483     13C0  07A5               	addwf	main@j^(0+256),f
 10484     13C1  3000               	movlw	0
 10485     13C2  3DA6               	addwfc	(main@j+1)^(0+256),f
 10486     13C3                     l197:
 10487     13C3  0826               	movf	(main@j+1)^(0+256),w
 10488     13C4  3A80               	xorlw	128
 10489     13C5  0020               	movlb	0	; select bank0
 10490     13C6  00D4               	movwf	??_main
 10491     13C7  0022               	movlb	2	; select bank2
 10492     13C8  0824               	movf	(main@intvl+1)^(0+256),w
 10493     13C9  3A80               	xorlw	128
 10494     13CA  0020               	movlb	0	; select bank0
 10495     13CB  0254               	subwf	??_main,w
 10496     13CC  1D03               	skipz
 10497     13CD  2BD1               	goto	u5435
 10498     13CE  0022               	movlb	2	; select bank2
 10499     13CF  0823               	movf	main@intvl^(0+256),w
 10500     13D0  0225               	subwf	main@j^(0+256),w
 10501     13D1                     u5435:
 10502     13D1  1C03               	skipc
 10503     13D2  2BD4               	goto	u5431
 10504     13D3  2BD5               	goto	u5430
 10505     13D4                     u5431:
 10506     13D4  2BBD               	goto	l198
 10507     13D5                     u5430:
 10508     13D5                     l4224:
 10509     13D5  3001               	movlw	1
 10510     13D6  0022               	movlb	2	; select bank2
 10511     13D7  07A0               	addwf	main@k^(0+256),f
 10512     13D8  3000               	movlw	0
 10513     13D9  3DA1               	addwfc	(main@k+1)^(0+256),f
 10514     13DA                     l192:
 10515     13DA  0821               	movf	(main@k+1)^(0+256),w
 10516     13DB  3A80               	xorlw	128
 10517     13DC  0020               	movlb	0	; select bank0
 10518     13DD  00D4               	movwf	??_main
 10519     13DE  0021               	movlb	1	; select bank1
 10520     13DF  086F               	movf	(main@dist+1)^(0+128),w
 10521     13E0  3A80               	xorlw	128
 10522     13E1  0020               	movlb	0	; select bank0
 10523     13E2  0254               	subwf	??_main,w
 10524     13E3  1D03               	skipz
 10525     13E4  2BE9               	goto	u5445
 10526     13E5  0021               	movlb	1	; select bank1
 10527     13E6  086E               	movf	main@dist^(0+128),w
 10528     13E7  0022               	movlb	2	; select bank2
 10529     13E8  0220               	subwf	main@k^(0+256),w
 10530     13E9                     u5445:
 10531     13E9  1C03               	skipc
 10532     13EA  2BEC               	goto	u5441
 10533     13EB  2BED               	goto	u5440
 10534     13EC                     u5441:
 10535     13EC  2B94               	goto	l193
 10536     13ED                     u5440:
 10537     13ED                     l4226:
 10538                           
 10539                           ;main.c: 410: };main.c: 411: };main.c: 412: for(k = 0 ; k < dist ; k++){
 10540     13ED  0022               	movlb	2	; select bank2
 10541     13EE  01A0               	clrf	main@k^(0+256)
 10542     13EF  01A1               	clrf	(main@k+1)^(0+256)
 10543     13F0  2C4B               	goto	l201
 10544     13F1                     l202:
 10545                           
 10546                           ;main.c: 413: RA1 = 1;
 10547     13F1  0020               	movlb	0	; select bank0
 10548     13F2  148C               	bsf	12,1	;volatile
 10549     13F3                     l4228:
 10550                           
 10551                           ;main.c: 414: if(npos > 1){
 10552     13F3  0021               	movlb	1	; select bank1
 10553     13F4  086D               	movf	(main@npos+1)^(0+128),w
 10554     13F5  3A80               	xorlw	128
 10555     13F6  0020               	movlb	0	; select bank0
 10556     13F7  00D4               	movwf	??_main
 10557     13F8  3080               	movlw	128
 10558     13F9  0254               	subwf	??_main,w
 10559     13FA  1D03               	skipz
 10560     13FB  2BFF               	goto	u5455
 10561     13FC  3002               	movlw	2
 10562     13FD  0021               	movlb	1	; select bank1
 10563     13FE  026C               	subwf	main@npos^(0+128),w
 10564     13FF                     u5455:
 10565     13FF  1C03               	skipc
 10566     1400  2C02               	goto	u5451
 10567     1401  2C03               	goto	u5450
 10568     1402                     u5451:
 10569     1402  2C09               	goto	l4232
 10570     1403                     u5450:
 10571     1403                     l4230:
 10572                           
 10573                           ;main.c: 415: npos -= 1;
 10574     1403  30FF               	movlw	255
 10575     1404  0021               	movlb	1	; select bank1
 10576     1405  07EC               	addwf	main@npos^(0+128),f
 10577     1406  30FF               	movlw	255
 10578     1407  3DED               	addwfc	(main@npos+1)^(0+128),f
 10579                           
 10580                           ;main.c: 416: }else{
 10581     1408  2C0C               	goto	l204
 10582     1409                     l4232:
 10583                           
 10584                           ;main.c: 417: npos = 0;
 10585     1409  0021               	movlb	1	; select bank1
 10586     140A  01EC               	clrf	main@npos^(0+128)
 10587     140B  01ED               	clrf	(main@npos+1)^(0+128)
 10588     140C                     l204:
 10589                           
 10590                           ;main.c: 418: };main.c: 419: for(j = 0 ; j < intvl ; j++){
 10591     140C  0022               	movlb	2	; select bank2
 10592     140D  01A5               	clrf	main@j^(0+256)
 10593     140E  01A6               	clrf	(main@j+1)^(0+256)
 10594     140F  2C16               	goto	l205
 10595     1410                     l206:
 10596                           
 10597                           ;main.c: 420: _delay((unsigned long)((1)*(4000000/4000000.0)));
 10598     1410  0000               	nop
 10599     1411                     l4234:
 10600     1411  3001               	movlw	1
 10601     1412  0022               	movlb	2	; select bank2
 10602     1413  07A5               	addwf	main@j^(0+256),f
 10603     1414  3000               	movlw	0
 10604     1415  3DA6               	addwfc	(main@j+1)^(0+256),f
 10605     1416                     l205:
 10606     1416  0826               	movf	(main@j+1)^(0+256),w
 10607     1417  3A80               	xorlw	128
 10608     1418  0020               	movlb	0	; select bank0
 10609     1419  00D4               	movwf	??_main
 10610     141A  0022               	movlb	2	; select bank2
 10611     141B  0824               	movf	(main@intvl+1)^(0+256),w
 10612     141C  3A80               	xorlw	128
 10613     141D  0020               	movlb	0	; select bank0
 10614     141E  0254               	subwf	??_main,w
 10615     141F  1D03               	skipz
 10616     1420  2C24               	goto	u5465
 10617     1421  0022               	movlb	2	; select bank2
 10618     1422  0823               	movf	main@intvl^(0+256),w
 10619     1423  0225               	subwf	main@j^(0+256),w
 10620     1424                     u5465:
 10621     1424  1C03               	skipc
 10622     1425  2C27               	goto	u5461
 10623     1426  2C28               	goto	u5460
 10624     1427                     u5461:
 10625     1427  2C10               	goto	l206
 10626     1428                     u5460:
 10627     1428                     l207:
 10628                           
 10629                           ;main.c: 421: };main.c: 422: RA1 = 0;
 10630     1428  0020               	movlb	0	; select bank0
 10631     1429  108C               	bcf	12,1	;volatile
 10632     142A                     l4236:
 10633                           
 10634                           ;main.c: 423: for(j = 0 ; j < intvl ; j++){
 10635     142A  0022               	movlb	2	; select bank2
 10636     142B  01A5               	clrf	main@j^(0+256)
 10637     142C  01A6               	clrf	(main@j+1)^(0+256)
 10638     142D  2C34               	goto	l208
 10639     142E                     l209:
 10640                           
 10641                           ;main.c: 424: _delay((unsigned long)((1)*(4000000/4000000.0)));
 10642     142E  0000               	nop
 10643     142F                     l4238:
 10644     142F  3001               	movlw	1
 10645     1430  0022               	movlb	2	; select bank2
 10646     1431  07A5               	addwf	main@j^(0+256),f
 10647     1432  3000               	movlw	0
 10648     1433  3DA6               	addwfc	(main@j+1)^(0+256),f
 10649     1434                     l208:
 10650     1434  0826               	movf	(main@j+1)^(0+256),w
 10651     1435  3A80               	xorlw	128
 10652     1436  0020               	movlb	0	; select bank0
 10653     1437  00D4               	movwf	??_main
 10654     1438  0022               	movlb	2	; select bank2
 10655     1439  0824               	movf	(main@intvl+1)^(0+256),w
 10656     143A  3A80               	xorlw	128
 10657     143B  0020               	movlb	0	; select bank0
 10658     143C  0254               	subwf	??_main,w
 10659     143D  1D03               	skipz
 10660     143E  2C42               	goto	u5475
 10661     143F  0022               	movlb	2	; select bank2
 10662     1440  0823               	movf	main@intvl^(0+256),w
 10663     1441  0225               	subwf	main@j^(0+256),w
 10664     1442                     u5475:
 10665     1442  1C03               	skipc
 10666     1443  2C45               	goto	u5471
 10667     1444  2C46               	goto	u5470
 10668     1445                     u5471:
 10669     1445  2C2E               	goto	l209
 10670     1446                     u5470:
 10671     1446                     l4240:
 10672     1446  3001               	movlw	1
 10673     1447  0022               	movlb	2	; select bank2
 10674     1448  07A0               	addwf	main@k^(0+256),f
 10675     1449  3000               	movlw	0
 10676     144A  3DA1               	addwfc	(main@k+1)^(0+256),f
 10677     144B                     l201:
 10678     144B  0821               	movf	(main@k+1)^(0+256),w
 10679     144C  3A80               	xorlw	128
 10680     144D  0020               	movlb	0	; select bank0
 10681     144E  00D4               	movwf	??_main
 10682     144F  0021               	movlb	1	; select bank1
 10683     1450  086F               	movf	(main@dist+1)^(0+128),w
 10684     1451  3A80               	xorlw	128
 10685     1452  0020               	movlb	0	; select bank0
 10686     1453  0254               	subwf	??_main,w
 10687     1454  1D03               	skipz
 10688     1455  2C5A               	goto	u5485
 10689     1456  0021               	movlb	1	; select bank1
 10690     1457  086E               	movf	main@dist^(0+128),w
 10691     1458  0022               	movlb	2	; select bank2
 10692     1459  0220               	subwf	main@k^(0+256),w
 10693     145A                     u5485:
 10694     145A  1C03               	skipc
 10695     145B  2C5D               	goto	u5481
 10696     145C  2C5E               	goto	u5480
 10697     145D                     u5481:
 10698     145D  2BF1               	goto	l202
 10699     145E                     u5480:
 10700     145E  3192  2A05         	goto	l4274
 10701                           
 10702                           	psect	maintext_split_5
 10703     1126                     l4242:
 10704                           
 10705                           ;main.c: 428: dist *= -1;
 10706     1126  30FF               	movlw	255
 10707     1127  00F0               	movwf	___wmul@multiplier
 10708     1128  30FF               	movlw	255
 10709     1129  00F1               	movwf	___wmul@multiplier+1
 10710     112A  0021               	movlb	1	; select bank1
 10711     112B  086F               	movf	(main@dist+1)^(0+128),w
 10712     112C  00F3               	movwf	___wmul@multiplicand+1
 10713     112D  086E               	movf	main@dist^(0+128),w
 10714     112E  00F2               	movwf	___wmul@multiplicand
 10715     112F  319C  24AB  3191   	fcall	___wmul
 10716     1132  0871               	movf	?___wmul+1,w
 10717     1133  0021               	movlb	1	; select bank1
 10718     1134  00EF               	movwf	(main@dist+1)^(0+128)
 10719     1135  0870               	movf	?___wmul,w
 10720     1136  00EE               	movwf	main@dist^(0+128)
 10721     1137                     l4244:
 10722                           
 10723                           ;main.c: 429: for(k = 0 ; k < dist ; k++){
 10724     1137  0022               	movlb	2	; select bank2
 10725     1138  01A0               	clrf	main@k^(0+256)
 10726     1139  01A1               	clrf	(main@k+1)^(0+256)
 10727     113A  2995               	goto	l213
 10728     113B                     l214:
 10729                           
 10730                           ;main.c: 430: RA1 = 1;
 10731     113B  0020               	movlb	0	; select bank0
 10732     113C  148C               	bsf	12,1	;volatile
 10733     113D                     l4246:
 10734                           
 10735                           ;main.c: 431: if(npos > 1){
 10736     113D  0021               	movlb	1	; select bank1
 10737     113E  086D               	movf	(main@npos+1)^(0+128),w
 10738     113F  3A80               	xorlw	128
 10739     1140  0020               	movlb	0	; select bank0
 10740     1141  00D4               	movwf	??_main
 10741     1142  3080               	movlw	128
 10742     1143  0254               	subwf	??_main,w
 10743     1144  1D03               	skipz
 10744     1145  2949               	goto	u5495
 10745     1146  3002               	movlw	2
 10746     1147  0021               	movlb	1	; select bank1
 10747     1148  026C               	subwf	main@npos^(0+128),w
 10748     1149                     u5495:
 10749     1149  1C03               	skipc
 10750     114A  294C               	goto	u5491
 10751     114B  294D               	goto	u5490
 10752     114C                     u5491:
 10753     114C  2953               	goto	l4250
 10754     114D                     u5490:
 10755     114D                     l4248:
 10756                           
 10757                           ;main.c: 432: npos -= 1;
 10758     114D  30FF               	movlw	255
 10759     114E  0021               	movlb	1	; select bank1
 10760     114F  07EC               	addwf	main@npos^(0+128),f
 10761     1150  30FF               	movlw	255
 10762     1151  3DED               	addwfc	(main@npos+1)^(0+128),f
 10763                           
 10764                           ;main.c: 433: }else{
 10765     1152  2956               	goto	l216
 10766     1153                     l4250:
 10767                           
 10768                           ;main.c: 434: npos = 0;
 10769     1153  0021               	movlb	1	; select bank1
 10770     1154  01EC               	clrf	main@npos^(0+128)
 10771     1155  01ED               	clrf	(main@npos+1)^(0+128)
 10772     1156                     l216:
 10773                           
 10774                           ;main.c: 435: };main.c: 436: for(j = 0 ; j < intvl ; j++){
 10775     1156  0022               	movlb	2	; select bank2
 10776     1157  01A5               	clrf	main@j^(0+256)
 10777     1158  01A6               	clrf	(main@j+1)^(0+256)
 10778     1159  2960               	goto	l217
 10779     115A                     l218:
 10780                           
 10781                           ;main.c: 437: _delay((unsigned long)((1)*(4000000/4000000.0)));
 10782     115A  0000               	nop
 10783     115B                     l4252:
 10784     115B  3001               	movlw	1
 10785     115C  0022               	movlb	2	; select bank2
 10786     115D  07A5               	addwf	main@j^(0+256),f
 10787     115E  3000               	movlw	0
 10788     115F  3DA6               	addwfc	(main@j+1)^(0+256),f
 10789     1160                     l217:
 10790     1160  0826               	movf	(main@j+1)^(0+256),w
 10791     1161  3A80               	xorlw	128
 10792     1162  0020               	movlb	0	; select bank0
 10793     1163  00D4               	movwf	??_main
 10794     1164  0022               	movlb	2	; select bank2
 10795     1165  0824               	movf	(main@intvl+1)^(0+256),w
 10796     1166  3A80               	xorlw	128
 10797     1167  0020               	movlb	0	; select bank0
 10798     1168  0254               	subwf	??_main,w
 10799     1169  1D03               	skipz
 10800     116A  296E               	goto	u5505
 10801     116B  0022               	movlb	2	; select bank2
 10802     116C  0823               	movf	main@intvl^(0+256),w
 10803     116D  0225               	subwf	main@j^(0+256),w
 10804     116E                     u5505:
 10805     116E  1C03               	skipc
 10806     116F  2971               	goto	u5501
 10807     1170  2972               	goto	u5500
 10808     1171                     u5501:
 10809     1171  295A               	goto	l218
 10810     1172                     u5500:
 10811     1172                     l219:
 10812                           
 10813                           ;main.c: 438: };main.c: 439: RA1 = 0;
 10814     1172  0020               	movlb	0	; select bank0
 10815     1173  108C               	bcf	12,1	;volatile
 10816     1174                     l4254:
 10817                           
 10818                           ;main.c: 440: for(j = 0 ; j < intvl ; j++){
 10819     1174  0022               	movlb	2	; select bank2
 10820     1175  01A5               	clrf	main@j^(0+256)
 10821     1176  01A6               	clrf	(main@j+1)^(0+256)
 10822     1177  297E               	goto	l220
 10823     1178                     l221:
 10824                           
 10825                           ;main.c: 441: _delay((unsigned long)((1)*(4000000/4000000.0)));
 10826     1178  0000               	nop
 10827     1179                     l4256:
 10828     1179  3001               	movlw	1
 10829     117A  0022               	movlb	2	; select bank2
 10830     117B  07A5               	addwf	main@j^(0+256),f
 10831     117C  3000               	movlw	0
 10832     117D  3DA6               	addwfc	(main@j+1)^(0+256),f
 10833     117E                     l220:
 10834     117E  0826               	movf	(main@j+1)^(0+256),w
 10835     117F  3A80               	xorlw	128
 10836     1180  0020               	movlb	0	; select bank0
 10837     1181  00D4               	movwf	??_main
 10838     1182  0022               	movlb	2	; select bank2
 10839     1183  0824               	movf	(main@intvl+1)^(0+256),w
 10840     1184  3A80               	xorlw	128
 10841     1185  0020               	movlb	0	; select bank0
 10842     1186  0254               	subwf	??_main,w
 10843     1187  1D03               	skipz
 10844     1188  298C               	goto	u5515
 10845     1189  0022               	movlb	2	; select bank2
 10846     118A  0823               	movf	main@intvl^(0+256),w
 10847     118B  0225               	subwf	main@j^(0+256),w
 10848     118C                     u5515:
 10849     118C  1C03               	skipc
 10850     118D  298F               	goto	u5511
 10851     118E  2990               	goto	u5510
 10852     118F                     u5511:
 10853     118F  2978               	goto	l221
 10854     1190                     u5510:
 10855     1190                     l4258:
 10856     1190  3001               	movlw	1
 10857     1191  0022               	movlb	2	; select bank2
 10858     1192  07A0               	addwf	main@k^(0+256),f
 10859     1193  3000               	movlw	0
 10860     1194  3DA1               	addwfc	(main@k+1)^(0+256),f
 10861     1195                     l213:
 10862     1195  0821               	movf	(main@k+1)^(0+256),w
 10863     1196  3A80               	xorlw	128
 10864     1197  0020               	movlb	0	; select bank0
 10865     1198  00D4               	movwf	??_main
 10866     1199  0021               	movlb	1	; select bank1
 10867     119A  086F               	movf	(main@dist+1)^(0+128),w
 10868     119B  3A80               	xorlw	128
 10869     119C  0020               	movlb	0	; select bank0
 10870     119D  0254               	subwf	??_main,w
 10871     119E  1D03               	skipz
 10872     119F  29A4               	goto	u5525
 10873     11A0  0021               	movlb	1	; select bank1
 10874     11A1  086E               	movf	main@dist^(0+128),w
 10875     11A2  0022               	movlb	2	; select bank2
 10876     11A3  0220               	subwf	main@k^(0+256),w
 10877     11A4                     u5525:
 10878     11A4  1C03               	skipc
 10879     11A5  29A7               	goto	u5521
 10880     11A6  29A8               	goto	u5520
 10881     11A7                     u5521:
 10882     11A7  293B               	goto	l214
 10883     11A8                     u5520:
 10884     11A8                     l4260:
 10885                           
 10886                           ;main.c: 442: };main.c: 443: };main.c: 444: for(k = 0 ; k < dist ; k++){
 10887     11A8  0022               	movlb	2	; select bank2
 10888     11A9  01A0               	clrf	main@k^(0+256)
 10889     11AA  01A1               	clrf	(main@k+1)^(0+256)
 10890     11AB  29F2               	goto	l224
 10891     11AC                     l225:
 10892                           
 10893                           ;main.c: 445: RA0 = 1;
 10894     11AC  0020               	movlb	0	; select bank0
 10895     11AD  140C               	bsf	12,0	;volatile
 10896     11AE                     l4262:
 10897                           
 10898                           ;main.c: 446: npos += 1;
 10899     11AE  3001               	movlw	1
 10900     11AF  0021               	movlb	1	; select bank1
 10901     11B0  07EC               	addwf	main@npos^(0+128),f
 10902     11B1  3000               	movlw	0
 10903     11B2  3DED               	addwfc	(main@npos+1)^(0+128),f
 10904     11B3                     l4264:
 10905                           
 10906                           ;main.c: 447: for(j = 0 ; j < intvl ; j++){
 10907     11B3  0022               	movlb	2	; select bank2
 10908     11B4  01A5               	clrf	main@j^(0+256)
 10909     11B5  01A6               	clrf	(main@j+1)^(0+256)
 10910     11B6  29BD               	goto	l226
 10911     11B7                     l227:
 10912                           
 10913                           ;main.c: 448: _delay((unsigned long)((1)*(4000000/4000000.0)));
 10914     11B7  0000               	nop
 10915     11B8                     l4266:
 10916     11B8  3001               	movlw	1
 10917     11B9  0022               	movlb	2	; select bank2
 10918     11BA  07A5               	addwf	main@j^(0+256),f
 10919     11BB  3000               	movlw	0
 10920     11BC  3DA6               	addwfc	(main@j+1)^(0+256),f
 10921     11BD                     l226:
 10922     11BD  0826               	movf	(main@j+1)^(0+256),w
 10923     11BE  3A80               	xorlw	128
 10924     11BF  0020               	movlb	0	; select bank0
 10925     11C0  00D4               	movwf	??_main
 10926     11C1  0022               	movlb	2	; select bank2
 10927     11C2  0824               	movf	(main@intvl+1)^(0+256),w
 10928     11C3  3A80               	xorlw	128
 10929     11C4  0020               	movlb	0	; select bank0
 10930     11C5  0254               	subwf	??_main,w
 10931     11C6  1D03               	skipz
 10932     11C7  29CB               	goto	u5535
 10933     11C8  0022               	movlb	2	; select bank2
 10934     11C9  0823               	movf	main@intvl^(0+256),w
 10935     11CA  0225               	subwf	main@j^(0+256),w
 10936     11CB                     u5535:
 10937     11CB  1C03               	skipc
 10938     11CC  29CE               	goto	u5531
 10939     11CD  29CF               	goto	u5530
 10940     11CE                     u5531:
 10941     11CE  29B7               	goto	l227
 10942     11CF                     u5530:
 10943     11CF                     l228:
 10944                           
 10945                           ;main.c: 449: };main.c: 450: RA0 = 0;
 10946     11CF  0020               	movlb	0	; select bank0
 10947     11D0  100C               	bcf	12,0	;volatile
 10948     11D1                     l4268:
 10949                           
 10950                           ;main.c: 451: for(j = 0 ; j < intvl ; j++){
 10951     11D1  0022               	movlb	2	; select bank2
 10952     11D2  01A5               	clrf	main@j^(0+256)
 10953     11D3  01A6               	clrf	(main@j+1)^(0+256)
 10954     11D4  29DB               	goto	l229
 10955     11D5                     l230:
 10956                           
 10957                           ;main.c: 452: _delay((unsigned long)((1)*(4000000/4000000.0)));
 10958     11D5  0000               	nop
 10959     11D6                     l4270:
 10960     11D6  3001               	movlw	1
 10961     11D7  0022               	movlb	2	; select bank2
 10962     11D8  07A5               	addwf	main@j^(0+256),f
 10963     11D9  3000               	movlw	0
 10964     11DA  3DA6               	addwfc	(main@j+1)^(0+256),f
 10965     11DB                     l229:
 10966     11DB  0826               	movf	(main@j+1)^(0+256),w
 10967     11DC  3A80               	xorlw	128
 10968     11DD  0020               	movlb	0	; select bank0
 10969     11DE  00D4               	movwf	??_main
 10970     11DF  0022               	movlb	2	; select bank2
 10971     11E0  0824               	movf	(main@intvl+1)^(0+256),w
 10972     11E1  3A80               	xorlw	128
 10973     11E2  0020               	movlb	0	; select bank0
 10974     11E3  0254               	subwf	??_main,w
 10975     11E4  1D03               	skipz
 10976     11E5  29E9               	goto	u5545
 10977     11E6  0022               	movlb	2	; select bank2
 10978     11E7  0823               	movf	main@intvl^(0+256),w
 10979     11E8  0225               	subwf	main@j^(0+256),w
 10980     11E9                     u5545:
 10981     11E9  1C03               	skipc
 10982     11EA  29EC               	goto	u5541
 10983     11EB  29ED               	goto	u5540
 10984     11EC                     u5541:
 10985     11EC  29D5               	goto	l230
 10986     11ED                     u5540:
 10987     11ED                     l4272:
 10988     11ED  3001               	movlw	1
 10989     11EE  0022               	movlb	2	; select bank2
 10990     11EF  07A0               	addwf	main@k^(0+256),f
 10991     11F0  3000               	movlw	0
 10992     11F1  3DA1               	addwfc	(main@k+1)^(0+256),f
 10993     11F2                     l224:
 10994     11F2  0821               	movf	(main@k+1)^(0+256),w
 10995     11F3  3A80               	xorlw	128
 10996     11F4  0020               	movlb	0	; select bank0
 10997     11F5  00D4               	movwf	??_main
 10998     11F6  0021               	movlb	1	; select bank1
 10999     11F7  086F               	movf	(main@dist+1)^(0+128),w
 11000     11F8  3A80               	xorlw	128
 11001     11F9  0020               	movlb	0	; select bank0
 11002     11FA  0254               	subwf	??_main,w
 11003     11FB  1D03               	skipz
 11004     11FC  2A01               	goto	u5555
 11005     11FD  0021               	movlb	1	; select bank1
 11006     11FE  086E               	movf	main@dist^(0+128),w
 11007     11FF  0022               	movlb	2	; select bank2
 11008     1200  0220               	subwf	main@k^(0+256),w
 11009     1201                     u5555:
 11010     1201  1C03               	skipc
 11011     1202  2A04               	goto	u5551
 11012     1203  2A05               	goto	u5550
 11013     1204                     u5551:
 11014     1204  29AC               	goto	l225
 11015     1205                     u5550:
 11016     1205                     l4274:
 11017                           
 11018                           ;main.c: 453: };main.c: 454: };main.c: 455: };main.c: 456: ndcnt += 1;
 11019     1205  3001               	movlw	1
 11020     1206  0021               	movlb	1	; select bank1
 11021     1207  07E4               	addwf	main@ndcnt^(0+128),f
 11022     1208  3000               	movlw	0
 11023     1209  3DE5               	addwfc	(main@ndcnt+1)^(0+128),f
 11024     120A  3000               	movlw	0
 11025     120B  3DE6               	addwfc	(main@ndcnt+2)^(0+128),f
 11026     120C  3000               	movlw	0
 11027     120D  3DE7               	addwfc	(main@ndcnt+3)^(0+128),f
 11028     120E                     l4276:
 11029                           
 11030                           ;main.c: 457: write_data_eeprom(NDCNT_ADR, ndcnt);
 11031     120E  085D               	movf	(main@NDCNT_ADR+3)^(0+128),w
 11032     120F  00F7               	movwf	write_data_eeprom@adr+3
 11033     1210  085C               	movf	(main@NDCNT_ADR+2)^(0+128),w
 11034     1211  00F6               	movwf	write_data_eeprom@adr+2
 11035     1212  085B               	movf	(main@NDCNT_ADR+1)^(0+128),w
 11036     1213  00F5               	movwf	write_data_eeprom@adr+1
 11037     1214  085A               	movf	main@NDCNT_ADR^(0+128),w
 11038     1215  00F4               	movwf	write_data_eeprom@adr
 11039     1216  0867               	movf	(main@ndcnt+3)^(0+128),w
 11040     1217  00FB               	movwf	write_data_eeprom@value+3
 11041     1218  0866               	movf	(main@ndcnt+2)^(0+128),w
 11042     1219  00FA               	movwf	write_data_eeprom@value+2
 11043     121A  0865               	movf	(main@ndcnt+1)^(0+128),w
 11044     121B  00F9               	movwf	write_data_eeprom@value+1
 11045     121C  0864               	movf	main@ndcnt^(0+128),w
 11046     121D  00F8               	movwf	write_data_eeprom@value
 11047     121E  319D  25E7  3191   	fcall	_write_data_eeprom
 11048     1221                     l4278:
 11049                           
 11050                           ;main.c: 459: printf("C\tOSC\r\n");
 11051     1221  30CA               	movlw	low (STR_47| (0+32768))
 11052     1222  0020               	movlb	0	; select bank0
 11053     1223  00A0               	movwf	printf@f
 11054     1224  30A0               	movlw	high (STR_47| (0+32768))
 11055     1225  00A1               	movwf	printf@f+1
 11056     1226  3190  2054  3191   	fcall	_printf
 11057                           
 11058                           ;main.c: 460: break;
 11059     1229  3187  2FE6         	goto	l183
 11060                           
 11061                           	psect	maintext_split_6
 11062     16BA                     l4280:
 11063                           
 11064                           ;main.c: 463: dist = 10000;
 11065     16BA  3010               	movlw	16
 11066     16BB  0021               	movlb	1	; select bank1
 11067     16BC  00EE               	movwf	main@dist^(0+128)
 11068     16BD  3027               	movlw	39
 11069     16BE  00EF               	movwf	(main@dist^(0+128)+1)
 11070     16BF                     l4282:
 11071                           
 11072                           ;main.c: 464: for(k = 0 ; k < dist ; k++){
 11073     16BF  0022               	movlb	2	; select bank2
 11074     16C0  01A0               	clrf	main@k^(0+256)
 11075     16C1  01A1               	clrf	(main@k+1)^(0+256)
 11076     16C2  2F0C               	goto	l234
 11077     16C3                     l235:
 11078                           
 11079                           ;main.c: 465: if(RA6 == 0){
 11080     16C3  0020               	movlb	0	; select bank0
 11081     16C4  1B0C               	btfsc	12,6	;volatile
 11082     16C5  2EC7               	goto	u5561
 11083     16C6  2EC8               	goto	u5560
 11084     16C7                     u5561:
 11085     16C7  2ECC               	goto	l236
 11086     16C8                     u5560:
 11087     16C8                     l4284:
 11088                           
 11089                           ;main.c: 466: npos = 0;
 11090     16C8  0021               	movlb	1	; select bank1
 11091     16C9  01EC               	clrf	main@npos^(0+128)
 11092     16CA  01ED               	clrf	(main@npos+1)^(0+128)
 11093                           
 11094                           ;main.c: 467: break;
 11095     16CB  2F1F               	goto	l4296
 11096     16CC                     l236:
 11097                           
 11098                           ;main.c: 468: };main.c: 469: RA1 = 1;
 11099     16CC  148C               	bsf	12,1	;volatile
 11100     16CD                     l4286:
 11101                           
 11102                           ;main.c: 470: for(j = 0 ; j < intvl ; j++){
 11103     16CD  0022               	movlb	2	; select bank2
 11104     16CE  01A5               	clrf	main@j^(0+256)
 11105     16CF  01A6               	clrf	(main@j+1)^(0+256)
 11106     16D0  2ED7               	goto	l238
 11107     16D1                     l239:
 11108                           
 11109                           ;main.c: 471: _delay((unsigned long)((1)*(4000000/4000000.0)));
 11110     16D1  0000               	nop
 11111     16D2                     l4288:
 11112     16D2  3001               	movlw	1
 11113     16D3  0022               	movlb	2	; select bank2
 11114     16D4  07A5               	addwf	main@j^(0+256),f
 11115     16D5  3000               	movlw	0
 11116     16D6  3DA6               	addwfc	(main@j+1)^(0+256),f
 11117     16D7                     l238:
 11118     16D7  0826               	movf	(main@j+1)^(0+256),w
 11119     16D8  3A80               	xorlw	128
 11120     16D9  0020               	movlb	0	; select bank0
 11121     16DA  00D4               	movwf	??_main
 11122     16DB  0022               	movlb	2	; select bank2
 11123     16DC  0824               	movf	(main@intvl+1)^(0+256),w
 11124     16DD  3A80               	xorlw	128
 11125     16DE  0020               	movlb	0	; select bank0
 11126     16DF  0254               	subwf	??_main,w
 11127     16E0  1D03               	skipz
 11128     16E1  2EE5               	goto	u5575
 11129     16E2  0022               	movlb	2	; select bank2
 11130     16E3  0823               	movf	main@intvl^(0+256),w
 11131     16E4  0225               	subwf	main@j^(0+256),w
 11132     16E5                     u5575:
 11133     16E5  1C03               	skipc
 11134     16E6  2EE8               	goto	u5571
 11135     16E7  2EE9               	goto	u5570
 11136     16E8                     u5571:
 11137     16E8  2ED1               	goto	l239
 11138     16E9                     u5570:
 11139     16E9                     l240:
 11140                           
 11141                           ;main.c: 472: };main.c: 473: RA1 = 0;
 11142     16E9  0020               	movlb	0	; select bank0
 11143     16EA  108C               	bcf	12,1	;volatile
 11144     16EB                     l4290:
 11145                           
 11146                           ;main.c: 474: for(j = 0 ; j < intvl ; j++){
 11147     16EB  0022               	movlb	2	; select bank2
 11148     16EC  01A5               	clrf	main@j^(0+256)
 11149     16ED  01A6               	clrf	(main@j+1)^(0+256)
 11150     16EE  2EF5               	goto	l241
 11151     16EF                     l242:
 11152                           
 11153                           ;main.c: 475: _delay((unsigned long)((1)*(4000000/4000000.0)));
 11154     16EF  0000               	nop
 11155     16F0                     l4292:
 11156     16F0  3001               	movlw	1
 11157     16F1  0022               	movlb	2	; select bank2
 11158     16F2  07A5               	addwf	main@j^(0+256),f
 11159     16F3  3000               	movlw	0
 11160     16F4  3DA6               	addwfc	(main@j+1)^(0+256),f
 11161     16F5                     l241:
 11162     16F5  0826               	movf	(main@j+1)^(0+256),w
 11163     16F6  3A80               	xorlw	128
 11164     16F7  0020               	movlb	0	; select bank0
 11165     16F8  00D4               	movwf	??_main
 11166     16F9  0022               	movlb	2	; select bank2
 11167     16FA  0824               	movf	(main@intvl+1)^(0+256),w
 11168     16FB  3A80               	xorlw	128
 11169     16FC  0020               	movlb	0	; select bank0
 11170     16FD  0254               	subwf	??_main,w
 11171     16FE  1D03               	skipz
 11172     16FF  2F03               	goto	u5585
 11173     1700  0022               	movlb	2	; select bank2
 11174     1701  0823               	movf	main@intvl^(0+256),w
 11175     1702  0225               	subwf	main@j^(0+256),w
 11176     1703                     u5585:
 11177     1703  1C03               	skipc
 11178     1704  2F06               	goto	u5581
 11179     1705  2F07               	goto	u5580
 11180     1706                     u5581:
 11181     1706  2EEF               	goto	l242
 11182     1707                     u5580:
 11183     1707                     l4294:
 11184     1707  3001               	movlw	1
 11185     1708  0022               	movlb	2	; select bank2
 11186     1709  07A0               	addwf	main@k^(0+256),f
 11187     170A  3000               	movlw	0
 11188     170B  3DA1               	addwfc	(main@k+1)^(0+256),f
 11189     170C                     l234:
 11190     170C  0821               	movf	(main@k+1)^(0+256),w
 11191     170D  3A80               	xorlw	128
 11192     170E  0020               	movlb	0	; select bank0
 11193     170F  00D4               	movwf	??_main
 11194     1710  0021               	movlb	1	; select bank1
 11195     1711  086F               	movf	(main@dist+1)^(0+128),w
 11196     1712  3A80               	xorlw	128
 11197     1713  0020               	movlb	0	; select bank0
 11198     1714  0254               	subwf	??_main,w
 11199     1715  1D03               	skipz
 11200     1716  2F1B               	goto	u5595
 11201     1717  0021               	movlb	1	; select bank1
 11202     1718  086E               	movf	main@dist^(0+128),w
 11203     1719  0022               	movlb	2	; select bank2
 11204     171A  0220               	subwf	main@k^(0+256),w
 11205     171B                     u5595:
 11206     171B  1C03               	skipc
 11207     171C  2F1E               	goto	u5591
 11208     171D  2F1F               	goto	u5590
 11209     171E                     u5591:
 11210     171E  2EC3               	goto	l235
 11211     171F                     u5590:
 11212     171F                     l4296:
 11213                           
 11214                           ;main.c: 476: };main.c: 477: };main.c: 478: for(k = 0 ; k < nip ; k++){
 11215     171F  0022               	movlb	2	; select bank2
 11216     1720  01A0               	clrf	main@k^(0+256)
 11217     1721  01A1               	clrf	(main@k+1)^(0+256)
 11218     1722  2F69               	goto	l244
 11219     1723                     l245:
 11220                           
 11221                           ;main.c: 479: RA0 = 1;
 11222     1723  0020               	movlb	0	; select bank0
 11223     1724  140C               	bsf	12,0	;volatile
 11224     1725                     l4298:
 11225                           
 11226                           ;main.c: 480: npos += 1;
 11227     1725  3001               	movlw	1
 11228     1726  0021               	movlb	1	; select bank1
 11229     1727  07EC               	addwf	main@npos^(0+128),f
 11230     1728  3000               	movlw	0
 11231     1729  3DED               	addwfc	(main@npos+1)^(0+128),f
 11232     172A                     l4300:
 11233                           
 11234                           ;main.c: 481: for(j = 0 ; j < intvl ; j++){
 11235     172A  0022               	movlb	2	; select bank2
 11236     172B  01A5               	clrf	main@j^(0+256)
 11237     172C  01A6               	clrf	(main@j+1)^(0+256)
 11238     172D  2F34               	goto	l246
 11239     172E                     l247:
 11240                           
 11241                           ;main.c: 482: _delay((unsigned long)((1)*(4000000/4000000.0)));
 11242     172E  0000               	nop
 11243     172F                     l4302:
 11244     172F  3001               	movlw	1
 11245     1730  0022               	movlb	2	; select bank2
 11246     1731  07A5               	addwf	main@j^(0+256),f
 11247     1732  3000               	movlw	0
 11248     1733  3DA6               	addwfc	(main@j+1)^(0+256),f
 11249     1734                     l246:
 11250     1734  0826               	movf	(main@j+1)^(0+256),w
 11251     1735  3A80               	xorlw	128
 11252     1736  0020               	movlb	0	; select bank0
 11253     1737  00D4               	movwf	??_main
 11254     1738  0022               	movlb	2	; select bank2
 11255     1739  0824               	movf	(main@intvl+1)^(0+256),w
 11256     173A  3A80               	xorlw	128
 11257     173B  0020               	movlb	0	; select bank0
 11258     173C  0254               	subwf	??_main,w
 11259     173D  1D03               	skipz
 11260     173E  2F42               	goto	u5605
 11261     173F  0022               	movlb	2	; select bank2
 11262     1740  0823               	movf	main@intvl^(0+256),w
 11263     1741  0225               	subwf	main@j^(0+256),w
 11264     1742                     u5605:
 11265     1742  1C03               	skipc
 11266     1743  2F45               	goto	u5601
 11267     1744  2F46               	goto	u5600
 11268     1745                     u5601:
 11269     1745  2F2E               	goto	l247
 11270     1746                     u5600:
 11271     1746                     l248:
 11272                           
 11273                           ;main.c: 483: };main.c: 484: RA0 = 0;
 11274     1746  0020               	movlb	0	; select bank0
 11275     1747  100C               	bcf	12,0	;volatile
 11276     1748                     l4304:
 11277                           
 11278                           ;main.c: 485: for(j = 0 ; j < intvl ; j++){
 11279     1748  0022               	movlb	2	; select bank2
 11280     1749  01A5               	clrf	main@j^(0+256)
 11281     174A  01A6               	clrf	(main@j+1)^(0+256)
 11282     174B  2F52               	goto	l249
 11283     174C                     l250:
 11284                           
 11285                           ;main.c: 486: _delay((unsigned long)((1)*(4000000/4000000.0)));
 11286     174C  0000               	nop
 11287     174D                     l4306:
 11288     174D  3001               	movlw	1
 11289     174E  0022               	movlb	2	; select bank2
 11290     174F  07A5               	addwf	main@j^(0+256),f
 11291     1750  3000               	movlw	0
 11292     1751  3DA6               	addwfc	(main@j+1)^(0+256),f
 11293     1752                     l249:
 11294     1752  0826               	movf	(main@j+1)^(0+256),w
 11295     1753  3A80               	xorlw	128
 11296     1754  0020               	movlb	0	; select bank0
 11297     1755  00D4               	movwf	??_main
 11298     1756  0022               	movlb	2	; select bank2
 11299     1757  0824               	movf	(main@intvl+1)^(0+256),w
 11300     1758  3A80               	xorlw	128
 11301     1759  0020               	movlb	0	; select bank0
 11302     175A  0254               	subwf	??_main,w
 11303     175B  1D03               	skipz
 11304     175C  2F60               	goto	u5615
 11305     175D  0022               	movlb	2	; select bank2
 11306     175E  0823               	movf	main@intvl^(0+256),w
 11307     175F  0225               	subwf	main@j^(0+256),w
 11308     1760                     u5615:
 11309     1760  1C03               	skipc
 11310     1761  2F63               	goto	u5611
 11311     1762  2F64               	goto	u5610
 11312     1763                     u5611:
 11313     1763  2F4C               	goto	l250
 11314     1764                     u5610:
 11315     1764                     l4308:
 11316     1764  3001               	movlw	1
 11317     1765  0022               	movlb	2	; select bank2
 11318     1766  07A0               	addwf	main@k^(0+256),f
 11319     1767  3000               	movlw	0
 11320     1768  3DA1               	addwfc	(main@k+1)^(0+256),f
 11321     1769                     l244:
 11322     1769  0821               	movf	(main@k+1)^(0+256),w
 11323     176A  3A80               	xorlw	128
 11324     176B  0020               	movlb	0	; select bank0
 11325     176C  00D4               	movwf	??_main
 11326     176D  0021               	movlb	1	; select bank1
 11327     176E  0859               	movf	(main@nip+1)^(0+128),w
 11328     176F  3A80               	xorlw	128
 11329     1770  0020               	movlb	0	; select bank0
 11330     1771  0254               	subwf	??_main,w
 11331     1772  1D03               	skipz
 11332     1773  2F78               	goto	u5625
 11333     1774  0021               	movlb	1	; select bank1
 11334     1775  0858               	movf	main@nip^(0+128),w
 11335     1776  0022               	movlb	2	; select bank2
 11336     1777  0220               	subwf	main@k^(0+256),w
 11337     1778                     u5625:
 11338     1778  1C03               	skipc
 11339     1779  2F7B               	goto	u5621
 11340     177A  2F7C               	goto	u5620
 11341     177B                     u5621:
 11342     177B  2F23               	goto	l245
 11343     177C                     u5620:
 11344     177C                     l4310:
 11345                           
 11346                           ;main.c: 487: };main.c: 488: };main.c: 489: printf("C\tNOS\t%d\r\n", npos);
 11347     177C  3058               	movlw	low (STR_48| (0+32768))
 11348     177D  0020               	movlb	0	; select bank0
 11349     177E  00A0               	movwf	printf@f
 11350     177F  30A0               	movlw	high (STR_48| (0+32768))
 11351     1780  00A1               	movwf	printf@f+1
 11352     1781  0021               	movlb	1	; select bank1
 11353     1782  086D               	movf	(main@npos+1)^(0+128),w
 11354     1783  0020               	movlb	0	; select bank0
 11355     1784  00A3               	movwf	?_printf+3
 11356     1785  0021               	movlb	1	; select bank1
 11357     1786  086C               	movf	main@npos^(0+128),w
 11358     1787  0020               	movlb	0	; select bank0
 11359     1788  00A2               	movwf	?_printf+2
 11360     1789  3190  2054  3196   	fcall	_printf
 11361     178C                     L10:
 11362                           
 11363                           ;main.c: 490: break;
 11364     178C  3187  2FE6         	goto	l183
 11365     178E                     l4312:
 11366                           
 11367                           ;main.c: 493: dist = 10000;
 11368     178E  3010               	movlw	16
 11369     178F  0021               	movlb	1	; select bank1
 11370     1790  00EE               	movwf	main@dist^(0+128)
 11371     1791  3027               	movlw	39
 11372     1792  00EF               	movwf	(main@dist^(0+128)+1)
 11373     1793                     l4314:
 11374                           
 11375                           ;main.c: 494: for(k = 0 ; k < dist ; k++){
 11376     1793  0022               	movlb	2	; select bank2
 11377     1794  01A0               	clrf	main@k^(0+256)
 11378     1795  01A1               	clrf	(main@k+1)^(0+256)
 11379     1796  2FE4               	goto	l254
 11380     1797                     l255:
 11381                           
 11382                           ;main.c: 495: RA0 = 1;
 11383     1797  0020               	movlb	0	; select bank0
 11384     1798  140C               	bsf	12,0	;volatile
 11385     1799                     l4316:
 11386                           
 11387                           ;main.c: 496: npos += 1;
 11388     1799  3001               	movlw	1
 11389     179A  0021               	movlb	1	; select bank1
 11390     179B  07EC               	addwf	main@npos^(0+128),f
 11391     179C  3000               	movlw	0
 11392     179D  3DED               	addwfc	(main@npos+1)^(0+128),f
 11393     179E                     l4318:
 11394                           
 11395                           ;main.c: 497: for(j = 0 ; j < intvl ; j++){
 11396     179E  0022               	movlb	2	; select bank2
 11397     179F  01A5               	clrf	main@j^(0+256)
 11398     17A0  01A6               	clrf	(main@j+1)^(0+256)
 11399     17A1  2FA8               	goto	l256
 11400     17A2                     l257:
 11401                           
 11402                           ;main.c: 498: _delay((unsigned long)((1)*(4000000/4000000.0)));
 11403     17A2  0000               	nop
 11404     17A3                     l4320:
 11405     17A3  3001               	movlw	1
 11406     17A4  0022               	movlb	2	; select bank2
 11407     17A5  07A5               	addwf	main@j^(0+256),f
 11408     17A6  3000               	movlw	0
 11409     17A7  3DA6               	addwfc	(main@j+1)^(0+256),f
 11410     17A8                     l256:
 11411     17A8  0826               	movf	(main@j+1)^(0+256),w
 11412     17A9  3A80               	xorlw	128
 11413     17AA  0020               	movlb	0	; select bank0
 11414     17AB  00D4               	movwf	??_main
 11415     17AC  0022               	movlb	2	; select bank2
 11416     17AD  0824               	movf	(main@intvl+1)^(0+256),w
 11417     17AE  3A80               	xorlw	128
 11418     17AF  0020               	movlb	0	; select bank0
 11419     17B0  0254               	subwf	??_main,w
 11420     17B1  1D03               	skipz
 11421     17B2  2FB6               	goto	u5635
 11422     17B3  0022               	movlb	2	; select bank2
 11423     17B4  0823               	movf	main@intvl^(0+256),w
 11424     17B5  0225               	subwf	main@j^(0+256),w
 11425     17B6                     u5635:
 11426     17B6  1C03               	skipc
 11427     17B7  2FB9               	goto	u5631
 11428     17B8  2FBA               	goto	u5630
 11429     17B9                     u5631:
 11430     17B9  2FA2               	goto	l257
 11431     17BA                     u5630:
 11432     17BA                     l258:
 11433                           
 11434                           ;main.c: 499: };main.c: 500: RA0 = 0;
 11435     17BA  0020               	movlb	0	; select bank0
 11436     17BB  100C               	bcf	12,0	;volatile
 11437     17BC                     l4322:
 11438                           
 11439                           ;main.c: 501: for(j = 0 ; j < intvl ; j++){
 11440     17BC  0022               	movlb	2	; select bank2
 11441     17BD  01A5               	clrf	main@j^(0+256)
 11442     17BE  01A6               	clrf	(main@j+1)^(0+256)
 11443     17BF  2FC6               	goto	l259
 11444     17C0                     l260:
 11445                           
 11446                           ;main.c: 502: _delay((unsigned long)((1)*(4000000/4000000.0)));
 11447     17C0  0000               	nop
 11448     17C1                     l4324:
 11449     17C1  3001               	movlw	1
 11450     17C2  0022               	movlb	2	; select bank2
 11451     17C3  07A5               	addwf	main@j^(0+256),f
 11452     17C4  3000               	movlw	0
 11453     17C5  3DA6               	addwfc	(main@j+1)^(0+256),f
 11454     17C6                     l259:
 11455     17C6  0826               	movf	(main@j+1)^(0+256),w
 11456     17C7  3A80               	xorlw	128
 11457     17C8  0020               	movlb	0	; select bank0
 11458     17C9  00D4               	movwf	??_main
 11459     17CA  0022               	movlb	2	; select bank2
 11460     17CB  0824               	movf	(main@intvl+1)^(0+256),w
 11461     17CC  3A80               	xorlw	128
 11462     17CD  0020               	movlb	0	; select bank0
 11463     17CE  0254               	subwf	??_main,w
 11464     17CF  1D03               	skipz
 11465     17D0  2FD4               	goto	u5645
 11466     17D1  0022               	movlb	2	; select bank2
 11467     17D2  0823               	movf	main@intvl^(0+256),w
 11468     17D3  0225               	subwf	main@j^(0+256),w
 11469     17D4                     u5645:
 11470     17D4  1C03               	skipc
 11471     17D5  2FD7               	goto	u5641
 11472     17D6  2FD8               	goto	u5640
 11473     17D7                     u5641:
 11474     17D7  2FC0               	goto	l260
 11475     17D8                     u5640:
 11476     17D8                     l261:
 11477                           
 11478                           ;main.c: 503: };main.c: 505: if(RB0 == 0){
 11479     17D8  0020               	movlb	0	; select bank0
 11480     17D9  180D               	btfsc	13,0	;volatile
 11481     17DA  2FDC               	goto	u5651
 11482     17DB  2FDD               	goto	u5650
 11483     17DC                     u5651:
 11484     17DC  2FDF               	goto	l4328
 11485     17DD                     u5650:
 11486     17DD                     l4326:
 11487                           
 11488                           ;main.c: 506: RA7 = 1;
 11489     17DD  178C               	bsf	12,7	;volatile
 11490                           
 11491                           ;main.c: 507: break;
 11492     17DE  2FF7               	goto	l4330
 11493     17DF                     l4328:
 11494     17DF  3001               	movlw	1
 11495     17E0  0022               	movlb	2	; select bank2
 11496     17E1  07A0               	addwf	main@k^(0+256),f
 11497     17E2  3000               	movlw	0
 11498     17E3  3DA1               	addwfc	(main@k+1)^(0+256),f
 11499     17E4                     l254:
 11500     17E4  0821               	movf	(main@k+1)^(0+256),w
 11501     17E5  3A80               	xorlw	128
 11502     17E6  0020               	movlb	0	; select bank0
 11503     17E7  00D4               	movwf	??_main
 11504     17E8  0021               	movlb	1	; select bank1
 11505     17E9  086F               	movf	(main@dist+1)^(0+128),w
 11506     17EA  3A80               	xorlw	128
 11507     17EB  0020               	movlb	0	; select bank0
 11508     17EC  0254               	subwf	??_main,w
 11509     17ED  1D03               	skipz
 11510     17EE  2FF3               	goto	u5665
 11511     17EF  0021               	movlb	1	; select bank1
 11512     17F0  086E               	movf	main@dist^(0+128),w
 11513     17F1  0022               	movlb	2	; select bank2
 11514     17F2  0220               	subwf	main@k^(0+256),w
 11515     17F3                     u5665:
 11516     17F3  1C03               	skipc
 11517     17F4  2FF6               	goto	u5661
 11518     17F5  2FF7               	goto	u5660
 11519     17F6                     u5661:
 11520     17F6  2F97               	goto	l255
 11521     17F7                     u5660:
 11522     17F7                     l4330:
 11523                           
 11524                           ;main.c: 508: };main.c: 510: };main.c: 512: printf("C\tNTD\r\n");
 11525     17F7  30E2               	movlw	low (STR_49| (0+32768))
 11526     17F8  0020               	movlb	0	; select bank0
 11527     17F9  00A0               	movwf	printf@f
 11528     17FA  30A0               	movlw	high (STR_49| (0+32768))
 11529     17FB  00A1               	movwf	printf@f+1
 11530     17FC  3190  2054  3196   	fcall	_printf
 11531                           
 11532                           ;main.c: 514: break;
 11533     17FF  2F8C               	goto	L10
 11534                           
 11535                           	psect	maintext_split_7
 11536     00AA                     l4332:
 11537                           
 11538                           ;main.c: 518: dist = 0;
 11539     00AA  0021               	movlb	1	; select bank1
 11540     00AB  01EE               	clrf	main@dist^(0+128)
 11541     00AC  01EF               	clrf	(main@dist+1)^(0+128)
 11542                           
 11543                           ;main.c: 519: for(k = 0 ; k < 10000 ; k++){
 11544     00AD  0022               	movlb	2	; select bank2
 11545     00AE  01A0               	clrf	main@k^(0+256)
 11546     00AF  01A1               	clrf	(main@k+1)^(0+256)
 11547     00B0                     l4334:
 11548     00B0  0821               	movf	(main@k+1)^(0+256),w
 11549     00B1  3A80               	xorlw	128
 11550     00B2  0020               	movlb	0	; select bank0
 11551     00B3  00D4               	movwf	??_main
 11552     00B4  30A7               	movlw	167
 11553     00B5  0254               	subwf	??_main,w
 11554     00B6  1D03               	skipz
 11555     00B7  28BB               	goto	u5675
 11556     00B8  3010               	movlw	16
 11557     00B9  0022               	movlb	2	; select bank2
 11558     00BA  0220               	subwf	main@k^(0+256),w
 11559     00BB                     u5675:
 11560     00BB  1C03               	skipc
 11561     00BC  28BE               	goto	u5671
 11562     00BD  28BF               	goto	u5670
 11563     00BE                     u5671:
 11564     00BE  28C0               	goto	l265
 11565     00BF                     u5670:
 11566     00BF  2920               	goto	l4352
 11567     00C0                     l265:
 11568                           
 11569                           ;main.c: 520: RA0 = 1;
 11570     00C0  0020               	movlb	0	; select bank0
 11571     00C1  140C               	bsf	12,0	;volatile
 11572     00C2                     l4338:
 11573                           
 11574                           ;main.c: 521: npos += 1;
 11575     00C2  3001               	movlw	1
 11576     00C3  0021               	movlb	1	; select bank1
 11577     00C4  07EC               	addwf	main@npos^(0+128),f
 11578     00C5  3000               	movlw	0
 11579     00C6  3DED               	addwfc	(main@npos+1)^(0+128),f
 11580                           
 11581                           ;main.c: 522: dist += 1;
 11582     00C7  3001               	movlw	1
 11583     00C8  07EE               	addwf	main@dist^(0+128),f
 11584     00C9  3000               	movlw	0
 11585     00CA  3DEF               	addwfc	(main@dist+1)^(0+128),f
 11586     00CB                     l4340:
 11587                           
 11588                           ;main.c: 523: for(j = 0 ; j < intvl ; j++){
 11589     00CB  0022               	movlb	2	; select bank2
 11590     00CC  01A5               	clrf	main@j^(0+256)
 11591     00CD  01A6               	clrf	(main@j+1)^(0+256)
 11592     00CE  28D5               	goto	l267
 11593     00CF                     l268:
 11594                           
 11595                           ;main.c: 524: _delay((unsigned long)((1)*(4000000/4000000.0)));
 11596     00CF  0000               	nop
 11597     00D0                     l4342:
 11598     00D0  3001               	movlw	1
 11599     00D1  0022               	movlb	2	; select bank2
 11600     00D2  07A5               	addwf	main@j^(0+256),f
 11601     00D3  3000               	movlw	0
 11602     00D4  3DA6               	addwfc	(main@j+1)^(0+256),f
 11603     00D5                     l267:
 11604     00D5  0826               	movf	(main@j+1)^(0+256),w
 11605     00D6  3A80               	xorlw	128
 11606     00D7  0020               	movlb	0	; select bank0
 11607     00D8  00D4               	movwf	??_main
 11608     00D9  0022               	movlb	2	; select bank2
 11609     00DA  0824               	movf	(main@intvl+1)^(0+256),w
 11610     00DB  3A80               	xorlw	128
 11611     00DC  0020               	movlb	0	; select bank0
 11612     00DD  0254               	subwf	??_main,w
 11613     00DE  1D03               	skipz
 11614     00DF  28E3               	goto	u5685
 11615     00E0  0022               	movlb	2	; select bank2
 11616     00E1  0823               	movf	main@intvl^(0+256),w
 11617     00E2  0225               	subwf	main@j^(0+256),w
 11618     00E3                     u5685:
 11619     00E3  1C03               	skipc
 11620     00E4  28E6               	goto	u5681
 11621     00E5  28E7               	goto	u5680
 11622     00E6                     u5681:
 11623     00E6  28CF               	goto	l268
 11624     00E7                     u5680:
 11625     00E7                     l269:
 11626                           
 11627                           ;main.c: 525: };main.c: 526: RA0 = 0;
 11628     00E7  0020               	movlb	0	; select bank0
 11629     00E8  100C               	bcf	12,0	;volatile
 11630     00E9                     l4344:
 11631                           
 11632                           ;main.c: 527: for(j = 0 ; j < intvl ; j++){
 11633     00E9  0022               	movlb	2	; select bank2
 11634     00EA  01A5               	clrf	main@j^(0+256)
 11635     00EB  01A6               	clrf	(main@j+1)^(0+256)
 11636     00EC  28F3               	goto	l270
 11637     00ED                     l271:
 11638                           
 11639                           ;main.c: 528: _delay((unsigned long)((1)*(4000000/4000000.0)));
 11640     00ED  0000               	nop
 11641     00EE                     l4346:
 11642     00EE  3001               	movlw	1
 11643     00EF  0022               	movlb	2	; select bank2
 11644     00F0  07A5               	addwf	main@j^(0+256),f
 11645     00F1  3000               	movlw	0
 11646     00F2  3DA6               	addwfc	(main@j+1)^(0+256),f
 11647     00F3                     l270:
 11648     00F3  0826               	movf	(main@j+1)^(0+256),w
 11649     00F4  3A80               	xorlw	128
 11650     00F5  0020               	movlb	0	; select bank0
 11651     00F6  00D4               	movwf	??_main
 11652     00F7  0022               	movlb	2	; select bank2
 11653     00F8  0824               	movf	(main@intvl+1)^(0+256),w
 11654     00F9  3A80               	xorlw	128
 11655     00FA  0020               	movlb	0	; select bank0
 11656     00FB  0254               	subwf	??_main,w
 11657     00FC  1D03               	skipz
 11658     00FD  2901               	goto	u5695
 11659     00FE  0022               	movlb	2	; select bank2
 11660     00FF  0823               	movf	main@intvl^(0+256),w
 11661     0100  0225               	subwf	main@j^(0+256),w
 11662     0101                     u5695:
 11663     0101  1C03               	skipc
 11664     0102  2904               	goto	u5691
 11665     0103  2905               	goto	u5690
 11666     0104                     u5691:
 11667     0104  28ED               	goto	l271
 11668     0105                     u5690:
 11669     0105                     l272:
 11670                           
 11671                           ;main.c: 529: };main.c: 531: if(RB0 == 0){
 11672     0105  0020               	movlb	0	; select bank0
 11673     0106  180D               	btfsc	13,0	;volatile
 11674     0107  2909               	goto	u5701
 11675     0108  290A               	goto	u5700
 11676     0109                     u5701:
 11677     0109  290C               	goto	l4350
 11678     010A                     u5700:
 11679     010A                     l4348:
 11680                           
 11681                           ;main.c: 532: RA7 = 1;
 11682     010A  178C               	bsf	12,7	;volatile
 11683                           
 11684                           ;main.c: 533: break;
 11685     010B  2920               	goto	l4352
 11686     010C                     l4350:
 11687     010C  3001               	movlw	1
 11688     010D  0022               	movlb	2	; select bank2
 11689     010E  07A0               	addwf	main@k^(0+256),f
 11690     010F  3000               	movlw	0
 11691     0110  3DA1               	addwfc	(main@k+1)^(0+256),f
 11692     0111  0821               	movf	(main@k+1)^(0+256),w
 11693     0112  3A80               	xorlw	128
 11694     0113  0020               	movlb	0	; select bank0
 11695     0114  00D4               	movwf	??_main
 11696     0115  30A7               	movlw	167
 11697     0116  0254               	subwf	??_main,w
 11698     0117  1D03               	skipz
 11699     0118  291C               	goto	u5715
 11700     0119  3010               	movlw	16
 11701     011A  0022               	movlb	2	; select bank2
 11702     011B  0220               	subwf	main@k^(0+256),w
 11703     011C                     u5715:
 11704     011C  1C03               	skipc
 11705     011D  291F               	goto	u5711
 11706     011E  2920               	goto	u5710
 11707     011F                     u5711:
 11708     011F  28C0               	goto	l265
 11709     0120                     u5710:
 11710     0120                     l4352:
 11711                           
 11712                           ;main.c: 534: };main.c: 536: };main.c: 538: for(k = 0 ; k < dist ; k++){
 11713     0120  0022               	movlb	2	; select bank2
 11714     0121  01A0               	clrf	main@k^(0+256)
 11715     0122  01A1               	clrf	(main@k+1)^(0+256)
 11716     0123  297E               	goto	l274
 11717     0124                     l275:
 11718                           
 11719                           ;main.c: 539: RA1 = 1;
 11720     0124  0020               	movlb	0	; select bank0
 11721     0125  148C               	bsf	12,1	;volatile
 11722     0126                     l4354:
 11723                           
 11724                           ;main.c: 540: if(npos > 1){
 11725     0126  0021               	movlb	1	; select bank1
 11726     0127  086D               	movf	(main@npos+1)^(0+128),w
 11727     0128  3A80               	xorlw	128
 11728     0129  0020               	movlb	0	; select bank0
 11729     012A  00D4               	movwf	??_main
 11730     012B  3080               	movlw	128
 11731     012C  0254               	subwf	??_main,w
 11732     012D  1D03               	skipz
 11733     012E  2932               	goto	u5725
 11734     012F  3002               	movlw	2
 11735     0130  0021               	movlb	1	; select bank1
 11736     0131  026C               	subwf	main@npos^(0+128),w
 11737     0132                     u5725:
 11738     0132  1C03               	skipc
 11739     0133  2935               	goto	u5721
 11740     0134  2936               	goto	u5720
 11741     0135                     u5721:
 11742     0135  293C               	goto	l4358
 11743     0136                     u5720:
 11744     0136                     l4356:
 11745                           
 11746                           ;main.c: 541: npos -= 1;
 11747     0136  30FF               	movlw	255
 11748     0137  0021               	movlb	1	; select bank1
 11749     0138  07EC               	addwf	main@npos^(0+128),f
 11750     0139  30FF               	movlw	255
 11751     013A  3DED               	addwfc	(main@npos+1)^(0+128),f
 11752                           
 11753                           ;main.c: 542: }else{
 11754     013B  293F               	goto	l277
 11755     013C                     l4358:
 11756                           
 11757                           ;main.c: 543: npos = 0;
 11758     013C  0021               	movlb	1	; select bank1
 11759     013D  01EC               	clrf	main@npos^(0+128)
 11760     013E  01ED               	clrf	(main@npos+1)^(0+128)
 11761     013F                     l277:
 11762                           
 11763                           ;main.c: 544: };main.c: 545: for(j = 0 ; j < intvl ; j++){
 11764     013F  0022               	movlb	2	; select bank2
 11765     0140  01A5               	clrf	main@j^(0+256)
 11766     0141  01A6               	clrf	(main@j+1)^(0+256)
 11767     0142  2949               	goto	l278
 11768     0143                     l279:
 11769                           
 11770                           ;main.c: 546: _delay((unsigned long)((1)*(4000000/4000000.0)));
 11771     0143  0000               	nop
 11772     0144                     l4360:
 11773     0144  3001               	movlw	1
 11774     0145  0022               	movlb	2	; select bank2
 11775     0146  07A5               	addwf	main@j^(0+256),f
 11776     0147  3000               	movlw	0
 11777     0148  3DA6               	addwfc	(main@j+1)^(0+256),f
 11778     0149                     l278:
 11779     0149  0826               	movf	(main@j+1)^(0+256),w
 11780     014A  3A80               	xorlw	128
 11781     014B  0020               	movlb	0	; select bank0
 11782     014C  00D4               	movwf	??_main
 11783     014D  0022               	movlb	2	; select bank2
 11784     014E  0824               	movf	(main@intvl+1)^(0+256),w
 11785     014F  3A80               	xorlw	128
 11786     0150  0020               	movlb	0	; select bank0
 11787     0151  0254               	subwf	??_main,w
 11788     0152  1D03               	skipz
 11789     0153  2957               	goto	u5735
 11790     0154  0022               	movlb	2	; select bank2
 11791     0155  0823               	movf	main@intvl^(0+256),w
 11792     0156  0225               	subwf	main@j^(0+256),w
 11793     0157                     u5735:
 11794     0157  1C03               	skipc
 11795     0158  295A               	goto	u5731
 11796     0159  295B               	goto	u5730
 11797     015A                     u5731:
 11798     015A  2943               	goto	l279
 11799     015B                     u5730:
 11800     015B                     l280:
 11801                           
 11802                           ;main.c: 547: };main.c: 548: RA1 = 0;
 11803     015B  0020               	movlb	0	; select bank0
 11804     015C  108C               	bcf	12,1	;volatile
 11805     015D                     l4362:
 11806                           
 11807                           ;main.c: 549: for(j = 0 ; j < intvl ; j++){
 11808     015D  0022               	movlb	2	; select bank2
 11809     015E  01A5               	clrf	main@j^(0+256)
 11810     015F  01A6               	clrf	(main@j+1)^(0+256)
 11811     0160  2967               	goto	l281
 11812     0161                     l282:
 11813                           
 11814                           ;main.c: 550: _delay((unsigned long)((1)*(4000000/4000000.0)));
 11815     0161  0000               	nop
 11816     0162                     l4364:
 11817     0162  3001               	movlw	1
 11818     0163  0022               	movlb	2	; select bank2
 11819     0164  07A5               	addwf	main@j^(0+256),f
 11820     0165  3000               	movlw	0
 11821     0166  3DA6               	addwfc	(main@j+1)^(0+256),f
 11822     0167                     l281:
 11823     0167  0826               	movf	(main@j+1)^(0+256),w
 11824     0168  3A80               	xorlw	128
 11825     0169  0020               	movlb	0	; select bank0
 11826     016A  00D4               	movwf	??_main
 11827     016B  0022               	movlb	2	; select bank2
 11828     016C  0824               	movf	(main@intvl+1)^(0+256),w
 11829     016D  3A80               	xorlw	128
 11830     016E  0020               	movlb	0	; select bank0
 11831     016F  0254               	subwf	??_main,w
 11832     0170  1D03               	skipz
 11833     0171  2975               	goto	u5745
 11834     0172  0022               	movlb	2	; select bank2
 11835     0173  0823               	movf	main@intvl^(0+256),w
 11836     0174  0225               	subwf	main@j^(0+256),w
 11837     0175                     u5745:
 11838     0175  1C03               	skipc
 11839     0176  2978               	goto	u5741
 11840     0177  2979               	goto	u5740
 11841     0178                     u5741:
 11842     0178  2961               	goto	l282
 11843     0179                     u5740:
 11844     0179                     l4366:
 11845     0179  3001               	movlw	1
 11846     017A  0022               	movlb	2	; select bank2
 11847     017B  07A0               	addwf	main@k^(0+256),f
 11848     017C  3000               	movlw	0
 11849     017D  3DA1               	addwfc	(main@k+1)^(0+256),f
 11850     017E                     l274:
 11851     017E  0821               	movf	(main@k+1)^(0+256),w
 11852     017F  3A80               	xorlw	128
 11853     0180  0020               	movlb	0	; select bank0
 11854     0181  00D4               	movwf	??_main
 11855     0182  0021               	movlb	1	; select bank1
 11856     0183  086F               	movf	(main@dist+1)^(0+128),w
 11857     0184  3A80               	xorlw	128
 11858     0185  0020               	movlb	0	; select bank0
 11859     0186  0254               	subwf	??_main,w
 11860     0187  1D03               	skipz
 11861     0188  298D               	goto	u5755
 11862     0189  0021               	movlb	1	; select bank1
 11863     018A  086E               	movf	main@dist^(0+128),w
 11864     018B  0022               	movlb	2	; select bank2
 11865     018C  0220               	subwf	main@k^(0+256),w
 11866     018D                     u5755:
 11867     018D  1C03               	skipc
 11868     018E  2990               	goto	u5751
 11869     018F  2991               	goto	u5750
 11870     0190                     u5751:
 11871     0190  2924               	goto	l275
 11872     0191                     u5750:
 11873     0191                     l4368:
 11874                           
 11875                           ;main.c: 551: };main.c: 552: };main.c: 553: ndcnt += 1;
 11876     0191  3001               	movlw	1
 11877     0192  0021               	movlb	1	; select bank1
 11878     0193  07E4               	addwf	main@ndcnt^(0+128),f
 11879     0194  3000               	movlw	0
 11880     0195  3DE5               	addwfc	(main@ndcnt+1)^(0+128),f
 11881     0196  3000               	movlw	0
 11882     0197  3DE6               	addwfc	(main@ndcnt+2)^(0+128),f
 11883     0198  3000               	movlw	0
 11884     0199  3DE7               	addwfc	(main@ndcnt+3)^(0+128),f
 11885     019A                     l4370:
 11886                           
 11887                           ;main.c: 554: write_data_eeprom(NDCNT_ADR, ndcnt);
 11888     019A  085D               	movf	(main@NDCNT_ADR+3)^(0+128),w
 11889     019B  00F7               	movwf	write_data_eeprom@adr+3
 11890     019C  085C               	movf	(main@NDCNT_ADR+2)^(0+128),w
 11891     019D  00F6               	movwf	write_data_eeprom@adr+2
 11892     019E  085B               	movf	(main@NDCNT_ADR+1)^(0+128),w
 11893     019F  00F5               	movwf	write_data_eeprom@adr+1
 11894     01A0  085A               	movf	main@NDCNT_ADR^(0+128),w
 11895     01A1  00F4               	movwf	write_data_eeprom@adr
 11896     01A2  0867               	movf	(main@ndcnt+3)^(0+128),w
 11897     01A3  00FB               	movwf	write_data_eeprom@value+3
 11898     01A4  0866               	movf	(main@ndcnt+2)^(0+128),w
 11899     01A5  00FA               	movwf	write_data_eeprom@value+2
 11900     01A6  0865               	movf	(main@ndcnt+1)^(0+128),w
 11901     01A7  00F9               	movwf	write_data_eeprom@value+1
 11902     01A8  0864               	movf	main@ndcnt^(0+128),w
 11903     01A9  00F8               	movwf	write_data_eeprom@value
 11904     01AA  319D  25E7  3180   	fcall	_write_data_eeprom
 11905     01AD                     l4372:
 11906                           
 11907                           ;main.c: 555: RA7 = 0;
 11908     01AD  0020               	movlb	0	; select bank0
 11909     01AE  138C               	bcf	12,7	;volatile
 11910     01AF                     l4374:
 11911                           
 11912                           ;main.c: 557: printf("C\tNDO\r\n");
 11913     01AF  30EA               	movlw	low (STR_50| (0+32768))
 11914     01B0  00A0               	movwf	printf@f
 11915     01B1  30A0               	movlw	high (STR_50| (0+32768))
 11916     01B2  00A1               	movwf	printf@f+1
 11917     01B3  3190  2054  3180   	fcall	_printf
 11918                           
 11919                           ;main.c: 558: break;
 11920     01B6  2FE6               	goto	l183
 11921     01B7                     l4376:
 11922                           
 11923                           ;main.c: 561: ptr = strtok((0), "/");
 11924     01B7  3086               	movlw	low (STR_30| (0+32768))
 11925     01B8  00A0               	movwf	strtok@s2
 11926     01B9  30A1               	movlw	high (STR_30| (0+32768))
 11927     01BA  00A1               	movwf	strtok@s2+1
 11928     01BB  0103               	clrw
 11929     01BC  3188  2001  3180   	fcall	_strtok
 11930     01BF  0022               	movlb	2	; select bank2
 11931     01C0  00A2               	movwf	main@ptr^(0+256)
 11932     01C1                     l4378:
 11933                           
 11934                           ;main.c: 562: if(ptr != (0)) {
 11935     01C1  0822               	movf	main@ptr^(0+256),w
 11936     01C2  1903               	btfsc	3,2
 11937     01C3  29C5               	goto	u5761
 11938     01C4  29C6               	goto	u5760
 11939     01C5                     u5761:
 11940     01C5  29D0               	goto	l4382
 11941     01C6                     u5760:
 11942     01C6                     l4380:
 11943                           
 11944                           ;main.c: 563: t_npd = atoi(ptr);
 11945     01C6  0822               	movf	main@ptr^(0+256),w
 11946     01C7  3180  202C  3180   	fcall	_atoi
 11947     01CA  0877               	movf	?_atoi+1,w
 11948     01CB  0020               	movlb	0	; select bank0
 11949     01CC  00E8               	movwf	main@t_npd+1
 11950     01CD  0876               	movf	?_atoi,w
 11951     01CE  00E7               	movwf	main@t_npd
 11952                           
 11953                           ;main.c: 564: }else{
 11954     01CF  29D8               	goto	l4384
 11955     01D0                     l4382:
 11956                           
 11957                           ;main.c: 565: t_npd = npd;
 11958     01D0  0021               	movlb	1	; select bank1
 11959     01D1  085F               	movf	(main@npd+1)^(0+128),w
 11960     01D2  0020               	movlb	0	; select bank0
 11961     01D3  00E8               	movwf	main@t_npd+1
 11962     01D4  0021               	movlb	1	; select bank1
 11963     01D5  085E               	movf	main@npd^(0+128),w
 11964     01D6  0020               	movlb	0	; select bank0
 11965     01D7  00E7               	movwf	main@t_npd
 11966     01D8                     l4384:
 11967                           
 11968                           ;main.c: 566: };main.c: 567: for(k = 0 ; k < 10000 ; k++){
 11969     01D8  0022               	movlb	2	; select bank2
 11970     01D9  01A0               	clrf	main@k^(0+256)
 11971     01DA  01A1               	clrf	(main@k+1)^(0+256)
 11972     01DB                     l4386:
 11973     01DB  0821               	movf	(main@k+1)^(0+256),w
 11974     01DC  3A80               	xorlw	128
 11975     01DD  0020               	movlb	0	; select bank0
 11976     01DE  00D4               	movwf	??_main
 11977     01DF  30A7               	movlw	167
 11978     01E0  0254               	subwf	??_main,w
 11979     01E1  1D03               	skipz
 11980     01E2  29E6               	goto	u5775
 11981     01E3  3010               	movlw	16
 11982     01E4  0022               	movlb	2	; select bank2
 11983     01E5  0220               	subwf	main@k^(0+256),w
 11984     01E6                     u5775:
 11985     01E6  1C03               	skipc
 11986     01E7  29E9               	goto	u5771
 11987     01E8  29EA               	goto	u5770
 11988     01E9                     u5771:
 11989     01E9  29EB               	goto	l288
 11990     01EA                     u5770:
 11991     01EA  2A47               	goto	l4404
 11992     01EB                     l288:
 11993                           
 11994                           ;main.c: 568: RA0 = 1;
 11995     01EB  0020               	movlb	0	; select bank0
 11996     01EC  140C               	bsf	12,0	;volatile
 11997     01ED                     l4390:
 11998                           
 11999                           ;main.c: 569: npos += 1;
 12000     01ED  3001               	movlw	1
 12001     01EE  0021               	movlb	1	; select bank1
 12002     01EF  07EC               	addwf	main@npos^(0+128),f
 12003     01F0  3000               	movlw	0
 12004     01F1  3DED               	addwfc	(main@npos+1)^(0+128),f
 12005     01F2                     l4392:
 12006                           
 12007                           ;main.c: 570: for(j = 0 ; j < intvl ; j++){
 12008     01F2  0022               	movlb	2	; select bank2
 12009     01F3  01A5               	clrf	main@j^(0+256)
 12010     01F4  01A6               	clrf	(main@j+1)^(0+256)
 12011     01F5  29FC               	goto	l290
 12012     01F6                     l291:
 12013                           
 12014                           ;main.c: 571: _delay((unsigned long)((1)*(4000000/4000000.0)));
 12015     01F6  0000               	nop
 12016     01F7                     l4394:
 12017     01F7  3001               	movlw	1
 12018     01F8  0022               	movlb	2	; select bank2
 12019     01F9  07A5               	addwf	main@j^(0+256),f
 12020     01FA  3000               	movlw	0
 12021     01FB  3DA6               	addwfc	(main@j+1)^(0+256),f
 12022     01FC                     l290:
 12023     01FC  0826               	movf	(main@j+1)^(0+256),w
 12024     01FD  3A80               	xorlw	128
 12025     01FE  0020               	movlb	0	; select bank0
 12026     01FF  00D4               	movwf	??_main
 12027     0200  0022               	movlb	2	; select bank2
 12028     0201  0824               	movf	(main@intvl+1)^(0+256),w
 12029     0202  3A80               	xorlw	128
 12030     0203  0020               	movlb	0	; select bank0
 12031     0204  0254               	subwf	??_main,w
 12032     0205  1D03               	skipz
 12033     0206  2A0A               	goto	u5785
 12034     0207  0022               	movlb	2	; select bank2
 12035     0208  0823               	movf	main@intvl^(0+256),w
 12036     0209  0225               	subwf	main@j^(0+256),w
 12037     020A                     u5785:
 12038     020A  1C03               	skipc
 12039     020B  2A0D               	goto	u5781
 12040     020C  2A0E               	goto	u5780
 12041     020D                     u5781:
 12042     020D  29F6               	goto	l291
 12043     020E                     u5780:
 12044     020E                     l292:
 12045                           
 12046                           ;main.c: 572: };main.c: 573: RA0 = 0;
 12047     020E  0020               	movlb	0	; select bank0
 12048     020F  100C               	bcf	12,0	;volatile
 12049     0210                     l4396:
 12050                           
 12051                           ;main.c: 574: for(j = 0 ; j < intvl ; j++){
 12052     0210  0022               	movlb	2	; select bank2
 12053     0211  01A5               	clrf	main@j^(0+256)
 12054     0212  01A6               	clrf	(main@j+1)^(0+256)
 12055     0213  2A1A               	goto	l293
 12056     0214                     l294:
 12057                           
 12058                           ;main.c: 575: _delay((unsigned long)((1)*(4000000/4000000.0)));
 12059     0214  0000               	nop
 12060     0215                     l4398:
 12061     0215  3001               	movlw	1
 12062     0216  0022               	movlb	2	; select bank2
 12063     0217  07A5               	addwf	main@j^(0+256),f
 12064     0218  3000               	movlw	0
 12065     0219  3DA6               	addwfc	(main@j+1)^(0+256),f
 12066     021A                     l293:
 12067     021A  0826               	movf	(main@j+1)^(0+256),w
 12068     021B  3A80               	xorlw	128
 12069     021C  0020               	movlb	0	; select bank0
 12070     021D  00D4               	movwf	??_main
 12071     021E  0022               	movlb	2	; select bank2
 12072     021F  0824               	movf	(main@intvl+1)^(0+256),w
 12073     0220  3A80               	xorlw	128
 12074     0221  0020               	movlb	0	; select bank0
 12075     0222  0254               	subwf	??_main,w
 12076     0223  1D03               	skipz
 12077     0224  2A28               	goto	u5795
 12078     0225  0022               	movlb	2	; select bank2
 12079     0226  0823               	movf	main@intvl^(0+256),w
 12080     0227  0225               	subwf	main@j^(0+256),w
 12081     0228                     u5795:
 12082     0228  1C03               	skipc
 12083     0229  2A2B               	goto	u5791
 12084     022A  2A2C               	goto	u5790
 12085     022B                     u5791:
 12086     022B  2A14               	goto	l294
 12087     022C                     u5790:
 12088     022C                     l295:
 12089                           
 12090                           ;main.c: 576: };main.c: 578: if(RB0 == 0){
 12091     022C  0020               	movlb	0	; select bank0
 12092     022D  180D               	btfsc	13,0	;volatile
 12093     022E  2A30               	goto	u5801
 12094     022F  2A31               	goto	u5800
 12095     0230                     u5801:
 12096     0230  2A33               	goto	l4402
 12097     0231                     u5800:
 12098     0231                     l4400:
 12099                           
 12100                           ;main.c: 579: RA7 = 1;
 12101     0231  178C               	bsf	12,7	;volatile
 12102                           
 12103                           ;main.c: 580: break;
 12104     0232  2A47               	goto	l4404
 12105     0233                     l4402:
 12106     0233  3001               	movlw	1
 12107     0234  0022               	movlb	2	; select bank2
 12108     0235  07A0               	addwf	main@k^(0+256),f
 12109     0236  3000               	movlw	0
 12110     0237  3DA1               	addwfc	(main@k+1)^(0+256),f
 12111     0238  0821               	movf	(main@k+1)^(0+256),w
 12112     0239  3A80               	xorlw	128
 12113     023A  0020               	movlb	0	; select bank0
 12114     023B  00D4               	movwf	??_main
 12115     023C  30A7               	movlw	167
 12116     023D  0254               	subwf	??_main,w
 12117     023E  1D03               	skipz
 12118     023F  2A43               	goto	u5815
 12119     0240  3010               	movlw	16
 12120     0241  0022               	movlb	2	; select bank2
 12121     0242  0220               	subwf	main@k^(0+256),w
 12122     0243                     u5815:
 12123     0243  1C03               	skipc
 12124     0244  2A46               	goto	u5811
 12125     0245  2A47               	goto	u5810
 12126     0246                     u5811:
 12127     0246  29EB               	goto	l288
 12128     0247                     u5810:
 12129     0247                     l4404:
 12130                           
 12131                           ;main.c: 581: };main.c: 582: };main.c: 584: for(k = 0 ; k < t_npd ; k++){
 12132     0247  0022               	movlb	2	; select bank2
 12133     0248  01A0               	clrf	main@k^(0+256)
 12134     0249  01A1               	clrf	(main@k+1)^(0+256)
 12135     024A  2AA5               	goto	l297
 12136     024B                     l298:
 12137                           
 12138                           ;main.c: 585: RA1 = 1;
 12139     024B  0020               	movlb	0	; select bank0
 12140     024C  148C               	bsf	12,1	;volatile
 12141     024D                     l4406:
 12142                           
 12143                           ;main.c: 586: if(npos > 1){
 12144     024D  0021               	movlb	1	; select bank1
 12145     024E  086D               	movf	(main@npos+1)^(0+128),w
 12146     024F  3A80               	xorlw	128
 12147     0250  0020               	movlb	0	; select bank0
 12148     0251  00D4               	movwf	??_main
 12149     0252  3080               	movlw	128
 12150     0253  0254               	subwf	??_main,w
 12151     0254  1D03               	skipz
 12152     0255  2A59               	goto	u5825
 12153     0256  3002               	movlw	2
 12154     0257  0021               	movlb	1	; select bank1
 12155     0258  026C               	subwf	main@npos^(0+128),w
 12156     0259                     u5825:
 12157     0259  1C03               	skipc
 12158     025A  2A5C               	goto	u5821
 12159     025B  2A5D               	goto	u5820
 12160     025C                     u5821:
 12161     025C  2A63               	goto	l4410
 12162     025D                     u5820:
 12163     025D                     l4408:
 12164                           
 12165                           ;main.c: 587: npos -= 1;
 12166     025D  30FF               	movlw	255
 12167     025E  0021               	movlb	1	; select bank1
 12168     025F  07EC               	addwf	main@npos^(0+128),f
 12169     0260  30FF               	movlw	255
 12170     0261  3DED               	addwfc	(main@npos+1)^(0+128),f
 12171                           
 12172                           ;main.c: 588: }else{
 12173     0262  2A66               	goto	l300
 12174     0263                     l4410:
 12175                           
 12176                           ;main.c: 589: npos = 0;
 12177     0263  0021               	movlb	1	; select bank1
 12178     0264  01EC               	clrf	main@npos^(0+128)
 12179     0265  01ED               	clrf	(main@npos+1)^(0+128)
 12180     0266                     l300:
 12181                           
 12182                           ;main.c: 590: };main.c: 591: for(j = 0 ; j < intvl ; j++){
 12183     0266  0022               	movlb	2	; select bank2
 12184     0267  01A5               	clrf	main@j^(0+256)
 12185     0268  01A6               	clrf	(main@j+1)^(0+256)
 12186     0269  2A70               	goto	l301
 12187     026A                     l302:
 12188                           
 12189                           ;main.c: 592: _delay((unsigned long)((1)*(4000000/4000000.0)));
 12190     026A  0000               	nop
 12191     026B                     l4412:
 12192     026B  3001               	movlw	1
 12193     026C  0022               	movlb	2	; select bank2
 12194     026D  07A5               	addwf	main@j^(0+256),f
 12195     026E  3000               	movlw	0
 12196     026F  3DA6               	addwfc	(main@j+1)^(0+256),f
 12197     0270                     l301:
 12198     0270  0826               	movf	(main@j+1)^(0+256),w
 12199     0271  3A80               	xorlw	128
 12200     0272  0020               	movlb	0	; select bank0
 12201     0273  00D4               	movwf	??_main
 12202     0274  0022               	movlb	2	; select bank2
 12203     0275  0824               	movf	(main@intvl+1)^(0+256),w
 12204     0276  3A80               	xorlw	128
 12205     0277  0020               	movlb	0	; select bank0
 12206     0278  0254               	subwf	??_main,w
 12207     0279  1D03               	skipz
 12208     027A  2A7E               	goto	u5835
 12209     027B  0022               	movlb	2	; select bank2
 12210     027C  0823               	movf	main@intvl^(0+256),w
 12211     027D  0225               	subwf	main@j^(0+256),w
 12212     027E                     u5835:
 12213     027E  1C03               	skipc
 12214     027F  2A81               	goto	u5831
 12215     0280  2A82               	goto	u5830
 12216     0281                     u5831:
 12217     0281  2A6A               	goto	l302
 12218     0282                     u5830:
 12219     0282                     l303:
 12220                           
 12221                           ;main.c: 593: };main.c: 594: RA1 = 0;
 12222     0282  0020               	movlb	0	; select bank0
 12223     0283  108C               	bcf	12,1	;volatile
 12224     0284                     l4414:
 12225                           
 12226                           ;main.c: 595: for(j = 0 ; j < intvl ; j++){
 12227     0284  0022               	movlb	2	; select bank2
 12228     0285  01A5               	clrf	main@j^(0+256)
 12229     0286  01A6               	clrf	(main@j+1)^(0+256)
 12230     0287  2A8E               	goto	l304
 12231     0288                     l305:
 12232                           
 12233                           ;main.c: 596: _delay((unsigned long)((1)*(4000000/4000000.0)));
 12234     0288  0000               	nop
 12235     0289                     l4416:
 12236     0289  3001               	movlw	1
 12237     028A  0022               	movlb	2	; select bank2
 12238     028B  07A5               	addwf	main@j^(0+256),f
 12239     028C  3000               	movlw	0
 12240     028D  3DA6               	addwfc	(main@j+1)^(0+256),f
 12241     028E                     l304:
 12242     028E  0826               	movf	(main@j+1)^(0+256),w
 12243     028F  3A80               	xorlw	128
 12244     0290  0020               	movlb	0	; select bank0
 12245     0291  00D4               	movwf	??_main
 12246     0292  0022               	movlb	2	; select bank2
 12247     0293  0824               	movf	(main@intvl+1)^(0+256),w
 12248     0294  3A80               	xorlw	128
 12249     0295  0020               	movlb	0	; select bank0
 12250     0296  0254               	subwf	??_main,w
 12251     0297  1D03               	skipz
 12252     0298  2A9C               	goto	u5845
 12253     0299  0022               	movlb	2	; select bank2
 12254     029A  0823               	movf	main@intvl^(0+256),w
 12255     029B  0225               	subwf	main@j^(0+256),w
 12256     029C                     u5845:
 12257     029C  1C03               	skipc
 12258     029D  2A9F               	goto	u5841
 12259     029E  2AA0               	goto	u5840
 12260     029F                     u5841:
 12261     029F  2A88               	goto	l305
 12262     02A0                     u5840:
 12263     02A0                     l4418:
 12264     02A0  3001               	movlw	1
 12265     02A1  0022               	movlb	2	; select bank2
 12266     02A2  07A0               	addwf	main@k^(0+256),f
 12267     02A3  3000               	movlw	0
 12268     02A4  3DA1               	addwfc	(main@k+1)^(0+256),f
 12269     02A5                     l297:
 12270     02A5  0821               	movf	(main@k+1)^(0+256),w
 12271     02A6  3A80               	xorlw	128
 12272     02A7  0020               	movlb	0	; select bank0
 12273     02A8  00D4               	movwf	??_main
 12274     02A9  0868               	movf	main@t_npd+1,w
 12275     02AA  3A80               	xorlw	128
 12276     02AB  0254               	subwf	??_main,w
 12277     02AC  1D03               	skipz
 12278     02AD  2AB1               	goto	u5855
 12279     02AE  0867               	movf	main@t_npd,w
 12280     02AF  0022               	movlb	2	; select bank2
 12281     02B0  0220               	subwf	main@k^(0+256),w
 12282     02B1                     u5855:
 12283     02B1  1C03               	skipc
 12284     02B2  2AB4               	goto	u5851
 12285     02B3  2AB5               	goto	u5850
 12286     02B4                     u5851:
 12287     02B4  2A4B               	goto	l298
 12288     02B5                     u5850:
 12289     02B5                     l307:
 12290                           
 12291                           ;main.c: 597: };main.c: 598: };main.c: 600: RA7 = 0;
 12292     02B5  0020               	movlb	0	; select bank0
 12293     02B6  138C               	bcf	12,7	;volatile
 12294     02B7                     l4420:
 12295                           
 12296                           ;main.c: 601: ndcnt += 1;
 12297     02B7  3001               	movlw	1
 12298     02B8  0021               	movlb	1	; select bank1
 12299     02B9  07E4               	addwf	main@ndcnt^(0+128),f
 12300     02BA  3000               	movlw	0
 12301     02BB  3DE5               	addwfc	(main@ndcnt+1)^(0+128),f
 12302     02BC  3000               	movlw	0
 12303     02BD  3DE6               	addwfc	(main@ndcnt+2)^(0+128),f
 12304     02BE  3000               	movlw	0
 12305     02BF  3DE7               	addwfc	(main@ndcnt+3)^(0+128),f
 12306     02C0                     l4422:
 12307                           
 12308                           ;main.c: 602: write_data_eeprom(NDCNT_ADR, ndcnt);
 12309     02C0  085D               	movf	(main@NDCNT_ADR+3)^(0+128),w
 12310     02C1  00F7               	movwf	write_data_eeprom@adr+3
 12311     02C2  085C               	movf	(main@NDCNT_ADR+2)^(0+128),w
 12312     02C3  00F6               	movwf	write_data_eeprom@adr+2
 12313     02C4  085B               	movf	(main@NDCNT_ADR+1)^(0+128),w
 12314     02C5  00F5               	movwf	write_data_eeprom@adr+1
 12315     02C6  085A               	movf	main@NDCNT_ADR^(0+128),w
 12316     02C7  00F4               	movwf	write_data_eeprom@adr
 12317     02C8  0867               	movf	(main@ndcnt+3)^(0+128),w
 12318     02C9  00FB               	movwf	write_data_eeprom@value+3
 12319     02CA  0866               	movf	(main@ndcnt+2)^(0+128),w
 12320     02CB  00FA               	movwf	write_data_eeprom@value+2
 12321     02CC  0865               	movf	(main@ndcnt+1)^(0+128),w
 12322     02CD  00F9               	movwf	write_data_eeprom@value+1
 12323     02CE  0864               	movf	main@ndcnt^(0+128),w
 12324     02CF  00F8               	movwf	write_data_eeprom@value
 12325     02D0  319D  25E7  3180   	fcall	_write_data_eeprom
 12326     02D3                     l4424:
 12327                           
 12328                           ;main.c: 604: printf("C\tNDD\r\n");
 12329     02D3  30D2               	movlw	low (STR_52| (0+32768))
 12330     02D4  0020               	movlb	0	; select bank0
 12331     02D5  00A0               	movwf	printf@f
 12332     02D6  30A0               	movlw	high (STR_52| (0+32768))
 12333     02D7  00A1               	movwf	printf@f+1
 12334     02D8  3190  2054  3180   	fcall	_printf
 12335                           
 12336                           ;main.c: 605: break;
 12337     02DB  2FE6               	goto	l183
 12338     02DC                     l4426:
 12339                           
 12340                           ;main.c: 609: for(k = 0 ; k < nsp ; k++){
 12341     02DC  0022               	movlb	2	; select bank2
 12342     02DD  01A0               	clrf	main@k^(0+256)
 12343     02DE  01A1               	clrf	(main@k+1)^(0+256)
 12344     02DF  2B26               	goto	l309
 12345     02E0                     l310:
 12346                           
 12347                           ;main.c: 610: RA1 = 1;
 12348     02E0  0020               	movlb	0	; select bank0
 12349     02E1  148C               	bsf	12,1	;volatile
 12350     02E2                     l4428:
 12351                           
 12352                           ;main.c: 611: npos += 1;
 12353     02E2  3001               	movlw	1
 12354     02E3  0021               	movlb	1	; select bank1
 12355     02E4  07EC               	addwf	main@npos^(0+128),f
 12356     02E5  3000               	movlw	0
 12357     02E6  3DED               	addwfc	(main@npos+1)^(0+128),f
 12358     02E7                     l4430:
 12359                           
 12360                           ;main.c: 612: for(j = 0 ; j < intvl ; j++){
 12361     02E7  0022               	movlb	2	; select bank2
 12362     02E8  01A5               	clrf	main@j^(0+256)
 12363     02E9  01A6               	clrf	(main@j+1)^(0+256)
 12364     02EA  2AF1               	goto	l311
 12365     02EB                     l312:
 12366                           
 12367                           ;main.c: 613: _delay((unsigned long)((1)*(4000000/4000000.0)));
 12368     02EB  0000               	nop
 12369     02EC                     l4432:
 12370     02EC  3001               	movlw	1
 12371     02ED  0022               	movlb	2	; select bank2
 12372     02EE  07A5               	addwf	main@j^(0+256),f
 12373     02EF  3000               	movlw	0
 12374     02F0  3DA6               	addwfc	(main@j+1)^(0+256),f
 12375     02F1                     l311:
 12376     02F1  0826               	movf	(main@j+1)^(0+256),w
 12377     02F2  3A80               	xorlw	128
 12378     02F3  0020               	movlb	0	; select bank0
 12379     02F4  00D4               	movwf	??_main
 12380     02F5  0022               	movlb	2	; select bank2
 12381     02F6  0824               	movf	(main@intvl+1)^(0+256),w
 12382     02F7  3A80               	xorlw	128
 12383     02F8  0020               	movlb	0	; select bank0
 12384     02F9  0254               	subwf	??_main,w
 12385     02FA  1D03               	skipz
 12386     02FB  2AFF               	goto	u5865
 12387     02FC  0022               	movlb	2	; select bank2
 12388     02FD  0823               	movf	main@intvl^(0+256),w
 12389     02FE  0225               	subwf	main@j^(0+256),w
 12390     02FF                     u5865:
 12391     02FF  1C03               	skipc
 12392     0300  2B02               	goto	u5861
 12393     0301  2B03               	goto	u5860
 12394     0302                     u5861:
 12395     0302  2AEB               	goto	l312
 12396     0303                     u5860:
 12397     0303                     l313:
 12398                           
 12399                           ;main.c: 614: };main.c: 615: RA1 = 0;
 12400     0303  0020               	movlb	0	; select bank0
 12401     0304  108C               	bcf	12,1	;volatile
 12402     0305                     l4434:
 12403                           
 12404                           ;main.c: 616: for(j = 0 ; j < intvl ; j++){
 12405     0305  0022               	movlb	2	; select bank2
 12406     0306  01A5               	clrf	main@j^(0+256)
 12407     0307  01A6               	clrf	(main@j+1)^(0+256)
 12408     0308  2B0F               	goto	l314
 12409     0309                     l315:
 12410                           
 12411                           ;main.c: 617: _delay((unsigned long)((1)*(4000000/4000000.0)));
 12412     0309  0000               	nop
 12413     030A                     l4436:
 12414     030A  3001               	movlw	1
 12415     030B  0022               	movlb	2	; select bank2
 12416     030C  07A5               	addwf	main@j^(0+256),f
 12417     030D  3000               	movlw	0
 12418     030E  3DA6               	addwfc	(main@j+1)^(0+256),f
 12419     030F                     l314:
 12420     030F  0826               	movf	(main@j+1)^(0+256),w
 12421     0310  3A80               	xorlw	128
 12422     0311  0020               	movlb	0	; select bank0
 12423     0312  00D4               	movwf	??_main
 12424     0313  0022               	movlb	2	; select bank2
 12425     0314  0824               	movf	(main@intvl+1)^(0+256),w
 12426     0315  3A80               	xorlw	128
 12427     0316  0020               	movlb	0	; select bank0
 12428     0317  0254               	subwf	??_main,w
 12429     0318  1D03               	skipz
 12430     0319  2B1D               	goto	u5875
 12431     031A  0022               	movlb	2	; select bank2
 12432     031B  0823               	movf	main@intvl^(0+256),w
 12433     031C  0225               	subwf	main@j^(0+256),w
 12434     031D                     u5875:
 12435     031D  1C03               	skipc
 12436     031E  2B20               	goto	u5871
 12437     031F  2B21               	goto	u5870
 12438     0320                     u5871:
 12439     0320  2B09               	goto	l315
 12440     0321                     u5870:
 12441     0321                     l4438:
 12442     0321  3001               	movlw	1
 12443     0322  0022               	movlb	2	; select bank2
 12444     0323  07A0               	addwf	main@k^(0+256),f
 12445     0324  3000               	movlw	0
 12446     0325  3DA1               	addwfc	(main@k+1)^(0+256),f
 12447     0326                     l309:
 12448     0326  0821               	movf	(main@k+1)^(0+256),w
 12449     0327  3A80               	xorlw	128
 12450     0328  0020               	movlb	0	; select bank0
 12451     0329  00D4               	movwf	??_main
 12452     032A  0862               	movf	main@nsp+1,w
 12453     032B  3A80               	xorlw	128
 12454     032C  0254               	subwf	??_main,w
 12455     032D  1D03               	skipz
 12456     032E  2B32               	goto	u5885
 12457     032F  0861               	movf	main@nsp,w
 12458     0330  0022               	movlb	2	; select bank2
 12459     0331  0220               	subwf	main@k^(0+256),w
 12460     0332                     u5885:
 12461     0332  1C03               	skipc
 12462     0333  2B35               	goto	u5881
 12463     0334  2B36               	goto	u5880
 12464     0335                     u5881:
 12465     0335  2AE0               	goto	l310
 12466     0336                     u5880:
 12467     0336                     l4440:
 12468                           
 12469                           ;main.c: 618: };main.c: 619: };main.c: 622: printf("C\tNSD\r\n");
 12470     0336  30DA               	movlw	low (STR_53| (0+32768))
 12471     0337  0020               	movlb	0	; select bank0
 12472     0338  00A0               	movwf	printf@f
 12473     0339  30A0               	movlw	high (STR_53| (0+32768))
 12474     033A  00A1               	movwf	printf@f+1
 12475     033B  3190  2054  3180   	fcall	_printf
 12476                           
 12477                           ;main.c: 623: break;
 12478     033E  2FE6               	goto	l183
 12479     033F                     l4442:
 12480                           
 12481                           ;main.c: 627: for(k = 0 ; k < npd ; k++){
 12482     033F  0022               	movlb	2	; select bank2
 12483     0340  01A0               	clrf	main@k^(0+256)
 12484     0341  01A1               	clrf	(main@k+1)^(0+256)
 12485     0342  2B88               	goto	l319
 12486     0343                     l320:
 12487                           
 12488                           ;main.c: 628: RA0 = 1;
 12489     0343  140C               	bsf	12,0	;volatile
 12490     0344                     l4444:
 12491                           
 12492                           ;main.c: 629: npos += 1;
 12493     0344  3001               	movlw	1
 12494     0345  0021               	movlb	1	; select bank1
 12495     0346  07EC               	addwf	main@npos^(0+128),f
 12496     0347  3000               	movlw	0
 12497     0348  3DED               	addwfc	(main@npos+1)^(0+128),f
 12498     0349                     l4446:
 12499                           
 12500                           ;main.c: 630: for(j = 0 ; j < intvl ; j++){
 12501     0349  0022               	movlb	2	; select bank2
 12502     034A  01A5               	clrf	main@j^(0+256)
 12503     034B  01A6               	clrf	(main@j+1)^(0+256)
 12504     034C  2B53               	goto	l321
 12505     034D                     l322:
 12506                           
 12507                           ;main.c: 631: _delay((unsigned long)((1)*(4000000/4000000.0)));
 12508     034D  0000               	nop
 12509     034E                     l4448:
 12510     034E  3001               	movlw	1
 12511     034F  0022               	movlb	2	; select bank2
 12512     0350  07A5               	addwf	main@j^(0+256),f
 12513     0351  3000               	movlw	0
 12514     0352  3DA6               	addwfc	(main@j+1)^(0+256),f
 12515     0353                     l321:
 12516     0353  0826               	movf	(main@j+1)^(0+256),w
 12517     0354  3A80               	xorlw	128
 12518     0355  0020               	movlb	0	; select bank0
 12519     0356  00D4               	movwf	??_main
 12520     0357  0022               	movlb	2	; select bank2
 12521     0358  0824               	movf	(main@intvl+1)^(0+256),w
 12522     0359  3A80               	xorlw	128
 12523     035A  0020               	movlb	0	; select bank0
 12524     035B  0254               	subwf	??_main,w
 12525     035C  1D03               	skipz
 12526     035D  2B61               	goto	u5895
 12527     035E  0022               	movlb	2	; select bank2
 12528     035F  0823               	movf	main@intvl^(0+256),w
 12529     0360  0225               	subwf	main@j^(0+256),w
 12530     0361                     u5895:
 12531     0361  1C03               	skipc
 12532     0362  2B64               	goto	u5891
 12533     0363  2B65               	goto	u5890
 12534     0364                     u5891:
 12535     0364  2B4D               	goto	l322
 12536     0365                     u5890:
 12537     0365                     l323:
 12538                           
 12539                           ;main.c: 632: };main.c: 633: RA0 = 0;
 12540     0365  0020               	movlb	0	; select bank0
 12541     0366  100C               	bcf	12,0	;volatile
 12542     0367                     l4450:
 12543                           
 12544                           ;main.c: 634: for(j = 0 ; j < intvl ; j++){
 12545     0367  0022               	movlb	2	; select bank2
 12546     0368  01A5               	clrf	main@j^(0+256)
 12547     0369  01A6               	clrf	(main@j+1)^(0+256)
 12548     036A  2B71               	goto	l324
 12549     036B                     l325:
 12550                           
 12551                           ;main.c: 635: _delay((unsigned long)((1)*(4000000/4000000.0)));
 12552     036B  0000               	nop
 12553     036C                     l4452:
 12554     036C  3001               	movlw	1
 12555     036D  0022               	movlb	2	; select bank2
 12556     036E  07A5               	addwf	main@j^(0+256),f
 12557     036F  3000               	movlw	0
 12558     0370  3DA6               	addwfc	(main@j+1)^(0+256),f
 12559     0371                     l324:
 12560     0371  0826               	movf	(main@j+1)^(0+256),w
 12561     0372  3A80               	xorlw	128
 12562     0373  0020               	movlb	0	; select bank0
 12563     0374  00D4               	movwf	??_main
 12564     0375  0022               	movlb	2	; select bank2
 12565     0376  0824               	movf	(main@intvl+1)^(0+256),w
 12566     0377  3A80               	xorlw	128
 12567     0378  0020               	movlb	0	; select bank0
 12568     0379  0254               	subwf	??_main,w
 12569     037A  1D03               	skipz
 12570     037B  2B7F               	goto	u5905
 12571     037C  0022               	movlb	2	; select bank2
 12572     037D  0823               	movf	main@intvl^(0+256),w
 12573     037E  0225               	subwf	main@j^(0+256),w
 12574     037F                     u5905:
 12575     037F  1C03               	skipc
 12576     0380  2B82               	goto	u5901
 12577     0381  2B83               	goto	u5900
 12578     0382                     u5901:
 12579     0382  2B6B               	goto	l325
 12580     0383                     u5900:
 12581     0383                     l4454:
 12582     0383  3001               	movlw	1
 12583     0384  0022               	movlb	2	; select bank2
 12584     0385  07A0               	addwf	main@k^(0+256),f
 12585     0386  3000               	movlw	0
 12586     0387  3DA1               	addwfc	(main@k+1)^(0+256),f
 12587     0388                     l319:
 12588     0388  0820               	movf	main@k^(0+256),w
 12589     0389  0020               	movlb	0	; select bank0
 12590     038A  00D4               	movwf	??_main
 12591     038B  0022               	movlb	2	; select bank2
 12592     038C  0821               	movf	(main@k+1)^(0+256),w
 12593     038D  0020               	movlb	0	; select bank0
 12594     038E  00D5               	movwf	??_main+1
 12595     038F  3000               	movlw	0
 12596     0390  1BD5               	btfsc	??_main+1,7
 12597     0391  30FF               	movlw	255
 12598     0392  00D6               	movwf	??_main+2
 12599     0393  00D7               	movwf	??_main+3
 12600     0394  0857               	movf	??_main+3,w
 12601     0395  3A80               	xorlw	128
 12602     0396  00D8               	movwf	??_main+4
 12603     0397  0021               	movlb	1	; select bank1
 12604     0398  0861               	movf	(main@npd+3)^(0+128),w
 12605     0399  3A80               	xorlw	128
 12606     039A  0020               	movlb	0	; select bank0
 12607     039B  0258               	subwf	??_main+4,w
 12608     039C  1D03               	skipz
 12609     039D  2BAE               	goto	u5913
 12610     039E  0021               	movlb	1	; select bank1
 12611     039F  0860               	movf	(main@npd+2)^(0+128),w
 12612     03A0  0020               	movlb	0	; select bank0
 12613     03A1  0256               	subwf	??_main+2,w
 12614     03A2  1D03               	skipz
 12615     03A3  2BAE               	goto	u5913
 12616     03A4  0021               	movlb	1	; select bank1
 12617     03A5  085F               	movf	(main@npd+1)^(0+128),w
 12618     03A6  0020               	movlb	0	; select bank0
 12619     03A7  0255               	subwf	??_main+1,w
 12620     03A8  1D03               	skipz
 12621     03A9  2BAE               	goto	u5913
 12622     03AA  0021               	movlb	1	; select bank1
 12623     03AB  085E               	movf	main@npd^(0+128),w
 12624     03AC  0020               	movlb	0	; select bank0
 12625     03AD  0254               	subwf	??_main,w
 12626     03AE                     u5913:
 12627     03AE  1C03               	skipc
 12628     03AF  2BB1               	goto	u5911
 12629     03B0  2BB2               	goto	u5910
 12630     03B1                     u5911:
 12631     03B1  2B43               	goto	l320
 12632     03B2                     u5910:
 12633     03B2                     l4456:
 12634                           
 12635                           ;main.c: 636: };main.c: 637: };main.c: 639: for(k = 0 ; k < npd ; k++){
 12636     03B2  0022               	movlb	2	; select bank2
 12637     03B3  01A0               	clrf	main@k^(0+256)
 12638     03B4  01A1               	clrf	(main@k+1)^(0+256)
 12639     03B5  2C0F               	goto	l328
 12640     03B6                     l329:
 12641                           
 12642                           ;main.c: 640: RA1 = 1;
 12643     03B6  148C               	bsf	12,1	;volatile
 12644     03B7                     l4458:
 12645                           
 12646                           ;main.c: 641: if(npos > 1){
 12647     03B7  0021               	movlb	1	; select bank1
 12648     03B8  086D               	movf	(main@npos+1)^(0+128),w
 12649     03B9  3A80               	xorlw	128
 12650     03BA  0020               	movlb	0	; select bank0
 12651     03BB  00D4               	movwf	??_main
 12652     03BC  3080               	movlw	128
 12653     03BD  0254               	subwf	??_main,w
 12654     03BE  1D03               	skipz
 12655     03BF  2BC3               	goto	u5925
 12656     03C0  3002               	movlw	2
 12657     03C1  0021               	movlb	1	; select bank1
 12658     03C2  026C               	subwf	main@npos^(0+128),w
 12659     03C3                     u5925:
 12660     03C3  1C03               	skipc
 12661     03C4  2BC6               	goto	u5921
 12662     03C5  2BC7               	goto	u5920
 12663     03C6                     u5921:
 12664     03C6  2BCD               	goto	l4462
 12665     03C7                     u5920:
 12666     03C7                     l4460:
 12667                           
 12668                           ;main.c: 642: npos -= 1;
 12669     03C7  30FF               	movlw	255
 12670     03C8  0021               	movlb	1	; select bank1
 12671     03C9  07EC               	addwf	main@npos^(0+128),f
 12672     03CA  30FF               	movlw	255
 12673     03CB  3DED               	addwfc	(main@npos+1)^(0+128),f
 12674                           
 12675                           ;main.c: 643: }else{
 12676     03CC  2BD0               	goto	l331
 12677     03CD                     l4462:
 12678                           
 12679                           ;main.c: 644: npos = 0;
 12680     03CD  0021               	movlb	1	; select bank1
 12681     03CE  01EC               	clrf	main@npos^(0+128)
 12682     03CF  01ED               	clrf	(main@npos+1)^(0+128)
 12683     03D0                     l331:
 12684                           
 12685                           ;main.c: 645: };main.c: 646: for(j = 0 ; j < intvl ; j++){
 12686     03D0  0022               	movlb	2	; select bank2
 12687     03D1  01A5               	clrf	main@j^(0+256)
 12688     03D2  01A6               	clrf	(main@j+1)^(0+256)
 12689     03D3  2BDA               	goto	l332
 12690     03D4                     l333:
 12691                           
 12692                           ;main.c: 647: _delay((unsigned long)((1)*(4000000/4000000.0)));
 12693     03D4  0000               	nop
 12694     03D5                     l4464:
 12695     03D5  3001               	movlw	1
 12696     03D6  0022               	movlb	2	; select bank2
 12697     03D7  07A5               	addwf	main@j^(0+256),f
 12698     03D8  3000               	movlw	0
 12699     03D9  3DA6               	addwfc	(main@j+1)^(0+256),f
 12700     03DA                     l332:
 12701     03DA  0826               	movf	(main@j+1)^(0+256),w
 12702     03DB  3A80               	xorlw	128
 12703     03DC  0020               	movlb	0	; select bank0
 12704     03DD  00D4               	movwf	??_main
 12705     03DE  0022               	movlb	2	; select bank2
 12706     03DF  0824               	movf	(main@intvl+1)^(0+256),w
 12707     03E0  3A80               	xorlw	128
 12708     03E1  0020               	movlb	0	; select bank0
 12709     03E2  0254               	subwf	??_main,w
 12710     03E3  1D03               	skipz
 12711     03E4  2BE8               	goto	u5935
 12712     03E5  0022               	movlb	2	; select bank2
 12713     03E6  0823               	movf	main@intvl^(0+256),w
 12714     03E7  0225               	subwf	main@j^(0+256),w
 12715     03E8                     u5935:
 12716     03E8  1C03               	skipc
 12717     03E9  2BEB               	goto	u5931
 12718     03EA  2BEC               	goto	u5930
 12719     03EB                     u5931:
 12720     03EB  2BD4               	goto	l333
 12721     03EC                     u5930:
 12722     03EC                     l334:
 12723                           
 12724                           ;main.c: 648: };main.c: 649: RA1 = 0;
 12725     03EC  0020               	movlb	0	; select bank0
 12726     03ED  108C               	bcf	12,1	;volatile
 12727     03EE                     l4466:
 12728                           
 12729                           ;main.c: 650: for(j = 0 ; j < intvl ; j++){
 12730     03EE  0022               	movlb	2	; select bank2
 12731     03EF  01A5               	clrf	main@j^(0+256)
 12732     03F0  01A6               	clrf	(main@j+1)^(0+256)
 12733     03F1  2BF8               	goto	l335
 12734     03F2                     l336:
 12735                           
 12736                           ;main.c: 651: _delay((unsigned long)((1)*(4000000/4000000.0)));
 12737     03F2  0000               	nop
 12738     03F3                     l4468:
 12739     03F3  3001               	movlw	1
 12740     03F4  0022               	movlb	2	; select bank2
 12741     03F5  07A5               	addwf	main@j^(0+256),f
 12742     03F6  3000               	movlw	0
 12743     03F7  3DA6               	addwfc	(main@j+1)^(0+256),f
 12744     03F8                     l335:
 12745     03F8  0826               	movf	(main@j+1)^(0+256),w
 12746     03F9  3A80               	xorlw	128
 12747     03FA  0020               	movlb	0	; select bank0
 12748     03FB  00D4               	movwf	??_main
 12749     03FC  0022               	movlb	2	; select bank2
 12750     03FD  0824               	movf	(main@intvl+1)^(0+256),w
 12751     03FE  3A80               	xorlw	128
 12752     03FF  0020               	movlb	0	; select bank0
 12753     0400  0254               	subwf	??_main,w
 12754     0401  1D03               	skipz
 12755     0402  2C06               	goto	u5945
 12756     0403  0022               	movlb	2	; select bank2
 12757     0404  0823               	movf	main@intvl^(0+256),w
 12758     0405  0225               	subwf	main@j^(0+256),w
 12759     0406                     u5945:
 12760     0406  1C03               	skipc
 12761     0407  2C09               	goto	u5941
 12762     0408  2C0A               	goto	u5940
 12763     0409                     u5941:
 12764     0409  2BF2               	goto	l336
 12765     040A                     u5940:
 12766     040A                     l4470:
 12767     040A  3001               	movlw	1
 12768     040B  0022               	movlb	2	; select bank2
 12769     040C  07A0               	addwf	main@k^(0+256),f
 12770     040D  3000               	movlw	0
 12771     040E  3DA1               	addwfc	(main@k+1)^(0+256),f
 12772     040F                     l328:
 12773     040F  0820               	movf	main@k^(0+256),w
 12774     0410  0020               	movlb	0	; select bank0
 12775     0411  00D4               	movwf	??_main
 12776     0412  0022               	movlb	2	; select bank2
 12777     0413  0821               	movf	(main@k+1)^(0+256),w
 12778     0414  0020               	movlb	0	; select bank0
 12779     0415  00D5               	movwf	??_main+1
 12780     0416  3000               	movlw	0
 12781     0417  1BD5               	btfsc	??_main+1,7
 12782     0418  30FF               	movlw	255
 12783     0419  00D6               	movwf	??_main+2
 12784     041A  00D7               	movwf	??_main+3
 12785     041B  0857               	movf	??_main+3,w
 12786     041C  3A80               	xorlw	128
 12787     041D  00D8               	movwf	??_main+4
 12788     041E  0021               	movlb	1	; select bank1
 12789     041F  0861               	movf	(main@npd+3)^(0+128),w
 12790     0420  3A80               	xorlw	128
 12791     0421  0020               	movlb	0	; select bank0
 12792     0422  0258               	subwf	??_main+4,w
 12793     0423  1D03               	skipz
 12794     0424  2C35               	goto	u5953
 12795     0425  0021               	movlb	1	; select bank1
 12796     0426  0860               	movf	(main@npd+2)^(0+128),w
 12797     0427  0020               	movlb	0	; select bank0
 12798     0428  0256               	subwf	??_main+2,w
 12799     0429  1D03               	skipz
 12800     042A  2C35               	goto	u5953
 12801     042B  0021               	movlb	1	; select bank1
 12802     042C  085F               	movf	(main@npd+1)^(0+128),w
 12803     042D  0020               	movlb	0	; select bank0
 12804     042E  0255               	subwf	??_main+1,w
 12805     042F  1D03               	skipz
 12806     0430  2C35               	goto	u5953
 12807     0431  0021               	movlb	1	; select bank1
 12808     0432  085E               	movf	main@npd^(0+128),w
 12809     0433  0020               	movlb	0	; select bank0
 12810     0434  0254               	subwf	??_main,w
 12811     0435                     u5953:
 12812     0435  1C03               	skipc
 12813     0436  2C38               	goto	u5951
 12814     0437  2C39               	goto	u5950
 12815     0438                     u5951:
 12816     0438  2BB6               	goto	l329
 12817     0439                     u5950:
 12818     0439                     l4472:
 12819                           
 12820                           ;main.c: 652: };main.c: 653: };main.c: 656: ndcnt += 1;
 12821     0439  3001               	movlw	1
 12822     043A  0021               	movlb	1	; select bank1
 12823     043B  07E4               	addwf	main@ndcnt^(0+128),f
 12824     043C  3000               	movlw	0
 12825     043D  3DE5               	addwfc	(main@ndcnt+1)^(0+128),f
 12826     043E  3000               	movlw	0
 12827     043F  3DE6               	addwfc	(main@ndcnt+2)^(0+128),f
 12828     0440  3000               	movlw	0
 12829     0441  3DE7               	addwfc	(main@ndcnt+3)^(0+128),f
 12830     0442                     l4474:
 12831                           
 12832                           ;main.c: 657: write_data_eeprom(NDCNT_ADR, ndcnt);
 12833     0442  085D               	movf	(main@NDCNT_ADR+3)^(0+128),w
 12834     0443  00F7               	movwf	write_data_eeprom@adr+3
 12835     0444  085C               	movf	(main@NDCNT_ADR+2)^(0+128),w
 12836     0445  00F6               	movwf	write_data_eeprom@adr+2
 12837     0446  085B               	movf	(main@NDCNT_ADR+1)^(0+128),w
 12838     0447  00F5               	movwf	write_data_eeprom@adr+1
 12839     0448  085A               	movf	main@NDCNT_ADR^(0+128),w
 12840     0449  00F4               	movwf	write_data_eeprom@adr
 12841     044A  0867               	movf	(main@ndcnt+3)^(0+128),w
 12842     044B  00FB               	movwf	write_data_eeprom@value+3
 12843     044C  0866               	movf	(main@ndcnt+2)^(0+128),w
 12844     044D  00FA               	movwf	write_data_eeprom@value+2
 12845     044E  0865               	movf	(main@ndcnt+1)^(0+128),w
 12846     044F  00F9               	movwf	write_data_eeprom@value+1
 12847     0450  0864               	movf	main@ndcnt^(0+128),w
 12848     0451  00F8               	movwf	write_data_eeprom@value
 12849     0452  319D  25E7  3180   	fcall	_write_data_eeprom
 12850     0455                     l4476:
 12851                           
 12852                           ;main.c: 658: printf("C\tNSC\r\n");
 12853     0455  30C2               	movlw	low (STR_54| (0+32768))
 12854     0456  0020               	movlb	0	; select bank0
 12855     0457  00A0               	movwf	printf@f
 12856     0458  30A0               	movlw	high (STR_54| (0+32768))
 12857     0459  00A1               	movwf	printf@f+1
 12858     045A  3190  2054  3180   	fcall	_printf
 12859                           
 12860                           ;main.c: 659: break;
 12861     045D  2FE6               	goto	l183
 12862     045E                     l4478:
 12863                           
 12864                           ;main.c: 662: ptr = strtok((0), "/");
 12865     045E  3086               	movlw	low (STR_30| (0+32768))
 12866     045F  00A0               	movwf	strtok@s2
 12867     0460  30A1               	movlw	high (STR_30| (0+32768))
 12868     0461  00A1               	movwf	strtok@s2+1
 12869     0462  0103               	clrw
 12870     0463  3188  2001  3180   	fcall	_strtok
 12871     0466  0022               	movlb	2	; select bank2
 12872     0467  00A2               	movwf	main@ptr^(0+256)
 12873     0468                     l4480:
 12874                           
 12875                           ;main.c: 663: if(ptr != (0)) {
 12876     0468  0822               	movf	main@ptr^(0+256),w
 12877     0469  1903               	btfsc	3,2
 12878     046A  2C6C               	goto	u5961
 12879     046B  2C6D               	goto	u5960
 12880     046C                     u5961:
 12881     046C  2C7B               	goto	l4484
 12882     046D                     u5960:
 12883     046D                     l4482:
 12884                           
 12885                           ;main.c: 664: npd = atoi(ptr);
 12886     046D  0822               	movf	main@ptr^(0+256),w
 12887     046E  3180  202C  3180   	fcall	_atoi
 12888     0471  0876               	movf	?_atoi,w
 12889     0472  0021               	movlb	1	; select bank1
 12890     0473  00DE               	movwf	main@npd^(0+128)
 12891     0474  0877               	movf	?_atoi+1,w
 12892     0475  00DF               	movwf	(main@npd+1)^(0+128)
 12893     0476  0D89               	rlf	9,f
 12894     0477  3B89               	subwfb	9,f
 12895     0478  0989               	comf	9,f
 12896     0479  00E0               	movwf	(main@npd+2)^(0+128)
 12897     047A  00E1               	movwf	(main@npd+3)^(0+128)
 12898     047B                     l4484:
 12899                           
 12900                           ;main.c: 665: };main.c: 666: write_data_eeprom(NPD_ADR, npd);
 12901     047B  0021               	movlb	1	; select bank1
 12902     047C  084B               	movf	(main@NPD_ADR+3)^(0+128),w
 12903     047D  00F7               	movwf	write_data_eeprom@adr+3
 12904     047E  084A               	movf	(main@NPD_ADR+2)^(0+128),w
 12905     047F  00F6               	movwf	write_data_eeprom@adr+2
 12906     0480  0849               	movf	(main@NPD_ADR+1)^(0+128),w
 12907     0481  00F5               	movwf	write_data_eeprom@adr+1
 12908     0482  0848               	movf	main@NPD_ADR^(0+128),w
 12909     0483  00F4               	movwf	write_data_eeprom@adr
 12910     0484  0861               	movf	(main@npd+3)^(0+128),w
 12911     0485  00FB               	movwf	write_data_eeprom@value+3
 12912     0486  0860               	movf	(main@npd+2)^(0+128),w
 12913     0487  00FA               	movwf	write_data_eeprom@value+2
 12914     0488  085F               	movf	(main@npd+1)^(0+128),w
 12915     0489  00F9               	movwf	write_data_eeprom@value+1
 12916     048A  085E               	movf	main@npd^(0+128),w
 12917     048B  00F8               	movwf	write_data_eeprom@value
 12918     048C  319D  25E7  3180   	fcall	_write_data_eeprom
 12919     048F                     l4486:
 12920                           
 12921                           ;main.c: 667: printf("C\tWPD\t%d\r\n", npd);
 12922     048F  3042               	movlw	low (STR_56| (0+32768))
 12923     0490  0020               	movlb	0	; select bank0
 12924     0491  00A0               	movwf	printf@f
 12925     0492  30A0               	movlw	high (STR_56| (0+32768))
 12926     0493  00A1               	movwf	printf@f+1
 12927     0494  0021               	movlb	1	; select bank1
 12928     0495  0861               	movf	(main@npd+3)^(0+128),w
 12929     0496  0020               	movlb	0	; select bank0
 12930     0497  00A5               	movwf	?_printf+5
 12931     0498  0021               	movlb	1	; select bank1
 12932     0499  0860               	movf	(main@npd+2)^(0+128),w
 12933     049A  0020               	movlb	0	; select bank0
 12934     049B  00A4               	movwf	?_printf+4
 12935     049C  0021               	movlb	1	; select bank1
 12936     049D  085F               	movf	(main@npd+1)^(0+128),w
 12937     049E  0020               	movlb	0	; select bank0
 12938     049F  00A3               	movwf	?_printf+3
 12939     04A0  0021               	movlb	1	; select bank1
 12940     04A1  085E               	movf	main@npd^(0+128),w
 12941     04A2  0020               	movlb	0	; select bank0
 12942     04A3  00A2               	movwf	?_printf+2
 12943     04A4  3190  2054  3180   	fcall	_printf
 12944                           
 12945                           ;main.c: 668: break;
 12946     04A7  2FE6               	goto	l183
 12947     04A8                     l4488:
 12948                           
 12949                           ;main.c: 671: ptr = strtok((0), "/");
 12950     04A8  3086               	movlw	low (STR_30| (0+32768))
 12951     04A9  00A0               	movwf	strtok@s2
 12952     04AA  30A1               	movlw	high (STR_30| (0+32768))
 12953     04AB  00A1               	movwf	strtok@s2+1
 12954     04AC  0103               	clrw
 12955     04AD  3188  2001  3180   	fcall	_strtok
 12956     04B0  0022               	movlb	2	; select bank2
 12957     04B1  00A2               	movwf	main@ptr^(0+256)
 12958     04B2                     l4490:
 12959                           
 12960                           ;main.c: 672: if(ptr != (0)) {
 12961     04B2  0822               	movf	main@ptr^(0+256),w
 12962     04B3  1903               	btfsc	3,2
 12963     04B4  2CB6               	goto	u5971
 12964     04B5  2CB7               	goto	u5970
 12965     04B6                     u5971:
 12966     04B6  2CC0               	goto	l4494
 12967     04B7                     u5970:
 12968     04B7                     l4492:
 12969                           
 12970                           ;main.c: 673: nsp = atoi(ptr);
 12971     04B7  0822               	movf	main@ptr^(0+256),w
 12972     04B8  3180  202C  3180   	fcall	_atoi
 12973     04BB  0877               	movf	?_atoi+1,w
 12974     04BC  0020               	movlb	0	; select bank0
 12975     04BD  00E2               	movwf	main@nsp+1
 12976     04BE  0876               	movf	?_atoi,w
 12977     04BF  00E1               	movwf	main@nsp
 12978     04C0                     l4494:
 12979                           
 12980                           ;main.c: 674: };main.c: 675: printf("C\tNSP\r\n");
 12981     04C0  30F2               	movlw	low (STR_58| (0+32768))
 12982     04C1  0020               	movlb	0	; select bank0
 12983     04C2  00A0               	movwf	printf@f
 12984     04C3  30A0               	movlw	high (STR_58| (0+32768))
 12985     04C4  00A1               	movwf	printf@f+1
 12986     04C5  3190  2054  3180   	fcall	_printf
 12987                           
 12988                           ;main.c: 676: break;
 12989     04C8  2FE6               	goto	l183
 12990     04C9                     l4496:
 12991                           
 12992                           ;main.c: 679: printf("C\tRNP/%d\r\n", npos);
 12993     04C9  309A               	movlw	low (STR_59| (0+32768))
 12994     04CA  00A0               	movwf	printf@f
 12995     04CB  30A0               	movlw	high (STR_59| (0+32768))
 12996     04CC  00A1               	movwf	printf@f+1
 12997     04CD  0021               	movlb	1	; select bank1
 12998     04CE  086D               	movf	(main@npos+1)^(0+128),w
 12999     04CF  0020               	movlb	0	; select bank0
 13000     04D0  00A3               	movwf	?_printf+3
 13001     04D1  0021               	movlb	1	; select bank1
 13002     04D2  086C               	movf	main@npos^(0+128),w
 13003     04D3  0020               	movlb	0	; select bank0
 13004     04D4  00A2               	movwf	?_printf+2
 13005     04D5  3190  2054  3180   	fcall	_printf
 13006                           
 13007                           ;main.c: 680: break;
 13008     04D8  2FE6               	goto	l183
 13009     04D9                     l4498:
 13010                           
 13011                           ;main.c: 683: printf("C\tRNI/%d\r\n", nip);
 13012     04D9  3084               	movlw	low (STR_60| (0+32768))
 13013     04DA  00A0               	movwf	printf@f
 13014     04DB  30A0               	movlw	high (STR_60| (0+32768))
 13015     04DC  00A1               	movwf	printf@f+1
 13016     04DD  0021               	movlb	1	; select bank1
 13017     04DE  0859               	movf	(main@nip+1)^(0+128),w
 13018     04DF  0020               	movlb	0	; select bank0
 13019     04E0  00A3               	movwf	?_printf+3
 13020     04E1  0021               	movlb	1	; select bank1
 13021     04E2  0858               	movf	main@nip^(0+128),w
 13022     04E3  0020               	movlb	0	; select bank0
 13023     04E4  00A2               	movwf	?_printf+2
 13024     04E5  3190  2054  3180   	fcall	_printf
 13025                           
 13026                           ;main.c: 684: break;
 13027     04E8  2FE6               	goto	l183
 13028     04E9                     l4500:
 13029                           
 13030                           ;main.c: 687: printf("C\tRPD/%d\r\n", npd);
 13031     04E9  3079               	movlw	low (STR_61| (0+32768))
 13032     04EA  00A0               	movwf	printf@f
 13033     04EB  30A0               	movlw	high (STR_61| (0+32768))
 13034     04EC  00A1               	movwf	printf@f+1
 13035     04ED  0021               	movlb	1	; select bank1
 13036     04EE  0861               	movf	(main@npd+3)^(0+128),w
 13037     04EF  0020               	movlb	0	; select bank0
 13038     04F0  00A5               	movwf	?_printf+5
 13039     04F1  0021               	movlb	1	; select bank1
 13040     04F2  0860               	movf	(main@npd+2)^(0+128),w
 13041     04F3  0020               	movlb	0	; select bank0
 13042     04F4  00A4               	movwf	?_printf+4
 13043     04F5  0021               	movlb	1	; select bank1
 13044     04F6  085F               	movf	(main@npd+1)^(0+128),w
 13045     04F7  0020               	movlb	0	; select bank0
 13046     04F8  00A3               	movwf	?_printf+3
 13047     04F9  0021               	movlb	1	; select bank1
 13048     04FA  085E               	movf	main@npd^(0+128),w
 13049     04FB  0020               	movlb	0	; select bank0
 13050     04FC  00A2               	movwf	?_printf+2
 13051     04FD  3190  2054  3180   	fcall	_printf
 13052                           
 13053                           ;main.c: 688: break;
 13054     0500  2FE6               	goto	l183
 13055     0501                     l4502:
 13056                           
 13057                           ;main.c: 691: printf("C\tRLM/%d\r\n", RA6);
 13058     0501  308F               	movlw	low (STR_62| (0+32768))
 13059     0502  00A0               	movwf	printf@f
 13060     0503  30A0               	movlw	high (STR_62| (0+32768))
 13061     0504  00A1               	movwf	printf@f+1
 13062     0505  1003               	clrc
 13063     0506  1B0C               	btfsc	12,6	;volatile
 13064     0507  1403               	setc
 13065     0508  3000               	movlw	0
 13066     0509  3D09               	addwfc	9,w
 13067     050A  00D4               	movwf	??_main
 13068     050B  01D5               	clrf	??_main+1
 13069     050C  0854               	movf	??_main,w
 13070     050D  00A2               	movwf	?_printf+2
 13071     050E  0855               	movf	??_main+1,w
 13072     050F  00A3               	movwf	?_printf+3
 13073     0510  3190  2054  3180   	fcall	_printf
 13074                           
 13075                           ;main.c: 692: break;
 13076     0513  2FE6               	goto	l183
 13077     0514                     l4504:
 13078                           
 13079                           ;main.c: 695: npos = 0;
 13080     0514  0021               	movlb	1	; select bank1
 13081     0515  01EC               	clrf	main@npos^(0+128)
 13082     0516  01ED               	clrf	(main@npos+1)^(0+128)
 13083     0517                     l4506:
 13084                           
 13085                           ;main.c: 696: printf("C\tWRP3/0\r\n");
 13086     0517  302C               	movlw	low (STR_63| (0+32768))
 13087     0518  0020               	movlb	0	; select bank0
 13088     0519  00A0               	movwf	printf@f
 13089     051A  30A0               	movlw	high (STR_63| (0+32768))
 13090     051B  00A1               	movwf	printf@f+1
 13091     051C  3190  2054  3180   	fcall	_printf
 13092                           
 13093                           ;main.c: 697: break;
 13094     051F  2FE6               	goto	l183
 13095     0520                     l4508:
 13096                           
 13097                           ;main.c: 700: printf("C\tRDC/%d\r\n", ndcnt);
 13098     0520  3063               	movlw	low (STR_64| (0+32768))
 13099     0521  00A0               	movwf	printf@f
 13100     0522  30A0               	movlw	high (STR_64| (0+32768))
 13101     0523  00A1               	movwf	printf@f+1
 13102     0524  0021               	movlb	1	; select bank1
 13103     0525  0867               	movf	(main@ndcnt+3)^(0+128),w
 13104     0526  0020               	movlb	0	; select bank0
 13105     0527  00A5               	movwf	?_printf+5
 13106     0528  0021               	movlb	1	; select bank1
 13107     0529  0866               	movf	(main@ndcnt+2)^(0+128),w
 13108     052A  0020               	movlb	0	; select bank0
 13109     052B  00A4               	movwf	?_printf+4
 13110     052C  0021               	movlb	1	; select bank1
 13111     052D  0865               	movf	(main@ndcnt+1)^(0+128),w
 13112     052E  0020               	movlb	0	; select bank0
 13113     052F  00A3               	movwf	?_printf+3
 13114     0530  0021               	movlb	1	; select bank1
 13115     0531  0864               	movf	main@ndcnt^(0+128),w
 13116     0532  0020               	movlb	0	; select bank0
 13117     0533  00A2               	movwf	?_printf+2
 13118     0534  3190  2054  3180   	fcall	_printf
 13119                           
 13120                           ;main.c: 701: break;
 13121     0537  2FE6               	goto	l183
 13122     0538                     l4510:
 13123                           
 13124                           ;main.c: 704: ndcnt = 0;
 13125     0538  3000               	movlw	0
 13126     0539  0021               	movlb	1	; select bank1
 13127     053A  00E7               	movwf	(main@ndcnt+3)^(0+128)
 13128     053B  3000               	movlw	0
 13129     053C  00E6               	movwf	(main@ndcnt+2)^(0+128)
 13130     053D  3000               	movlw	0
 13131     053E  00E5               	movwf	(main@ndcnt+1)^(0+128)
 13132     053F  3000               	movlw	0
 13133     0540  00E4               	movwf	main@ndcnt^(0+128)
 13134     0541                     l4512:
 13135                           
 13136                           ;main.c: 705: write_data_eeprom(NDCNT_ADR, ndcnt);
 13137     0541  085D               	movf	(main@NDCNT_ADR+3)^(0+128),w
 13138     0542  00F7               	movwf	write_data_eeprom@adr+3
 13139     0543  085C               	movf	(main@NDCNT_ADR+2)^(0+128),w
 13140     0544  00F6               	movwf	write_data_eeprom@adr+2
 13141     0545  085B               	movf	(main@NDCNT_ADR+1)^(0+128),w
 13142     0546  00F5               	movwf	write_data_eeprom@adr+1
 13143     0547  085A               	movf	main@NDCNT_ADR^(0+128),w
 13144     0548  00F4               	movwf	write_data_eeprom@adr
 13145     0549  0867               	movf	(main@ndcnt+3)^(0+128),w
 13146     054A  00FB               	movwf	write_data_eeprom@value+3
 13147     054B  0866               	movf	(main@ndcnt+2)^(0+128),w
 13148     054C  00FA               	movwf	write_data_eeprom@value+2
 13149     054D  0865               	movf	(main@ndcnt+1)^(0+128),w
 13150     054E  00F9               	movwf	write_data_eeprom@value+1
 13151     054F  0864               	movf	main@ndcnt^(0+128),w
 13152     0550  00F8               	movwf	write_data_eeprom@value
 13153     0551  319D  25E7  3180   	fcall	_write_data_eeprom
 13154     0554                     l4514:
 13155                           
 13156                           ;main.c: 706: printf("C\tWDC/%d\r\n", ndcnt);
 13157     0554  306E               	movlw	low (STR_65| (0+32768))
 13158     0555  0020               	movlb	0	; select bank0
 13159     0556  00A0               	movwf	printf@f
 13160     0557  30A0               	movlw	high (STR_65| (0+32768))
 13161     0558  00A1               	movwf	printf@f+1
 13162     0559  0021               	movlb	1	; select bank1
 13163     055A  0867               	movf	(main@ndcnt+3)^(0+128),w
 13164     055B  0020               	movlb	0	; select bank0
 13165     055C  00A5               	movwf	?_printf+5
 13166     055D  0021               	movlb	1	; select bank1
 13167     055E  0866               	movf	(main@ndcnt+2)^(0+128),w
 13168     055F  0020               	movlb	0	; select bank0
 13169     0560  00A4               	movwf	?_printf+4
 13170     0561  0021               	movlb	1	; select bank1
 13171     0562  0865               	movf	(main@ndcnt+1)^(0+128),w
 13172     0563  0020               	movlb	0	; select bank0
 13173     0564  00A3               	movwf	?_printf+3
 13174     0565  0021               	movlb	1	; select bank1
 13175     0566  0864               	movf	main@ndcnt^(0+128),w
 13176     0567  0020               	movlb	0	; select bank0
 13177     0568  00A2               	movwf	?_printf+2
 13178     0569  3190  2054  3180   	fcall	_printf
 13179                           
 13180                           ;main.c: 707: break;
 13181     056C  2FE6               	goto	l183
 13182     056D                     l4516:
 13183                           
 13184                           ;main.c: 710: DAC1CON1 = 0;
 13185     056D  0022               	movlb	2	; select bank2
 13186     056E  0199               	clrf	25	;volatile
 13187                           
 13188                           ;main.c: 711: break;
 13189     056F  2FE6               	goto	l183
 13190     0570                     l4518:
 13191                           
 13192                           ;main.c: 714: DAC1CON1 = 100;
 13193     0570  3064               	movlw	100
 13194     0571  0022               	movlb	2	; select bank2
 13195     0572  0099               	movwf	25	;volatile
 13196                           
 13197                           ;main.c: 715: break;
 13198     0573  2FE6               	goto	l183
 13199     0574                     l4520:
 13200                           
 13201                           ;main.c: 718: DAC1CON1 = 200;
 13202     0574  30C8               	movlw	200
 13203     0575  0022               	movlb	2	; select bank2
 13204     0576  0099               	movwf	25	;volatile
 13205                           
 13206                           ;main.c: 719: break;
 13207     0577  2FE6               	goto	l183
 13208     0578                     l4522:
 13209                           
 13210                           ;main.c: 722: DAC1CON1 = 0;
 13211     0578  0022               	movlb	2	; select bank2
 13212     0579  0199               	clrf	25	;volatile
 13213     057A                     l4524:
 13214                           
 13215                           ;main.c: 723: pzt_d = 0.0;
 13216     057A  3000               	movlw	0
 13217     057B  0021               	movlb	1	; select bank1
 13218     057C  00D5               	movwf	(main@pzt_d+3)^(0+128)
 13219     057D  3000               	movlw	0
 13220     057E  00D4               	movwf	(main@pzt_d+2)^(0+128)
 13221     057F  3000               	movlw	0
 13222     0580  00D3               	movwf	(main@pzt_d+1)^(0+128)
 13223     0581  3000               	movlw	0
 13224     0582  00D2               	movwf	main@pzt_d^(0+128)
 13225     0583                     l4526:
 13226                           
 13227                           ;main.c: 725: ptr = strtok((0), "/");
 13228     0583  3086               	movlw	low (STR_30| (0+32768))
 13229     0584  0020               	movlb	0	; select bank0
 13230     0585  00A0               	movwf	strtok@s2
 13231     0586  30A1               	movlw	high (STR_30| (0+32768))
 13232     0587  00A1               	movwf	strtok@s2+1
 13233     0588  0103               	clrw
 13234     0589  3188  2001  3180   	fcall	_strtok
 13235     058C  0022               	movlb	2	; select bank2
 13236     058D  00A2               	movwf	main@ptr^(0+256)
 13237     058E                     l4528:
 13238                           
 13239                           ;main.c: 726: if(ptr != (0)) {
 13240     058E  0822               	movf	main@ptr^(0+256),w
 13241     058F  1903               	btfsc	3,2
 13242     0590  2D92               	goto	u5981
 13243     0591  2D93               	goto	u5980
 13244     0592                     u5981:
 13245     0592  2D9C               	goto	l4532
 13246     0593                     u5980:
 13247     0593                     l4530:
 13248                           
 13249                           ;main.c: 727: pzt_l = atoi(ptr);
 13250     0593  0822               	movf	main@ptr^(0+256),w
 13251     0594  3180  202C  3180   	fcall	_atoi
 13252     0597  0877               	movf	?_atoi+1,w
 13253     0598  0021               	movlb	1	; select bank1
 13254     0599  00D7               	movwf	(main@pzt_l+1)^(0+128)
 13255     059A  0876               	movf	?_atoi,w
 13256     059B  00D6               	movwf	main@pzt_l^(0+128)
 13257     059C                     l4532:
 13258                           
 13259                           ;main.c: 728: };main.c: 729: ptr = strtok((0), "/");
 13260     059C  3086               	movlw	low (STR_30| (0+32768))
 13261     059D  0020               	movlb	0	; select bank0
 13262     059E  00A0               	movwf	strtok@s2
 13263     059F  30A1               	movlw	high (STR_30| (0+32768))
 13264     05A0  00A1               	movwf	strtok@s2+1
 13265     05A1  0103               	clrw
 13266     05A2  3188  2001  3180   	fcall	_strtok
 13267     05A5  0022               	movlb	2	; select bank2
 13268     05A6  00A2               	movwf	main@ptr^(0+256)
 13269     05A7                     l4534:
 13270                           
 13271                           ;main.c: 730: if(ptr != (0)) {
 13272     05A7  0822               	movf	main@ptr^(0+256),w
 13273     05A8  1903               	btfsc	3,2
 13274     05A9  2DAB               	goto	u5991
 13275     05AA  2DAC               	goto	u5990
 13276     05AB                     u5991:
 13277     05AB  2DB5               	goto	l4538
 13278     05AC                     u5990:
 13279     05AC                     l4536:
 13280                           
 13281                           ;main.c: 731: pzt_t = atoi(ptr);
 13282     05AC  0822               	movf	main@ptr^(0+256),w
 13283     05AD  3180  202C  3180   	fcall	_atoi
 13284     05B0  0877               	movf	?_atoi+1,w
 13285     05B1  0020               	movlb	0	; select bank0
 13286     05B2  00EE               	movwf	main@pzt_t+1
 13287     05B3  0876               	movf	?_atoi,w
 13288     05B4  00ED               	movwf	main@pzt_t
 13289     05B5                     l4538:
 13290                           
 13291                           ;main.c: 732: };main.c: 733: pzt_l_d = 2.55 * pzt_l / pzt_t;
 13292     05B5  0020               	movlb	0	; select bank0
 13293     05B6  086D               	movf	main@pzt_t,w
 13294     05B7  00F0               	movwf	___xxtofl@val
 13295     05B8  086E               	movf	main@pzt_t+1,w
 13296     05B9  00F1               	movwf	___xxtofl@val+1
 13297     05BA  0D89               	rlf	9,f
 13298     05BB  3B89               	subwfb	9,f
 13299     05BC  0989               	comf	9,f
 13300     05BD  00F2               	movwf	___xxtofl@val+2
 13301     05BE  00F3               	movwf	___xxtofl@val+3
 13302     05BF  3001               	movlw	1
 13303     05C0  319F  2756  3180   	fcall	___xxtofl
 13304     05C3  0873               	movf	?___xxtofl+3,w
 13305     05C4  0020               	movlb	0	; select bank0
 13306     05C5  00BD               	movwf	___fldiv@a+3
 13307     05C6  0872               	movf	?___xxtofl+2,w
 13308     05C7  00BC               	movwf	___fldiv@a+2
 13309     05C8  0871               	movf	?___xxtofl+1,w
 13310     05C9  00BB               	movwf	___fldiv@a+1
 13311     05CA  0870               	movf	?___xxtofl,w
 13312     05CB  00BA               	movwf	___fldiv@a
 13313     05CC  3040               	movlw	64
 13314     05CD  00A3               	movwf	___flmul@b+3
 13315     05CE  3023               	movlw	35
 13316     05CF  00A2               	movwf	___flmul@b+2
 13317     05D0  3033               	movlw	51
 13318     05D1  00A1               	movwf	___flmul@b+1
 13319     05D2  3033               	movlw	51
 13320     05D3  00A0               	movwf	___flmul@b
 13321     05D4  0021               	movlb	1	; select bank1
 13322     05D5  0856               	movf	main@pzt_l^(0+128),w
 13323     05D6  00F0               	movwf	___xxtofl@val
 13324     05D7  0857               	movf	(main@pzt_l+1)^(0+128),w
 13325     05D8  00F1               	movwf	___xxtofl@val+1
 13326     05D9  0D89               	rlf	9,f
 13327     05DA  3B89               	subwfb	9,f
 13328     05DB  0989               	comf	9,f
 13329     05DC  00F2               	movwf	___xxtofl@val+2
 13330     05DD  00F3               	movwf	___xxtofl@val+3
 13331     05DE  3001               	movlw	1
 13332     05DF  319F  2756  3180   	fcall	___xxtofl
 13333     05E2  0873               	movf	?___xxtofl+3,w
 13334     05E3  0020               	movlb	0	; select bank0
 13335     05E4  00A7               	movwf	___flmul@a+3
 13336     05E5  0872               	movf	?___xxtofl+2,w
 13337     05E6  00A6               	movwf	___flmul@a+2
 13338     05E7  0871               	movf	?___xxtofl+1,w
 13339     05E8  00A5               	movwf	___flmul@a+1
 13340     05E9  0870               	movf	?___xxtofl,w
 13341     05EA  00A4               	movwf	___flmul@a
 13342     05EB  318D  25C5  3180   	fcall	___flmul
 13343     05EE  0020               	movlb	0	; select bank0
 13344     05EF  0823               	movf	?___flmul+3,w
 13345     05F0  00C1               	movwf	___fldiv@b+3
 13346     05F1  0822               	movf	?___flmul+2,w
 13347     05F2  00C0               	movwf	___fldiv@b+2
 13348     05F3  0821               	movf	?___flmul+1,w
 13349     05F4  00BF               	movwf	___fldiv@b+1
 13350     05F5  0820               	movf	?___flmul,w
 13351     05F6  00BE               	movwf	___fldiv@b
 13352     05F7  3188  2054  3180   	fcall	___fldiv
 13353     05FA  0020               	movlb	0	; select bank0
 13354     05FB  083D               	movf	?___fldiv+3,w
 13355     05FC  00E0               	movwf	main@pzt_l_d+3
 13356     05FD  083C               	movf	?___fldiv+2,w
 13357     05FE  00DF               	movwf	main@pzt_l_d+2
 13358     05FF  083B               	movf	?___fldiv+1,w
 13359     0600  00DE               	movwf	main@pzt_l_d+1
 13360     0601  083A               	movf	?___fldiv,w
 13361     0602  00DD               	movwf	main@pzt_l_d
 13362     0603                     l4540:
 13363                           
 13364                           ;main.c: 735: for (int k = 0; k < pzt_t ; k++){
 13365     0603  01E5               	clrf	main@k_294
 13366     0604  01E6               	clrf	main@k_294+1
 13367     0605  2E44               	goto	l356
 13368     0606                     l4542:
 13369                           
 13370                           ;main.c: 736: _delay((unsigned long)((100)*(4000000/4000000.0))) ;
 13371     0606  3021               	movlw	33
 13372     0607                     u6077:
 13373     0607  0B89               	decfsz	9,f
 13374     0608  2E07               	goto	u6077
 13375     0609  0000               	nop
 13376     060A                     l4544:
 13377                           
 13378                           ;main.c: 737: DAC1CON1 = (int)pzt_d;
 13379     060A  0021               	movlb	1	; select bank1
 13380     060B  0855               	movf	(main@pzt_d+3)^(0+128),w
 13381     060C  0020               	movlb	0	; select bank0
 13382     060D  00BD               	movwf	___fltol@f1+3
 13383     060E  0021               	movlb	1	; select bank1
 13384     060F  0854               	movf	(main@pzt_d+2)^(0+128),w
 13385     0610  0020               	movlb	0	; select bank0
 13386     0611  00BC               	movwf	___fltol@f1+2
 13387     0612  0021               	movlb	1	; select bank1
 13388     0613  0853               	movf	(main@pzt_d+1)^(0+128),w
 13389     0614  0020               	movlb	0	; select bank0
 13390     0615  00BB               	movwf	___fltol@f1+1
 13391     0616  0021               	movlb	1	; select bank1
 13392     0617  0852               	movf	main@pzt_d^(0+128),w
 13393     0618  0020               	movlb	0	; select bank0
 13394     0619  00BA               	movwf	___fltol@f1
 13395     061A  319E  26E5  3180   	fcall	___fltol
 13396     061D  0020               	movlb	0	; select bank0
 13397     061E  083A               	movf	?___fltol,w
 13398     061F  0022               	movlb	2	; select bank2
 13399     0620  0099               	movwf	25	;volatile
 13400     0621                     l4546:
 13401                           
 13402                           ;main.c: 738: pzt_d = pzt_d + pzt_l_d;
 13403     0621  0020               	movlb	0	; select bank0
 13404     0622  0860               	movf	main@pzt_l_d+3,w
 13405     0623  00F3               	movwf	___fladd@b+3
 13406     0624  085F               	movf	main@pzt_l_d+2,w
 13407     0625  00F2               	movwf	___fladd@b+2
 13408     0626  085E               	movf	main@pzt_l_d+1,w
 13409     0627  00F1               	movwf	___fladd@b+1
 13410     0628  085D               	movf	main@pzt_l_d,w
 13411     0629  00F0               	movwf	___fladd@b
 13412     062A  0021               	movlb	1	; select bank1
 13413     062B  0855               	movf	(main@pzt_d+3)^(0+128),w
 13414     062C  00F7               	movwf	___fladd@a+3
 13415     062D  0854               	movf	(main@pzt_d+2)^(0+128),w
 13416     062E  00F6               	movwf	___fladd@a+2
 13417     062F  0853               	movf	(main@pzt_d+1)^(0+128),w
 13418     0630  00F5               	movwf	___fladd@a+1
 13419     0631  0852               	movf	main@pzt_d^(0+128),w
 13420     0632  00F4               	movwf	___fladd@a
 13421     0633  318B  23B9  3180   	fcall	___fladd
 13422     0636  0873               	movf	?___fladd+3,w
 13423     0637  0021               	movlb	1	; select bank1
 13424     0638  00D5               	movwf	(main@pzt_d+3)^(0+128)
 13425     0639  0872               	movf	?___fladd+2,w
 13426     063A  00D4               	movwf	(main@pzt_d+2)^(0+128)
 13427     063B  0871               	movf	?___fladd+1,w
 13428     063C  00D3               	movwf	(main@pzt_d+1)^(0+128)
 13429     063D  0870               	movf	?___fladd,w
 13430     063E  00D2               	movwf	main@pzt_d^(0+128)
 13431     063F  3001               	movlw	1
 13432     0640  0020               	movlb	0	; select bank0
 13433     0641  07E5               	addwf	main@k_294,f
 13434     0642  3000               	movlw	0
 13435     0643  3DE6               	addwfc	main@k_294+1,f
 13436     0644                     l356:
 13437     0644  0866               	movf	main@k_294+1,w
 13438     0645  3A80               	xorlw	128
 13439     0646  00D4               	movwf	??_main
 13440     0647  086E               	movf	main@pzt_t+1,w
 13441     0648  3A80               	xorlw	128
 13442     0649  0254               	subwf	??_main,w
 13443     064A  1D03               	skipz
 13444     064B  2E4E               	goto	u6005
 13445     064C  086D               	movf	main@pzt_t,w
 13446     064D  0265               	subwf	main@k_294,w
 13447     064E                     u6005:
 13448     064E  1C03               	skipc
 13449     064F  2E51               	goto	u6001
 13450     0650  2E52               	goto	u6000
 13451     0651                     u6001:
 13452     0651  2E06               	goto	l4542
 13453     0652                     u6000:
 13454     0652                     l4548:
 13455                           
 13456                           ;main.c: 739: };main.c: 740: DAC1CON1 = 0;
 13457     0652  0022               	movlb	2	; select bank2
 13458     0653  0199               	clrf	25	;volatile
 13459     0654                     l4550:
 13460                           
 13461                           ;main.c: 741: printf("C\tPMV\r\n");
 13462     0654  300A               	movlw	low (STR_68| (0+32768))
 13463     0655  0020               	movlb	0	; select bank0
 13464     0656  00A0               	movwf	printf@f
 13465     0657  30A1               	movlw	high (STR_68| (0+32768))
 13466     0658  00A1               	movwf	printf@f+1
 13467     0659  3190  2054  3180   	fcall	_printf
 13468                           
 13469                           ;main.c: 743: break;
 13470     065C  2FE6               	goto	l183
 13471     065D                     l4552:
 13472                           
 13473                           ;main.c: 747: ptr = strtok((0), "/");
 13474     065D  3086               	movlw	low (STR_30| (0+32768))
 13475     065E  00A0               	movwf	strtok@s2
 13476     065F  30A1               	movlw	high (STR_30| (0+32768))
 13477     0660  00A1               	movwf	strtok@s2+1
 13478     0661  0103               	clrw
 13479     0662  3188  2001  3180   	fcall	_strtok
 13480     0665  0022               	movlb	2	; select bank2
 13481     0666  00A2               	movwf	main@ptr^(0+256)
 13482     0667                     l4554:
 13483                           
 13484                           ;main.c: 748: if(ptr != (0)) {
 13485     0667  0822               	movf	main@ptr^(0+256),w
 13486     0668  1903               	btfsc	3,2
 13487     0669  2E6B               	goto	u6011
 13488     066A  2E6C               	goto	u6010
 13489     066B                     u6011:
 13490     066B  2E75               	goto	l4558
 13491     066C                     u6010:
 13492     066C                     l4556:
 13493                           
 13494                           ;main.c: 749: pzt_l = atoi(ptr);
 13495     066C  0822               	movf	main@ptr^(0+256),w
 13496     066D  3180  202C  3180   	fcall	_atoi
 13497     0670  0877               	movf	?_atoi+1,w
 13498     0671  0021               	movlb	1	; select bank1
 13499     0672  00D7               	movwf	(main@pzt_l+1)^(0+128)
 13500     0673  0876               	movf	?_atoi,w
 13501     0674  00D6               	movwf	main@pzt_l^(0+128)
 13502     0675                     l4558:
 13503                           
 13504                           ;main.c: 750: };main.c: 751: c_pzt = (int)(2.55 * pzt_l);
 13505     0675  0021               	movlb	1	; select bank1
 13506     0676  0856               	movf	main@pzt_l^(0+128),w
 13507     0677  00F0               	movwf	___xxtofl@val
 13508     0678  0857               	movf	(main@pzt_l+1)^(0+128),w
 13509     0679  00F1               	movwf	___xxtofl@val+1
 13510     067A  0D89               	rlf	9,f
 13511     067B  3B89               	subwfb	9,f
 13512     067C  0989               	comf	9,f
 13513     067D  00F2               	movwf	___xxtofl@val+2
 13514     067E  00F3               	movwf	___xxtofl@val+3
 13515     067F  3001               	movlw	1
 13516     0680  319F  2756  3180   	fcall	___xxtofl
 13517     0683  0873               	movf	?___xxtofl+3,w
 13518     0684  0020               	movlb	0	; select bank0
 13519     0685  00A7               	movwf	___flmul@a+3
 13520     0686  0872               	movf	?___xxtofl+2,w
 13521     0687  00A6               	movwf	___flmul@a+2
 13522     0688  0871               	movf	?___xxtofl+1,w
 13523     0689  00A5               	movwf	___flmul@a+1
 13524     068A  0870               	movf	?___xxtofl,w
 13525     068B  00A4               	movwf	___flmul@a
 13526     068C  3040               	movlw	64
 13527     068D  00A3               	movwf	___flmul@b+3
 13528     068E  3023               	movlw	35
 13529     068F  00A2               	movwf	___flmul@b+2
 13530     0690  3033               	movlw	51
 13531     0691  00A1               	movwf	___flmul@b+1
 13532     0692  3033               	movlw	51
 13533     0693  00A0               	movwf	___flmul@b
 13534     0694  318D  25C5  3180   	fcall	___flmul
 13535     0697  0020               	movlb	0	; select bank0
 13536     0698  0823               	movf	?___flmul+3,w
 13537     0699  00BD               	movwf	___fltol@f1+3
 13538     069A  0822               	movf	?___flmul+2,w
 13539     069B  00BC               	movwf	___fltol@f1+2
 13540     069C  0821               	movf	?___flmul+1,w
 13541     069D  00BB               	movwf	___fltol@f1+1
 13542     069E  0820               	movf	?___flmul,w
 13543     069F  00BA               	movwf	___fltol@f1
 13544     06A0  319E  26E5  3180   	fcall	___fltol
 13545     06A3  0020               	movlb	0	; select bank0
 13546     06A4  083B               	movf	?___fltol+1,w
 13547     06A5  0021               	movlb	1	; select bank1
 13548     06A6  00E3               	movwf	(main@c_pzt+1)^(0+128)
 13549     06A7  0020               	movlb	0	; select bank0
 13550     06A8  083A               	movf	?___fltol,w
 13551     06A9  0021               	movlb	1	; select bank1
 13552     06AA  00E2               	movwf	main@c_pzt^(0+128)
 13553     06AB                     l4560:
 13554                           
 13555                           ;main.c: 752: DAC1CON1 = c_pzt;
 13556     06AB  0862               	movf	main@c_pzt^(0+128),w
 13557     06AC  0022               	movlb	2	; select bank2
 13558     06AD  0099               	movwf	25	;volatile
 13559     06AE                     l4562:
 13560                           
 13561                           ;main.c: 753: printf("C\tPMA\r\n");
 13562     06AE  30BA               	movlw	low (STR_70| (0+32768))
 13563     06AF  0020               	movlb	0	; select bank0
 13564     06B0  00A0               	movwf	printf@f
 13565     06B1  30A0               	movlw	high (STR_70| (0+32768))
 13566     06B2  00A1               	movwf	printf@f+1
 13567     06B3  3190  2054  3180   	fcall	_printf
 13568                           
 13569                           ;main.c: 755: break;
 13570     06B6  2FE6               	goto	l183
 13571     06B7                     l4564:
 13572                           
 13573                           ;main.c: 759: ptr = strtok((0), "/");
 13574     06B7  3086               	movlw	low (STR_30| (0+32768))
 13575     06B8  00A0               	movwf	strtok@s2
 13576     06B9  30A1               	movlw	high (STR_30| (0+32768))
 13577     06BA  00A1               	movwf	strtok@s2+1
 13578     06BB  0103               	clrw
 13579     06BC  3188  2001  3180   	fcall	_strtok
 13580     06BF  0022               	movlb	2	; select bank2
 13581     06C0  00A2               	movwf	main@ptr^(0+256)
 13582     06C1                     l4566:
 13583                           
 13584                           ;main.c: 760: if(ptr != (0)) {
 13585     06C1  0822               	movf	main@ptr^(0+256),w
 13586     06C2  1903               	btfsc	3,2
 13587     06C3  2EC5               	goto	u6021
 13588     06C4  2EC6               	goto	u6020
 13589     06C5                     u6021:
 13590     06C5  2ECF               	goto	l4570
 13591     06C6                     u6020:
 13592     06C6                     l4568:
 13593                           
 13594                           ;main.c: 761: pzt_l = atoi(ptr);
 13595     06C6  0822               	movf	main@ptr^(0+256),w
 13596     06C7  3180  202C  3180   	fcall	_atoi
 13597     06CA  0877               	movf	?_atoi+1,w
 13598     06CB  0021               	movlb	1	; select bank1
 13599     06CC  00D7               	movwf	(main@pzt_l+1)^(0+128)
 13600     06CD  0876               	movf	?_atoi,w
 13601     06CE  00D6               	movwf	main@pzt_l^(0+128)
 13602     06CF                     l4570:
 13603                           
 13604                           ;main.c: 762: };main.c: 763: c_pzt = c_pzt + (int)(2.55 * pzt_l);
 13605     06CF  0021               	movlb	1	; select bank1
 13606     06D0  0856               	movf	main@pzt_l^(0+128),w
 13607     06D1  00F0               	movwf	___xxtofl@val
 13608     06D2  0857               	movf	(main@pzt_l+1)^(0+128),w
 13609     06D3  00F1               	movwf	___xxtofl@val+1
 13610     06D4  0D89               	rlf	9,f
 13611     06D5  3B89               	subwfb	9,f
 13612     06D6  0989               	comf	9,f
 13613     06D7  00F2               	movwf	___xxtofl@val+2
 13614     06D8  00F3               	movwf	___xxtofl@val+3
 13615     06D9  3001               	movlw	1
 13616     06DA  319F  2756  3180   	fcall	___xxtofl
 13617     06DD  0873               	movf	?___xxtofl+3,w
 13618     06DE  0020               	movlb	0	; select bank0
 13619     06DF  00A7               	movwf	___flmul@a+3
 13620     06E0  0872               	movf	?___xxtofl+2,w
 13621     06E1  00A6               	movwf	___flmul@a+2
 13622     06E2  0871               	movf	?___xxtofl+1,w
 13623     06E3  00A5               	movwf	___flmul@a+1
 13624     06E4  0870               	movf	?___xxtofl,w
 13625     06E5  00A4               	movwf	___flmul@a
 13626     06E6  3040               	movlw	64
 13627     06E7  00A3               	movwf	___flmul@b+3
 13628     06E8  3023               	movlw	35
 13629     06E9  00A2               	movwf	___flmul@b+2
 13630     06EA  3033               	movlw	51
 13631     06EB  00A1               	movwf	___flmul@b+1
 13632     06EC  3033               	movlw	51
 13633     06ED  00A0               	movwf	___flmul@b
 13634     06EE  318D  25C5  3180   	fcall	___flmul
 13635     06F1  0020               	movlb	0	; select bank0
 13636     06F2  0823               	movf	?___flmul+3,w
 13637     06F3  00BD               	movwf	___fltol@f1+3
 13638     06F4  0822               	movf	?___flmul+2,w
 13639     06F5  00BC               	movwf	___fltol@f1+2
 13640     06F6  0821               	movf	?___flmul+1,w
 13641     06F7  00BB               	movwf	___fltol@f1+1
 13642     06F8  0820               	movf	?___flmul,w
 13643     06F9  00BA               	movwf	___fltol@f1
 13644     06FA  319E  26E5  3180   	fcall	___fltol
 13645     06FD  0021               	movlb	1	; select bank1
 13646     06FE  0862               	movf	main@c_pzt^(0+128),w
 13647     06FF  0020               	movlb	0	; select bank0
 13648     0700  073A               	addwf	?___fltol,w
 13649     0701  0021               	movlb	1	; select bank1
 13650     0702  00E2               	movwf	main@c_pzt^(0+128)
 13651     0703  0863               	movf	(main@c_pzt+1)^(0+128),w
 13652     0704  0020               	movlb	0	; select bank0
 13653     0705  3D3B               	addwfc	?___fltol+1,w
 13654     0706  0021               	movlb	1	; select bank1
 13655     0707  00E3               	movwf	(main@c_pzt+1)^(0+128)
 13656     0708                     l4572:
 13657                           
 13658                           ;main.c: 764: if(c_pzt < 0){
 13659     0708  1FE3               	btfss	(main@c_pzt+1)^(0+128),7
 13660     0709  2F0B               	goto	u6031
 13661     070A  2F0C               	goto	u6030
 13662     070B                     u6031:
 13663     070B  2F0E               	goto	l4576
 13664     070C                     u6030:
 13665     070C                     l4574:
 13666                           
 13667                           ;main.c: 765: c_pzt = 0;
 13668     070C  01E2               	clrf	main@c_pzt^(0+128)
 13669     070D  01E3               	clrf	(main@c_pzt+1)^(0+128)
 13670     070E                     l4576:
 13671                           
 13672                           ;main.c: 766: };main.c: 767: if(c_pzt > 255){
 13673     070E  0863               	movf	(main@c_pzt+1)^(0+128),w
 13674     070F  3A80               	xorlw	128
 13675     0710  0020               	movlb	0	; select bank0
 13676     0711  00D4               	movwf	??_main
 13677     0712  3081               	movlw	129
 13678     0713  0254               	subwf	??_main,w
 13679     0714  1D03               	skipz
 13680     0715  2F19               	goto	u6045
 13681     0716  3000               	movlw	0
 13682     0717  0021               	movlb	1	; select bank1
 13683     0718  0262               	subwf	main@c_pzt^(0+128),w
 13684     0719                     u6045:
 13685     0719  1C03               	skipc
 13686     071A  2F1C               	goto	u6041
 13687     071B  2F1D               	goto	u6040
 13688     071C                     u6041:
 13689     071C  2F22               	goto	l364
 13690     071D                     u6040:
 13691     071D                     l4578:
 13692                           
 13693                           ;main.c: 768: c_pzt = 255;
 13694     071D  30FF               	movlw	255
 13695     071E  0021               	movlb	1	; select bank1
 13696     071F  00E2               	movwf	main@c_pzt^(0+128)
 13697     0720  3000               	movlw	0
 13698     0721  00E3               	movwf	(main@c_pzt^(0+128)+1)
 13699     0722                     l364:
 13700                           
 13701                           ;main.c: 769: };main.c: 771: DAC1CON1 = c_pzt;
 13702     0722  0021               	movlb	1	; select bank1
 13703     0723  0862               	movf	main@c_pzt^(0+128),w
 13704     0724  0022               	movlb	2	; select bank2
 13705     0725  0099               	movwf	25	;volatile
 13706     0726                     l4580:
 13707                           
 13708                           ;main.c: 772: printf("C\tPMR\r\n");
 13709     0726  30FA               	movlw	low (STR_72| (0+32768))
 13710     0727  0020               	movlb	0	; select bank0
 13711     0728  00A0               	movwf	printf@f
 13712     0729  30A0               	movlw	high (STR_72| (0+32768))
 13713     072A  00A1               	movwf	printf@f+1
 13714     072B  3190  2054  3180   	fcall	_printf
 13715                           
 13716                           ;main.c: 774: break;
 13717     072E  2FE6               	goto	l183
 13718     072F                     l4582:
 13719                           
 13720                           ;main.c: 777: printf("C\tRPP/%d\r\n", c_pzt);
 13721     072F  30A5               	movlw	low (STR_73| (0+32768))
 13722     0730  00A0               	movwf	printf@f
 13723     0731  30A0               	movlw	high (STR_73| (0+32768))
 13724     0732  00A1               	movwf	printf@f+1
 13725     0733  0021               	movlb	1	; select bank1
 13726     0734  0863               	movf	(main@c_pzt+1)^(0+128),w
 13727     0735  0020               	movlb	0	; select bank0
 13728     0736  00A3               	movwf	?_printf+3
 13729     0737  0021               	movlb	1	; select bank1
 13730     0738  0862               	movf	main@c_pzt^(0+128),w
 13731     0739  0020               	movlb	0	; select bank0
 13732     073A  00A2               	movwf	?_printf+2
 13733     073B  3190  2054  3180   	fcall	_printf
 13734                           
 13735                           ;main.c: 779: break;
 13736     073E  2FE6               	goto	l183
 13737     073F                     l4584:
 13738                           
 13739                           ;main.c: 782: val = 0;
 13740     073F  01E3               	clrf	main@val
 13741     0740  01E4               	clrf	main@val+1
 13742                           
 13743                           ;main.c: 783: for (int k = 0; k < 10 ; k++){
 13744     0741  0021               	movlb	1	; select bank1
 13745     0742  01D0               	clrf	main@k_301^(0+128)
 13746     0743  01D1               	clrf	(main@k_301+1)^(0+128)
 13747     0744                     l4586:
 13748     0744  0851               	movf	(main@k_301+1)^(0+128),w
 13749     0745  3A80               	xorlw	128
 13750     0746  0020               	movlb	0	; select bank0
 13751     0747  00D4               	movwf	??_main
 13752     0748  3080               	movlw	128
 13753     0749  0254               	subwf	??_main,w
 13754     074A  1D03               	skipz
 13755     074B  2F4F               	goto	u6055
 13756     074C  300A               	movlw	10
 13757     074D  0021               	movlb	1	; select bank1
 13758     074E  0250               	subwf	main@k_301^(0+128),w
 13759     074F                     u6055:
 13760     074F  1C03               	skipc
 13761     0750  2F52               	goto	u6051
 13762     0751  2F53               	goto	u6050
 13763     0752                     u6051:
 13764     0752  2F54               	goto	l4590
 13765     0753                     u6050:
 13766     0753  2FE6               	goto	l183
 13767     0754                     l4590:
 13768                           
 13769                           ;main.c: 784: val = AD_convert(1);
 13770     0754  3001               	movlw	1
 13771     0755  319C  2463  3180   	fcall	_AD_convert
 13772     0758  0871               	movf	?_AD_convert+1,w
 13773     0759  0020               	movlb	0	; select bank0
 13774     075A  00E4               	movwf	main@val+1
 13775     075B  0870               	movf	?_AD_convert,w
 13776     075C  00E3               	movwf	main@val
 13777     075D                     l4592:
 13778                           
 13779                           ;main.c: 785: printf("C\tAIN = %u\n", val);
 13780     075D  3020               	movlw	low (STR_74| (0+32768))
 13781     075E  00A0               	movwf	printf@f
 13782     075F  30A0               	movlw	high (STR_74| (0+32768))
 13783     0760  00A1               	movwf	printf@f+1
 13784     0761  0864               	movf	main@val+1,w
 13785     0762  00A3               	movwf	?_printf+3
 13786     0763  0863               	movf	main@val,w
 13787     0764  00A2               	movwf	?_printf+2
 13788     0765  3190  2054  3180   	fcall	_printf
 13789     0768                     l4594:
 13790                           
 13791                           ;main.c: 786: _delay((unsigned long)((500)*(4000000/4000.0))) ;
 13792     0768  3003               	movlw	3
 13793     0769  0020               	movlb	0	; select bank0
 13794     076A  00D5               	movwf	??_main+1
 13795     076B  308A               	movlw	138
 13796     076C  00D4               	movwf	??_main
 13797     076D  3055               	movlw	85
 13798     076E                     u6087:
 13799     076E  0B89               	decfsz	9,f
 13800     076F  2F6E               	goto	u6087
 13801     0770  0BD4               	decfsz	??_main,f
 13802     0771  2F6E               	goto	u6087
 13803     0772  0BD5               	decfsz	??_main+1,f
 13804     0773  2F6E               	goto	u6087
 13805     0774  3200               	nop2
 13806     0775                     l4596:
 13807     0775  3001               	movlw	1
 13808     0776  0021               	movlb	1	; select bank1
 13809     0777  07D0               	addwf	main@k_301^(0+128),f
 13810     0778  3000               	movlw	0
 13811     0779  3DD1               	addwfc	(main@k_301+1)^(0+128),f
 13812     077A  2F44               	goto	l4586
 13813     077B                     l4600:
 13814                           
 13815                           ;main.c: 791: printf("C\tREADY\r\n");
 13816     077B  30B0               	movlw	low (STR_75| (0+32768))
 13817     077C  00A0               	movwf	printf@f
 13818     077D  30A0               	movlw	high (STR_75| (0+32768))
 13819     077E  00A1               	movwf	printf@f+1
 13820     077F  3190  2054  3180   	fcall	_printf
 13821                           
 13822                           ;main.c: 792: break;
 13823     0782  2FE6               	goto	l183
 13824     0783                     l4602:
 13825                           
 13826                           ;main.c: 795: printf("C\tFS-CONT VERSION 0\r\n");
 13827     0783  300A               	movlw	low (STR_76| (0+32768))
 13828     0784  00A0               	movwf	printf@f
 13829     0785  30A0               	movlw	high (STR_76| (0+32768))
 13830     0786  00A1               	movwf	printf@f+1
 13831     0787  3190  2054  3180   	fcall	_printf
 13832                           
 13833                           ;main.c: 796: break;
 13834     078A  2FE6               	goto	l183
 13835     078B                     l4606:
 13836     078B  086F               	movf	main@cmd,w
 13837                           
 13838                           ; Switch size 1, requested type "simple"
 13839                           ; Number of cases is 29, Range of values is 0 to 28
 13840                           ; switch strategies available:
 13841                           ; Name         Instructions Cycles
 13842                           ; direct_byte           64     6 (fixed)
 13843                           ; simple_byte           88    45 (average)
 13844                           ; jumptable            260     6 (fixed)
 13845                           ;	Chosen strategy is simple_byte
 13846     078C  3A00               	xorlw	0	; case 0
 13847     078D  1903               	skipnz
 13848     078E  2FF1               	goto	L2
 13849     078F  3A01               	xorlw	1	; case 1
 13850     0790  1903               	skipnz
 13851     0791  2FF5               	goto	L7
 13852     0792  3A03               	xorlw	3	; case 2
 13853     0793  1903               	skipnz
 13854     0794  2FF3               	goto	L5
 13855     0795  3A01               	xorlw	1	; case 3
 13856     0796  1903               	skipnz
 13857     0797  2C5E               	goto	l4478
 13858     0798  3A07               	xorlw	7	; case 4
 13859     0799  1903               	skipnz
 13860     079A  2FF7               	goto	L9
 13861     079B  3A01               	xorlw	1	; case 5
 13862     079C  3196  1903         	skipnz
 13863     079E  2EBA  3180         	goto	l4280
 13864     07A0  3A03               	xorlw	3	; case 6
 13865     07A1  1903               	skipnz
 13866     07A2  2FF9               	goto	L12
 13867     07A3  3A01               	xorlw	1	; case 7
 13868     07A4  1903               	skipnz
 13869     07A5  28AA               	goto	l4332
 13870     07A6  3A0F               	xorlw	15	; case 8
 13871     07A7  1903               	skipnz
 13872     07A8  29B7               	goto	l4376
 13873     07A9  3A01               	xorlw	1	; case 9
 13874     07AA  1903               	skipnz
 13875     07AB  2CA8               	goto	l4488
 13876     07AC  3A03               	xorlw	3	; case 10
 13877     07AD  1903               	skipnz
 13878     07AE  2ADC               	goto	l4426
 13879     07AF  3A01               	xorlw	1	; case 11
 13880     07B0  1903               	skipnz
 13881     07B1  2B3F               	goto	l4442
 13882     07B2  3A07               	xorlw	7	; case 12
 13883     07B3  1903               	skipnz
 13884     07B4  2CC9               	goto	l4496
 13885     07B5  3A01               	xorlw	1	; case 13
 13886     07B6  1903               	skipnz
 13887     07B7  2CD9               	goto	l4498
 13888     07B8  3A03               	xorlw	3	; case 14
 13889     07B9  1903               	skipnz
 13890     07BA  2CE9               	goto	l4500
 13891     07BB  3A01               	xorlw	1	; case 15
 13892     07BC  1903               	skipnz
 13893     07BD  2D01               	goto	l4502
 13894     07BE  3A1F               	xorlw	31	; case 16
 13895     07BF  1903               	skipnz
 13896     07C0  2D14               	goto	l4504
 13897     07C1  3A01               	xorlw	1	; case 17
 13898     07C2  1903               	skipnz
 13899     07C3  2D20               	goto	l4508
 13900     07C4  3A03               	xorlw	3	; case 18
 13901     07C5  1903               	skipnz
 13902     07C6  2D38               	goto	l4510
 13903     07C7  3A01               	xorlw	1	; case 19
 13904     07C8  1903               	skipnz
 13905     07C9  2F83               	goto	l4602
 13906     07CA  3A07               	xorlw	7	; case 20
 13907     07CB  1903               	skipnz
 13908     07CC  2F7B               	goto	l4600
 13909     07CD  3A01               	xorlw	1	; case 21
 13910     07CE  1903               	skipnz
 13911     07CF  2D6D               	goto	l4516
 13912     07D0  3A03               	xorlw	3	; case 22
 13913     07D1  1903               	skipnz
 13914     07D2  2D70               	goto	l4518
 13915     07D3  3A01               	xorlw	1	; case 23
 13916     07D4  1903               	skipnz
 13917     07D5  2D74               	goto	l4520
 13918     07D6  3A0F               	xorlw	15	; case 24
 13919     07D7  1903               	skipnz
 13920     07D8  2D78               	goto	l4522
 13921     07D9  3A01               	xorlw	1	; case 25
 13922     07DA  1903               	skipnz
 13923     07DB  2E5D               	goto	l4552
 13924     07DC  3A03               	xorlw	3	; case 26
 13925     07DD  1903               	skipnz
 13926     07DE  2EB7               	goto	l4564
 13927     07DF  3A01               	xorlw	1	; case 27
 13928     07E0  1903               	skipnz
 13929     07E1  2F2F               	goto	l4582
 13930     07E2  3A07               	xorlw	7	; case 28
 13931     07E3  1903               	skipnz
 13932     07E4  2F3F               	goto	l4584
 13933     07E5  2FE6               	goto	l183
 13934     07E6                     l183:
 13935                           
 13936                           ;main.c: 806: RA3 = 0;
 13937     07E6  0020               	movlb	0	; select bank0
 13938     07E7  118C               	bcf	12,3	;volatile
 13939                           
 13940                           ;main.c: 808: if(RB0 == 0){
 13941     07E8  180D               	btfsc	13,0	;volatile
 13942     07E9  2FEB               	goto	u6061
 13943     07EA  2FED               	goto	u6060
 13944     07EB                     u6061:
 13945     07EB  3196  2E71         	goto	l3978
 13946     07ED                     u6060:
 13947     07ED                     l4608:
 13948                           
 13949                           ;main.c: 809: RA7 = 1;
 13950     07ED  178C               	bsf	12,7	;volatile
 13951     07EE  2FEB               	goto	u6061
 13952     07EF  3180  2802         	ljmp	start
 13953     07F1                     L2:
 13954     07F1                     __end_of_main:
 13955     07F1  318A  2AFB         	ljmp	l4136
 13956     07F3                     L5:
 13957     07F3                     L4:
 13958     07F3  3195  2D47         	ljmp	l4194
 13959     07F5                     L7:
 13960     07F5                     L6:
 13961     07F5  3194  2CD7         	ljmp	l4178
 13962     07F7                     L9:
 13963     07F7                     L8:
 13964     07F7  3193  2B3B         	ljmp	l4204
 13965     07F9                     L12:
 13966     07F9                     L11:
 13967     07F9  3197  2F8E         	ljmp	l4312

Data Sizes:
    Strings     382
    Constant    10
    Data        0
    BSS         1
    Persistent  32
    Stack       0

Auto Spaces:
    Space          Size  Autos    Used
    COMMON           14     14      14
    BANK0            80     80      80
    BANK1            80     80      80
    BANK2            80      7       8
    BANK3            80      0       0
    BANK4            80      0       0
    BANK5            80      0       0
    BANK6            80      0       0
    BANK7            80      0       0
    BANK8            80      0       0
    BANK9            80      0       0
    BANK10           80      0       0
    BANK11           80      0       0
    BANK12           80      0       0
    BANK13           80      0       0
    BANK14           80      0       0
    BANK15           80      0       0
    BANK16           80      0       0
    BANK17           80      0       0
    BANK18           80      0       0
    BANK19           80      0       0
    BANK20           80      0       0
    BANK21           80      0       0
    BANK22           80      0       0
    BANK23           80      0       0
    BANK24           80      0       0
    BANK25           32      0       0

Pointer List with Targets:

    strspn@s2	PTR const unsigned char  size(2) Largest target is 2
		 -> STR_71(CODE[2]), STR_69(CODE[2]), STR_67(CODE[2]), STR_66(CODE[2]), 
		 -> STR_57(CODE[2]), STR_55(CODE[2]), STR_51(CODE[2]), STR_46(CODE[2]), 
		 -> STR_45(CODE[2]), STR_44(CODE[2]), STR_43(CODE[2]), STR_42(CODE[2]), 
		 -> STR_40(CODE[2]), STR_38(CODE[2]), STR_37(CODE[2]), STR_36(CODE[2]), 
		 -> STR_34(CODE[2]), STR_33(CODE[2]), STR_32(CODE[2]), STR_31(CODE[2]), 
		 -> STR_30(CODE[2]), 

    strspn@s1	PTR const unsigned char  size(1) Largest target is 40
		 -> NULL(NULL[0]), main@tmp(BANK1[40]), 

    strchr@ptr	PTR const unsigned char  size(2) Largest target is 2
		 -> STR_71(CODE[2]), STR_69(CODE[2]), STR_67(CODE[2]), STR_66(CODE[2]), 
		 -> STR_57(CODE[2]), STR_55(CODE[2]), STR_51(CODE[2]), STR_46(CODE[2]), 
		 -> STR_45(CODE[2]), STR_44(CODE[2]), STR_43(CODE[2]), STR_42(CODE[2]), 
		 -> STR_40(CODE[2]), STR_38(CODE[2]), STR_37(CODE[2]), STR_36(CODE[2]), 
		 -> STR_34(CODE[2]), STR_33(CODE[2]), STR_32(CODE[2]), STR_31(CODE[2]), 
		 -> STR_30(CODE[2]), 

    sp__strchr	PTR unsigned char  size(2) Largest target is 2
		 -> STR_71(CODE[2]), STR_69(CODE[2]), STR_67(CODE[2]), STR_66(CODE[2]), 
		 -> STR_57(CODE[2]), STR_55(CODE[2]), STR_51(CODE[2]), STR_46(CODE[2]), 
		 -> STR_45(CODE[2]), STR_44(CODE[2]), STR_43(CODE[2]), STR_42(CODE[2]), 
		 -> STR_40(CODE[2]), STR_38(CODE[2]), STR_37(CODE[2]), STR_36(CODE[2]), 
		 -> STR_34(CODE[2]), STR_33(CODE[2]), STR_32(CODE[2]), STR_31(CODE[2]), 
		 -> NULL(NULL[0]), STR_30(CODE[2]), 

    strcspn@s2	PTR const unsigned char  size(2) Largest target is 2
		 -> STR_71(CODE[2]), STR_69(CODE[2]), STR_67(CODE[2]), STR_66(CODE[2]), 
		 -> STR_57(CODE[2]), STR_55(CODE[2]), STR_51(CODE[2]), STR_46(CODE[2]), 
		 -> STR_45(CODE[2]), STR_44(CODE[2]), STR_43(CODE[2]), STR_42(CODE[2]), 
		 -> STR_40(CODE[2]), STR_38(CODE[2]), STR_37(CODE[2]), STR_36(CODE[2]), 
		 -> STR_34(CODE[2]), STR_33(CODE[2]), STR_32(CODE[2]), STR_31(CODE[2]), 
		 -> STR_30(CODE[2]), 

    strcspn@s1	PTR const unsigned char  size(1) Largest target is 40
		 -> NULL(NULL[0]), main@tmp(BANK1[40]), 

    strtok@s2	PTR const unsigned char  size(2) Largest target is 2
		 -> STR_71(CODE[2]), STR_69(CODE[2]), STR_67(CODE[2]), STR_66(CODE[2]), 
		 -> STR_57(CODE[2]), STR_55(CODE[2]), STR_51(CODE[2]), STR_46(CODE[2]), 
		 -> STR_45(CODE[2]), STR_44(CODE[2]), STR_43(CODE[2]), STR_42(CODE[2]), 
		 -> STR_40(CODE[2]), STR_38(CODE[2]), STR_37(CODE[2]), STR_36(CODE[2]), 
		 -> STR_34(CODE[2]), STR_33(CODE[2]), STR_32(CODE[2]), STR_31(CODE[2]), 
		 -> STR_30(CODE[2]), 

    strtok@sp	PTR unsigned char  size(1) Largest target is 40
		 -> NULL(NULL[0]), main@tmp(BANK1[40]), 

    strtok@s1	PTR unsigned char  size(1) Largest target is 40
		 -> NULL(NULL[0]), main@tmp(BANK1[40]), 

    strcmp@s2	PTR const unsigned char  size(2) Largest target is 4
		 -> STR_29(CODE[4]), STR_28(CODE[4]), STR_27(CODE[4]), STR_26(CODE[4]), 
		 -> STR_25(CODE[4]), STR_24(CODE[4]), STR_23(CODE[4]), STR_22(CODE[4]), 
		 -> STR_21(CODE[4]), STR_20(CODE[4]), STR_19(CODE[4]), STR_18(CODE[4]), 
		 -> STR_17(CODE[4]), STR_16(CODE[4]), STR_15(CODE[4]), STR_14(CODE[4]), 
		 -> STR_13(CODE[4]), STR_12(CODE[4]), STR_11(CODE[4]), STR_10(CODE[4]), 
		 -> STR_9(CODE[4]), STR_8(CODE[4]), STR_7(CODE[4]), STR_6(CODE[4]), 
		 -> STR_5(CODE[4]), STR_4(CODE[4]), STR_3(CODE[4]), STR_2(CODE[4]), 
		 -> STR_1(CODE[4]), 

    strcmp@s1	PTR const unsigned char  size(1) Largest target is 4
		 -> main@rcmd(BANK1[4]), 

    cgets@s	PTR unsigned char  size(1) Largest target is 40
		 -> main@tmp(BANK1[40]), 

    cgets@s1	PTR unsigned char  size(1) Largest target is 40
		 -> main@tmp(BANK1[40]), 

    sp__cgets	PTR unsigned char  size(1) Largest target is 40
		 -> main@tmp(BANK1[40]), 

    gets@s	PTR unsigned char  size(1) Largest target is 40
		 -> main@tmp(BANK1[40]), 

    atoi@s	PTR const unsigned char  size(1) Largest target is 40
		 -> NULL(NULL[0]), main@tmp(BANK1[40]), 

    printf@f	PTR const unsigned char  size(2) Largest target is 22
		 -> STR_76(CODE[22]), STR_75(CODE[10]), STR_74(CODE[12]), STR_73(CODE[11]), 
		 -> STR_72(CODE[8]), STR_70(CODE[8]), STR_68(CODE[8]), STR_65(CODE[11]), 
		 -> STR_64(CODE[11]), STR_63(CODE[11]), STR_62(CODE[11]), STR_61(CODE[11]), 
		 -> STR_60(CODE[11]), STR_59(CODE[11]), STR_58(CODE[8]), STR_56(CODE[11]), 
		 -> STR_54(CODE[8]), STR_53(CODE[8]), STR_52(CODE[8]), STR_50(CODE[8]), 
		 -> STR_49(CODE[8]), STR_48(CODE[11]), STR_47(CODE[8]), STR_41(CODE[11]), 
		 -> STR_39(CODE[11]), STR_35(CODE[8]), 

    printf@ap	PTR void [1] size(1) Largest target is 2
		 -> ?_printf(BANK0[2]), 

    sp__strtok	PTR unsigned char  size(1) Largest target is 40
		 -> NULL(NULL[0]), main@tmp(BANK1[40]), 

    main@ptr	PTR unsigned char  size(1) Largest target is 40
		 -> NULL(NULL[0]), main@tmp(BANK1[40]), 

    sp__gets	PTR unsigned char  size(1) Largest target is 40
		 -> main@tmp(BANK1[40]), 


Critical Paths under _main in COMMON

    _main->___xxtofl
    _write_data_eeprom->_eeprom_write
    _strtok->_strcspn
    _strtok->_strspn
    _strspn->_strchr
    _strcspn->_strchr
    _read_data_eeprom->_eeprom_read
    _printf->___lwmod
    ___lwmod->___lwdiv
    _gets->_cgets
    _cgets->_getche
    _getche->_putch
    _atoi->___wmul
    ___fltol->___xxtofl
    ___flmul->___xxtofl
    ___fldiv->___xxtofl

Critical Paths under _main in BANK0

    _main->___fldiv
    ___fltol->___flmul
    ___fldiv->___flmul

Critical Paths under _main in BANK1

    None.

Critical Paths under _main in BANK2

    None.

Critical Paths under _main in BANK3

    None.

Critical Paths under _main in BANK4

    None.

Critical Paths under _main in BANK5

    None.

Critical Paths under _main in BANK6

    None.

Critical Paths under _main in BANK7

    None.

Critical Paths under _main in BANK8

    None.

Critical Paths under _main in BANK9

    None.

Critical Paths under _main in BANK10

    None.

Critical Paths under _main in BANK11

    None.

Critical Paths under _main in BANK12

    None.

Critical Paths under _main in BANK13

    None.

Critical Paths under _main in BANK14

    None.

Critical Paths under _main in BANK15

    None.

Critical Paths under _main in BANK16

    None.

Critical Paths under _main in BANK17

    None.

Critical Paths under _main in BANK18

    None.

Critical Paths under _main in BANK19

    None.

Critical Paths under _main in BANK20

    None.

Critical Paths under _main in BANK21

    None.

Critical Paths under _main in BANK22

    None.

Critical Paths under _main in BANK23

    None.

Critical Paths under _main in BANK24

    None.

Critical Paths under _main in BANK25

    None.

Call Graph Tables:

 ---------------------------------------------------------------------------------
 (Depth) Function   	        Calls       Base Space   Used Autos Params    Refs
 ---------------------------------------------------------------------------------
 (0) _main                                               119   119      0   27123
                                             52 BANK0     28    28      0
                                              0 BANK1     80    80      0
                                              0 BANK2      7     7      0
                         _AD_convert
                            ___awdiv
                            ___fladd
                            ___fldiv
                            ___flmul
                            ___fltol
                             ___wmul
                           ___xxtofl
                               _atoi
                               _gets
                           _initUART
                             _printf
                   _read_data_eeprom
                             _strcmp
                             _strtok
                  _write_data_eeprom
 ---------------------------------------------------------------------------------
 (1) _write_data_eeprom                                   17     9      8    1569
                                              4 COMMON     8     0      8
                                              0 BANK0      9     9      0
                       _eeprom_write
 ---------------------------------------------------------------------------------
 (2) _eeprom_write                                         4     3      1     196
                                              0 COMMON     4     3      1
 ---------------------------------------------------------------------------------
 (1) _strtok                                               5     3      2    3673
                                              0 BANK0      5     3      2
                            _strcspn
                             _strspn
 ---------------------------------------------------------------------------------
 (2) _strspn                                               7     5      2     592
                                              7 COMMON     7     5      2
                             _strchr
 ---------------------------------------------------------------------------------
 (2) _strcspn                                              7     5      2     592
                                              7 COMMON     7     5      2
                             _strchr
 ---------------------------------------------------------------------------------
 (3) _strchr                                               7     3      4     392
                                              0 COMMON     7     3      4
 ---------------------------------------------------------------------------------
 (1) _strcmp                                               5     3      2    3252
                                              0 COMMON     5     3      2
 ---------------------------------------------------------------------------------
 (1) _read_data_eeprom                                    20    16      4     462
                                              4 COMMON     8     4      4
                                              0 BANK0     12    12      0
                        _eeprom_read
 ---------------------------------------------------------------------------------
 (2) _eeprom_read                                          4     4      0      22
                                              0 COMMON     4     4      0
 ---------------------------------------------------------------------------------
 (1) _printf                                              24    18      6    3056
                                              0 BANK0     16    10      6
                            ___lwdiv
                            ___lwmod
                              _putch
 ---------------------------------------------------------------------------------
 (2) ___lwmod                                              6     2      4     311
                                              8 COMMON     6     2      4
                            ___lwdiv (ARG)
 ---------------------------------------------------------------------------------
 (2) ___lwdiv                                              8     4      4     314
                                              0 COMMON     8     4      4
 ---------------------------------------------------------------------------------
 (1) _initUART                                             0     0      0       0
 ---------------------------------------------------------------------------------
 (1) _gets                                                 1     1      0     380
                                             10 COMMON     1     1      0
                              _cgets
 ---------------------------------------------------------------------------------
 (2) _cgets                                                8     6      2     325
                                              2 COMMON     8     6      2
                             _getche
                              _putch
 ---------------------------------------------------------------------------------
 (3) _getche                                               1     1      0      67
                                              1 COMMON     1     1      0
                              _getch
                              _putch
 ---------------------------------------------------------------------------------
 (2) _putch                                                1     1      0      22
                                              0 COMMON     1     1      0
 ---------------------------------------------------------------------------------
 (4) _getch                                                0     0      0       0
 ---------------------------------------------------------------------------------
 (1) _atoi                                                10     8      2    1207
                                              6 COMMON     6     4      2
                                              0 BANK0      4     4      0
                             ___wmul
                            _isdigit
 ---------------------------------------------------------------------------------
 (2) _isdigit                                              2     2      0      68
                                              0 COMMON     2     2      0
 ---------------------------------------------------------------------------------
 (2) ___wmul                                               6     2      4     548
                                              0 COMMON     6     2      4
 ---------------------------------------------------------------------------------
 (1) ___xxtofl                                            14    10      4     626
                                              0 COMMON    14    10      4
 ---------------------------------------------------------------------------------
 (1) ___fltol                                             10     6      4     457
                                             26 BANK0     10     6      4
                            ___flmul (ARG)
                           ___xxtofl (ARG)
 ---------------------------------------------------------------------------------
 (1) ___flmul                                             26    18      8    2721
                                              0 BANK0     26    18      8
                          __Umul8_16
                           ___xxtofl (ARG)
 ---------------------------------------------------------------------------------
 (2) __Umul8_16                                            9     7      2     799
                                              0 COMMON     9     7      2
 ---------------------------------------------------------------------------------
 (1) ___fldiv                                             26    18      8    1273
                                             26 BANK0     26    18      8
                            ___flmul (ARG)
                           ___xxtofl (ARG)
 ---------------------------------------------------------------------------------
 (1) ___fladd                                             20    12      8    2262
                                              0 COMMON    12     4      8
                                              0 BANK0      8     8      0
 ---------------------------------------------------------------------------------
 (1) ___awdiv                                              9     5      4     452
                                              0 COMMON     9     5      4
 ---------------------------------------------------------------------------------
 (1) _AD_convert                                           3     1      2       0
                                              0 COMMON     2     0      2
 ---------------------------------------------------------------------------------
 Estimated maximum stack depth 4
 ---------------------------------------------------------------------------------

 Call Graph Graphs:

 _main (ROOT)
   _AD_convert
   ___awdiv
   ___fladd
   ___fldiv
     ___flmul (ARG)
       __Umul8_16
       ___xxtofl (ARG)
     ___xxtofl (ARG)
   ___flmul
   ___fltol
     ___flmul (ARG)
     ___xxtofl (ARG)
   ___wmul
   ___xxtofl
   _atoi
     ___wmul
     _isdigit
   _gets
     _cgets
       _getche
         _getch
         _putch
       _putch
   _initUART
   _printf
     ___lwdiv
     ___lwmod
       ___lwdiv (ARG)
     _putch
   _read_data_eeprom
     _eeprom_read
   _strcmp
   _strtok
     _strcspn
       _strchr
     _strspn
       _strchr
   _write_data_eeprom
     _eeprom_write

 Address spaces:
Name               Size   Autos  Total    Cost      Usage
BIGRAM             7F0      0       0       0        0.0%
EEDATA             100      0       0       0        0.0%
NULL                 0      0       0       0        0.0%
CODE                 0      0       0       0        0.0%
BITCOMMON            E      0       0       1        0.0%
BITSFR0              0      0       0       1        0.0%
SFR0                 0      0       0       1        0.0%
COMMON               E      E       E       2      100.0%
BITSFR1              0      0       0       2        0.0%
SFR1                 0      0       0       2        0.0%
BITSFR2              0      0       0       3        0.0%
SFR2                 0      0       0       3        0.0%
STACK                0      0       0       3        0.0%
BITBANK0            50      0       0       4        0.0%
BITSFR3              0      0       0       4        0.0%
SFR3                 0      0       0       4        0.0%
BANK0               50     50      50       5      100.0%
BITSFR4              0      0       0       5        0.0%
SFR4                 0      0       0       5        0.0%
BITBANK1            50      0       0       6        0.0%
BITSFR5              0      0       0       6        0.0%
SFR5                 0      0       0       6        0.0%
BANK1               50     50      50       7      100.0%
BITSFR6              0      0       0       7        0.0%
SFR6                 0      0       0       7        0.0%
BITBANK2            50      0       0       8        0.0%
BITSFR7              0      0       0       8        0.0%
SFR7                 0      0       0       8        0.0%
BANK2               50      7       8       9       10.0%
BITSFR8              0      0       0       9        0.0%
SFR8                 0      0       0       9        0.0%
BITBANK3            50      0       0      10        0.0%
BITSFR9              0      0       0      10        0.0%
SFR9                 0      0       0      10        0.0%
BANK3               50      0       0      11        0.0%
BITSFR10             0      0       0      11        0.0%
SFR10                0      0       0      11        0.0%
BITBANK4            50      0       0      12        0.0%
BITSFR11             0      0       0      12        0.0%
SFR11                0      0       0      12        0.0%
BANK4               50      0       0      13        0.0%
BITSFR12             0      0       0      13        0.0%
SFR12                0      0       0      13        0.0%
BITSFR13             0      0       0      14        0.0%
SFR13                0      0       0      14        0.0%
ABS                  0      0      B6      14        0.0%
BITBANK5            50      0       0      15        0.0%
BITSFR14             0      0       0      15        0.0%
SFR14                0      0       0      15        0.0%
BANK5               50      0       0      16        0.0%
BITSFR15             0      0       0      16        0.0%
SFR15                0      0       0      16        0.0%
BITBANK6            50      0       0      17        0.0%
BITSFR16             0      0       0      17        0.0%
SFR16                0      0       0      17        0.0%
BANK6               50      0       0      18        0.0%
BITSFR17             0      0       0      18        0.0%
SFR17                0      0       0      18        0.0%
BITBANK7            50      0       0      19        0.0%
BITSFR18             0      0       0      19        0.0%
SFR18                0      0       0      19        0.0%
BANK7               50      0       0      20        0.0%
BITSFR19             0      0       0      20        0.0%
SFR19                0      0       0      20        0.0%
BITBANK8            50      0       0      21        0.0%
BITSFR20             0      0       0      21        0.0%
SFR20                0      0       0      21        0.0%
BANK8               50      0       0      22        0.0%
BITSFR21             0      0       0      22        0.0%
SFR21                0      0       0      22        0.0%
BITBANK9            50      0       0      23        0.0%
BITSFR22             0      0       0      23        0.0%
SFR22                0      0       0      23        0.0%
BANK9               50      0       0      24        0.0%
BITSFR23             0      0       0      24        0.0%
SFR23                0      0       0      24        0.0%
BITBANK10           50      0       0      25        0.0%
BITSFR24             0      0       0      25        0.0%
SFR24                0      0       0      25        0.0%
BANK10              50      0       0      26        0.0%
BITSFR25             0      0       0      26        0.0%
SFR25                0      0       0      26        0.0%
BITBANK11           50      0       0      27        0.0%
BITSFR26             0      0       0      27        0.0%
SFR26                0      0       0      27        0.0%
BITSFR27             0      0       0      28        0.0%
SFR27                0      0       0      28        0.0%
DATA                 0      0      B6      28        0.0%
BANK11              50      0       0      29        0.0%
BITSFR28             0      0       0      29        0.0%
SFR28                0      0       0      29        0.0%
BITBANK12           50      0       0      30        0.0%
BITSFR29             0      0       0      30        0.0%
SFR29                0      0       0      30        0.0%
BANK12              50      0       0      31        0.0%
BITSFR30             0      0       0      31        0.0%
SFR30                0      0       0      31        0.0%
BITBANK13           50      0       0      32        0.0%
BITSFR31             0      0       0      32        0.0%
SFR31                0      0       0      32        0.0%
BANK13              50      0       0      33        0.0%
BITBANK14           50      0       0      34        0.0%
BANK14              50      0       0      35        0.0%
BITBANK15           50      0       0      36        0.0%
BANK15              50      0       0      37        0.0%
BITBANK16           50      0       0      38        0.0%
BANK16              50      0       0      39        0.0%
BITBANK17           50      0       0      40        0.0%
BANK17              50      0       0      41        0.0%
BITBANK18           50      0       0      42        0.0%
BANK18              50      0       0      43        0.0%
BITBANK19           50      0       0      44        0.0%
BANK19              50      0       0      45        0.0%
BITBANK20           50      0       0      46        0.0%
BANK20              50      0       0      47        0.0%
BITBANK21           50      0       0      48        0.0%
BANK21              50      0       0      49        0.0%
BITBANK22           50      0       0      50        0.0%
BANK22              50      0       0      51        0.0%
BITBANK23           50      0       0      52        0.0%
BANK23              50      0       0      53        0.0%
BITBANK24           50      0       0      54        0.0%
BANK24              50      0       0      55        0.0%
BITBANK25           20      0       0      56        0.0%
BANK25              20      0       0      57        0.0%


Microchip Technology PIC Macro Assembler V2.41 build 20230208172133 
Symbol Table                                                                                   Tue May 07 10:30:13 2024

                ?_AD_convert 0070                 ___fldiv@aexp 0053                 ___fldiv@bexp 0052  
               ___fldiv@sign 004B                           l82 1053                           l85 1C6F  
                         l79 1E2E                           l95 168F                           l88 1C77  
                         l96 169D                           l97 1696                 ___awdiv@sign 0076  
        ___wmul@multiplicand 0072          __Umul8_16@word_mpld 0076                          l201 144B  
                        l202 13F1                          l300 0266                          l220 117E  
                        l204 140C                          l301 0270                          l221 1178  
                        l213 1195                          l205 1416                          l310 02E0  
                        l302 026A                          l230 11D5                          l214 113B  
                        l206 1410                          l311 02F1                          l303 0282  
                        l207 1428                          l320 0343                          l312 02EB  
                        l304 028E                          l240 16E9                          l224 11F2  
                        l216 1156                          l208 1434                          l152 0AEC  
                        l401 1C2D                          l321 0353                          l313 0303  
                        l305 0288                          l241 16F5                          l225 11AC  
                        l217 1160                          l209 142E                          l322 034D  
                        l314 030F                          l250 174C                          l242 16EF  
                        l234 170C                          l226 11BD                          l218 115A  
                        l162 0B8E                          l331 03D0                          l323 0365  
                        l315 0309                          l307 02B5                          l235 16C3  
                        l227 11B7                          l219 1172                          l163 0B48  
                        l404 1C34                          l332 03DA                          l324 0371  
                        l260 17C0                          l244 1769                          l236 16CC  
                        l228 11CF                          l180 149D                          l172 14BA  
                        l164 0B59                          l333 03D4                          l325 036B  
                        l309 0326                          l261 17D8                          l245 1723  
                        l229 11DB                          l173 1460                          l165 0B53  
                        l334 03EC                          l270 00F3                          l254 17E4  
                        l246 1734                          l238 16D7                          l166 0B6B  
                        l407 1C50                          l335 03F8                          l319 0388  
                        l271 00ED                          l255 1797                          l247 172E  
                        l239 16D1                          l183 07E6                          l175 147B  
                        l167 0B77                          l336 03F2                          l328 040F  
                        l280 015B                          l272 0105                          l256 17A8  
                        l248 1746                          l192 13DA                          l176 1485  
                        l168 0B71                          l329 03B6                          l281 0167  
                        l265 00C0                          l257 17A2                          l249 1752  
                        l193 1394                          l177 147F                          l290 01FC  
                        l282 0161                          l274 017E                          l258 17BA  
                        l194 13A5                          l178 1497                          l611 1065  
                        l291 01F6                          l275 0124                          l267 00D5  
                        l259 17C6                          l195 139F                          l179 14A3  
                        l364 0722                          l356 0644                          l292 020E  
                        l268 00CF                          l196 13B7                          l293 021A  
                        l277 013F                          l269 00E7                          l197 13C3  
                        l294 0214                          l278 0149                          l198 13BD  
                        l623 1125                          l295 022C                          l279 0143  
                        l392 1C3C                          l288 01EB                          l609 1081  
                        l297 02A5                          l298 024B                          l627 1CB5  
                        l395 1C3E                          l820 1F40                          l564 1C79  
                        l813 1F55                          l629 1CC9                          l398 1C46  
                        l566 1C8C                          l590 1D16                          l823 1F55  
                        l583 1CEE                          l920 0C0E                          l584 1CEE  
                        l587 1D07                          l780 1EE4                          l924 0C8C  
                        l941 0D1E                          l933 0DC4                          l909 1DAA  
                        l926 0C6A                          l951 0D62                          l945 0D40  
                        l962 0DBD                          l954 0D9A                          l963 0DC4  
                        l992 0983                          l976 08A5                          l978 09FD  
                        l899 1DE6                          l997 09CF                          l998 09E9  
                        _RA0 0060                          _RA1 0061                          _RB0 0068  
                        _RB1 0069                          _RA3 0063                          _RB2 006A  
                        _RB3 006B                          _RB4 006C                          _RA6 0066  
                        _RB5 006D                          _RA7 0067                          wreg 0009  
               ___flmul@aexp 0032                 ___flmul@bexp 0033                 ___flmul@sign 002D  
               ___flmul@temp 0038                 ___flmul@prod 0034                 ___fltol@exp1 0043  
                       l1000 09F6                         l1022 0F7F                         l1016 0FFF  
                       l1120 1C62                         l1113 1E85                         l1035 1CDC  
                       l1028 0FF3                         l1060 1F78                         l1037 1CEC  
                       l1062 1FFF                         l3000 1DB6                         l1128 002B  
                       l1152 1D46                         l1073 1FCB                         l1074 1FD7  
                       l1066 1FB1                         l1090 00A9                         l3010 1DD6  
                       l3002 1DBB                         l1155 1C8D                         l1139 0853  
                       l3012 1DD7                         l3004 1DBF                         l3020 1D77  
                       l1157 1CAA                         l3014 1DDC                         l3006 1DC3  
                       l3030 1D8D                         l3022 1D7D                         l3110 1D72  
                       l3102 1D48                         l1095 1C2C                         l3008 1DD2  
                       l3016 1DE2                         l3032 1D97                         l3024 1D80  
                       l3120 1D2B                         l1168 1D76                         l3104 1D4B  
                       l3200 0850                         l4000 168C                         l3050 1CE3  
                       l3042 1CCB                         l3210 0033                         l3034 1D9B  
                       l3026 1D85                         l3122 1D42                         l3114 1D18  
                       l3106 1D53                         l3202 0851                         l3130 1DFA  
                       l4010 16A5                         l4002 1693                         l3300 1E92  
                       l3052 1CE8                         l3044 1CCD                         l3060 1C59  
                       l3220 005A                         l3212 003C                         l3036 1DA0  
                       l3028 1D89                         l3140 103F                         l3116 1D1B  
                       l3108 1D5B                         l3132 1E13                         l4100 0A5C  
                       l4020 122F                         l4012 16A7                         l4004 169A  
                       l3150 1C6D                         l3310 1EA7                         l3302 1E96  
                       l3046 1CD4                         l3062 1C5F                         l3230 0093  
                       l3222 0063                         l3214 0045                         l3206 002E  
                       l3070 1E33                         l3038 1DA6                         l3142 104B  
                       l3118 1D23                         l3134 1E27                         l3126 1DE7  
                       l4110 0A8E                         l4102 0A6A                         l4030 1261  
                       l4022 123D                         l4014 16A9                         l4006 169E  
                       l3152 1C73                         l3320 1EC6                         l3312 1EAA  
                       l3304 1E9B                         l3400 0BEC                         l3048 1CD8  
                       l3064 1C61                         l3056 1C52                         l3232 0099  
                       l3224 0068                         l3216 0048                         l3208 002F  
                       l3080 1E51                         l3240 1054                         l3136 1005  
                       l3128 1DF4                         l4200 155F                         l4120 0AB6  
                       l4112 0A92                         l4104 0A6E                         l4040 1289  
                       l4032 1265                         l4024 1241                         l4016 16AA  
                       l4008 16A2                         l3146 1C63                         l3330 1EDB  
                       l3322 1ECA                         l3314 1EAF                         l3306 1E9F  
                       l3410 0C03                         l3402 0BF0                         l3058 1C53  
                       l3218 0051                         l3090 1E60                         l3082 1E53  
                       l3074 1E3A                         l3250 1067                         l3242 1058  
                       l3138 1028                         l3170 0026                         l3162 0006  
                       l4210 137F                         l4202 1574                         l4130 0AE8  
                       l4122 0AC4                         l4114 0AA0                         l4106 0A7C  
                       l4050 12BB                         l4042 1297                         l4034 1273  
                       l4026 124F                         l4018 122B                         l3148 1C69  
                       l3332 1EE0                         l3324 1ECB                         l3316 1EB3  
                       l3308 1EA1                         l3500 0D08                         l3420 0C1D  
                       l3412 0C04                         l3404 0BF1                         l3236 00A5  
                       l3228 0088                         l3092 1E65                         l3084 1E5A  
                       l3076 1E42                         l3068 1E30                         l3156 1C35  
                       l3260 1098                         l3252 1085                         l3244 105E  
                       l3164 0007                         l3180 0811                         l4300 172A  
                       l4220 13B9                         l4212 1390                         l4204 133B  
                       l4140 0B2B                         l4124 0AC8                         l4116 0AA4  
                       l4108 0A80                         l4060 12E3                         l4052 12BF  
                       l4044 129B                         l4036 1277                         l4028 1253  
                       l4132 0AEC                         l3326 1ED0                         l3318 1EB7  
                       l3502 0D0D                         l3430 0C27                         l3422 0C1F  
                       l3406 0BF6                         l3414 0C06                         l3350 1F14  
                       l3342 1EF8                         l3086 1E5E                         l3078 1E45  
                       l3158 1C28                         l3254 108C                         l3262 109E  
                       l3246 1063                         l3166 000F                         l3174 0803  
                       l4310 177C                         l4302 172F                         l4230 1403  
                       l4222 13BE                         l4214 1396                         l4206 1371  
                       l4150 0B54                         l4142 0B34                         l4134 0AF7  
                       l4126 0AD6                         l4118 0AB2                         l4070 1315  
                       l4062 12F1                         l4054 12CD                         l4046 12A9  
                       l4038 1285                         l3328 1ED6                         l3520 0D47  
                       l3512 0D34                         l3504 0D16                         l3440 0C31  
                       l3432 0C29                         l3424 0C21                         l3416 0C14  
                       l3408 0BFB                         l3600 089A                         l3352 1F18  
                       l3360 1F30                         l3344 1F09                         l3336 1EE5  
                       l3096 1E69                         l3280 10D6                         l3272 10AB  
                       l3264 10A5                         l3256 1090                         l3168 001E  
                       l3192 082C                         l3184 0813                         l3176 0808  
                       l4400 0231                         l4320 17A3                         l4312 178E  
                       l4304 1748                         l4240 1446                         l4232 1409  
                       l4224 13D5                         l4216 139B                         l4208 1376  
                       l4160 0BB4                         l4152 0B6D                         l4144 0B44  
                       l4136 0AFB                         l4128 0ADA                         l4080 0A02  
                       l4072 1319                         l4064 12F5                         l4056 12D1  
                       l4048 12AD                         l3530 0D55                         l3522 0D49  
                       l3514 0D3B                         l3506 0D26                         l3442 0C33  
                       l3434 0C2B                         l3426 0C23                         l3418 0C18  
                       l3450 0C3B                         l3610 08BD                         l3602 089B  
                       l3370 1F4A                         l3346 1F0A                         l3338 1EEF  
                       l3282 10DA                         l3258 1094                         l3266 10A9  
                       l3290 1112                         l3194 083D                         l3186 0820  
                       l3178 080C                         l4410 0263                         l4402 0233  
                       l4330 17F7                         l4322 17BC                         l4314 1793  
                       l4306 174D                         l4250 1153                         l4234 1411  
                       l4226 13ED                         l4218 13A0                         l4242 1126  
                       l4170 1499                         l4162 1462                         l4154 0B72  
                       l4146 0B4A                         l4138 0B26                         l4090 0A34  
                       l4082 0A10                         l4074 1327                         l4066 1303  
                       l4058 12DF                         l3292 1E86                         l3540 0D6C  
                       l3532 0D59                         l3524 0D4E                         l3516 0D3F  
                       l3508 0D2B                         l3460 0C74                         l3452 0C3C  
                       l3444 0C35                         l3436 0C2D                         l3428 0C25  
                       l3380 0BC3                         l3372 0BB9                         l3700 09F2  
                       l3620 08D4                         l3604 089D                         l3348 1F12  
                       l3284 10DE                         l3276 10C6                         l3196 0845  
                       l3188 0828                         l4500 04E9                         l4420 02B7  
                       l4412 026B                         l4404 0247                         l4340 00CB  
                       l4332 00AA                         l4324 17C1                         l4316 1799  
                       l4308 1764                         l4260 11A8                         l4252 115B  
                       l4244 1137                         l4236 142A                         l4228 13F3  
                       l4180 14F7                         l4172 149E                         l4164 1472  
                       l4156 0B89                         l4148 0B4F                         l4092 0A38  
                       l4084 0A14                         l4076 132B                         l4068 1307  
                       l3294 1E87                         l3550 0DA4                         l3542 0D74  
                       l3534 0D5F                         l3518 0D44                         l3526 0D50  
                       l3470 0C90                         l3462 0C78                         l3454 0C54  
                       l3446 0C37                         l3438 0C2F                         l3382 0BC8  
                       l3390 0BD8                         l3374 0BBC                         l3630 08FE  
                       l3622 08E4                         l3606 08AD                         l3614 08C6  
                       l3710 0DCB                         l3366 1F37                         l3358 1F20  
                       l3286 1104                         l3278 10D0                         l3198 0849  
                       l4510 0538                         l4502 0501                         l4430 02E7  
                       l4422 02C0                         l4414 0284                         l4406 024D  
                       l4350 010C                         l4342 00D0                         l4334 00B0  
                       l4326 17DD                         l4318 179E                         l4270 11D6  
                       l4262 11AE                         l4254 1174                         l4246 113D  
                       l4238 142F                         l4190 1520                         l4182 14FC  
                       l4174 14B5                         l4166 1478                         l4158 0BA3  
                       l4094 0A46                         l4086 0A22                         l4078 09FE  
                       l3296 1E8B                         l3560 0DB8                         l3552 0DAC  
                       l3544 0D78                         l3480 0CAA                         l3528 0D54  
                       l3472 0C95                         l3464 0C79                         l3456 0C6E  
                       l3448 0C39                         l3392 0BE0                         l3384 0BCD  
                       l3376 0BBE                         l3632 0903                         l3640 091D  
                       l3624 08EC                         l3616 08CB                         l3608 08B9  
                       l3800 0F5B                         l3720 0DE2                         l3712 0DCF  
                       l3368 1F45                         l3288 1108                         l4600 077B  
                       l4520 0574                         l4512 0541                         l4504 0514  
                       l4440 0336                         l4432 02EC                         l4424 02D3  
                       l4416 0289                         l4408 025D                         l4360 0144  
                       l4344 00E9                         l4352 0120                         l4328 17DF  
                       l4280 16BA                         l4272 11ED                         l4264 11B3  
                       l4256 1179                         l4248 114D                         l4192 1536  
                       l4184 1505                         l4168 1480                         l4176 14CD  
                       l4096 0A4A                         l4088 0A26                         l3298 1E90  
                       l3562 0DBF                         l3554 0DB1                         l3546 0D96  
                       l3538 0D67                         l3490 0CB9                         l3482 0CAE  
                       l3466 0C82                         l3458 0C72                         l3394 0BE3  
                       l3386 0BD5                         l3378 0BC2                         l3650 0942  
                       l3642 092F                         l3634 0911                         l3626 08F4  
                       l3570 085A                         l3810 0F7C                         l3802 0F5F  
                       l3730 0DF7                         l3722 0DE4                         l3714 0DD0  
                       l3706 0DC5                         l2930 1C43                         l4602 0783  
                       l4530 0593                         l4522 0578                         l4514 0554  
                       l4506 0517                         l4450 0367                         l4442 033F  
                       l4434 0305                         l4426 02DC                         l4418 02A0  
                       l4370 019A                         l4362 015D                         l4354 0126  
                       l4346 00EE                         l4338 00C2                         l4290 16EB  
                       l4282 16BF                         l4266 11B8                         l4258 1190  
                       l4274 1205                         l4194 1547                         l4186 1516  
                       l4178 14D7                         l4098 0A58                         l3564 0DC3  
                       l3556 0DB2                         l3548 0D9F                         l3492 0CC2  
                       l3484 0CB2                         l3476 0C9E                         l3468 0C86  
                       l3396 0BE9                         l3388 0BD6                         l3660 0958  
                       l3652 094A                         l3644 0930                         l3636 0915  
                       l3628 08FC                         l3580 0871                         l3572 085E  
                       l3820 0F95                         l3804 0F63                         l3740 0E0C  
                       l3732 0DF8                         l3724 0DEC                         l3716 0DD5  
                       l3708 0DC9                         l2932 1C2D                         l2940 1C4B  
                       l4540 0603                         l4532 059C                         l4524 057A  
                       l4516 056D                         l4508 0520                         l4460 03C7  
                       l4452 036C                         l4444 0344                         l4436 030A  
                       l4428 02E2                         l4380 01C6                         l4372 01AD  
                       l4364 0162                         l4356 0136                         l4348 010A  
                       l4292 16F0                         l4284 16C8                         l4276 120E  
                       l4268 11D1                         l4196 1551                         l4188 151C  
                       l3900 1593                         l3558 0DB6                         l3486 0CB4  
                       l3478 0CA6                         l3494 0CC7                         l3398 0BEA  
                       l3670 096C                         l3662 095F                         l3654 094C  
                       l3646 0938                         l3638 0916                         l3590 0883  
                       l3582 0872                         l3574 085F                         l3566 0854  
                       l3830 0FD6                         l3822 0FAD                         l3814 0F84  
                       l3806 0F64                         l3750 0E27                         l3742 0E14  
                       l3734 0DFD                         l3726 0DF1                         l3718 0DDA  
                       l2934 1C32                         l2942 1C4F                         l4630 1E77  
                       l2950 1C98                         l4550 0654                         l4542 0606  
                       l4534 05A7                         l4526 0583                         l4518 0570  
                       l4470 040A                         l4462 03CD                         l4454 0383  
                       l4446 0349                         l4438 0321                         l4390 01ED  
                       l4382 01D0                         l4374 01AF                         l4366 0179  
                       l4358 013C                         l4294 1707                         l4286 16CD  
                       l4278 1221                         l4198 1556                         l4606 078B  
                       l3910 159F                         l3902 1595                         l3496 0CDE  
                       l3488 0CB8                         l3680 0995                         l3672 0980  
                       l3656 0953                         l3664 0963                         l3648 093C  
                       l3592 0887                         l3576 0864                         l3584 0874  
                       l3568 0858                         l3840 0FF1                         l3832 0FDF  
                       l3816 0F89                         l3824 0FB1                         l3808 0F68  
                       l3760 0E7C                         l3752 0E32                         l3744 0E19  
                       l3736 0E02                         l3728 0DF3                         l2928 1C3E  
                       l2952 1CA8                         l2960 1D00                         l4608 07ED  
                       l4560 06AB                         l4552 065D                         l4544 060A  
                       l4536 05AC                         l4528 058E                         l4480 0468  
                       l4472 0439                         l4464 03D5                         l4456 03B2  
                       l4448 034E                         l4392 01F2                         l4384 01D8  
                       l4376 01B7                         l4368 0191                         l4288 16D2  
                       l4296 171F                         l3920 15B7                         l3912 15A8  
                       l3904 1597                         l3498 0D02                         l3690 09DD  
                       l3682 0999                         l3666 0967                         l3658 0957  
                       l3594 0888                         l3586 087C                         l3578 0869  
                       l3842 0FF7                         l3834 0FE1                         l3826 0FBE  
                       l3818 0F91                         l3770 0EAF                         l3762 0E89  
                       l3754 0E3F                         l3746 0E1E                         l3738 0E0A  
                       l3850 1F60                         l2938 1C47                         l2946 1C8D  
                       l2970 1D0F                         l2962 1D02                         l4570 06CF  
                       l4562 06AE                         l4554 0667                         l4546 0621  
                       l4538 05B5                         l4490 04B2                         l4482 046D  
                       l4474 0442                         l4466 03EE                         l4458 03B7  
                       l4394 01F7                         l4386 01DB                         l4378 01C1  
                       l4298 1725                         l3930 15D7                         l3922 15C0  
                       l3914 15AA                         l3906 1599                         l3692 09E0  
                       l3684 09B1                         l3676 0988                         l3668 0968  
                       l3596 088D                         l3588 0881                         l3836 0FEC  
                       l3828 0FC8                         l3780 0EEC                         l3772 0EBA  
                       l3764 0E96                         l3756 0E57                         l3860 1F8C  
                       l3852 1F70                         l2980 1CAB                         l2948 1C97  
                       l2972 1D10                         l2964 1D06                         l2956 1CF3  
                       l4580 0726                         l4572 0708                         l4564 06B7  
                       l4556 066C                         l4548 0652                         l4492 04B7  
                       l4484 047B                         l4476 0455                         l4468 03F3  
                       l4396 0210                         l3940 15F4                         l3932 15DC  
                       l3924 15C8                         l3916 15AB                         l3908 159C  
                       l3694 09E8                         l3678 098D                         l3686 09B5  
                       l3598 0892                         l3838 0FF0                         l3790 0F3C  
                       l3782 0EF7                         l3774 0EC1                         l3766 0E9D  
                       l3758 0E64                         l3870 1FB8                         l3862 1F97  
                       l3854 1F80                         l3846 1F57                         l2990 1CC5  
                       l2982 1CAD                         l2974 1D15                         l2966 1D0A  
                       l2958 1CFC                         l4590 0754                         l4582 072F  
                       l4574 070C                         l4566 06C1                         l4558 0675  
                       l4494 04C0                         l4486 048F                         l4478 045E  
                       l4398 0215                         l3950 1609                         l3942 15F8  
                       l3934 15E1                         l3926 15D0                         l3918 15AE  
                       l3696 09EC                         l3688 09C2                         l3792 0F48  
                       l3784 0F09                         l3776 0ED3                         l3768 0EA8  
                       l3880 1FED                         l3872 1FC1                         l3864 1F9E  
                       l3848 1F5C                         l2984 1CB1                         l2976 1C7F  
                       l2968 1D0E                         l4592 075D                         l4584 073F  
                       l4576 070E                         l4568 06C6                         l4496 04C9  
                       l4488 04A8                         l3960 1623                         l3952 1612  
                       l3944 15FB                         l3936 15E6                         l3928 15D5  
                       l3698 09F0                         l3794 0F4F                         l3786 0F1E  
                       l3778 0EDA                         l3882 1FF2                         l3874 1FC5  
                       l3866 1FA2                         l3858 1F89                         l2986 1CBA  
                       l2994 1DAB                         l4594 0768                         l4586 0744  
                       l4578 071D                         l4498 04D9                         l3970 1628  
                       l3962 1624                         l3954 1616                         l3946 15FF  
                       l3938 15EF                         l3890 1585                         l3796 0F53  
                       l3788 0F35                         l3884 1FF6                         l3876 1FCF  
                       l3868 1FAA                         l2988 1CBF                         l2996 1DAD  
                       l4596 0775                         l3980 1674                         l3972 163D  
                       l3964 1625                         l3956 161F                         l3948 1607  
                       l3892 1588                         l3798 0F54                         l3886 1FF7  
                       l3878 1FD9                         l2998 1DB3                         l3990 167E  
                       l3982 1677                         l3974 1651                         l3966 1626  
                       l3958 1621                         l3894 158B                         l3992 1680  
                       l3984 1679                         l3976 1661                         l3968 1627  
                       l3896 158D                         l3994 1682                         l3986 167B  
                       l3978 1671                         l3898 1590                         l3996 1683  
                       l3988 167C                         l3998 1688                         STR_1 217A  
                       STR_2 2122                         STR_3 214E                         STR_4 213E  
                       STR_5 2132                         STR_6 2176                         STR_7 2146  
                       STR_8 215A                         STR_9 2136                         u3100 1D15  
                       u3101 1D14                         u3110 1C7F                         u3111 1C7E  
                       u4000 0C95                         u3120 1CB1                         u3040 1C43  
                       u3200 1DD2                         u4001 0C94                         u3121 1CB0  
                       u3041 1C42                         u3201 1DD1                         u4010 0CAA  
                       u3050 1C32                         u4011 0CA9                         u3051 1C31  
                       u4100 0D3F                         u4020 0CAE                         u3220 1DE2  
                       u3060 1C97                         u4101 0D3E                         u4021 0CAD  
                       u3221 1DE1                         u3205 1DCE                         u3061 1C96  
                       u4110 0D44                         u4030 0CB8                         u3310 1CE8  
                       u3150 1CC5                         u3230 1D7D                         u3070 1CA8  
                       u4111 0D43                         u4031 0CB7                         u3311 1CE7  
                       u3151 1CC4                         u3135 1CB6                         u3215 1DD8  
                       u3231 1D7C                         u3071 1CA7                         u4200 0D96  
                       u4120 0D4E                         u3320 1C59                         u3160 1DB3  
                       u3080 1CF3                         u3400 1E09                         u5000 123D  
                       u4201 0D95                         u4121 0D4D                         u3305 1CDD  
                       u3145 1CBB                         u3321 1C58                         u3161 1DB2  
                       u3081 1CF2                         u5001 123C                         u4210 0D9F  
                       u4130 0D54                         u4050 0CDE                         u3330 1C5F  
                       u3250 1D8D                         u3410 1035                         u3090 1D06  
                       u5010 124F                         u4211 0D9E                         u4131 0D53  
                       u4051 0CDD                         u3331 1C5E                         u3251 1D8C  
                       u3091 1D05                         u5011 124E                         u3420 1C73  
                       u4220 0DA4                         u4140 0D59                         u4060 0D0D  
                       u4300 088D                         u3500 0045                         u3340 1E39  
                       u3180 1DC3                         u3260 1D97                         u5100 12F1  
                       u5020 1261                         u3421 1C72                         u4221 0DA3  
                       u4141 0D58                         u4061 0D0C                         u4053 0CDA  
                       u4045 0CBC                         u4301 088C                         u3501 0044  
                       u3341 1E38                         u3181 1DC2                         u3261 1D96  
                       u3245 1D81                         u3405 1E05                         u5101 12F0  
                       u5021 1260                         u4230 0DB1                         u4150 0D5F  
                       u4070 0D26                         u4310 0892                         u3510 0051  
                       u3350 1E59                         u3430 001E                         u5110 1303  
                       u5030 1273                         u4231 0DB0                         u4151 0D5E  
                       u4071 0D25                         u4311 0891                         u3511 0050  
                       u3351 1E58                         u3175 1DB7                         u3415 1031  
                       u3431 001D                         u5111 1302                         u5031 1272  
                       _PIE1 0091                         u4240 0DB6                         u4160 0D66  
                       u4080 0D2B                         u4400 0942                         u4320 08AD  
                       u3520 0063                         u3280 1DA6                         u3600 10D6  
                       u3440 0026                         u3360 1D5B                         u6000 0652  
                       u5200 0A6A                         u5120 1315                         u5040 1285  
                       u4241 0DB5                         u4161 0D65                         u4081 0D2A  
                       u4401 0941                         u4321 08AC                         u3521 0062  
                       u3281 1DA5                         u3265 1D93                         u3601 10D5  
                       u3441 0025                         u3361 1D5A                         u6001 0651  
                       u5201 0A69                         u5121 1314                         u5041 1284  
                       u4250 0DC3                         u4170 0D6C                         u4410 094A  
                       u4330 08CB                         u3290 1CD8                         u3530 0093  
                       u3610 1112                         u3370 1D72                         u3450 0808  
                       u6010 066C                         u5210 0A7C                         u5130 1327  
                       u5050 1297                         u4251 0DC2                         u4171 0D6B  
                       u4411 0949                         u4331 08CA                         u3291 1CD7  
                       u3531 0092                         u3195 1DC4                         u3275 1D9C  
                       u3611 1111                         u3371 1D71                         u3451 0807  
                       u6011 066B                         u5211 0A7B                         u5131 1326  
                       u5051 1296                         u4180 0D78                         u4500 0999  
                       u4340 0903                         u4260 085E                         u3540 0099  
                       u3620 1125                         u3380 1D2B                         u3460 0811  
                       u6020 06C6                         u5300 0B6B                         u5220 0A8E  
                       u5140 09FE                         u5060 12A9                         u4181 0D77  
                       u4501 0998                         u4341 0902                         u4261 085D  
                       u3541 0098                         u3621 1124                         u3381 1D2A  
                       u3461 0810                         u6021 06C5                         u6005 064E  
                       u5301 0B6A                         u5221 0A8D                         u5141 1339  
                       u5061 12A8                         u3710 1ED6                         u3630 1E8B  
                       u4190 0D87                         u4510 09A7                         u4430 0957  
                       u4270 0864                         u3550 105E                         u3390 1D42  
                       u3470 0828                         u6030 070C                         u5310 0B89  
                       u5230 0AA0                         u5150 0A10                         u5070 12BB  
                       u3711 1ED5                         u3631 1E8A                         u4095 0D35  
                       u4431 0956                         u4271 0863                         u3551 105D  
                       u3391 1D41                         u3471 0827                         u6031 070B  
                       u5311 0B88                         u5231 0A9F                         u5151 0A0F  
                       u5071 12BA                         u3720 1EDB                         u3640 1E96  
                       u4520 09C2                         u4280 0869                         u4600 0E02  
                       u3560 1085                         u3480 0845                         u6040 071D  
                       u5400 1376                         u5320 0BA1                         u5240 0AB2  
                       u5160 0A22                         u5080 12CD                         u3721 1EDA  
                       u3705 1ECC                         u3641 1E95                         u4521 09C1  
                       u4425 094D                         u4281 0868                         u4601 0E01  
                       u3561 1084                         u3481 0844                         u6041 071C  
                       u5401 1375                         u5321 0BA0                         u5305 0B67  
                       u5241 0AB1                         u5161 0A21                         u5081 12CC  
                       u3650 1EA7                         u4530 09DD                         u4450 0967  
                       u4370 0915                         u4290 0887                         u4610 0E19  
                       u3810 1F45                         u3730 1EEF                         u3490 003C  
                       u3570 1094                         u6050 0753                         u5410 1390  
                       u5330 1472                         u5250 0AC4                         u5170 0A34  
                       u5090 12DF                         u3651 1EA6                         u4195 0D83  
                       u4531 09DC                         u4515 09A3                         u4451 0966  
                       u4371 0914                         u4355 0904                         u4291 0886  
                       u4611 0E18                         u3811 1F44                         u3731 1EEE  
                       u3491 003B                         u3571 1093                         u6051 0752  
                       u5411 138E                         u5331 1471                         u5315 0B85  
                       u5251 0AC3                         u5171 0A33                         u5091 12DE  
                       u3900 0C14                         u4540 09F0                         u4460 096C  
                       u4620 0E1E                         u3820 1F4A                         u3740 1F05  
                       u3580 10C5                         u6060 07ED                         u5500 1172  
                       u5420 13B7                         u5340 1497                         u5260 0AD6  
                       u5180 0A46                         u3901 0C13                         u4541 09EF  
                       u4525 09BE                         u4461 096B                         u4445 0959  
                       u4365 090B                         u4621 0E1D                         u3821 1F49  
                       u3805 1F38                         u3581 10C4                         u6061 07EB  
                       u6045 0719                         u5501 1171                         u5421 13B6  
                       u5341 1496                         u5325 0B9D                         u5261 0AD5  
                       u5181 0A45                         u3670 1EB7                         u3910 0C18  
                       u3830 0BC2                         u4470 0980                         u4390 092F  
                       u4710 0F63                         u4550 0DCF                         u3750 1F18  
                       u3590 10D0                         u5510 1190                         u5430 13D5  
                       u5350 14B5                         u5270 0AE8                         u5190 0A58  
                       u3671 1EB6                         u3911 0C17                         u3831 0BC1  
                       u4535 09D9                         u4471 097F                         u4391 092E  
                       u4711 0F62                         u4551 0DCE                         u3751 1F17  
                       u3591 10CF                         u6055 074F                         u5511 118F  
                       u5431 13D4                         u5415 138B                         u5351 14B4  
                       u5335 146E                         u5271 0AE7                         u5191 0A57  
                       u3920 0C54                         u3840 0BC8                         u4480 0987  
                       u4800 0FF0                         u4720 0F68                         u4560 0DD5  
                       u3760 1F1F                         u5600 1746                         u5520 11A8  
                       u5440 13ED                         u5360 14CD                         u5280 0B2B  
                       u3665 1EAB                         u3921 0C53                         u3841 0BC7  
                       u4481 0986                         u4385 0917                         u4801 0FEF  
                       u4721 0F67                         u4705 0F55                         u4561 0DD4  
                       u3761 1F1E                         u3745 1F01                         u3585 10C1  
                       u5601 1745                         u5521 11A7                         u5505 116E  
                       u5441 13EC                         u5425 13B3                         u5361 14CC  
                       u5345 1493                         u5281 0B2A                         u3690 1EC6  
                       u3930 0C5D                         u3850 0BCD                         u4490 098D  
                       u4730 0F7C                         u4650 0F14                         u4570 0DDA  
                       u4810 1F5C                         u5610 1764                         u5530 11CF  
                       u5450 1403                         u5370 14FC                         u5290 0B44  
                       u3691 1EC5                         u3931 0C5B                         u3851 0BCC  
                       u4491 098C                         u4395 092B                         u4731 0F7B  
                       u4635 0E97                         u4571 0DD9                         u4811 1F5B  
                       u5611 1763                         u5531 11CE                         u5515 118C  
                       u5451 1402                         u5435 13D1                         u5371 14FB  
                       u5355 14B1                         u5291 0B43                         u3940 0C5E  
                       u3860 0BE9                         u4740 0F83                         u4660 0F2B  
                       u4580 0DF7                         u3780 1F2F                         u4900 1FCB  
                       u4820 1F60                         u5700 010A                         u5620 177C  
                       u5540 11ED                         u5460 1428                         u5380 151C  
                       _RCIF 008D                         u3685 1EB8                         u3925 0C50  
                       u3861 0BE8                         u4741 0F82                         u4645 0EC2  
                       u4581 0DF6                         u3781 1F2E                         u4901 1FCA  
                       u4821 1F5F                         u6077 0607                         u5701 0109  
                       u5621 177B                         u5605 1742                         u5541 11EC  
                       u5525 11A4                         u5461 1427                         u5445 13E9  
                       u5381 151B                         u5365 14C9                         u3950 0C6E  
                       u3870 0BF0                         u4750 0F89                         u4590 0DFD  
                       u3790 1F36                         u4910 1FCF                         u4830 1F80  
                       u5710 0120                         u5630 17BA                         u5550 1205  
                       u5470 1446                         u5390 1556                         u3695 1EC2  
                       u3951 0C6D                         u3871 0BEF                         u4751 0F88  
                       u4655 0F10                         u4591 0DFC                         u3791 1F35  
                       u3775 1F21                         u4911 1FCE                         u4831 1F7F  
                       u6087 076E                         u5711 011F                         u5631 17B9  
                       u5615 1760                         u5551 1204                         u5535 11CB  
                       u5471 1445                         u5455 13FF                         u5391 1555  
                       u5295 0B40                         u3960 0C78                         u3880 0BF6  
                       u4760 0F95                         u4920 1FE3                         u5800 0231  
                       u5720 0136                         u5640 17D8                         u5560 16C8  
                       u5480 145E                         u6097 1C6A                         u3961 0C77  
                       u3881 0BF5                         u4761 0F94                         u4665 0F27  
                       u5801 0230                         u5721 0135                         u5641 17D7  
                       u5625 1778                         u5561 16C7                         u5545 11E9  
                       u5481 145D                         u5465 1424                         u3890 0BFB  
                       u4770 0FA3                         u4690 0F53                         u4930 1FF2  
                       u4850 1F9D                         u5810 0247                         u5730 015B  
                       u5650 17DD                         u5570 16E9                         u5490 114D  
                       u3891 0BFA                         u4691 0F52                         u4675 0F36  
                       u4931 1FF1                         u4851 1F9C                         u5811 0246  
                       u5731 015A                         u5715 011C                         u5651 17DC  
                       u5635 17B6                         u5571 16E8                         u5555 1201  
                       u5491 114C                         u5475 1442                         u3980 0C8C  
                       u4780 0FBE                         u4940 1FF6                         u5900 0383  
                       u5820 025D                         u5740 0179                         u5660 17F7  
                       u5580 1707                         u3981 0C8B                         u4781 0FBD  
                       u4685 0F49                         u4941 1FF5                         u4925 1FDF  
                       u4845 1F91                         u5901 0382                         u5821 025C  
                       u5741 0178                         u5725 0132                         u5661 17F6  
                       u5645 17D4                         u5581 1706                         u5485 145A  
                       u3990 0C90                         u4790 0FD6                         u4870 1FB7  
                       u5910 03B2                         u5830 0282                         u5750 0191  
                       u5670 00BF                         u5590 171F                         u4950 1688  
                       u3991 0C8F                         u3975 0C7C                         u4791 0FD5  
                       u4775 0F9F                         u4871 1FB6                         u5911 03B1  
                       u5831 0281                         u5815 0243                         u5751 0190  
                       u5735 0157                         u5671 00BE                         u5591 171E  
                       u5575 16E5                         u5495 1149                         u4951 1687  
                       u5920 03C7                         u5840 02A0                         u5760 01C6  
                       u5680 00E7                         u4960 168C                         u4785 0FBA  
                       u4865 1FAB                         u5921 03C6                         u5913 03AE  
                       u5905 037F                         u5841 029F                         u5825 0259  
                       u5761 01C5                         u5745 0175                         u5681 00E6  
                       u5665 17F3                         u5585 1703                         u4961 168B  
                       u4890 1FC5                         u5930 03EC                         u5850 02B5  
                       u5770 01EA                         u5690 0105                         u4970 1693  
                       u4795 0FD2                         u4891 1FC4                         u5931 03EB  
                       u5851 02B4                         u5835 027E                         u5771 01E9  
                       u5755 018D                         u5691 0104                         u5675 00BB  
                       u5595 171B                         u4971 1692                         u5940 040A  
                       u5860 0303                         u5780 020E                         u4980 169A  
                       u4885 1FBB                         u5941 0409                         u5925 03C3  
                       u5861 0302                         u5845 029C                         u5781 020D  
                       u5685 00E3                         u4981 1699                         u5950 0439  
                       u5870 0321                         u5790 022C                         u4990 122B  
                       u5951 0438                         u5935 03E8                         u5871 0320  
                       u5855 02B1                         u5791 022B                         u5775 01E6  
                       u5695 0101                         u4991 16B8                         u5960 046D  
                       u5880 0336                         u5961 046C                         u5953 0435  
                       u5945 0406                         u5881 0335                         u5865 02FF  
                       u5785 020A                         u5970 04B7                         u5890 0365  
                       u5971 04B6                         u5891 0364                         u5875 031D  
                       u5795 0228                         u5980 0593                         u5981 0592  
                       u5885 0332                         u5990 05AC                         u5991 05AB  
                       u5895 0361                         _TXIF 008C                         _WPUB 020D  
             ??_eeprom_write 0071                         _atoi 002C                         _gets 1C27  
                       _main 1585                         fsr0h 0005                         fsr1h 0007  
                       indf0 0000                         fsr0l 0004                  main@set_spd 005B  
                       indf1 0001                         fsr1l 0006                         btemp 007E  
                       start 0002                  main@pzt_l_d 005D              ___fldiv@new_exp 004C  
          ?_read_data_eeprom 0074           ??_read_data_eeprom 0078                ___fltol@sign1 0042  
                      ?_atoi 0076                        ?_gets 0070              __end_of___fladd 0DC5  
                      ?_main 0070              __end_of___fldiv 09FE              __end_of___awdiv 1EE5  
                      _EEADR 0191                        STR_10 212E                        STR_11 2166  
                      STR_20 2152                        STR_12 2126                        STR_13 212A  
                      STR_21 2112                        STR_30 2186                        STR_14 216E  
                      STR_22 2116                        STR_31 2186                        STR_15 217E  
                      STR_23 211A                        STR_40 2186                        STR_32 2186  
                      STR_24 2182                        STR_16 216A                        STR_33 2186  
                      STR_17 215E                        STR_25 211E                        STR_41 204D  
                      STR_42 2186                        STR_34 2186                        STR_26 2172  
                      STR_18 214A                        STR_50 20EA                        STR_51 2186  
                      STR_43 2186                        STR_27 2162                        STR_19 213A  
                      STR_35 2102                        STR_44 2186                        STR_36 2186  
                      STR_28 2156                        STR_52 20D2                        STR_60 2084  
                      STR_45 2186                        STR_37 2186                        STR_29 2142  
                      STR_53 20DA                        STR_61 2079                        STR_46 2186  
                      STR_38 2186                        STR_54 20C2                        STR_70 20BA  
                      STR_62 208F                        STR_71 2186                        STR_55 2186  
                      STR_47 20CA                        STR_39 2037                        STR_63 202C  
                      STR_72 20FA                        STR_64 2063                        STR_48 2058  
                      STR_56 2042                        STR_57 2186                        STR_49 20E2  
                      STR_73 20A5                        STR_65 206E                        STR_66 2186  
                      STR_58 20F2                        STR_74 2020                        STR_67 2186  
                      STR_75 20B0                        STR_59 209A                        STR_68 210A  
                      STR_76 200A                        STR_69 2186              __end_of___flmul 1000  
            __end_of___fltol 1F56              ___awdiv@divisor 0070              __end_of___lwdiv 1DE7  
            __end_of___lwmod 1DAB              ___awdiv@counter 0075                        _RCREG 0199  
                      _RCSTA 019D                        _SPBRG 019B                        _PORTA 000C  
                      _PORTB 000D                        _TRISA 008C                        _TRISB 008D  
                      _TXREG 019A                        _TXSTA 019E                        _cgets 1E2F  
                      _getch 1C2D              __end_of_dpowers 200A              __end_of_isdigit 1C63  
                      atoi@a 0021                        atoi@s 0023                        _putch 1C3D  
                      gets@s 007A                        main@j 0125                        main@k 0120  
                      status 0003                        wtemp0 007E              __end_of_strcspn 1D47  
          _write_data_eeprom 1DE7              __initialization 07FB                 __end_of_atoi 00AA  
               __end_of_gets 1C2D                 __end_of_main 07F1           ?_write_data_eeprom 0074  
                     ??_atoi 0078                       ??_gets 007A                       ??_main 0054  
        ??_write_data_eeprom 0020                       ?_cgets 0072                       ?_getch 0070  
                     _ADCON0 009D                       _ADCON1 009E                       _ADRESH 009C  
                     _ADRESL 009B                       _EEDATA 0193                       _EECON1 0195  
                     _EECON2 0196             ___awdiv@dividend 0072                       ?_putch 0070  
                     _ANSELB 018D                       _FVRCON 0117                       _OSCCON 0099  
           __end_of___xxtofl 2000    __end_of_write_data_eeprom 1E2F                    ??___fladd 0020  
                     ___wmul 1CAB                    ??___fldiv 0042                    ??___awdiv 0074  
                  ??___flmul 0028                    ??___fltol 003E             __end_of_initUART 1C3D  
                  ??___lwdiv 0074                    ??___lwmod 007C                       _getche 1C47  
                     cgets@c 0076                       cgets@s 0078             ___awdiv@quotient 0077  
       __end_of_eeprom_write 1D17                       _printf 1054                       _strchr 1C8D  
                     _strcmp 0005                       _strtok 0801                       _strspn 1D47  
                  ??_isdigit 0070                    ??_strcspn 0079                 ___xxtofl@arg 007A  
               ___xxtofl@exp 0079                 ___xxtofl@val 0070      __end_of__initialization 07FD  
            eeprom_read@addr 0073                   ___fltol@f1 003A                 ??_AD_convert 0072  
             __pcstackCOMMON 0070                __end_of_cgets 1E86                __end_of_getch 1C35  
              __end_of_putch 1C47            eeprom_write@value 0070                      ??_cgets 0074  
                    ??_getch 0070                      ??_putch 0070           __end_of_AD_convert 1C78  
                 __pbssBANK2 0127            __end_of__Umul8_16 1CED                   __pmaintext 1585  
                    ?___wmul 0070                      ?_getche 0070                      _APFCON1 011D  
                    ?_printf 0020                      ?_strchr 0070                      ?_strcmp 0070  
                    ?_strtok 0020                      ?_strspn 0077                    ?___xxtofl 0070  
                  ?_initUART 0070          read_data_eeprom@adr 0074                      ___fladd 0BB9  
                    ___fldiv 0854                      ___awdiv 1E86                      ___flmul 0DC5  
                    ___fltol 1EE5                      ___lwdiv 1DAB                      ___lwmod 1D77  
                    __ptext1 1DE7                      __ptext2 1CED                      __ptext3 0801  
                    __ptext4 1D47                      __ptext5 1D17                      __ptext6 1C8D  
                    __ptext7 0005                      __ptext8 1005                      __ptext9 1C78  
                    _dpowers 2000                      _isdigit 1C51                   ??___xxtofl 0074  
                    cgets@s1 0079                      getche@c 0071                      main@cmd 006F  
                    main@nip 00D8                      main@npd 00DE                      main@val 0063  
                    main@nsp 0061                      main@tmp 00A0                      main@ptr 0122  
                    _strcspn 1D17         end_of_initialization 07FD                   ??_initUART 0070  
               _eeprom_write 1CED                      printf@c 002F                      printf@f 0020  
                    psplit$0 410061                      psplit$1 610062                      psplit$2 620063  
                    psplit$3 630064                      psplit$4 640065                      psplit$5 650066  
                    psplit$6 660067                      strcmp@r 0073                      strspn@i 007B  
read_data_eeprom@set_value_h 0028  read_data_eeprom@set_value_l 0020                  ___fladd@grs 007B  
              ___xxtofl@sign 0078                  ___fldiv@grs 004E                  ___fldiv@rem 0047  
       pnum$maintext_split_1 0061         pnum$maintext_split_2 0062         pnum$maintext_split_3 0063  
       pnum$maintext_split_4 0064         pnum$maintext_split_5 0065         pnum$maintext_split_6 0066  
       pnum$maintext_split_7 0067                  ___flmul@grs 002E                ??_eeprom_read 0070  
                 main@mx_spd 0059               __end_of___wmul 1CCA               __end_of_getche 1C51  
             __end_of_printf 1126               __end_of_strchr 1CAB               __end_of_strcmp 002C  
             __end_of_strtok 0854               __end_of_strspn 1D77          start_initialization 07FB  
           _read_data_eeprom 1005                     ??___wmul 0074          __end_of_eeprom_read 1C8D  
                  __Umul8_16 1CCA                     ??_getche 0071                     ??_printf 0026  
                   ??_strchr 0074                     ??_strcmp 0072                     ??_strtok 0022  
                   ??_strspn 0079                    ___fladd@a 0074                    ___fladd@b 0070  
                  ___fldiv@a 003A                    ___fldiv@b 003E                    ___flmul@a 0024  
                  ___flmul@b 0020                    ___latbits 0003                __pcstackBANK0 0020  
              __pcstackBANK1 00A0                __pcstackBANK2 0120             eeprom_write@addr 0073  
           ___lwdiv@dividend 0072                     ?___fladd 0070                     ?___fldiv 003A  
                   ?___awdiv 0070                     ?___flmul 0020                     ?___fltol 003A  
                 ?__Umul8_16 0070                     ?___lwdiv 0070                     ?___lwmod 0078  
                   _DAC1CON0 0118                     _DAC1CON1 0119                     ?_isdigit 0070  
           ___lwdiv@quotient 0075         write_data_eeprom@adr 0074                     ?_strcspn 0077  
             ___wmul@product 0074                  _eeprom_read 1C78                   _ADCON0bits 009D  
                  main@k_301 00D0            ___wmul@multiplier 0070                    main@k_294 0065  
                 printf@flag 002C                    main@c_pzt 00E2                   printf@prec 002A  
                  main@ndcnt 00E4                    main@intvl 0123                    main@t_npd 0067  
                  main@pzt_d 00D2                    main@pzt_l 00D6                    main@pzt_t 006D  
          AD_convert@channel 0070                   _EECON1bits 0195     __end_of_read_data_eeprom 1054  
                ??__Umul8_16 0072                 pnum$maintext 0041                  _isdigit$906 0070  
     write_data_eeprom@value 0078    read_data_eeprom@set_value 0024                     ___xxtofl 1F56  
            ___lwdiv@divisor 0070              ___lwdiv@counter 0077                     __ptext10 1054  
                   __ptext11 1D77                     __ptext20 1C51                     __ptext12 1DAB  
                   __ptext21 1CAB                     __ptext13 1C35                     __ptext22 1F56  
                   __ptext14 1C27                     __ptext23 1EE5                     __ptext15 1E2F  
                   __ptext24 0DC5                     __ptext16 1C47                     __ptext25 1CCA  
                   __ptext17 1C3D                     __ptext26 0854                     __ptext18 1C2D  
                   __ptext27 0BB9                     __ptext19 002C                     __ptext28 1E86  
                   __ptext29 1C63                     _initUART 1C35                   _AD_convert 1C63  
                   atoi@sign 0020                    printf@val 002D                     main@dist 00EE  
                   main@rcmd 00E8                     main@npos 00EC                    putch@byte 0070  
                 _INTCONbits 000B               __pstringtext10 2079               __pstringtext11 2084  
             __pstringtext20 20DA               __pstringtext12 208F               __pstringtext21 20E2  
             __pstringtext13 209A               __pstringtext30 211E               __pstringtext22 20EA  
             __pstringtext14 20A5               __pstringtext31 2122               __pstringtext23 20F2  
             __pstringtext15 20B0               __pstringtext40 2146               __pstringtext32 2126  
             __pstringtext24 20FA               __pstringtext16 20BA               __pstringtext41 214A  
             __pstringtext33 212A               __pstringtext25 2102               __pstringtext17 20C2  
             __pstringtext50 216E               __pstringtext42 214E               __pstringtext34 212E  
             __pstringtext26 210A               __pstringtext18 20CA               __pstringtext51 2172  
             __pstringtext43 2152               __pstringtext35 2132               __pstringtext27 2112  
             __pstringtext19 20D2               __pstringtext52 2176               __pstringtext44 2156  
             __pstringtext36 2136               __pstringtext28 2116               __pstringtext53 217A  
             __pstringtext45 215A               __pstringtext37 213A               __pstringtext29 211A  
             __pstringtext54 217E               __pstringtext46 215E               __pstringtext38 213E  
             __pstringtext55 2182               __pstringtext47 2162               __pstringtext39 2142  
             __pstringtext56 2186               __pstringtext48 2166               __pstringtext57 0000  
             __pstringtext49 216A                     isdigit@c 0071                    strchr@chr 0072  
              main@NDCNT_ADR 00DA             ___lwmod@dividend 007A                    strchr@ptr 0070  
                  strcspn@s1 007D                    strcspn@s2 0077                main@INTVL_ADR 0069  
                   printf@ap 002B                __pstringtext1 2000                __pstringtext2 2020  
              __pstringtext3 202C                __pstringtext4 2037                __pstringtext5 2042  
              __pstringtext6 204D                __pstringtext7 2058                __pstringtext8 2063  
              __pstringtext9 206E       __Umul8_16@multiplicand 0070                   _OPTION_REG 0095  
                   strcmp@s1 0074                     strcmp@s2 0070              ___lwmod@divisor 0078  
            ___lwmod@counter 007D                     strcspn@i 007B                     strtok@s1 0024  
                   strtok@s2 0020                     strspn@s1 007D                     strspn@s2 0077  
                   strtok@sp 0127                ___fladd@signs 0078   write_data_eeprom@set_value 0025  
              ?_eeprom_write 0070                 ___fladd@aexp 0079                 ___fladd@bexp 007A  
                main@NIP_ADR 00CC                   _STATUSbits 0003                  main@NPD_ADR 00C8  
       __Umul8_16@multiplier 0078                 ?_eeprom_read 0070            __Umul8_16@product 0074  
