

Microchip MPLAB XC8 Assembler V2.41 build 20230208172133 
                                                                                               Sun Jul 14 11:00:00 2024

Microchip MPLAB XC8 C Compiler v2.41 (Free license) build 20230208172133 Og1 
     1                           	processor	16F1788
     2                           	pagewidth 120
     3                           	opt	flic
     4                           	psect	stringtext1,global,class=STRCODE,delta=2,noexec
     5                           	psect	stringtext2,global,class=STRCODE,delta=2,noexec
     6                           	psect	stringtext3,global,class=STRCODE,delta=2,noexec
     7                           	psect	stringtext4,global,class=STRCODE,delta=2,noexec
     8                           	psect	stringtext5,global,class=STRCODE,delta=2,noexec
     9                           	psect	stringtext6,global,class=STRCODE,delta=2,noexec
    10                           	psect	stringtext7,global,class=STRCODE,delta=2,noexec
    11                           	psect	stringtext8,global,class=STRCODE,delta=2,noexec
    12                           	psect	stringtext9,global,class=STRCODE,delta=2,noexec
    13                           	psect	stringtext10,global,class=STRCODE,delta=2,noexec
    14                           	psect	stringtext11,global,class=STRCODE,delta=2,noexec
    15                           	psect	stringtext12,global,class=STRCODE,delta=2,noexec
    16                           	psect	stringtext13,global,class=STRCODE,delta=2,noexec
    17                           	psect	stringtext14,global,class=STRCODE,delta=2,noexec
    18                           	psect	stringtext15,global,class=STRCODE,delta=2,noexec
    19                           	psect	stringtext16,global,class=STRCODE,delta=2,noexec
    20                           	psect	stringtext17,global,class=STRCODE,delta=2,noexec
    21                           	psect	stringtext18,global,class=STRCODE,delta=2,noexec
    22                           	psect	stringtext19,global,class=STRCODE,delta=2,noexec
    23                           	psect	stringtext20,global,class=STRCODE,delta=2,noexec
    24                           	psect	stringtext21,global,class=STRCODE,delta=2,noexec
    25                           	psect	stringtext22,global,class=STRCODE,delta=2,noexec
    26                           	psect	stringtext23,global,class=STRCODE,delta=2,noexec
    27                           	psect	stringtext24,global,class=STRCODE,delta=2,noexec
    28                           	psect	stringtext25,global,class=STRCODE,delta=2,noexec
    29                           	psect	stringtext26,global,class=STRCODE,delta=2,noexec
    30                           	psect	stringtext27,global,class=STRCODE,delta=2,noexec
    31                           	psect	stringtext28,global,class=STRCODE,delta=2,noexec
    32                           	psect	stringtext29,global,class=STRCODE,delta=2,noexec
    33                           	psect	stringtext30,global,class=STRCODE,delta=2,noexec
    34                           	psect	stringtext31,global,class=STRCODE,delta=2,noexec
    35                           	psect	stringtext32,global,class=STRCODE,delta=2,noexec
    36                           	psect	stringtext33,global,class=STRCODE,delta=2,noexec
    37                           	psect	stringtext34,global,class=STRCODE,delta=2,noexec
    38                           	psect	stringtext35,global,class=STRCODE,delta=2,noexec
    39                           	psect	stringtext36,global,class=STRCODE,delta=2,noexec
    40                           	psect	stringtext37,global,class=STRCODE,delta=2,noexec
    41                           	psect	stringtext38,global,class=STRCODE,delta=2,noexec
    42                           	psect	stringtext39,global,class=STRCODE,delta=2,noexec
    43                           	psect	stringtext40,global,class=STRCODE,delta=2,noexec
    44                           	psect	stringtext41,global,class=STRCODE,delta=2,noexec
    45                           	psect	stringtext42,global,class=STRCODE,delta=2,noexec
    46                           	psect	stringtext43,global,class=STRCODE,delta=2,noexec
    47                           	psect	stringtext44,global,class=STRCODE,delta=2,noexec
    48                           	psect	stringtext45,global,class=STRCODE,delta=2,noexec
    49                           	psect	stringtext46,global,class=STRCODE,delta=2,noexec
    50                           	psect	stringtext47,global,class=STRCODE,delta=2,noexec
    51                           	psect	stringtext48,global,class=STRCODE,delta=2,noexec
    52                           	psect	stringtext49,global,class=STRCODE,delta=2,noexec
    53                           	psect	stringtext50,global,class=STRCODE,delta=2,noexec
    54                           	psect	stringtext51,global,class=STRCODE,delta=2,noexec
    55                           	psect	stringtext52,global,class=STRCODE,delta=2,noexec
    56                           	psect	stringtext53,global,class=STRCODE,delta=2,noexec
    57                           	psect	stringtext54,global,class=STRCODE,delta=2,noexec
    58                           	psect	stringtext55,global,class=STRCODE,delta=2,noexec
    59                           	psect	stringtext56,global,class=STRCODE,delta=2,noexec
    60                           	psect	stringtext57,global,class=STRCODE,delta=2,noexec
    61                           	psect	stringtext58,global,class=STRCODE,delta=2,noexec
    62                           	psect	stringtext59,global,class=STRCODE,delta=2,noexec
    63                           	psect	stringtext60,global,class=STRCODE,delta=2,noexec
    64                           	psect	stringtext61,global,class=STRCODE,delta=2,noexec
    65                           	psect	stringtext62,global,class=STRCODE,delta=2,noexec
    66                           	psect	stringtext63,global,class=STRCODE,delta=2,noexec
    67                           	psect	stringtext64,global,class=STRCODE,delta=2,noexec
    68                           	psect	stringtext65,global,class=STRCODE,delta=2,noexec
    69                           	psect	stringtext66,global,class=STRCODE,delta=2,noexec
    70                           	psect	stringtext67,global,class=STRCODE,delta=2,noexec
    71                           	psect	stringtext68,global,class=STRCODE,delta=2,noexec
    72                           	psect	stringtext69,global,class=STRCODE,delta=2,noexec
    73                           	psect	stringtext70,global,class=STRCODE,delta=2,noexec
    74                           	psect	stringtext71,global,class=STRCODE,delta=2,noexec
    75                           	psect	cinit,global,class=CODE,merge=1,delta=2
    76                           	psect	bssBANK0,global,class=BANK0,space=1,delta=1,noexec
    77                           	psect	cstackBANK2,global,class=BANK2,space=1,delta=1,noexec
    78                           	psect	cstackBANK1,global,class=BANK1,space=1,delta=1,noexec
    79                           	psect	cstackCOMMON,global,class=COMMON,space=1,delta=1,noexec
    80                           	psect	cstackBANK0,global,class=BANK0,space=1,delta=1,noexec
    81                           	psect	maintext,global,class=CODE,merge=1,split=1,delta=2
    82                           	psect	text1,local,class=CODE,merge=1,delta=2
    83                           	psect	text2,local,class=CODE,merge=1,delta=2
    84                           	psect	text3,local,class=CODE,merge=1,delta=2,group=3
    85                           	psect	text4,local,class=CODE,merge=1,delta=2,group=3
    86                           	psect	text5,local,class=CODE,merge=1,delta=2,group=3
    87                           	psect	text6,local,class=CODE,merge=1,delta=2,group=3
    88                           	psect	text7,local,class=CODE,merge=1,delta=2,group=3
    89                           	psect	text8,local,class=CODE,merge=1,delta=2
    90                           	psect	text9,local,class=CODE,merge=1,delta=2
    91                           	psect	text10,local,class=CODE,merge=1,delta=2,group=1
    92                           	psect	text11,local,class=CODE,merge=1,delta=2,group=2
    93                           	psect	text12,local,class=CODE,merge=1,delta=2,group=2
    94                           	psect	text13,local,class=CODE,merge=1,delta=2
    95                           	psect	text14,local,class=CODE,merge=1,delta=2,group=3
    96                           	psect	text15,local,class=CODE,merge=1,delta=2,group=3
    97                           	psect	text16,local,class=CODE,merge=1,delta=2
    98                           	psect	text17,local,class=CODE,merge=1,delta=2
    99                           	psect	text18,local,class=CODE,merge=1,delta=2
   100                           	psect	text19,local,class=CODE,merge=1,delta=2,group=3
   101                           	psect	text20,local,class=CODE,merge=1,delta=2,group=3
   102                           	psect	text21,local,class=CODE,merge=1,delta=2,group=2
   103                           	psect	text22,local,class=CODE,merge=1,delta=2,group=2
   104                           	psect	text23,local,class=CODE,merge=1,delta=2,group=2
   105                           	psect	text24,local,class=CODE,merge=1,delta=2,group=2
   106                           	psect	text25,local,class=CODE,merge=1,delta=2,group=2
   107                           	psect	text26,local,class=CODE,merge=1,delta=2,group=2
   108                           	psect	text27,local,class=CODE,merge=1,delta=2,group=2
   109                           	psect	text28,local,class=CODE,merge=1,delta=2,group=2
   110                           	psect	text29,local,class=CODE,merge=1,delta=2
   111                           	psect	idloc,global,abs,ovrld,class=IDLOC,space=5,delta=2,noexec
   112                           	psect	config,global,abs,ovrld,class=CONFIG,space=4,delta=2,noexec
   113                           	psect	maintext_split_1,global,class=CODE,merge=1,split=1,delta=2
   114                           	psect	maintext_split_2,global,class=CODE,merge=1,split=1,delta=2
   115                           	psect	maintext_split_3,global,class=CODE,merge=1,split=1,delta=2
   116                           	psect	maintext_split_4,global,class=CODE,merge=1,split=1,delta=2
   117                           	psect	maintext_split_5,global,class=CODE,merge=1,split=1,delta=2
   118                           	psect	maintext_split_6,global,class=CODE,merge=1,split=1,delta=2
   119                           	psect	maintext_split_7,global,class=CODE,merge=1,split=1,delta=2
   120                           	psect	maintext_split_8,global,class=CODE,merge=1,split=1,delta=2
   121                           	psect	maintext_split_9,global,class=CODE,merge=1,split=1,delta=2
   122                           	psect	maintext_split_10,global,class=CODE,merge=1,split=1,delta=2
   123                           	dabs	1,0x7E,2
   124     0000                     
   125                           ; Version 2.40
   126                           ; Generated 17/11/2021 GMT
   127                           ; 
   128                           ; Copyright © 2021, Microchip Technology Inc. and its subsidiaries ("Microchip")
   129                           ; All rights reserved.
   130                           ; 
   131                           ; This software is developed by Microchip Technology Inc. and its subsidiaries ("Microch
      +                          ip").
   132                           ; 
   133                           ; Redistribution and use in source and binary forms, with or without modification, are
   134                           ; permitted provided that the following conditions are met:
   135                           ; 
   136                           ;     1. Redistributions of source code must retain the above copyright notice, this lis
      +                          t of
   137                           ;        conditions and the following disclaimer.
   138                           ; 
   139                           ;     2. Redistributions in binary form must reproduce the above copyright notice, this 
      +                          list
   140                           ;        of conditions and the following disclaimer in the documentation and/or other
   141                           ;        materials provided with the distribution. Publication is not required when
   142                           ;        this file is used in an embedded application.
   143                           ; 
   144                           ;     3. Microchip's name may not be used to endorse or promote products derived from th
      +                          is
   145                           ;        software without specific prior written permission.
   146                           ; 
   147                           ; THIS SOFTWARE IS PROVIDED BY MICROCHIP "AS IS" AND ANY EXPRESS OR IMPLIED WARRANTIES,
   148                           ; INCLUDING, BUT NOT LIMITED TO, THE IMPLIED WARRANTIES OF MERCHANTABILITY AND FITNESS F
      +                          OR
   149                           ; PURPOSE ARE DISCLAIMED.  IN NO EVENT SHALL MICROCHIP BE LIABLE FOR ANY DIRECT, INDIREC
      +                          T,
   150                           ; INCIDENTAL, SPECIAL, EXEMPLARY, OR CONSEQUENTIAL DAMAGES (INCLUDING BUT NOT LIMITED TO
   151                           ; PROCUREMENT OF SUBSTITUTE GOODS OR SERVICES; LOSS OF USE, DATA OR PROFITS; OR BUSINESS
   152                           ; INTERRUPTION) HOWSOEVER CAUSED AND ON ANY THEORY OF LIABILITY, WHETHER IN CONTRACT, ST
      +                          RICT
   153                           ; LIABILITY, OR TORT (INCLUDING NEGLIGENCE OR OTHERWISE) ARISING IN ANY WAY OUT OF THE U
      +                          SE OF
   154                           ; THIS SOFTWARE, EVEN IF ADVISED OF THE POSSIBILITY OF SUCH DAMAGE.
   155                           ; 
   156                           ; 
   157                           ; Code-generator required, PIC16F1788 Definitions
   158                           ; 
   159                           ; SFR Addresses
   160     0000                     	;# 
   161     0001                     	;# 
   162     0002                     	;# 
   163     0003                     	;# 
   164     0004                     	;# 
   165     0005                     	;# 
   166     0006                     	;# 
   167     0007                     	;# 
   168     0008                     	;# 
   169     0009                     	;# 
   170     000A                     	;# 
   171     000B                     	;# 
   172     000C                     	;# 
   173     000D                     	;# 
   174     000E                     	;# 
   175     0010                     	;# 
   176     0011                     	;# 
   177     0012                     	;# 
   178     0013                     	;# 
   179     0014                     	;# 
   180     0015                     	;# 
   181     0016                     	;# 
   182     0016                     	;# 
   183     0017                     	;# 
   184     0018                     	;# 
   185     0019                     	;# 
   186     001A                     	;# 
   187     001B                     	;# 
   188     001C                     	;# 
   189     008C                     	;# 
   190     008D                     	;# 
   191     008E                     	;# 
   192     0090                     	;# 
   193     0091                     	;# 
   194     0092                     	;# 
   195     0093                     	;# 
   196     0094                     	;# 
   197     0095                     	;# 
   198     0096                     	;# 
   199     0097                     	;# 
   200     0098                     	;# 
   201     0099                     	;# 
   202     009A                     	;# 
   203     009B                     	;# 
   204     009B                     	;# 
   205     009C                     	;# 
   206     009D                     	;# 
   207     009E                     	;# 
   208     009F                     	;# 
   209     010C                     	;# 
   210     010D                     	;# 
   211     010E                     	;# 
   212     0111                     	;# 
   213     0112                     	;# 
   214     0113                     	;# 
   215     0114                     	;# 
   216     0115                     	;# 
   217     0116                     	;# 
   218     0117                     	;# 
   219     0118                     	;# 
   220     0119                     	;# 
   221     011A                     	;# 
   222     011B                     	;# 
   223     011C                     	;# 
   224     011D                     	;# 
   225     011D                     	;# 
   226     011D                     	;# 
   227     011E                     	;# 
   228     011F                     	;# 
   229     018C                     	;# 
   230     018D                     	;# 
   231     018E                     	;# 
   232     0191                     	;# 
   233     0191                     	;# 
   234     0192                     	;# 
   235     0193                     	;# 
   236     0193                     	;# 
   237     0193                     	;# 
   238     0194                     	;# 
   239     0195                     	;# 
   240     0196                     	;# 
   241     0197                     	;# 
   242     0199                     	;# 
   243     0199                     	;# 
   244     0199                     	;# 
   245     019A                     	;# 
   246     019A                     	;# 
   247     019A                     	;# 
   248     019B                     	;# 
   249     019B                     	;# 
   250     019B                     	;# 
   251     019B                     	;# 
   252     019B                     	;# 
   253     019C                     	;# 
   254     019C                     	;# 
   255     019C                     	;# 
   256     019D                     	;# 
   257     019D                     	;# 
   258     019D                     	;# 
   259     019E                     	;# 
   260     019E                     	;# 
   261     019E                     	;# 
   262     019F                     	;# 
   263     019F                     	;# 
   264     019F                     	;# 
   265     019F                     	;# 
   266     019F                     	;# 
   267     020C                     	;# 
   268     020D                     	;# 
   269     020E                     	;# 
   270     0210                     	;# 
   271     0211                     	;# 
   272     0211                     	;# 
   273     0212                     	;# 
   274     0212                     	;# 
   275     0213                     	;# 
   276     0213                     	;# 
   277     0214                     	;# 
   278     0214                     	;# 
   279     0215                     	;# 
   280     0215                     	;# 
   281     0215                     	;# 
   282     0215                     	;# 
   283     0216                     	;# 
   284     0216                     	;# 
   285     0217                     	;# 
   286     0217                     	;# 
   287     028C                     	;# 
   288     028D                     	;# 
   289     028E                     	;# 
   290     0291                     	;# 
   291     0291                     	;# 
   292     0292                     	;# 
   293     0293                     	;# 
   294     0298                     	;# 
   295     0298                     	;# 
   296     0299                     	;# 
   297     029A                     	;# 
   298     030C                     	;# 
   299     030D                     	;# 
   300     030E                     	;# 
   301     0311                     	;# 
   302     0311                     	;# 
   303     0312                     	;# 
   304     0313                     	;# 
   305     038C                     	;# 
   306     038D                     	;# 
   307     038E                     	;# 
   308     0390                     	;# 
   309     0391                     	;# 
   310     0392                     	;# 
   311     0393                     	;# 
   312     0394                     	;# 
   313     0395                     	;# 
   314     0396                     	;# 
   315     0397                     	;# 
   316     0398                     	;# 
   317     0399                     	;# 
   318     039D                     	;# 
   319     039E                     	;# 
   320     039F                     	;# 
   321     0511                     	;# 
   322     0513                     	;# 
   323     051A                     	;# 
   324     0591                     	;# 
   325     0592                     	;# 
   326     0592                     	;# 
   327     0593                     	;# 
   328     0594                     	;# 
   329     0594                     	;# 
   330     0595                     	;# 
   331     0596                     	;# 
   332     0596                     	;# 
   333     0E91                     	;# 
   334     0E92                     	;# 
   335     0E93                     	;# 
   336     0E94                     	;# 
   337     0E95                     	;# 
   338     0E96                     	;# 
   339     0E97                     	;# 
   340     0E98                     	;# 
   341     0E99                     	;# 
   342     0E9A                     	;# 
   343     0E9B                     	;# 
   344     0E9C                     	;# 
   345     0E9D                     	;# 
   346     0E9E                     	;# 
   347     0E9F                     	;# 
   348     0EA0                     	;# 
   349     0EA1                     	;# 
   350     0EA1                     	;# 
   351     0EA2                     	;# 
   352     0EA3                     	;# 
   353     0EA3                     	;# 
   354     0EA4                     	;# 
   355     0EA5                     	;# 
   356     0EA5                     	;# 
   357     0EA6                     	;# 
   358     0EA7                     	;# 
   359     0EA7                     	;# 
   360     0EA8                     	;# 
   361     0EA9                     	;# 
   362     0EAA                     	;# 
   363     0EAB                     	;# 
   364     0EAC                     	;# 
   365     0EAD                     	;# 
   366     0EAE                     	;# 
   367     0EAF                     	;# 
   368     0EB1                     	;# 
   369     0EB2                     	;# 
   370     0EB3                     	;# 
   371     0EB4                     	;# 
   372     0EB5                     	;# 
   373     0EB6                     	;# 
   374     0EB7                     	;# 
   375     0EB8                     	;# 
   376     0EB9                     	;# 
   377     0EBA                     	;# 
   378     0EBB                     	;# 
   379     0EBC                     	;# 
   380     0EBD                     	;# 
   381     0EBE                     	;# 
   382     0EBF                     	;# 
   383     0EC0                     	;# 
   384     0EC1                     	;# 
   385     0EC1                     	;# 
   386     0EC2                     	;# 
   387     0EC3                     	;# 
   388     0EC3                     	;# 
   389     0EC4                     	;# 
   390     0EC5                     	;# 
   391     0EC5                     	;# 
   392     0EC6                     	;# 
   393     0EC7                     	;# 
   394     0EC7                     	;# 
   395     0EC8                     	;# 
   396     0EC9                     	;# 
   397     0ECA                     	;# 
   398     0ECB                     	;# 
   399     0ECC                     	;# 
   400     0ECD                     	;# 
   401     0ECE                     	;# 
   402     0ECF                     	;# 
   403     0ED1                     	;# 
   404     0ED2                     	;# 
   405     0ED3                     	;# 
   406     0ED4                     	;# 
   407     0ED5                     	;# 
   408     0ED6                     	;# 
   409     0ED7                     	;# 
   410     0ED8                     	;# 
   411     0ED9                     	;# 
   412     0EDA                     	;# 
   413     0EDB                     	;# 
   414     0EDC                     	;# 
   415     0EDD                     	;# 
   416     0EDE                     	;# 
   417     0EDF                     	;# 
   418     0EE0                     	;# 
   419     0EE1                     	;# 
   420     0EE1                     	;# 
   421     0EE2                     	;# 
   422     0EE3                     	;# 
   423     0EE3                     	;# 
   424     0EE4                     	;# 
   425     0EE5                     	;# 
   426     0EE5                     	;# 
   427     0EE6                     	;# 
   428     0EE7                     	;# 
   429     0EE7                     	;# 
   430     0EE8                     	;# 
   431     0EE9                     	;# 
   432     0EEA                     	;# 
   433     0EEB                     	;# 
   434     0EEC                     	;# 
   435     0EED                     	;# 
   436     0EEE                     	;# 
   437     0EEF                     	;# 
   438     0F11                     	;# 
   439     0F12                     	;# 
   440     0F13                     	;# 
   441     0F14                     	;# 
   442     0F15                     	;# 
   443     0F16                     	;# 
   444     0F17                     	;# 
   445     0F18                     	;# 
   446     0F19                     	;# 
   447     0F1A                     	;# 
   448     0F1B                     	;# 
   449     0F1C                     	;# 
   450     0F1D                     	;# 
   451     0F1E                     	;# 
   452     0F1F                     	;# 
   453     0F20                     	;# 
   454     0F21                     	;# 
   455     0F21                     	;# 
   456     0F22                     	;# 
   457     0F23                     	;# 
   458     0F23                     	;# 
   459     0F24                     	;# 
   460     0F25                     	;# 
   461     0F25                     	;# 
   462     0F26                     	;# 
   463     0F27                     	;# 
   464     0F27                     	;# 
   465     0F28                     	;# 
   466     0F29                     	;# 
   467     0F2A                     	;# 
   468     0F2B                     	;# 
   469     0F2C                     	;# 
   470     0F2D                     	;# 
   471     0F2E                     	;# 
   472     0F2F                     	;# 
   473     0FE4                     	;# 
   474     0FE5                     	;# 
   475     0FE6                     	;# 
   476     0FE7                     	;# 
   477     0FE8                     	;# 
   478     0FE9                     	;# 
   479     0FEA                     	;# 
   480     0FEB                     	;# 
   481     0FED                     	;# 
   482     0FEE                     	;# 
   483     0FEF                     	;# 
   484     0000                     	;# 
   485     0001                     	;# 
   486     0002                     	;# 
   487     0003                     	;# 
   488     0004                     	;# 
   489     0005                     	;# 
   490     0006                     	;# 
   491     0007                     	;# 
   492     0008                     	;# 
   493     0009                     	;# 
   494     000A                     	;# 
   495     000B                     	;# 
   496     000C                     	;# 
   497     000D                     	;# 
   498     000E                     	;# 
   499     0010                     	;# 
   500     0011                     	;# 
   501     0012                     	;# 
   502     0013                     	;# 
   503     0014                     	;# 
   504     0015                     	;# 
   505     0016                     	;# 
   506     0016                     	;# 
   507     0017                     	;# 
   508     0018                     	;# 
   509     0019                     	;# 
   510     001A                     	;# 
   511     001B                     	;# 
   512     001C                     	;# 
   513     008C                     	;# 
   514     008D                     	;# 
   515     008E                     	;# 
   516     0090                     	;# 
   517     0091                     	;# 
   518     0092                     	;# 
   519     0093                     	;# 
   520     0094                     	;# 
   521     0095                     	;# 
   522     0096                     	;# 
   523     0097                     	;# 
   524     0098                     	;# 
   525     0099                     	;# 
   526     009A                     	;# 
   527     009B                     	;# 
   528     009B                     	;# 
   529     009C                     	;# 
   530     009D                     	;# 
   531     009E                     	;# 
   532     009F                     	;# 
   533     010C                     	;# 
   534     010D                     	;# 
   535     010E                     	;# 
   536     0111                     	;# 
   537     0112                     	;# 
   538     0113                     	;# 
   539     0114                     	;# 
   540     0115                     	;# 
   541     0116                     	;# 
   542     0117                     	;# 
   543     0118                     	;# 
   544     0119                     	;# 
   545     011A                     	;# 
   546     011B                     	;# 
   547     011C                     	;# 
   548     011D                     	;# 
   549     011D                     	;# 
   550     011D                     	;# 
   551     011E                     	;# 
   552     011F                     	;# 
   553     018C                     	;# 
   554     018D                     	;# 
   555     018E                     	;# 
   556     0191                     	;# 
   557     0191                     	;# 
   558     0192                     	;# 
   559     0193                     	;# 
   560     0193                     	;# 
   561     0193                     	;# 
   562     0194                     	;# 
   563     0195                     	;# 
   564     0196                     	;# 
   565     0197                     	;# 
   566     0199                     	;# 
   567     0199                     	;# 
   568     0199                     	;# 
   569     019A                     	;# 
   570     019A                     	;# 
   571     019A                     	;# 
   572     019B                     	;# 
   573     019B                     	;# 
   574     019B                     	;# 
   575     019B                     	;# 
   576     019B                     	;# 
   577     019C                     	;# 
   578     019C                     	;# 
   579     019C                     	;# 
   580     019D                     	;# 
   581     019D                     	;# 
   582     019D                     	;# 
   583     019E                     	;# 
   584     019E                     	;# 
   585     019E                     	;# 
   586     019F                     	;# 
   587     019F                     	;# 
   588     019F                     	;# 
   589     019F                     	;# 
   590     019F                     	;# 
   591     020C                     	;# 
   592     020D                     	;# 
   593     020E                     	;# 
   594     0210                     	;# 
   595     0211                     	;# 
   596     0211                     	;# 
   597     0212                     	;# 
   598     0212                     	;# 
   599     0213                     	;# 
   600     0213                     	;# 
   601     0214                     	;# 
   602     0214                     	;# 
   603     0215                     	;# 
   604     0215                     	;# 
   605     0215                     	;# 
   606     0215                     	;# 
   607     0216                     	;# 
   608     0216                     	;# 
   609     0217                     	;# 
   610     0217                     	;# 
   611     028C                     	;# 
   612     028D                     	;# 
   613     028E                     	;# 
   614     0291                     	;# 
   615     0291                     	;# 
   616     0292                     	;# 
   617     0293                     	;# 
   618     0298                     	;# 
   619     0298                     	;# 
   620     0299                     	;# 
   621     029A                     	;# 
   622     030C                     	;# 
   623     030D                     	;# 
   624     030E                     	;# 
   625     0311                     	;# 
   626     0311                     	;# 
   627     0312                     	;# 
   628     0313                     	;# 
   629     038C                     	;# 
   630     038D                     	;# 
   631     038E                     	;# 
   632     0390                     	;# 
   633     0391                     	;# 
   634     0392                     	;# 
   635     0393                     	;# 
   636     0394                     	;# 
   637     0395                     	;# 
   638     0396                     	;# 
   639     0397                     	;# 
   640     0398                     	;# 
   641     0399                     	;# 
   642     039D                     	;# 
   643     039E                     	;# 
   644     039F                     	;# 
   645     0511                     	;# 
   646     0513                     	;# 
   647     051A                     	;# 
   648     0591                     	;# 
   649     0592                     	;# 
   650     0592                     	;# 
   651     0593                     	;# 
   652     0594                     	;# 
   653     0594                     	;# 
   654     0595                     	;# 
   655     0596                     	;# 
   656     0596                     	;# 
   657     0E91                     	;# 
   658     0E92                     	;# 
   659     0E93                     	;# 
   660     0E94                     	;# 
   661     0E95                     	;# 
   662     0E96                     	;# 
   663     0E97                     	;# 
   664     0E98                     	;# 
   665     0E99                     	;# 
   666     0E9A                     	;# 
   667     0E9B                     	;# 
   668     0E9C                     	;# 
   669     0E9D                     	;# 
   670     0E9E                     	;# 
   671     0E9F                     	;# 
   672     0EA0                     	;# 
   673     0EA1                     	;# 
   674     0EA1                     	;# 
   675     0EA2                     	;# 
   676     0EA3                     	;# 
   677     0EA3                     	;# 
   678     0EA4                     	;# 
   679     0EA5                     	;# 
   680     0EA5                     	;# 
   681     0EA6                     	;# 
   682     0EA7                     	;# 
   683     0EA7                     	;# 
   684     0EA8                     	;# 
   685     0EA9                     	;# 
   686     0EAA                     	;# 
   687     0EAB                     	;# 
   688     0EAC                     	;# 
   689     0EAD                     	;# 
   690     0EAE                     	;# 
   691     0EAF                     	;# 
   692     0EB1                     	;# 
   693     0EB2                     	;# 
   694     0EB3                     	;# 
   695     0EB4                     	;# 
   696     0EB5                     	;# 
   697     0EB6                     	;# 
   698     0EB7                     	;# 
   699     0EB8                     	;# 
   700     0EB9                     	;# 
   701     0EBA                     	;# 
   702     0EBB                     	;# 
   703     0EBC                     	;# 
   704     0EBD                     	;# 
   705     0EBE                     	;# 
   706     0EBF                     	;# 
   707     0EC0                     	;# 
   708     0EC1                     	;# 
   709     0EC1                     	;# 
   710     0EC2                     	;# 
   711     0EC3                     	;# 
   712     0EC3                     	;# 
   713     0EC4                     	;# 
   714     0EC5                     	;# 
   715     0EC5                     	;# 
   716     0EC6                     	;# 
   717     0EC7                     	;# 
   718     0EC7                     	;# 
   719     0EC8                     	;# 
   720     0EC9                     	;# 
   721     0ECA                     	;# 
   722     0ECB                     	;# 
   723     0ECC                     	;# 
   724     0ECD                     	;# 
   725     0ECE                     	;# 
   726     0ECF                     	;# 
   727     0ED1                     	;# 
   728     0ED2                     	;# 
   729     0ED3                     	;# 
   730     0ED4                     	;# 
   731     0ED5                     	;# 
   732     0ED6                     	;# 
   733     0ED7                     	;# 
   734     0ED8                     	;# 
   735     0ED9                     	;# 
   736     0EDA                     	;# 
   737     0EDB                     	;# 
   738     0EDC                     	;# 
   739     0EDD                     	;# 
   740     0EDE                     	;# 
   741     0EDF                     	;# 
   742     0EE0                     	;# 
   743     0EE1                     	;# 
   744     0EE1                     	;# 
   745     0EE2                     	;# 
   746     0EE3                     	;# 
   747     0EE3                     	;# 
   748     0EE4                     	;# 
   749     0EE5                     	;# 
   750     0EE5                     	;# 
   751     0EE6                     	;# 
   752     0EE7                     	;# 
   753     0EE7                     	;# 
   754     0EE8                     	;# 
   755     0EE9                     	;# 
   756     0EEA                     	;# 
   757     0EEB                     	;# 
   758     0EEC                     	;# 
   759     0EED                     	;# 
   760     0EEE                     	;# 
   761     0EEF                     	;# 
   762     0F11                     	;# 
   763     0F12                     	;# 
   764     0F13                     	;# 
   765     0F14                     	;# 
   766     0F15                     	;# 
   767     0F16                     	;# 
   768     0F17                     	;# 
   769     0F18                     	;# 
   770     0F19                     	;# 
   771     0F1A                     	;# 
   772     0F1B                     	;# 
   773     0F1C                     	;# 
   774     0F1D                     	;# 
   775     0F1E                     	;# 
   776     0F1F                     	;# 
   777     0F20                     	;# 
   778     0F21                     	;# 
   779     0F21                     	;# 
   780     0F22                     	;# 
   781     0F23                     	;# 
   782     0F23                     	;# 
   783     0F24                     	;# 
   784     0F25                     	;# 
   785     0F25                     	;# 
   786     0F26                     	;# 
   787     0F27                     	;# 
   788     0F27                     	;# 
   789     0F28                     	;# 
   790     0F29                     	;# 
   791     0F2A                     	;# 
   792     0F2B                     	;# 
   793     0F2C                     	;# 
   794     0F2D                     	;# 
   795     0F2E                     	;# 
   796     0F2F                     	;# 
   797     0FE4                     	;# 
   798     0FE5                     	;# 
   799     0FE6                     	;# 
   800     0FE7                     	;# 
   801     0FE8                     	;# 
   802     0FE9                     	;# 
   803     0FEA                     	;# 
   804     0FEB                     	;# 
   805     0FED                     	;# 
   806     0FEE                     	;# 
   807     0FEF                     	;# 
   808     0000                     	;# 
   809     0001                     	;# 
   810     0002                     	;# 
   811     0003                     	;# 
   812     0004                     	;# 
   813     0005                     	;# 
   814     0006                     	;# 
   815     0007                     	;# 
   816     0008                     	;# 
   817     0009                     	;# 
   818     000A                     	;# 
   819     000B                     	;# 
   820     000C                     	;# 
   821     000D                     	;# 
   822     000E                     	;# 
   823     0010                     	;# 
   824     0011                     	;# 
   825     0012                     	;# 
   826     0013                     	;# 
   827     0014                     	;# 
   828     0015                     	;# 
   829     0016                     	;# 
   830     0016                     	;# 
   831     0017                     	;# 
   832     0018                     	;# 
   833     0019                     	;# 
   834     001A                     	;# 
   835     001B                     	;# 
   836     001C                     	;# 
   837     008C                     	;# 
   838     008D                     	;# 
   839     008E                     	;# 
   840     0090                     	;# 
   841     0091                     	;# 
   842     0092                     	;# 
   843     0093                     	;# 
   844     0094                     	;# 
   845     0095                     	;# 
   846     0096                     	;# 
   847     0097                     	;# 
   848     0098                     	;# 
   849     0099                     	;# 
   850     009A                     	;# 
   851     009B                     	;# 
   852     009B                     	;# 
   853     009C                     	;# 
   854     009D                     	;# 
   855     009E                     	;# 
   856     009F                     	;# 
   857     010C                     	;# 
   858     010D                     	;# 
   859     010E                     	;# 
   860     0111                     	;# 
   861     0112                     	;# 
   862     0113                     	;# 
   863     0114                     	;# 
   864     0115                     	;# 
   865     0116                     	;# 
   866     0117                     	;# 
   867     0118                     	;# 
   868     0119                     	;# 
   869     011A                     	;# 
   870     011B                     	;# 
   871     011C                     	;# 
   872     011D                     	;# 
   873     011D                     	;# 
   874     011D                     	;# 
   875     011E                     	;# 
   876     011F                     	;# 
   877     018C                     	;# 
   878     018D                     	;# 
   879     018E                     	;# 
   880     0191                     	;# 
   881     0191                     	;# 
   882     0192                     	;# 
   883     0193                     	;# 
   884     0193                     	;# 
   885     0193                     	;# 
   886     0194                     	;# 
   887     0195                     	;# 
   888     0196                     	;# 
   889     0197                     	;# 
   890     0199                     	;# 
   891     0199                     	;# 
   892     0199                     	;# 
   893     019A                     	;# 
   894     019A                     	;# 
   895     019A                     	;# 
   896     019B                     	;# 
   897     019B                     	;# 
   898     019B                     	;# 
   899     019B                     	;# 
   900     019B                     	;# 
   901     019C                     	;# 
   902     019C                     	;# 
   903     019C                     	;# 
   904     019D                     	;# 
   905     019D                     	;# 
   906     019D                     	;# 
   907     019E                     	;# 
   908     019E                     	;# 
   909     019E                     	;# 
   910     019F                     	;# 
   911     019F                     	;# 
   912     019F                     	;# 
   913     019F                     	;# 
   914     019F                     	;# 
   915     020C                     	;# 
   916     020D                     	;# 
   917     020E                     	;# 
   918     0210                     	;# 
   919     0211                     	;# 
   920     0211                     	;# 
   921     0212                     	;# 
   922     0212                     	;# 
   923     0213                     	;# 
   924     0213                     	;# 
   925     0214                     	;# 
   926     0214                     	;# 
   927     0215                     	;# 
   928     0215                     	;# 
   929     0215                     	;# 
   930     0215                     	;# 
   931     0216                     	;# 
   932     0216                     	;# 
   933     0217                     	;# 
   934     0217                     	;# 
   935     028C                     	;# 
   936     028D                     	;# 
   937     028E                     	;# 
   938     0291                     	;# 
   939     0291                     	;# 
   940     0292                     	;# 
   941     0293                     	;# 
   942     0298                     	;# 
   943     0298                     	;# 
   944     0299                     	;# 
   945     029A                     	;# 
   946     030C                     	;# 
   947     030D                     	;# 
   948     030E                     	;# 
   949     0311                     	;# 
   950     0311                     	;# 
   951     0312                     	;# 
   952     0313                     	;# 
   953     038C                     	;# 
   954     038D                     	;# 
   955     038E                     	;# 
   956     0390                     	;# 
   957     0391                     	;# 
   958     0392                     	;# 
   959     0393                     	;# 
   960     0394                     	;# 
   961     0395                     	;# 
   962     0396                     	;# 
   963     0397                     	;# 
   964     0398                     	;# 
   965     0399                     	;# 
   966     039D                     	;# 
   967     039E                     	;# 
   968     039F                     	;# 
   969     0511                     	;# 
   970     0513                     	;# 
   971     051A                     	;# 
   972     0591                     	;# 
   973     0592                     	;# 
   974     0592                     	;# 
   975     0593                     	;# 
   976     0594                     	;# 
   977     0594                     	;# 
   978     0595                     	;# 
   979     0596                     	;# 
   980     0596                     	;# 
   981     0E91                     	;# 
   982     0E92                     	;# 
   983     0E93                     	;# 
   984     0E94                     	;# 
   985     0E95                     	;# 
   986     0E96                     	;# 
   987     0E97                     	;# 
   988     0E98                     	;# 
   989     0E99                     	;# 
   990     0E9A                     	;# 
   991     0E9B                     	;# 
   992     0E9C                     	;# 
   993     0E9D                     	;# 
   994     0E9E                     	;# 
   995     0E9F                     	;# 
   996     0EA0                     	;# 
   997     0EA1                     	;# 
   998     0EA1                     	;# 
   999     0EA2                     	;# 
  1000     0EA3                     	;# 
  1001     0EA3                     	;# 
  1002     0EA4                     	;# 
  1003     0EA5                     	;# 
  1004     0EA5                     	;# 
  1005     0EA6                     	;# 
  1006     0EA7                     	;# 
  1007     0EA7                     	;# 
  1008     0EA8                     	;# 
  1009     0EA9                     	;# 
  1010     0EAA                     	;# 
  1011     0EAB                     	;# 
  1012     0EAC                     	;# 
  1013     0EAD                     	;# 
  1014     0EAE                     	;# 
  1015     0EAF                     	;# 
  1016     0EB1                     	;# 
  1017     0EB2                     	;# 
  1018     0EB3                     	;# 
  1019     0EB4                     	;# 
  1020     0EB5                     	;# 
  1021     0EB6                     	;# 
  1022     0EB7                     	;# 
  1023     0EB8                     	;# 
  1024     0EB9                     	;# 
  1025     0EBA                     	;# 
  1026     0EBB                     	;# 
  1027     0EBC                     	;# 
  1028     0EBD                     	;# 
  1029     0EBE                     	;# 
  1030     0EBF                     	;# 
  1031     0EC0                     	;# 
  1032     0EC1                     	;# 
  1033     0EC1                     	;# 
  1034     0EC2                     	;# 
  1035     0EC3                     	;# 
  1036     0EC3                     	;# 
  1037     0EC4                     	;# 
  1038     0EC5                     	;# 
  1039     0EC5                     	;# 
  1040     0EC6                     	;# 
  1041     0EC7                     	;# 
  1042     0EC7                     	;# 
  1043     0EC8                     	;# 
  1044     0EC9                     	;# 
  1045     0ECA                     	;# 
  1046     0ECB                     	;# 
  1047     0ECC                     	;# 
  1048     0ECD                     	;# 
  1049     0ECE                     	;# 
  1050     0ECF                     	;# 
  1051     0ED1                     	;# 
  1052     0ED2                     	;# 
  1053     0ED3                     	;# 
  1054     0ED4                     	;# 
  1055     0ED5                     	;# 
  1056     0ED6                     	;# 
  1057     0ED7                     	;# 
  1058     0ED8                     	;# 
  1059     0ED9                     	;# 
  1060     0EDA                     	;# 
  1061     0EDB                     	;# 
  1062     0EDC                     	;# 
  1063     0EDD                     	;# 
  1064     0EDE                     	;# 
  1065     0EDF                     	;# 
  1066     0EE0                     	;# 
  1067     0EE1                     	;# 
  1068     0EE1                     	;# 
  1069     0EE2                     	;# 
  1070     0EE3                     	;# 
  1071     0EE3                     	;# 
  1072     0EE4                     	;# 
  1073     0EE5                     	;# 
  1074     0EE5                     	;# 
  1075     0EE6                     	;# 
  1076     0EE7                     	;# 
  1077     0EE7                     	;# 
  1078     0EE8                     	;# 
  1079     0EE9                     	;# 
  1080     0EEA                     	;# 
  1081     0EEB                     	;# 
  1082     0EEC                     	;# 
  1083     0EED                     	;# 
  1084     0EEE                     	;# 
  1085     0EEF                     	;# 
  1086     0F11                     	;# 
  1087     0F12                     	;# 
  1088     0F13                     	;# 
  1089     0F14                     	;# 
  1090     0F15                     	;# 
  1091     0F16                     	;# 
  1092     0F17                     	;# 
  1093     0F18                     	;# 
  1094     0F19                     	;# 
  1095     0F1A                     	;# 
  1096     0F1B                     	;# 
  1097     0F1C                     	;# 
  1098     0F1D                     	;# 
  1099     0F1E                     	;# 
  1100     0F1F                     	;# 
  1101     0F20                     	;# 
  1102     0F21                     	;# 
  1103     0F21                     	;# 
  1104     0F22                     	;# 
  1105     0F23                     	;# 
  1106     0F23                     	;# 
  1107     0F24                     	;# 
  1108     0F25                     	;# 
  1109     0F25                     	;# 
  1110     0F26                     	;# 
  1111     0F27                     	;# 
  1112     0F27                     	;# 
  1113     0F28                     	;# 
  1114     0F29                     	;# 
  1115     0F2A                     	;# 
  1116     0F2B                     	;# 
  1117     0F2C                     	;# 
  1118     0F2D                     	;# 
  1119     0F2E                     	;# 
  1120     0F2F                     	;# 
  1121     0FE4                     	;# 
  1122     0FE5                     	;# 
  1123     0FE6                     	;# 
  1124     0FE7                     	;# 
  1125     0FE8                     	;# 
  1126     0FE9                     	;# 
  1127     0FEA                     	;# 
  1128     0FEB                     	;# 
  1129     0FED                     	;# 
  1130     0FEE                     	;# 
  1131     0FEF                     	;# 
  1132     0000                     	;# 
  1133     0001                     	;# 
  1134     0002                     	;# 
  1135     0003                     	;# 
  1136     0004                     	;# 
  1137     0005                     	;# 
  1138     0006                     	;# 
  1139     0007                     	;# 
  1140     0008                     	;# 
  1141     0009                     	;# 
  1142     000A                     	;# 
  1143     000B                     	;# 
  1144     000C                     	;# 
  1145     000D                     	;# 
  1146     000E                     	;# 
  1147     0010                     	;# 
  1148     0011                     	;# 
  1149     0012                     	;# 
  1150     0013                     	;# 
  1151     0014                     	;# 
  1152     0015                     	;# 
  1153     0016                     	;# 
  1154     0016                     	;# 
  1155     0017                     	;# 
  1156     0018                     	;# 
  1157     0019                     	;# 
  1158     001A                     	;# 
  1159     001B                     	;# 
  1160     001C                     	;# 
  1161     008C                     	;# 
  1162     008D                     	;# 
  1163     008E                     	;# 
  1164     0090                     	;# 
  1165     0091                     	;# 
  1166     0092                     	;# 
  1167     0093                     	;# 
  1168     0094                     	;# 
  1169     0095                     	;# 
  1170     0096                     	;# 
  1171     0097                     	;# 
  1172     0098                     	;# 
  1173     0099                     	;# 
  1174     009A                     	;# 
  1175     009B                     	;# 
  1176     009B                     	;# 
  1177     009C                     	;# 
  1178     009D                     	;# 
  1179     009E                     	;# 
  1180     009F                     	;# 
  1181     010C                     	;# 
  1182     010D                     	;# 
  1183     010E                     	;# 
  1184     0111                     	;# 
  1185     0112                     	;# 
  1186     0113                     	;# 
  1187     0114                     	;# 
  1188     0115                     	;# 
  1189     0116                     	;# 
  1190     0117                     	;# 
  1191     0118                     	;# 
  1192     0119                     	;# 
  1193     011A                     	;# 
  1194     011B                     	;# 
  1195     011C                     	;# 
  1196     011D                     	;# 
  1197     011D                     	;# 
  1198     011D                     	;# 
  1199     011E                     	;# 
  1200     011F                     	;# 
  1201     018C                     	;# 
  1202     018D                     	;# 
  1203     018E                     	;# 
  1204     0191                     	;# 
  1205     0191                     	;# 
  1206     0192                     	;# 
  1207     0193                     	;# 
  1208     0193                     	;# 
  1209     0193                     	;# 
  1210     0194                     	;# 
  1211     0195                     	;# 
  1212     0196                     	;# 
  1213     0197                     	;# 
  1214     0199                     	;# 
  1215     0199                     	;# 
  1216     0199                     	;# 
  1217     019A                     	;# 
  1218     019A                     	;# 
  1219     019A                     	;# 
  1220     019B                     	;# 
  1221     019B                     	;# 
  1222     019B                     	;# 
  1223     019B                     	;# 
  1224     019B                     	;# 
  1225     019C                     	;# 
  1226     019C                     	;# 
  1227     019C                     	;# 
  1228     019D                     	;# 
  1229     019D                     	;# 
  1230     019D                     	;# 
  1231     019E                     	;# 
  1232     019E                     	;# 
  1233     019E                     	;# 
  1234     019F                     	;# 
  1235     019F                     	;# 
  1236     019F                     	;# 
  1237     019F                     	;# 
  1238     019F                     	;# 
  1239     020C                     	;# 
  1240     020D                     	;# 
  1241     020E                     	;# 
  1242     0210                     	;# 
  1243     0211                     	;# 
  1244     0211                     	;# 
  1245     0212                     	;# 
  1246     0212                     	;# 
  1247     0213                     	;# 
  1248     0213                     	;# 
  1249     0214                     	;# 
  1250     0214                     	;# 
  1251     0215                     	;# 
  1252     0215                     	;# 
  1253     0215                     	;# 
  1254     0215                     	;# 
  1255     0216                     	;# 
  1256     0216                     	;# 
  1257     0217                     	;# 
  1258     0217                     	;# 
  1259     028C                     	;# 
  1260     028D                     	;# 
  1261     028E                     	;# 
  1262     0291                     	;# 
  1263     0291                     	;# 
  1264     0292                     	;# 
  1265     0293                     	;# 
  1266     0298                     	;# 
  1267     0298                     	;# 
  1268     0299                     	;# 
  1269     029A                     	;# 
  1270     030C                     	;# 
  1271     030D                     	;# 
  1272     030E                     	;# 
  1273     0311                     	;# 
  1274     0311                     	;# 
  1275     0312                     	;# 
  1276     0313                     	;# 
  1277     038C                     	;# 
  1278     038D                     	;# 
  1279     038E                     	;# 
  1280     0390                     	;# 
  1281     0391                     	;# 
  1282     0392                     	;# 
  1283     0393                     	;# 
  1284     0394                     	;# 
  1285     0395                     	;# 
  1286     0396                     	;# 
  1287     0397                     	;# 
  1288     0398                     	;# 
  1289     0399                     	;# 
  1290     039D                     	;# 
  1291     039E                     	;# 
  1292     039F                     	;# 
  1293     0511                     	;# 
  1294     0513                     	;# 
  1295     051A                     	;# 
  1296     0591                     	;# 
  1297     0592                     	;# 
  1298     0592                     	;# 
  1299     0593                     	;# 
  1300     0594                     	;# 
  1301     0594                     	;# 
  1302     0595                     	;# 
  1303     0596                     	;# 
  1304     0596                     	;# 
  1305     0E91                     	;# 
  1306     0E92                     	;# 
  1307     0E93                     	;# 
  1308     0E94                     	;# 
  1309     0E95                     	;# 
  1310     0E96                     	;# 
  1311     0E97                     	;# 
  1312     0E98                     	;# 
  1313     0E99                     	;# 
  1314     0E9A                     	;# 
  1315     0E9B                     	;# 
  1316     0E9C                     	;# 
  1317     0E9D                     	;# 
  1318     0E9E                     	;# 
  1319     0E9F                     	;# 
  1320     0EA0                     	;# 
  1321     0EA1                     	;# 
  1322     0EA1                     	;# 
  1323     0EA2                     	;# 
  1324     0EA3                     	;# 
  1325     0EA3                     	;# 
  1326     0EA4                     	;# 
  1327     0EA5                     	;# 
  1328     0EA5                     	;# 
  1329     0EA6                     	;# 
  1330     0EA7                     	;# 
  1331     0EA7                     	;# 
  1332     0EA8                     	;# 
  1333     0EA9                     	;# 
  1334     0EAA                     	;# 
  1335     0EAB                     	;# 
  1336     0EAC                     	;# 
  1337     0EAD                     	;# 
  1338     0EAE                     	;# 
  1339     0EAF                     	;# 
  1340     0EB1                     	;# 
  1341     0EB2                     	;# 
  1342     0EB3                     	;# 
  1343     0EB4                     	;# 
  1344     0EB5                     	;# 
  1345     0EB6                     	;# 
  1346     0EB7                     	;# 
  1347     0EB8                     	;# 
  1348     0EB9                     	;# 
  1349     0EBA                     	;# 
  1350     0EBB                     	;# 
  1351     0EBC                     	;# 
  1352     0EBD                     	;# 
  1353     0EBE                     	;# 
  1354     0EBF                     	;# 
  1355     0EC0                     	;# 
  1356     0EC1                     	;# 
  1357     0EC1                     	;# 
  1358     0EC2                     	;# 
  1359     0EC3                     	;# 
  1360     0EC3                     	;# 
  1361     0EC4                     	;# 
  1362     0EC5                     	;# 
  1363     0EC5                     	;# 
  1364     0EC6                     	;# 
  1365     0EC7                     	;# 
  1366     0EC7                     	;# 
  1367     0EC8                     	;# 
  1368     0EC9                     	;# 
  1369     0ECA                     	;# 
  1370     0ECB                     	;# 
  1371     0ECC                     	;# 
  1372     0ECD                     	;# 
  1373     0ECE                     	;# 
  1374     0ECF                     	;# 
  1375     0ED1                     	;# 
  1376     0ED2                     	;# 
  1377     0ED3                     	;# 
  1378     0ED4                     	;# 
  1379     0ED5                     	;# 
  1380     0ED6                     	;# 
  1381     0ED7                     	;# 
  1382     0ED8                     	;# 
  1383     0ED9                     	;# 
  1384     0EDA                     	;# 
  1385     0EDB                     	;# 
  1386     0EDC                     	;# 
  1387     0EDD                     	;# 
  1388     0EDE                     	;# 
  1389     0EDF                     	;# 
  1390     0EE0                     	;# 
  1391     0EE1                     	;# 
  1392     0EE1                     	;# 
  1393     0EE2                     	;# 
  1394     0EE3                     	;# 
  1395     0EE3                     	;# 
  1396     0EE4                     	;# 
  1397     0EE5                     	;# 
  1398     0EE5                     	;# 
  1399     0EE6                     	;# 
  1400     0EE7                     	;# 
  1401     0EE7                     	;# 
  1402     0EE8                     	;# 
  1403     0EE9                     	;# 
  1404     0EEA                     	;# 
  1405     0EEB                     	;# 
  1406     0EEC                     	;# 
  1407     0EED                     	;# 
  1408     0EEE                     	;# 
  1409     0EEF                     	;# 
  1410     0F11                     	;# 
  1411     0F12                     	;# 
  1412     0F13                     	;# 
  1413     0F14                     	;# 
  1414     0F15                     	;# 
  1415     0F16                     	;# 
  1416     0F17                     	;# 
  1417     0F18                     	;# 
  1418     0F19                     	;# 
  1419     0F1A                     	;# 
  1420     0F1B                     	;# 
  1421     0F1C                     	;# 
  1422     0F1D                     	;# 
  1423     0F1E                     	;# 
  1424     0F1F                     	;# 
  1425     0F20                     	;# 
  1426     0F21                     	;# 
  1427     0F21                     	;# 
  1428     0F22                     	;# 
  1429     0F23                     	;# 
  1430     0F23                     	;# 
  1431     0F24                     	;# 
  1432     0F25                     	;# 
  1433     0F25                     	;# 
  1434     0F26                     	;# 
  1435     0F27                     	;# 
  1436     0F27                     	;# 
  1437     0F28                     	;# 
  1438     0F29                     	;# 
  1439     0F2A                     	;# 
  1440     0F2B                     	;# 
  1441     0F2C                     	;# 
  1442     0F2D                     	;# 
  1443     0F2E                     	;# 
  1444     0F2F                     	;# 
  1445     0FE4                     	;# 
  1446     0FE5                     	;# 
  1447     0FE6                     	;# 
  1448     0FE7                     	;# 
  1449     0FE8                     	;# 
  1450     0FE9                     	;# 
  1451     0FEA                     	;# 
  1452     0FEB                     	;# 
  1453     0FED                     	;# 
  1454     0FEE                     	;# 
  1455     0FEF                     	;# 
  1456     0000                     	;# 
  1457     0001                     	;# 
  1458     0002                     	;# 
  1459     0003                     	;# 
  1460     0004                     	;# 
  1461     0005                     	;# 
  1462     0006                     	;# 
  1463     0007                     	;# 
  1464     0008                     	;# 
  1465     0009                     	;# 
  1466     000A                     	;# 
  1467     000B                     	;# 
  1468     000C                     	;# 
  1469     000D                     	;# 
  1470     000E                     	;# 
  1471     0010                     	;# 
  1472     0011                     	;# 
  1473     0012                     	;# 
  1474     0013                     	;# 
  1475     0014                     	;# 
  1476     0015                     	;# 
  1477     0016                     	;# 
  1478     0016                     	;# 
  1479     0017                     	;# 
  1480     0018                     	;# 
  1481     0019                     	;# 
  1482     001A                     	;# 
  1483     001B                     	;# 
  1484     001C                     	;# 
  1485     008C                     	;# 
  1486     008D                     	;# 
  1487     008E                     	;# 
  1488     0090                     	;# 
  1489     0091                     	;# 
  1490     0092                     	;# 
  1491     0093                     	;# 
  1492     0094                     	;# 
  1493     0095                     	;# 
  1494     0096                     	;# 
  1495     0097                     	;# 
  1496     0098                     	;# 
  1497     0099                     	;# 
  1498     009A                     	;# 
  1499     009B                     	;# 
  1500     009B                     	;# 
  1501     009C                     	;# 
  1502     009D                     	;# 
  1503     009E                     	;# 
  1504     009F                     	;# 
  1505     010C                     	;# 
  1506     010D                     	;# 
  1507     010E                     	;# 
  1508     0111                     	;# 
  1509     0112                     	;# 
  1510     0113                     	;# 
  1511     0114                     	;# 
  1512     0115                     	;# 
  1513     0116                     	;# 
  1514     0117                     	;# 
  1515     0118                     	;# 
  1516     0119                     	;# 
  1517     011A                     	;# 
  1518     011B                     	;# 
  1519     011C                     	;# 
  1520     011D                     	;# 
  1521     011D                     	;# 
  1522     011D                     	;# 
  1523     011E                     	;# 
  1524     011F                     	;# 
  1525     018C                     	;# 
  1526     018D                     	;# 
  1527     018E                     	;# 
  1528     0191                     	;# 
  1529     0191                     	;# 
  1530     0192                     	;# 
  1531     0193                     	;# 
  1532     0193                     	;# 
  1533     0193                     	;# 
  1534     0194                     	;# 
  1535     0195                     	;# 
  1536     0196                     	;# 
  1537     0197                     	;# 
  1538     0199                     	;# 
  1539     0199                     	;# 
  1540     0199                     	;# 
  1541     019A                     	;# 
  1542     019A                     	;# 
  1543     019A                     	;# 
  1544     019B                     	;# 
  1545     019B                     	;# 
  1546     019B                     	;# 
  1547     019B                     	;# 
  1548     019B                     	;# 
  1549     019C                     	;# 
  1550     019C                     	;# 
  1551     019C                     	;# 
  1552     019D                     	;# 
  1553     019D                     	;# 
  1554     019D                     	;# 
  1555     019E                     	;# 
  1556     019E                     	;# 
  1557     019E                     	;# 
  1558     019F                     	;# 
  1559     019F                     	;# 
  1560     019F                     	;# 
  1561     019F                     	;# 
  1562     019F                     	;# 
  1563     020C                     	;# 
  1564     020D                     	;# 
  1565     020E                     	;# 
  1566     0210                     	;# 
  1567     0211                     	;# 
  1568     0211                     	;# 
  1569     0212                     	;# 
  1570     0212                     	;# 
  1571     0213                     	;# 
  1572     0213                     	;# 
  1573     0214                     	;# 
  1574     0214                     	;# 
  1575     0215                     	;# 
  1576     0215                     	;# 
  1577     0215                     	;# 
  1578     0215                     	;# 
  1579     0216                     	;# 
  1580     0216                     	;# 
  1581     0217                     	;# 
  1582     0217                     	;# 
  1583     028C                     	;# 
  1584     028D                     	;# 
  1585     028E                     	;# 
  1586     0291                     	;# 
  1587     0291                     	;# 
  1588     0292                     	;# 
  1589     0293                     	;# 
  1590     0298                     	;# 
  1591     0298                     	;# 
  1592     0299                     	;# 
  1593     029A                     	;# 
  1594     030C                     	;# 
  1595     030D                     	;# 
  1596     030E                     	;# 
  1597     0311                     	;# 
  1598     0311                     	;# 
  1599     0312                     	;# 
  1600     0313                     	;# 
  1601     038C                     	;# 
  1602     038D                     	;# 
  1603     038E                     	;# 
  1604     0390                     	;# 
  1605     0391                     	;# 
  1606     0392                     	;# 
  1607     0393                     	;# 
  1608     0394                     	;# 
  1609     0395                     	;# 
  1610     0396                     	;# 
  1611     0397                     	;# 
  1612     0398                     	;# 
  1613     0399                     	;# 
  1614     039D                     	;# 
  1615     039E                     	;# 
  1616     039F                     	;# 
  1617     0511                     	;# 
  1618     0513                     	;# 
  1619     051A                     	;# 
  1620     0591                     	;# 
  1621     0592                     	;# 
  1622     0592                     	;# 
  1623     0593                     	;# 
  1624     0594                     	;# 
  1625     0594                     	;# 
  1626     0595                     	;# 
  1627     0596                     	;# 
  1628     0596                     	;# 
  1629     0E91                     	;# 
  1630     0E92                     	;# 
  1631     0E93                     	;# 
  1632     0E94                     	;# 
  1633     0E95                     	;# 
  1634     0E96                     	;# 
  1635     0E97                     	;# 
  1636     0E98                     	;# 
  1637     0E99                     	;# 
  1638     0E9A                     	;# 
  1639     0E9B                     	;# 
  1640     0E9C                     	;# 
  1641     0E9D                     	;# 
  1642     0E9E                     	;# 
  1643     0E9F                     	;# 
  1644     0EA0                     	;# 
  1645     0EA1                     	;# 
  1646     0EA1                     	;# 
  1647     0EA2                     	;# 
  1648     0EA3                     	;# 
  1649     0EA3                     	;# 
  1650     0EA4                     	;# 
  1651     0EA5                     	;# 
  1652     0EA5                     	;# 
  1653     0EA6                     	;# 
  1654     0EA7                     	;# 
  1655     0EA7                     	;# 
  1656     0EA8                     	;# 
  1657     0EA9                     	;# 
  1658     0EAA                     	;# 
  1659     0EAB                     	;# 
  1660     0EAC                     	;# 
  1661     0EAD                     	;# 
  1662     0EAE                     	;# 
  1663     0EAF                     	;# 
  1664     0EB1                     	;# 
  1665     0EB2                     	;# 
  1666     0EB3                     	;# 
  1667     0EB4                     	;# 
  1668     0EB5                     	;# 
  1669     0EB6                     	;# 
  1670     0EB7                     	;# 
  1671     0EB8                     	;# 
  1672     0EB9                     	;# 
  1673     0EBA                     	;# 
  1674     0EBB                     	;# 
  1675     0EBC                     	;# 
  1676     0EBD                     	;# 
  1677     0EBE                     	;# 
  1678     0EBF                     	;# 
  1679     0EC0                     	;# 
  1680     0EC1                     	;# 
  1681     0EC1                     	;# 
  1682     0EC2                     	;# 
  1683     0EC3                     	;# 
  1684     0EC3                     	;# 
  1685     0EC4                     	;# 
  1686     0EC5                     	;# 
  1687     0EC5                     	;# 
  1688     0EC6                     	;# 
  1689     0EC7                     	;# 
  1690     0EC7                     	;# 
  1691     0EC8                     	;# 
  1692     0EC9                     	;# 
  1693     0ECA                     	;# 
  1694     0ECB                     	;# 
  1695     0ECC                     	;# 
  1696     0ECD                     	;# 
  1697     0ECE                     	;# 
  1698     0ECF                     	;# 
  1699     0ED1                     	;# 
  1700     0ED2                     	;# 
  1701     0ED3                     	;# 
  1702     0ED4                     	;# 
  1703     0ED5                     	;# 
  1704     0ED6                     	;# 
  1705     0ED7                     	;# 
  1706     0ED8                     	;# 
  1707     0ED9                     	;# 
  1708     0EDA                     	;# 
  1709     0EDB                     	;# 
  1710     0EDC                     	;# 
  1711     0EDD                     	;# 
  1712     0EDE                     	;# 
  1713     0EDF                     	;# 
  1714     0EE0                     	;# 
  1715     0EE1                     	;# 
  1716     0EE1                     	;# 
  1717     0EE2                     	;# 
  1718     0EE3                     	;# 
  1719     0EE3                     	;# 
  1720     0EE4                     	;# 
  1721     0EE5                     	;# 
  1722     0EE5                     	;# 
  1723     0EE6                     	;# 
  1724     0EE7                     	;# 
  1725     0EE7                     	;# 
  1726     0EE8                     	;# 
  1727     0EE9                     	;# 
  1728     0EEA                     	;# 
  1729     0EEB                     	;# 
  1730     0EEC                     	;# 
  1731     0EED                     	;# 
  1732     0EEE                     	;# 
  1733     0EEF                     	;# 
  1734     0F11                     	;# 
  1735     0F12                     	;# 
  1736     0F13                     	;# 
  1737     0F14                     	;# 
  1738     0F15                     	;# 
  1739     0F16                     	;# 
  1740     0F17                     	;# 
  1741     0F18                     	;# 
  1742     0F19                     	;# 
  1743     0F1A                     	;# 
  1744     0F1B                     	;# 
  1745     0F1C                     	;# 
  1746     0F1D                     	;# 
  1747     0F1E                     	;# 
  1748     0F1F                     	;# 
  1749     0F20                     	;# 
  1750     0F21                     	;# 
  1751     0F21                     	;# 
  1752     0F22                     	;# 
  1753     0F23                     	;# 
  1754     0F23                     	;# 
  1755     0F24                     	;# 
  1756     0F25                     	;# 
  1757     0F25                     	;# 
  1758     0F26                     	;# 
  1759     0F27                     	;# 
  1760     0F27                     	;# 
  1761     0F28                     	;# 
  1762     0F29                     	;# 
  1763     0F2A                     	;# 
  1764     0F2B                     	;# 
  1765     0F2C                     	;# 
  1766     0F2D                     	;# 
  1767     0F2E                     	;# 
  1768     0F2F                     	;# 
  1769     0FE4                     	;# 
  1770     0FE5                     	;# 
  1771     0FE6                     	;# 
  1772     0FE7                     	;# 
  1773     0FE8                     	;# 
  1774     0FE9                     	;# 
  1775     0FEA                     	;# 
  1776     0FEB                     	;# 
  1777     0FED                     	;# 
  1778     0FEE                     	;# 
  1779     0FEF                     	;# 
  1780                           
  1781                           	psect	stringtext1
  1782     2000                     __pstringtext1:
  1783     2000                     _dpowers:
  1784     2000  3401               	retlw	1
  1785     2001  3400               	retlw	0
  1786     2002  340A               	retlw	10
  1787     2003  3400               	retlw	0
  1788     2004  3464               	retlw	100
  1789     2005  3400               	retlw	0
  1790     2006  34E8               	retlw	232
  1791     2007  3403               	retlw	3
  1792     2008  3410               	retlw	16
  1793     2009  3427               	retlw	39
  1794     200A                     __end_of_dpowers:
  1795     000B                     _INTCONbits	set	11
  1796     0003                     _STATUSbits	set	3
  1797     000D                     _PORTB	set	13
  1798     000C                     _PORTA	set	12
  1799     008D                     _RCIF	set	141
  1800     008C                     _TXIF	set	140
  1801     0066                     _RA6	set	102
  1802     0061                     _RA1	set	97
  1803     0060                     _RA0	set	96
  1804     0067                     _RA7	set	103
  1805     0068                     _RB0	set	104
  1806     006A                     _RB2	set	106
  1807     006B                     _RB3	set	107
  1808     006C                     _RB4	set	108
  1809     006D                     _RB5	set	109
  1810     0069                     _RB1	set	105
  1811     0063                     _RA3	set	99
  1812     009E                     _ADCON1	set	158
  1813     009D                     _ADCON0	set	157
  1814     0095                     _OPTION_REG	set	149
  1815     0099                     _OSCCON	set	153
  1816     0091                     _PIE1	set	145
  1817     008D                     _TRISB	set	141
  1818     008C                     _TRISA	set	140
  1819     009B                     _ADRESL	set	155
  1820     009C                     _ADRESH	set	156
  1821     009D                     _ADCON0bits	set	157
  1822     0119                     _DAC1CON1	set	281
  1823     0118                     _DAC1CON0	set	280
  1824     0117                     _FVRCON	set	279
  1825     011D                     _APFCON1	set	285
  1826     0191                     _EEADR	set	401
  1827     0196                     _EECON2	set	406
  1828     0193                     _EEDATA	set	403
  1829     0195                     _EECON1	set	405
  1830     0195                     _EECON1bits	set	405
  1831     0199                     _RCREG	set	409
  1832     019A                     _TXREG	set	410
  1833     019D                     _RCSTA	set	413
  1834     019E                     _TXSTA	set	414
  1835     019B                     _SPBRG	set	411
  1836     018D                     _ANSELB	set	397
  1837     020D                     _WPUB	set	525
  1838     200A                     STR_94:
  1839     200A  3443               	retlw	67	;'C'
  1840     200B  3409               	retlw	9
  1841     200C  3446               	retlw	70	;'F'
  1842     200D  3453               	retlw	83	;'S'
  1843     200E  342D               	retlw	45	;'-'
  1844     200F  3443               	retlw	67	;'C'
  1845     2010  344F               	retlw	79	;'O'
  1846     2011  344E               	retlw	78	;'N'
  1847     2012  3454               	retlw	84	;'T'
  1848     2013  3420               	retlw	32	;' '
  1849     2014  3456               	retlw	86	;'V'
  1850     2015  3445               	retlw	69	;'E'
  1851     2016  3452               	retlw	82	;'R'
  1852     2017  3453               	retlw	83	;'S'
  1853     2018  3449               	retlw	73	;'I'
  1854     2019  344F               	retlw	79	;'O'
  1855     201A  344E               	retlw	78	;'N'
  1856     201B  3420               	retlw	32	;' '
  1857     201C  3430               	retlw	48	;'0'
  1858     201D  340D               	retlw	13
  1859     201E  340A               	retlw	10
  1860     201F  3400               	retlw	0
  1861                           
  1862                           	psect	stringtext2
  1863     2020                     __pstringtext2:
  1864     2020                     STR_92:
  1865     2020  3443               	retlw	67	;'C'
  1866     2021  3409               	retlw	9
  1867     2022  3441               	retlw	65	;'A'
  1868     2023  3449               	retlw	73	;'I'
  1869     2024  344E               	retlw	78	;'N'
  1870     2025  3420               	retlw	32	;' '
  1871     2026  343D               	retlw	61	;'='
  1872     2027  3420               	retlw	32	;' '
  1873     2028  3425               	retlw	37	;'%'
  1874     2029  3475               	retlw	117	;'u'
  1875     202A  340A               	retlw	10
  1876     202B  3400               	retlw	0
  1877                           
  1878                           	psect	stringtext3
  1879     202C                     __pstringtext3:
  1880     202C                     STR_70:
  1881     202C  3443               	retlw	67	;'C'
  1882     202D  3409               	retlw	9
  1883     202E  3457               	retlw	87	;'W'
  1884     202F  3452               	retlw	82	;'R'
  1885     2030  3450               	retlw	80	;'P'
  1886     2031  3433               	retlw	51	;'3'
  1887     2032  342F               	retlw	47	;'/'
  1888     2033  3430               	retlw	48	;'0'
  1889     2034  340D               	retlw	13
  1890     2035  340A               	retlw	10
  1891     2036  3400               	retlw	0
  1892                           
  1893                           	psect	stringtext4
  1894     2037                     __pstringtext4:
  1895     2037                     STR_46:
  1896     2037  3443               	retlw	67	;'C'
  1897     2038  3409               	retlw	9
  1898     2039  3457               	retlw	87	;'W'
  1899     203A  3454               	retlw	84	;'T'
  1900     203B  3442               	retlw	66	;'B'
  1901     203C  3409               	retlw	9
  1902     203D  3425               	retlw	37	;'%'
  1903     203E  3464               	retlw	100	;'d'
  1904     203F  340D               	retlw	13
  1905     2040  340A               	retlw	10
  1906     2041  3400               	retlw	0
  1907                           
  1908                           	psect	stringtext5
  1909     2042                     __pstringtext5:
  1910     2042                     STR_63:
  1911     2042  3443               	retlw	67	;'C'
  1912     2043  3409               	retlw	9
  1913     2044  3457               	retlw	87	;'W'
  1914     2045  3450               	retlw	80	;'P'
  1915     2046  3444               	retlw	68	;'D'
  1916     2047  3409               	retlw	9
  1917     2048  3425               	retlw	37	;'%'
  1918     2049  3464               	retlw	100	;'d'
  1919     204A  340D               	retlw	13
  1920     204B  340A               	retlw	10
  1921     204C  3400               	retlw	0
  1922                           
  1923                           	psect	stringtext6
  1924     204D                     __pstringtext6:
  1925     204D                     STR_48:
  1926     204D  3443               	retlw	67	;'C'
  1927     204E  3409               	retlw	9
  1928     204F  3457               	retlw	87	;'W'
  1929     2050  344E               	retlw	78	;'N'
  1930     2051  3449               	retlw	73	;'I'
  1931     2052  3409               	retlw	9
  1932     2053  3425               	retlw	37	;'%'
  1933     2054  3464               	retlw	100	;'d'
  1934     2055  340D               	retlw	13
  1935     2056  340A               	retlw	10
  1936     2057  3400               	retlw	0
  1937                           
  1938                           	psect	stringtext7
  1939     2058                     __pstringtext7:
  1940     2058                     STR_55:
  1941     2058  3443               	retlw	67	;'C'
  1942     2059  3409               	retlw	9
  1943     205A  344E               	retlw	78	;'N'
  1944     205B  344F               	retlw	79	;'O'
  1945     205C  3453               	retlw	83	;'S'
  1946     205D  3409               	retlw	9
  1947     205E  3425               	retlw	37	;'%'
  1948     205F  3464               	retlw	100	;'d'
  1949     2060  340D               	retlw	13
  1950     2061  340A               	retlw	10
  1951     2062  3400               	retlw	0
  1952                           
  1953                           	psect	stringtext8
  1954     2063                     __pstringtext8:
  1955     2063                     STR_71:
  1956     2063  3443               	retlw	67	;'C'
  1957     2064  3409               	retlw	9
  1958     2065  3452               	retlw	82	;'R'
  1959     2066  3444               	retlw	68	;'D'
  1960     2067  3443               	retlw	67	;'C'
  1961     2068  342F               	retlw	47	;'/'
  1962     2069  3425               	retlw	37	;'%'
  1963     206A  3464               	retlw	100	;'d'
  1964     206B  340D               	retlw	13
  1965     206C  340A               	retlw	10
  1966     206D  3400               	retlw	0
  1967                           
  1968                           	psect	stringtext9
  1969     206E                     __pstringtext9:
  1970     206E                     STR_72:
  1971     206E  3443               	retlw	67	;'C'
  1972     206F  3409               	retlw	9
  1973     2070  3457               	retlw	87	;'W'
  1974     2071  3444               	retlw	68	;'D'
  1975     2072  3443               	retlw	67	;'C'
  1976     2073  342F               	retlw	47	;'/'
  1977     2074  3425               	retlw	37	;'%'
  1978     2075  3464               	retlw	100	;'d'
  1979     2076  340D               	retlw	13
  1980     2077  340A               	retlw	10
  1981     2078  3400               	retlw	0
  1982                           
  1983                           	psect	stringtext10
  1984     2079                     __pstringtext10:
  1985     2079                     STR_68:
  1986     2079  3443               	retlw	67	;'C'
  1987     207A  3409               	retlw	9
  1988     207B  3452               	retlw	82	;'R'
  1989     207C  3450               	retlw	80	;'P'
  1990     207D  3444               	retlw	68	;'D'
  1991     207E  342F               	retlw	47	;'/'
  1992     207F  3425               	retlw	37	;'%'
  1993     2080  3464               	retlw	100	;'d'
  1994     2081  340D               	retlw	13
  1995     2082  340A               	retlw	10
  1996     2083  3400               	retlw	0
  1997                           
  1998                           	psect	stringtext11
  1999     2084                     __pstringtext11:
  2000     2084                     STR_67:
  2001     2084  3443               	retlw	67	;'C'
  2002     2085  3409               	retlw	9
  2003     2086  3452               	retlw	82	;'R'
  2004     2087  344E               	retlw	78	;'N'
  2005     2088  3449               	retlw	73	;'I'
  2006     2089  342F               	retlw	47	;'/'
  2007     208A  3425               	retlw	37	;'%'
  2008     208B  3464               	retlw	100	;'d'
  2009     208C  340D               	retlw	13
  2010     208D  340A               	retlw	10
  2011     208E  3400               	retlw	0
  2012                           
  2013                           	psect	stringtext12
  2014     208F                     __pstringtext12:
  2015     208F                     STR_69:
  2016     208F  3443               	retlw	67	;'C'
  2017     2090  3409               	retlw	9
  2018     2091  3452               	retlw	82	;'R'
  2019     2092  344C               	retlw	76	;'L'
  2020     2093  344D               	retlw	77	;'M'
  2021     2094  342F               	retlw	47	;'/'
  2022     2095  3425               	retlw	37	;'%'
  2023     2096  3464               	retlw	100	;'d'
  2024     2097  340D               	retlw	13
  2025     2098  340A               	retlw	10
  2026     2099  3400               	retlw	0
  2027                           
  2028                           	psect	stringtext13
  2029     209A                     __pstringtext13:
  2030     209A                     STR_87:
  2031     209A  3443               	retlw	67	;'C'
  2032     209B  3409               	retlw	9
  2033     209C  3452               	retlw	82	;'R'
  2034     209D  344C               	retlw	76	;'L'
  2035     209E  3450               	retlw	80	;'P'
  2036     209F  342F               	retlw	47	;'/'
  2037     20A0  3425               	retlw	37	;'%'
  2038     20A1  3464               	retlw	100	;'d'
  2039     20A2  340D               	retlw	13
  2040     20A3  340A               	retlw	10
  2041     20A4  3400               	retlw	0
  2042                           
  2043                           	psect	stringtext14
  2044     20A5                     __pstringtext14:
  2045     20A5                     STR_82:
  2046     20A5  3443               	retlw	67	;'C'
  2047     20A6  3409               	retlw	9
  2048     20A7  3457               	retlw	87	;'W'
  2049     20A8  344C               	retlw	76	;'L'
  2050     20A9  3450               	retlw	80	;'P'
  2051     20AA  342F               	retlw	47	;'/'
  2052     20AB  3425               	retlw	37	;'%'
  2053     20AC  3464               	retlw	100	;'d'
  2054     20AD  340D               	retlw	13
  2055     20AE  340A               	retlw	10
  2056     20AF  3400               	retlw	0
  2057                           
  2058                           	psect	stringtext15
  2059     20B0                     __pstringtext15:
  2060     20B0                     STR_66:
  2061     20B0  3443               	retlw	67	;'C'
  2062     20B1  3409               	retlw	9
  2063     20B2  3452               	retlw	82	;'R'
  2064     20B3  344E               	retlw	78	;'N'
  2065     20B4  3450               	retlw	80	;'P'
  2066     20B5  342F               	retlw	47	;'/'
  2067     20B6  3425               	retlw	37	;'%'
  2068     20B7  3464               	retlw	100	;'d'
  2069     20B8  340D               	retlw	13
  2070     20B9  340A               	retlw	10
  2071     20BA  3400               	retlw	0
  2072                           
  2073                           	psect	stringtext16
  2074     20BB                     __pstringtext16:
  2075     20BB                     STR_80:
  2076     20BB  3443               	retlw	67	;'C'
  2077     20BC  3409               	retlw	9
  2078     20BD  3452               	retlw	82	;'R'
  2079     20BE  3450               	retlw	80	;'P'
  2080     20BF  3450               	retlw	80	;'P'
  2081     20C0  342F               	retlw	47	;'/'
  2082     20C1  3425               	retlw	37	;'%'
  2083     20C2  3464               	retlw	100	;'d'
  2084     20C3  340D               	retlw	13
  2085     20C4  340A               	retlw	10
  2086     20C5  3400               	retlw	0
  2087                           
  2088                           	psect	stringtext17
  2089     20C6                     __pstringtext17:
  2090     20C6                     STR_89:
  2091     20C6  3443               	retlw	67	;'C'
  2092     20C7  3409               	retlw	9
  2093     20C8  3452               	retlw	82	;'R'
  2094     20C9  344C               	retlw	76	;'L'
  2095     20CA  3454               	retlw	84	;'T'
  2096     20CB  342F               	retlw	47	;'/'
  2097     20CC  3425               	retlw	37	;'%'
  2098     20CD  3464               	retlw	100	;'d'
  2099     20CE  340D               	retlw	13
  2100     20CF  340A               	retlw	10
  2101     20D0  3400               	retlw	0
  2102                           
  2103                           	psect	stringtext18
  2104     20D1                     __pstringtext18:
  2105     20D1                     STR_86:
  2106     20D1  3443               	retlw	67	;'C'
  2107     20D2  3409               	retlw	9
  2108     20D3  3457               	retlw	87	;'W'
  2109     20D4  344C               	retlw	76	;'L'
  2110     20D5  3454               	retlw	84	;'T'
  2111     20D6  342F               	retlw	47	;'/'
  2112     20D7  3425               	retlw	37	;'%'
  2113     20D8  3464               	retlw	100	;'d'
  2114     20D9  340D               	retlw	13
  2115     20DA  340A               	retlw	10
  2116     20DB  3400               	retlw	0
  2117                           
  2118                           	psect	stringtext19
  2119     20DC                     __pstringtext19:
  2120     20DC                     STR_88:
  2121     20DC  3443               	retlw	67	;'C'
  2122     20DD  3409               	retlw	9
  2123     20DE  3452               	retlw	82	;'R'
  2124     20DF  344C               	retlw	76	;'L'
  2125     20E0  3457               	retlw	87	;'W'
  2126     20E1  342F               	retlw	47	;'/'
  2127     20E2  3425               	retlw	37	;'%'
  2128     20E3  3464               	retlw	100	;'d'
  2129     20E4  340D               	retlw	13
  2130     20E5  340A               	retlw	10
  2131     20E6  3400               	retlw	0
  2132                           
  2133                           	psect	stringtext20
  2134     20E7                     __pstringtext20:
  2135     20E7                     STR_84:
  2136     20E7  3443               	retlw	67	;'C'
  2137     20E8  3409               	retlw	9
  2138     20E9  3457               	retlw	87	;'W'
  2139     20EA  344C               	retlw	76	;'L'
  2140     20EB  3457               	retlw	87	;'W'
  2141     20EC  342F               	retlw	47	;'/'
  2142     20ED  3425               	retlw	37	;'%'
  2143     20EE  3464               	retlw	100	;'d'
  2144     20EF  340D               	retlw	13
  2145     20F0  340A               	retlw	10
  2146     20F1  3400               	retlw	0
  2147                           
  2148                           	psect	stringtext21
  2149     20F2                     __pstringtext21:
  2150     20F2                     STR_93:
  2151     20F2  3443               	retlw	67	;'C'
  2152     20F3  3409               	retlw	9
  2153     20F4  3452               	retlw	82	;'R'
  2154     20F5  3445               	retlw	69	;'E'
  2155     20F6  3441               	retlw	65	;'A'
  2156     20F7  3444               	retlw	68	;'D'
  2157     20F8  3459               	retlw	89	;'Y'
  2158     20F9  340D               	retlw	13
  2159     20FA  340A               	retlw	10
  2160     20FB  3400               	retlw	0
  2161                           
  2162                           	psect	stringtext22
  2163     20FC                     __pstringtext22:
  2164     20FC                     STR_77:
  2165     20FC  3443               	retlw	67	;'C'
  2166     20FD  3409               	retlw	9
  2167     20FE  3450               	retlw	80	;'P'
  2168     20FF  344D               	retlw	77	;'M'
  2169     2100  3441               	retlw	65	;'A'
  2170     2101  340D               	retlw	13
  2171     2102  340A               	retlw	10
  2172     2103  3400               	retlw	0
  2173                           
  2174                           	psect	stringtext23
  2175     2104                     __pstringtext23:
  2176     2104                     STR_61:
  2177     2104  3443               	retlw	67	;'C'
  2178     2105  3409               	retlw	9
  2179     2106  344E               	retlw	78	;'N'
  2180     2107  3453               	retlw	83	;'S'
  2181     2108  3443               	retlw	67	;'C'
  2182     2109  340D               	retlw	13
  2183     210A  340A               	retlw	10
  2184     210B  3400               	retlw	0
  2185                           
  2186                           	psect	stringtext24
  2187     210C                     __pstringtext24:
  2188     210C                     STR_54:
  2189     210C  3443               	retlw	67	;'C'
  2190     210D  3409               	retlw	9
  2191     210E  344F               	retlw	79	;'O'
  2192     210F  3453               	retlw	83	;'S'
  2193     2110  3443               	retlw	67	;'C'
  2194     2111  340D               	retlw	13
  2195     2112  340A               	retlw	10
  2196     2113  3400               	retlw	0
  2197                           
  2198                           	psect	stringtext25
  2199     2114                     __pstringtext25:
  2200     2114                     STR_59:
  2201     2114  3443               	retlw	67	;'C'
  2202     2115  3409               	retlw	9
  2203     2116  344E               	retlw	78	;'N'
  2204     2117  3444               	retlw	68	;'D'
  2205     2118  3444               	retlw	68	;'D'
  2206     2119  340D               	retlw	13
  2207     211A  340A               	retlw	10
  2208     211B  3400               	retlw	0
  2209                           
  2210                           	psect	stringtext26
  2211     211C                     __pstringtext26:
  2212     211C                     STR_60:
  2213     211C  3443               	retlw	67	;'C'
  2214     211D  3409               	retlw	9
  2215     211E  344E               	retlw	78	;'N'
  2216     211F  3453               	retlw	83	;'S'
  2217     2120  3444               	retlw	68	;'D'
  2218     2121  340D               	retlw	13
  2219     2122  340A               	retlw	10
  2220     2123  3400               	retlw	0
  2221                           
  2222                           	psect	stringtext27
  2223     2124                     __pstringtext27:
  2224     2124                     STR_56:
  2225     2124  3443               	retlw	67	;'C'
  2226     2125  3409               	retlw	9
  2227     2126  344E               	retlw	78	;'N'
  2228     2127  3454               	retlw	84	;'T'
  2229     2128  3444               	retlw	68	;'D'
  2230     2129  340D               	retlw	13
  2231     212A  340A               	retlw	10
  2232     212B  3400               	retlw	0
  2233                           
  2234                           	psect	stringtext28
  2235     212C                     __pstringtext28:
  2236     212C                     STR_90:
  2237     212C  3443               	retlw	67	;'C'
  2238     212D  3409               	retlw	9
  2239     212E  344C               	retlw	76	;'L'
  2240     212F  3450               	retlw	80	;'P'
  2241     2130  3446               	retlw	70	;'F'
  2242     2131  340D               	retlw	13
  2243     2132  340A               	retlw	10
  2244     2133  3400               	retlw	0
  2245                           
  2246                           	psect	stringtext29
  2247     2134                     __pstringtext29:
  2248     2134                     STR_57:
  2249     2134  3443               	retlw	67	;'C'
  2250     2135  3409               	retlw	9
  2251     2136  344E               	retlw	78	;'N'
  2252     2137  3444               	retlw	68	;'D'
  2253     2138  344F               	retlw	79	;'O'
  2254     2139  340D               	retlw	13
  2255     213A  340A               	retlw	10
  2256     213B  3400               	retlw	0
  2257                           
  2258                           	psect	stringtext30
  2259     213C                     __pstringtext30:
  2260     213C                     STR_65:
  2261     213C  3443               	retlw	67	;'C'
  2262     213D  3409               	retlw	9
  2263     213E  344E               	retlw	78	;'N'
  2264     213F  3453               	retlw	83	;'S'
  2265     2140  3450               	retlw	80	;'P'
  2266     2141  340D               	retlw	13
  2267     2142  340A               	retlw	10
  2268     2143  3400               	retlw	0
  2269                           
  2270                           	psect	stringtext31
  2271     2144                     __pstringtext31:
  2272     2144                     STR_79:
  2273     2144  3443               	retlw	67	;'C'
  2274     2145  3409               	retlw	9
  2275     2146  3450               	retlw	80	;'P'
  2276     2147  344D               	retlw	77	;'M'
  2277     2148  3452               	retlw	82	;'R'
  2278     2149  340D               	retlw	13
  2279     214A  340A               	retlw	10
  2280     214B  3400               	retlw	0
  2281                           
  2282                           	psect	stringtext32
  2283     214C                     __pstringtext32:
  2284     214C                     STR_42:
  2285     214C  3443               	retlw	67	;'C'
  2286     214D  3409               	retlw	9
  2287     214E  3452               	retlw	82	;'R'
  2288     214F  3450               	retlw	80	;'P'
  2289     2150  3453               	retlw	83	;'S'
  2290     2151  340D               	retlw	13
  2291     2152  340A               	retlw	10
  2292     2153  3400               	retlw	0
  2293                           
  2294                           	psect	stringtext33
  2295     2154                     __pstringtext33:
  2296     2154                     STR_75:
  2297     2154  3443               	retlw	67	;'C'
  2298     2155  3409               	retlw	9
  2299     2156  3450               	retlw	80	;'P'
  2300     2157  344D               	retlw	77	;'M'
  2301     2158  3456               	retlw	86	;'V'
  2302     2159  340D               	retlw	13
  2303     215A  340A               	retlw	10
  2304     215B  3400               	retlw	0
  2305                           
  2306                           	psect	stringtext34
  2307     215C                     __pstringtext34:
  2308     215C                     STR_21:
  2309     215C  3444               	retlw	68	;'D'
  2310     215D  3441               	retlw	65	;'A'
  2311     215E  3430               	retlw	48	;'0'
  2312     215F  3400               	retlw	0
  2313                           
  2314                           	psect	stringtext35
  2315     2160                     __pstringtext35:
  2316     2160                     STR_22:
  2317     2160  3444               	retlw	68	;'D'
  2318     2161  3441               	retlw	65	;'A'
  2319     2162  3431               	retlw	49	;'1'
  2320     2163  3400               	retlw	0
  2321                           
  2322                           	psect	stringtext36
  2323     2164                     __pstringtext36:
  2324     2164                     STR_23:
  2325     2164  3444               	retlw	68	;'D'
  2326     2165  3441               	retlw	65	;'A'
  2327     2166  3432               	retlw	50	;'2'
  2328     2167  3400               	retlw	0
  2329                           
  2330                           	psect	stringtext37
  2331     2168                     __pstringtext37:
  2332     2168                     STR_25:
  2333     2168  3450               	retlw	80	;'P'
  2334     2169  344D               	retlw	77	;'M'
  2335     216A  3441               	retlw	65	;'A'
  2336     216B  3400               	retlw	0
  2337                           
  2338                           	psect	stringtext38
  2339     216C                     __pstringtext38:
  2340     216C                     STR_2:
  2341     216C  3457               	retlw	87	;'W'
  2342     216D  3454               	retlw	84	;'T'
  2343     216E  3442               	retlw	66	;'B'
  2344     216F  3400               	retlw	0
  2345                           
  2346                           	psect	stringtext39
  2347     2170                     __pstringtext39:
  2348     2170                     STR_12:
  2349     2170  3452               	retlw	82	;'R'
  2350     2171  3444               	retlw	68	;'D'
  2351     2172  3443               	retlw	67	;'C'
  2352     2173  3400               	retlw	0
  2353                           
  2354                           	psect	stringtext40
  2355     2174                     __pstringtext40:
  2356     2174                     STR_13:
  2357     2174  3457               	retlw	87	;'W'
  2358     2175  3444               	retlw	68	;'D'
  2359     2176  3443               	retlw	67	;'C'
  2360     2177  3400               	retlw	0
  2361                           
  2362                           	psect	stringtext41
  2363     2178                     __pstringtext41:
  2364     2178                     STR_10:
  2365     2178  344E               	retlw	78	;'N'
  2366     2179  3453               	retlw	83	;'S'
  2367     217A  3443               	retlw	67	;'C'
  2368     217B  3400               	retlw	0
  2369                           
  2370                           	psect	stringtext42
  2371     217C                     __pstringtext42:
  2372     217C                     STR_5:
  2373     217C  344F               	retlw	79	;'O'
  2374     217D  3453               	retlw	83	;'S'
  2375     217E  3443               	retlw	67	;'C'
  2376     217F  3400               	retlw	0
  2377                           
  2378                           	psect	stringtext43
  2379     2180                     __pstringtext43:
  2380     2180                     STR_9:
  2381     2180  344E               	retlw	78	;'N'
  2382     2181  3444               	retlw	68	;'D'
  2383     2182  3444               	retlw	68	;'D'
  2384     2183  3400               	retlw	0
  2385                           
  2386                           	psect	stringtext44
  2387     2184                     __pstringtext44:
  2388     2184                     STR_19:
  2389     2184  3452               	retlw	82	;'R'
  2390     2185  3450               	retlw	80	;'P'
  2391     2186  3444               	retlw	68	;'D'
  2392     2187  3400               	retlw	0
  2393                           
  2394                           	psect	stringtext45
  2395     2188                     __pstringtext45:
  2396     2188                     STR_4:
  2397     2188  3457               	retlw	87	;'W'
  2398     2189  3450               	retlw	80	;'P'
  2399     218A  3444               	retlw	68	;'D'
  2400     218B  3400               	retlw	0
  2401                           
  2402                           	psect	stringtext46
  2403     218C                     __pstringtext46:
  2404     218C                     STR_36:
  2405     218C  344E               	retlw	78	;'N'
  2406     218D  3453               	retlw	83	;'S'
  2407     218E  3444               	retlw	68	;'D'
  2408     218F  3400               	retlw	0
  2409                           
  2410                           	psect	stringtext47
  2411     2190                     __pstringtext47:
  2412     2190                     STR_7:
  2413     2190  344E               	retlw	78	;'N'
  2414     2191  3454               	retlw	84	;'T'
  2415     2192  3444               	retlw	68	;'D'
  2416     2193  3400               	retlw	0
  2417                           
  2418                           	psect	stringtext48
  2419     2194                     __pstringtext48:
  2420     2194                     STR_34:
  2421     2194  344C               	retlw	76	;'L'
  2422     2195  3450               	retlw	80	;'P'
  2423     2196  3446               	retlw	70	;'F'
  2424     2197  3400               	retlw	0
  2425                           
  2426                           	psect	stringtext49
  2427     2198                     __pstringtext49:
  2428     2198                     STR_18:
  2429     2198  3452               	retlw	82	;'R'
  2430     2199  344E               	retlw	78	;'N'
  2431     219A  3449               	retlw	73	;'I'
  2432     219B  3400               	retlw	0
  2433                           
  2434                           	psect	stringtext50
  2435     219C                     __pstringtext50:
  2436     219C                     STR_3:
  2437     219C  3457               	retlw	87	;'W'
  2438     219D  344E               	retlw	78	;'N'
  2439     219E  3449               	retlw	73	;'I'
  2440     219F  3400               	retlw	0
  2441                           
  2442                           	psect	stringtext51
  2443     21A0                     __pstringtext51:
  2444     21A0                     STR_20:
  2445     21A0  3452               	retlw	82	;'R'
  2446     21A1  344C               	retlw	76	;'L'
  2447     21A2  344D               	retlw	77	;'M'
  2448     21A3  3400               	retlw	0
  2449                           
  2450                           	psect	stringtext52
  2451     21A4                     __pstringtext52:
  2452     21A4                     STR_35:
  2453     21A4  3441               	retlw	65	;'A'
  2454     21A5  3449               	retlw	73	;'I'
  2455     21A6  344E               	retlw	78	;'N'
  2456     21A7  3400               	retlw	0
  2457                           
  2458                           	psect	stringtext53
  2459     21A8                     __pstringtext53:
  2460     21A8                     STR_8:
  2461     21A8  344E               	retlw	78	;'N'
  2462     21A9  3444               	retlw	68	;'D'
  2463     21AA  344F               	retlw	79	;'O'
  2464     21AB  3400               	retlw	0
  2465                           
  2466                           	psect	stringtext54
  2467     21AC                     __pstringtext54:
  2468     21AC                     STR_31:
  2469     21AC  3452               	retlw	82	;'R'
  2470     21AD  344C               	retlw	76	;'L'
  2471     21AE  3450               	retlw	80	;'P'
  2472     21AF  3400               	retlw	0
  2473                           
  2474                           	psect	stringtext55
  2475     21B0                     __pstringtext55:
  2476     21B0                     STR_28:
  2477     21B0  3457               	retlw	87	;'W'
  2478     21B1  344C               	retlw	76	;'L'
  2479     21B2  3450               	retlw	80	;'P'
  2480     21B3  3400               	retlw	0
  2481                           
  2482                           	psect	stringtext56
  2483     21B4                     __pstringtext56:
  2484     21B4                     STR_17:
  2485     21B4  3452               	retlw	82	;'R'
  2486     21B5  344E               	retlw	78	;'N'
  2487     21B6  3450               	retlw	80	;'P'
  2488     21B7  3400               	retlw	0
  2489                           
  2490                           	psect	stringtext57
  2491     21B8                     __pstringtext57:
  2492     21B8                     STR_27:
  2493     21B8  3452               	retlw	82	;'R'
  2494     21B9  3450               	retlw	80	;'P'
  2495     21BA  3450               	retlw	80	;'P'
  2496     21BB  3400               	retlw	0
  2497                           
  2498                           	psect	stringtext58
  2499     21BC                     __pstringtext58:
  2500     21BC                     STR_11:
  2501     21BC  3457               	retlw	87	;'W'
  2502     21BD  3452               	retlw	82	;'R'
  2503     21BE  3450               	retlw	80	;'P'
  2504     21BF  3400               	retlw	0
  2505                           
  2506                           	psect	stringtext59
  2507     21C0                     __pstringtext59:
  2508     21C0                     STR_16:
  2509     21C0  344E               	retlw	78	;'N'
  2510     21C1  3453               	retlw	83	;'S'
  2511     21C2  3450               	retlw	80	;'P'
  2512     21C3  3400               	retlw	0
  2513                           
  2514                           	psect	stringtext60
  2515     21C4                     __pstringtext60:
  2516     21C4                     STR_14:
  2517     21C4  3456               	retlw	86	;'V'
  2518     21C5  3445               	retlw	69	;'E'
  2519     21C6  3452               	retlw	82	;'R'
  2520     21C7  3400               	retlw	0
  2521                           
  2522                           	psect	stringtext61
  2523     21C8                     __pstringtext61:
  2524     21C8                     STR_26:
  2525     21C8  3450               	retlw	80	;'P'
  2526     21C9  344D               	retlw	77	;'M'
  2527     21CA  3452               	retlw	82	;'R'
  2528     21CB  3400               	retlw	0
  2529                           
  2530                           	psect	stringtext62
  2531     21CC                     __pstringtext62:
  2532     21CC                     STR_6:
  2533     21CC  344E               	retlw	78	;'N'
  2534     21CD  344F               	retlw	79	;'O'
  2535     21CE  3453               	retlw	83	;'S'
  2536     21CF  3400               	retlw	0
  2537                           
  2538                           	psect	stringtext63
  2539     21D0                     __pstringtext63:
  2540     21D0                     STR_1:
  2541     21D0  3452               	retlw	82	;'R'
  2542     21D1  3450               	retlw	80	;'P'
  2543     21D2  3453               	retlw	83	;'S'
  2544     21D3  3400               	retlw	0
  2545                           
  2546                           	psect	stringtext64
  2547     21D4                     __pstringtext64:
  2548     21D4                     STR_15:
  2549     21D4  3453               	retlw	83	;'S'
  2550     21D5  3454               	retlw	84	;'T'
  2551     21D6  3453               	retlw	83	;'S'
  2552     21D7  3400               	retlw	0
  2553                           
  2554                           	psect	stringtext65
  2555     21D8                     __pstringtext65:
  2556     21D8                     STR_33:
  2557     21D8  3452               	retlw	82	;'R'
  2558     21D9  344C               	retlw	76	;'L'
  2559     21DA  3454               	retlw	84	;'T'
  2560     21DB  3400               	retlw	0
  2561                           
  2562                           	psect	stringtext66
  2563     21DC                     __pstringtext66:
  2564     21DC                     STR_30:
  2565     21DC  3457               	retlw	87	;'W'
  2566     21DD  344C               	retlw	76	;'L'
  2567     21DE  3454               	retlw	84	;'T'
  2568     21DF  3400               	retlw	0
  2569                           
  2570                           	psect	stringtext67
  2571     21E0                     __pstringtext67:
  2572     21E0                     STR_24:
  2573     21E0  3450               	retlw	80	;'P'
  2574     21E1  344D               	retlw	77	;'M'
  2575     21E2  3456               	retlw	86	;'V'
  2576     21E3  3400               	retlw	0
  2577                           
  2578                           	psect	stringtext68
  2579     21E4                     __pstringtext68:
  2580     21E4                     STR_32:
  2581     21E4  3452               	retlw	82	;'R'
  2582     21E5  344C               	retlw	76	;'L'
  2583     21E6  3457               	retlw	87	;'W'
  2584     21E7  3400               	retlw	0
  2585                           
  2586                           	psect	stringtext69
  2587     21E8                     __pstringtext69:
  2588     21E8                     STR_29:
  2589     21E8  3457               	retlw	87	;'W'
  2590     21E9  344C               	retlw	76	;'L'
  2591     21EA  3457               	retlw	87	;'W'
  2592     21EB  3400               	retlw	0
  2593                           
  2594                           	psect	stringtext70
  2595     21EC                     __pstringtext70:
  2596     21EC                     STR_37:
  2597     21EC  342F               	retlw	47	;'/'
  2598     21ED  3400               	retlw	0
  2599                           
  2600                           	psect	stringtext71
  2601     0000                     __pstringtext71:
  2602     212C                     
  2603                           	psect	cinit
  2604     07FB                     start_initialization:	
  2605                           ; #config settings
  2606                           
  2607     07FB                     __initialization:
  2608                           
  2609                           ; Clear objects allocated to BANK0
  2610     07FB  0020               	movlb	0	; select bank0
  2611     07FC  01EF               	clrf	__pbssBANK0& (0+127)
  2612     07FD                     end_of_initialization:	
  2613                           ;End of C runtime variable initialization code
  2614                           
  2615     07FD                     __end_of__initialization:
  2616     07FD  0020               	movlb	0
  2617     07FE  3188  287D         	ljmp	_main	;jump to C main() function
  2618                           
  2619                           	psect	bssBANK0
  2620     006F                     __pbssBANK0:
  2621     006F                     strtok@sp:
  2622     006F                     	ds	1
  2623                           
  2624                           	psect	cstackBANK2
  2625     0120                     __pcstackBANK2:
  2626     0120                     main@nip:
  2627                           
  2628                           ; 2 bytes @ 0x0
  2629     0120                     	ds	2
  2630     0122                     main@NDCNT_ADR:
  2631                           
  2632                           ; 4 bytes @ 0x2
  2633     0122                     	ds	4
  2634     0126                     main@npd:
  2635                           
  2636                           ; 4 bytes @ 0x6
  2637     0126                     	ds	4
  2638     012A                     main@c_pzt:
  2639                           
  2640                           ; 2 bytes @ 0xA
  2641     012A                     	ds	2
  2642     012C                     main@ndcnt:
  2643                           
  2644                           ; 4 bytes @ 0xC
  2645     012C                     	ds	4
  2646     0130                     main@lp:
  2647                           
  2648                           ; 2 bytes @ 0x10
  2649     0130                     	ds	2
  2650     0132                     main@rcmd:
  2651                           
  2652                           ; 4 bytes @ 0x12
  2653     0132                     	ds	4
  2654     0136                     main@npos:
  2655                           
  2656                           ; 2 bytes @ 0x16
  2657     0136                     	ds	2
  2658     0138                     main@dist:
  2659                           
  2660                           ; 2 bytes @ 0x18
  2661     0138                     	ds	2
  2662     013A                     main@k:
  2663                           
  2664                           ; 2 bytes @ 0x1A
  2665     013A                     	ds	2
  2666     013C                     main@intvl:
  2667                           
  2668                           ; 2 bytes @ 0x1C
  2669     013C                     	ds	2
  2670     013E                     main@j:
  2671                           
  2672                           ; 2 bytes @ 0x1E
  2673     013E                     	ds	2
  2674                           
  2675                           	psect	cstackBANK1
  2676     00A0                     __pcstackBANK1:
  2677     00A0                     main@tmp:
  2678                           
  2679                           ; 40 bytes @ 0x0
  2680     00A0                     	ds	40
  2681     00C8                     main@LP_ADR:
  2682                           
  2683                           ; 4 bytes @ 0x28
  2684     00C8                     	ds	4
  2685     00CC                     main@LW_ADR:
  2686                           
  2687                           ; 4 bytes @ 0x2C
  2688     00CC                     	ds	4
  2689     00D0                     main@LT_ADR:
  2690                           
  2691                           ; 4 bytes @ 0x30
  2692     00D0                     	ds	4
  2693     00D4                     main@INTVL_ADR:
  2694                           
  2695                           ; 4 bytes @ 0x34
  2696     00D4                     	ds	4
  2697     00D8                     main@NPD_ADR:
  2698                           
  2699                           ; 4 bytes @ 0x38
  2700     00D8                     	ds	4
  2701     00DC                     main@NIP_ADR:
  2702                           
  2703                           ; 4 bytes @ 0x3C
  2704     00DC                     	ds	4
  2705     00E0                     main@pzt_t:
  2706                           
  2707                           ; 2 bytes @ 0x40
  2708     00E0                     	ds	2
  2709     00E2                     main@j_330:
  2710                           
  2711                           ; 2 bytes @ 0x42
  2712     00E2                     	ds	2
  2713     00E4                     main@k_335:
  2714                           
  2715                           ; 2 bytes @ 0x44
  2716     00E4                     	ds	2
  2717     00E6                     main@pzt_d:
  2718                           
  2719                           ; 4 bytes @ 0x46
  2720     00E6                     	ds	4
  2721     00EA                     main@pzt_l:
  2722                           
  2723                           ; 2 bytes @ 0x4A
  2724     00EA                     	ds	2
  2725     00EC                     main@lw:
  2726                           
  2727                           ; 2 bytes @ 0x4C
  2728     00EC                     	ds	2
  2729     00EE                     main@lt:
  2730                           
  2731                           ; 2 bytes @ 0x4E
  2732     00EE                     	ds	2
  2733                           
  2734                           	psect	cstackCOMMON
  2735     0070                     __pcstackCOMMON:
  2736     0070                     ?_isdigit:
  2737     0070                     ?_eeprom_write:	
  2738                           ; 1 bit 
  2739                           
  2740     0070                     ?_eeprom_read:	
  2741                           ; 1 bytes @ 0x0
  2742                           
  2743     0070                     ??_eeprom_read:	
  2744                           ; 1 bytes @ 0x0
  2745                           
  2746     0070                     ?_initUART:	
  2747                           ; 1 bytes @ 0x0
  2748                           
  2749     0070                     ??_initUART:	
  2750                           ; 1 bytes @ 0x0
  2751                           
  2752     0070                     ?_gets:	
  2753                           ; 1 bytes @ 0x0
  2754                           
  2755     0070                     ??_isdigit:	
  2756                           ; 1 bytes @ 0x0
  2757                           
  2758     0070                     ?_main:	
  2759                           ; 1 bytes @ 0x0
  2760                           
  2761     0070                     ?_putch:	
  2762                           ; 1 bytes @ 0x0
  2763                           
  2764     0070                     ??_putch:	
  2765                           ; 1 bytes @ 0x0
  2766                           
  2767     0070                     ?_getch:	
  2768                           ; 1 bytes @ 0x0
  2769                           
  2770     0070                     ??_getch:	
  2771                           ; 1 bytes @ 0x0
  2772                           
  2773     0070                     ?_getche:	
  2774                           ; 1 bytes @ 0x0
  2775                           
  2776     0070                     ?_strcmp:	
  2777                           ; 1 bytes @ 0x0
  2778                           
  2779     0070                     ?__Umul8_16:	
  2780                           ; 2 bytes @ 0x0
  2781                           
  2782     0070                     ?_strchr:	
  2783                           ; 2 bytes @ 0x0
  2784                           
  2785     0070                     ?_AD_convert:	
  2786                           ; 2 bytes @ 0x0
  2787                           
  2788     0070                     ?___wmul:	
  2789                           ; 2 bytes @ 0x0
  2790                           
  2791     0070                     ?___lwdiv:	
  2792                           ; 2 bytes @ 0x0
  2793                           
  2794     0070                     ?___fladd:	
  2795                           ; 2 bytes @ 0x0
  2796                           
  2797     0070                     ?___xxtofl:	
  2798                           ; 4 bytes @ 0x0
  2799                           
  2800     0070                     AD_convert@channel:	
  2801                           ; 4 bytes @ 0x0
  2802                           
  2803     0070                     putch@byte:	
  2804                           ; 1 bytes @ 0x0
  2805                           
  2806     0070                     eeprom_write@value:	
  2807                           ; 1 bytes @ 0x0
  2808                           
  2809     0070                     __Umul8_16@multiplicand:	
  2810                           ; 1 bytes @ 0x0
  2811                           
  2812     0070                     _isdigit$940:	
  2813                           ; 1 bytes @ 0x0
  2814                           
  2815     0070                     ___wmul@multiplier:	
  2816                           ; 1 bytes @ 0x0
  2817                           
  2818     0070                     ___lwdiv@divisor:	
  2819                           ; 2 bytes @ 0x0
  2820                           
  2821     0070                     strcmp@s2:	
  2822                           ; 2 bytes @ 0x0
  2823                           
  2824     0070                     strchr@ptr:	
  2825                           ; 2 bytes @ 0x0
  2826                           
  2827     0070                     ___fladd@b:	
  2828                           ; 2 bytes @ 0x0
  2829                           
  2830     0070                     ___xxtofl@val:	
  2831                           ; 4 bytes @ 0x0
  2832                           
  2833                           
  2834                           ; 4 bytes @ 0x0
  2835     0070                     	ds	1
  2836     0071                     ??_eeprom_write:
  2837     0071                     ??_getche:	
  2838                           ; 1 bytes @ 0x1
  2839                           
  2840     0071                     getche@c:	
  2841                           ; 1 bytes @ 0x1
  2842                           
  2843     0071                     isdigit@c:	
  2844                           ; 1 bytes @ 0x1
  2845                           
  2846                           
  2847                           ; 1 bytes @ 0x1
  2848     0071                     	ds	1
  2849     0072                     ??_strcmp:
  2850     0072                     ??__Umul8_16:	
  2851                           ; 1 bytes @ 0x2
  2852                           
  2853     0072                     ?_cgets:	
  2854                           ; 1 bytes @ 0x2
  2855                           
  2856     0072                     ??_AD_convert:	
  2857                           ; 1 bytes @ 0x2
  2858                           
  2859     0072                     ___wmul@multiplicand:	
  2860                           ; 1 bytes @ 0x2
  2861                           
  2862     0072                     ___lwdiv@dividend:	
  2863                           ; 2 bytes @ 0x2
  2864                           
  2865     0072                     strchr@chr:	
  2866                           ; 2 bytes @ 0x2
  2867                           
  2868                           
  2869                           ; 2 bytes @ 0x2
  2870     0072                     	ds	1
  2871     0073                     eeprom_read@addr:
  2872     0073                     eeprom_write@addr:	
  2873                           ; 1 bytes @ 0x3
  2874                           
  2875     0073                     strcmp@r:	
  2876                           ; 1 bytes @ 0x3
  2877                           
  2878                           
  2879                           ; 1 bytes @ 0x3
  2880     0073                     	ds	1
  2881     0074                     ??_cgets:
  2882     0074                     ??_strchr:	
  2883                           ; 1 bytes @ 0x4
  2884                           
  2885     0074                     ?_write_data_eeprom:	
  2886                           ; 1 bytes @ 0x4
  2887                           
  2888     0074                     ??___wmul:	
  2889                           ; 1 bytes @ 0x4
  2890                           
  2891     0074                     ??___lwdiv:	
  2892                           ; 1 bytes @ 0x4
  2893                           
  2894     0074                     ??___xxtofl:	
  2895                           ; 1 bytes @ 0x4
  2896                           
  2897     0074                     ?_read_data_eeprom:	
  2898                           ; 1 bytes @ 0x4
  2899                           
  2900     0074                     strcmp@s1:	
  2901                           ; 4 bytes @ 0x4
  2902                           
  2903     0074                     ___wmul@product:	
  2904                           ; 1 bytes @ 0x4
  2905                           
  2906     0074                     __Umul8_16@product:	
  2907                           ; 2 bytes @ 0x4
  2908                           
  2909     0074                     write_data_eeprom@adr:	
  2910                           ; 2 bytes @ 0x4
  2911                           
  2912     0074                     read_data_eeprom@adr:	
  2913                           ; 4 bytes @ 0x4
  2914                           
  2915     0074                     ___fladd@a:	
  2916                           ; 4 bytes @ 0x4
  2917                           
  2918                           
  2919                           ; 4 bytes @ 0x4
  2920     0074                     	ds	1
  2921     0075                     ___lwdiv@quotient:
  2922                           
  2923                           ; 2 bytes @ 0x5
  2924     0075                     	ds	1
  2925     0076                     ?_atoi:
  2926     0076                     ?___awdiv:	
  2927                           ; 2 bytes @ 0x6
  2928                           
  2929     0076                     ___awdiv@divisor:	
  2930                           ; 2 bytes @ 0x6
  2931                           
  2932     0076                     __Umul8_16@word_mpld:	
  2933                           ; 2 bytes @ 0x6
  2934                           
  2935     0076                     cgets@c:	
  2936                           ; 2 bytes @ 0x6
  2937                           
  2938                           
  2939                           ; 2 bytes @ 0x6
  2940     0076                     	ds	1
  2941     0077                     ?_strspn:
  2942     0077                     ?_strcspn:	
  2943                           ; 2 bytes @ 0x7
  2944                           
  2945     0077                     ___lwdiv@counter:	
  2946                           ; 2 bytes @ 0x7
  2947                           
  2948     0077                     strcspn@s2:	
  2949                           ; 1 bytes @ 0x7
  2950                           
  2951     0077                     strspn@s2:	
  2952                           ; 2 bytes @ 0x7
  2953                           
  2954                           
  2955                           ; 2 bytes @ 0x7
  2956     0077                     	ds	1
  2957     0078                     ??_atoi:
  2958     0078                     ??_read_data_eeprom:	
  2959                           ; 1 bytes @ 0x8
  2960                           
  2961     0078                     ?___lwmod:	
  2962                           ; 1 bytes @ 0x8
  2963                           
  2964     0078                     ___fladd@signs:	
  2965                           ; 2 bytes @ 0x8
  2966                           
  2967     0078                     __Umul8_16@multiplier:	
  2968                           ; 1 bytes @ 0x8
  2969                           
  2970     0078                     ___xxtofl@sign:	
  2971                           ; 1 bytes @ 0x8
  2972                           
  2973     0078                     cgets@s:	
  2974                           ; 1 bytes @ 0x8
  2975                           
  2976     0078                     ___awdiv@dividend:	
  2977                           ; 1 bytes @ 0x8
  2978                           
  2979     0078                     ___lwmod@divisor:	
  2980                           ; 2 bytes @ 0x8
  2981                           
  2982     0078                     write_data_eeprom@value:	
  2983                           ; 2 bytes @ 0x8
  2984                           
  2985                           
  2986                           ; 4 bytes @ 0x8
  2987     0078                     	ds	1
  2988     0079                     ??_strspn:
  2989     0079                     ??_strcspn:	
  2990                           ; 1 bytes @ 0x9
  2991                           
  2992     0079                     ___fladd@aexp:	
  2993                           ; 1 bytes @ 0x9
  2994                           
  2995     0079                     ___xxtofl@exp:	
  2996                           ; 1 bytes @ 0x9
  2997                           
  2998     0079                     cgets@s1:	
  2999                           ; 1 bytes @ 0x9
  3000                           
  3001                           
  3002                           ; 1 bytes @ 0x9
  3003     0079                     	ds	1
  3004     007A                     ??_gets:
  3005     007A                     ??___awdiv:	
  3006                           ; 1 bytes @ 0xA
  3007                           
  3008     007A                     ___fladd@bexp:	
  3009                           ; 1 bytes @ 0xA
  3010                           
  3011     007A                     gets@s:	
  3012                           ; 1 bytes @ 0xA
  3013                           
  3014     007A                     ___lwmod@dividend:	
  3015                           ; 1 bytes @ 0xA
  3016                           
  3017     007A                     ___xxtofl@arg:	
  3018                           ; 2 bytes @ 0xA
  3019                           
  3020                           
  3021                           ; 4 bytes @ 0xA
  3022     007A                     	ds	1
  3023     007B                     ___fladd@grs:
  3024     007B                     strcspn@i:	
  3025                           ; 1 bytes @ 0xB
  3026                           
  3027     007B                     strspn@i:	
  3028                           ; 2 bytes @ 0xB
  3029                           
  3030                           
  3031                           ; 2 bytes @ 0xB
  3032     007B                     	ds	1
  3033     007C                     ??___lwmod:
  3034                           
  3035                           ; 1 bytes @ 0xC
  3036     007C                     	ds	1
  3037     007D                     ___lwmod@counter:
  3038     007D                     strcspn@s1:	
  3039                           ; 1 bytes @ 0xD
  3040                           
  3041     007D                     strspn@s1:	
  3042                           ; 1 bytes @ 0xD
  3043                           
  3044                           
  3045                           ; 1 bytes @ 0xD
  3046     007D                     	ds	1
  3047                           
  3048                           	psect	cstackBANK0
  3049     0020                     __pcstackBANK0:
  3050     0020                     ?_strtok:
  3051     0020                     ??_write_data_eeprom:	
  3052                           ; 1 bytes @ 0x0
  3053                           
  3054     0020                     ??___fladd:	
  3055                           ; 1 bytes @ 0x0
  3056                           
  3057     0020                     ?_printf:	
  3058                           ; 1 bytes @ 0x0
  3059                           
  3060     0020                     ?___flmul:	
  3061                           ; 2 bytes @ 0x0
  3062                           
  3063     0020                     ___awdiv@counter:	
  3064                           ; 4 bytes @ 0x0
  3065                           
  3066     0020                     atoi@sign:	
  3067                           ; 1 bytes @ 0x0
  3068                           
  3069     0020                     printf@f:	
  3070                           ; 1 bytes @ 0x0
  3071                           
  3072     0020                     strtok@s2:	
  3073                           ; 2 bytes @ 0x0
  3074                           
  3075     0020                     read_data_eeprom@set_value_l:	
  3076                           ; 2 bytes @ 0x0
  3077                           
  3078     0020                     ___flmul@b:	
  3079                           ; 4 bytes @ 0x0
  3080                           
  3081                           
  3082                           ; 4 bytes @ 0x0
  3083     0020                     	ds	1
  3084     0021                     ___awdiv@sign:
  3085     0021                     atoi@a:	
  3086                           ; 1 bytes @ 0x1
  3087                           
  3088                           
  3089                           ; 2 bytes @ 0x1
  3090     0021                     	ds	1
  3091     0022                     ??_strtok:
  3092     0022                     ___awdiv@quotient:	
  3093                           ; 1 bytes @ 0x2
  3094                           
  3095                           
  3096                           ; 2 bytes @ 0x2
  3097     0022                     	ds	1
  3098     0023                     atoi@s:
  3099                           
  3100                           ; 1 bytes @ 0x3
  3101     0023                     	ds	1
  3102     0024                     strtok@s1:
  3103     0024                     read_data_eeprom@set_value:	
  3104                           ; 1 bytes @ 0x4
  3105                           
  3106     0024                     ___flmul@a:	
  3107                           ; 4 bytes @ 0x4
  3108                           
  3109                           
  3110                           ; 4 bytes @ 0x4
  3111     0024                     	ds	1
  3112     0025                     write_data_eeprom@set_value:
  3113                           
  3114                           ; 4 bytes @ 0x5
  3115     0025                     	ds	1
  3116     0026                     ??_printf:
  3117                           
  3118                           ; 1 bytes @ 0x6
  3119     0026                     	ds	2
  3120     0028                     ??___flmul:
  3121     0028                     read_data_eeprom@set_value_h:	
  3122                           ; 1 bytes @ 0x8
  3123                           
  3124                           
  3125                           ; 4 bytes @ 0x8
  3126     0028                     	ds	2
  3127     002A                     printf@prec:
  3128                           
  3129                           ; 1 bytes @ 0xA
  3130     002A                     	ds	1
  3131     002B                     printf@ap:
  3132                           
  3133                           ; 1 bytes @ 0xB
  3134     002B                     	ds	1
  3135     002C                     printf@flag:
  3136                           
  3137                           ; 1 bytes @ 0xC
  3138     002C                     	ds	1
  3139     002D                     ___flmul@sign:
  3140     002D                     printf@val:	
  3141                           ; 1 bytes @ 0xD
  3142                           
  3143                           
  3144                           ; 2 bytes @ 0xD
  3145     002D                     	ds	1
  3146     002E                     ___flmul@grs:
  3147                           
  3148                           ; 4 bytes @ 0xE
  3149     002E                     	ds	1
  3150     002F                     printf@c:
  3151                           
  3152                           ; 1 bytes @ 0xF
  3153     002F                     	ds	3
  3154     0032                     ___flmul@aexp:
  3155                           
  3156                           ; 1 bytes @ 0x12
  3157     0032                     	ds	1
  3158     0033                     ___flmul@bexp:
  3159                           
  3160                           ; 1 bytes @ 0x13
  3161     0033                     	ds	1
  3162     0034                     ___flmul@prod:
  3163                           
  3164                           ; 4 bytes @ 0x14
  3165     0034                     	ds	4
  3166     0038                     ___flmul@temp:
  3167                           
  3168                           ; 2 bytes @ 0x18
  3169     0038                     	ds	2
  3170     003A                     ?___fltol:
  3171     003A                     ?___fldiv:	
  3172                           ; 4 bytes @ 0x1A
  3173                           
  3174     003A                     ___fltol@f1:	
  3175                           ; 4 bytes @ 0x1A
  3176                           
  3177     003A                     ___fldiv@a:	
  3178                           ; 4 bytes @ 0x1A
  3179                           
  3180                           
  3181                           ; 4 bytes @ 0x1A
  3182     003A                     	ds	4
  3183     003E                     ??___fltol:
  3184     003E                     ___fldiv@b:	
  3185                           ; 1 bytes @ 0x1E
  3186                           
  3187                           
  3188                           ; 4 bytes @ 0x1E
  3189     003E                     	ds	4
  3190     0042                     ??___fldiv:
  3191     0042                     ___fltol@sign1:	
  3192                           ; 1 bytes @ 0x22
  3193                           
  3194                           
  3195                           ; 1 bytes @ 0x22
  3196     0042                     	ds	1
  3197     0043                     ___fltol@exp1:
  3198                           
  3199                           ; 1 bytes @ 0x23
  3200     0043                     	ds	4
  3201     0047                     ___fldiv@rem:
  3202                           
  3203                           ; 4 bytes @ 0x27
  3204     0047                     	ds	4
  3205     004B                     ___fldiv@sign:
  3206                           
  3207                           ; 1 bytes @ 0x2B
  3208     004B                     	ds	1
  3209     004C                     ___fldiv@new_exp:
  3210                           
  3211                           ; 2 bytes @ 0x2C
  3212     004C                     	ds	2
  3213     004E                     ___fldiv@grs:
  3214                           
  3215                           ; 4 bytes @ 0x2E
  3216     004E                     	ds	4
  3217     0052                     ___fldiv@bexp:
  3218                           
  3219                           ; 1 bytes @ 0x32
  3220     0052                     	ds	1
  3221     0053                     ___fldiv@aexp:
  3222                           
  3223                           ; 1 bytes @ 0x33
  3224     0053                     	ds	1
  3225     0054                     ??_main:
  3226                           
  3227                           ; 1 bytes @ 0x34
  3228     0054                     	ds	5
  3229     0059                     main@mx_spd:
  3230                           
  3231                           ; 2 bytes @ 0x39
  3232     0059                     	ds	2
  3233     005B                     main@set_spd:
  3234                           
  3235                           ; 2 bytes @ 0x3B
  3236     005B                     	ds	2
  3237     005D                     main@pzt_l_d:
  3238                           
  3239                           ; 4 bytes @ 0x3D
  3240     005D                     	ds	4
  3241     0061                     main@nsp:
  3242                           
  3243                           ; 2 bytes @ 0x41
  3244     0061                     	ds	2
  3245     0063                     main@val:
  3246                           
  3247                           ; 2 bytes @ 0x43
  3248     0063                     	ds	2
  3249     0065                     main@k_314:
  3250                           
  3251                           ; 2 bytes @ 0x45
  3252     0065                     	ds	2
  3253     0067                     main@k_331:
  3254                           
  3255                           ; 2 bytes @ 0x47
  3256     0067                     	ds	2
  3257     0069                     main@k_332:
  3258                           
  3259                           ; 2 bytes @ 0x49
  3260     0069                     	ds	2
  3261     006B                     main@t_npd:
  3262                           
  3263                           ; 2 bytes @ 0x4B
  3264     006B                     	ds	2
  3265     006D                     main@cmd:
  3266                           
  3267                           ; 1 bytes @ 0x4D
  3268     006D                     	ds	1
  3269     006E                     main@ptr:
  3270                           
  3271                           ; 1 bytes @ 0x4E
  3272     006E                     	ds	1
  3273                           
  3274                           	psect	maintext
  3275     087D                     __pmaintext:	
  3276 ;;
  3277 ;;Main: autosize = 0, tempsize = 5, incstack = 0, save=0
  3278 ;;
  3279 ;; *************** function _main *****************
  3280 ;; Defined at:
  3281 ;;		line 134 in file "main.c"
  3282 ;; Parameters:    Size  Location     Type
  3283 ;;		None
  3284 ;; Auto vars:     Size  Location     Type
  3285 ;;  k               2   73[BANK0 ] int 
  3286 ;;  k               2   71[BANK0 ] int 
  3287 ;;  k               2   68[BANK1 ] int 
  3288 ;;  j               2   66[BANK1 ] int 
  3289 ;;  k               2   69[BANK0 ] int 
  3290 ;;  tmp            40    0[BANK1 ] unsigned char [40]
  3291 ;;  rcmd            4   18[BANK2 ] unsigned char [4]
  3292 ;;  ndcnt           4   12[BANK2 ] long 
  3293 ;;  npd             4    6[BANK2 ] long 
  3294 ;;  NDCNT_ADR       4    2[BANK2 ] long 
  3295 ;;  pzt_d           4   70[BANK1 ] long 
  3296 ;;  NIP_ADR         4   60[BANK1 ] long 
  3297 ;;  NPD_ADR         4   56[BANK1 ] long 
  3298 ;;  INTVL_ADR       4   52[BANK1 ] long 
  3299 ;;  LT_ADR          4   48[BANK1 ] long 
  3300 ;;  LW_ADR          4   44[BANK1 ] long 
  3301 ;;  LP_ADR          4   40[BANK1 ] long 
  3302 ;;  pzt_l_d         4   61[BANK0 ] long 
  3303 ;;  ln              4    0        unsigned char [4]
  3304 ;;  j               2   30[BANK2 ] int 
  3305 ;;  intvl           2   28[BANK2 ] int 
  3306 ;;  k               2   26[BANK2 ] int 
  3307 ;;  dist            2   24[BANK2 ] int 
  3308 ;;  npos            2   22[BANK2 ] int 
  3309 ;;  lp              2   16[BANK2 ] int 
  3310 ;;  c_pzt           2   10[BANK2 ] int 
  3311 ;;  nip             2    0[BANK2 ] int 
  3312 ;;  lt              2   78[BANK1 ] int 
  3313 ;;  lw              2   76[BANK1 ] int 
  3314 ;;  pzt_l           2   74[BANK1 ] int 
  3315 ;;  pzt_t           2   64[BANK1 ] int 
  3316 ;;  t_npd           2   75[BANK0 ] int 
  3317 ;;  val             2   67[BANK0 ] unsigned int 
  3318 ;;  nsp             2   65[BANK0 ] int 
  3319 ;;  set_spd         2   59[BANK0 ] int 
  3320 ;;  mx_spd          2   57[BANK0 ] int 
  3321 ;;  ptr             1   78[BANK0 ] PTR unsigned char 
  3322 ;;		 -> NULL(0), main@tmp(40), 
  3323 ;;  cmd             1   77[BANK0 ] enum E5793
  3324 ;; Return value:  Size  Location     Type
  3325 ;;                  1    wreg      void 
  3326 ;; Registers used:
  3327 ;;		wreg, fsr0l, fsr0h, fsr1l, fsr1h, status,2, status,0, pclath, cstack
  3328 ;; Tracked objects:
  3329 ;;		On entry : B1F/0
  3330 ;;		On exit  : 0/0
  3331 ;;		Unchanged: 0/0
  3332 ;; Data sizes:     COMMON   BANK0   BANK1   BANK2   BANK3   BANK4   BANK5   BANK6   BANK7   BANK8   BANK9  BANK10  BANK1
      +1  BANK12  BANK13  BANK14  BANK15  BANK16  BANK17  BANK18  BANK19  BANK20  BANK21  BANK22  BANK23  BANK24  BANK25
  3333 ;;      Params:         0       0       0       0       0       0       0       0       0       0       0       0       
      +0       0       0       0       0       0       0       0       0       0       0       0       0       0       0
  3334 ;;      Locals:         0      22      80      32       0       0       0       0       0       0       0       0       
      +0       0       0       0       0       0       0       0       0       0       0       0       0       0       0
  3335 ;;      Temps:          0       5       0       0       0       0       0       0       0       0       0       0       
      +0       0       0       0       0       0       0       0       0       0       0       0       0       0       0
  3336 ;;      Totals:         0      27      80      32       0       0       0       0       0       0       0       0       
      +0       0       0       0       0       0       0       0       0       0       0       0       0       0       0
  3337 ;;Total ram usage:      139 bytes
  3338 ;; Hardware stack levels required when called: 4
  3339 ;; This function calls:
  3340 ;;		_AD_convert
  3341 ;;		___awdiv
  3342 ;;		___fladd
  3343 ;;		___fldiv
  3344 ;;		___flmul
  3345 ;;		___fltol
  3346 ;;		___wmul
  3347 ;;		___xxtofl
  3348 ;;		_atoi
  3349 ;;		_gets
  3350 ;;		_initUART
  3351 ;;		_printf
  3352 ;;		_read_data_eeprom
  3353 ;;		_strcmp
  3354 ;;		_strtok
  3355 ;;		_write_data_eeprom
  3356 ;; This function is called by:
  3357 ;;		Startup code after reset
  3358 ;; This function uses a non-reentrant model
  3359 ;;
  3360                           
  3361     087D                     _main:	
  3362                           ;psect for function _main
  3363                           
  3364     087D                     l4009:	
  3365                           ;incstack = 0
  3366                           ; Regs used in _main: [wreg-fsr1h+status,2+status,0+pclath+cstack]
  3367                           
  3368                           
  3369                           ;main.c: 136: PORTA = 0x00;
  3370     087D  0020               	movlb	0	; select bank0
  3371     087E  018C               	clrf	12	;volatile
  3372                           
  3373                           ;main.c: 137: PORTB = 0x00;
  3374     087F  018D               	clrf	13	;volatile
  3375     0880                     l4011:
  3376                           
  3377                           ;main.c: 138: TRISA = 0b01100000;
  3378     0880  3060               	movlw	96
  3379     0881  0021               	movlb	1	; select bank1
  3380     0882  008C               	movwf	12	;volatile
  3381     0883                     l4013:
  3382                           
  3383                           ;main.c: 139: TRISB = 0b10111111;
  3384     0883  30BF               	movlw	191
  3385     0884  008D               	movwf	13	;volatile
  3386     0885                     l4015:
  3387                           
  3388                           ;main.c: 140: APFCON1 = 0b00000110;
  3389     0885  3006               	movlw	6
  3390     0886  0022               	movlb	2	; select bank2
  3391     0887  009D               	movwf	29	;volatile
  3392     0888                     l4017:
  3393                           
  3394                           ;main.c: 141: PIE1 = 0b00110000;
  3395     0888  3030               	movlw	48
  3396     0889  0021               	movlb	1	; select bank1
  3397     088A  0091               	movwf	17	;volatile
  3398     088B                     l4019:
  3399                           
  3400                           ;main.c: 142: OSCCON = 0b01101010;
  3401     088B  306A               	movlw	106
  3402     088C  0099               	movwf	25	;volatile
  3403     088D                     l4021:
  3404                           
  3405                           ;main.c: 143: ANSELB = 0b00000000;
  3406     088D  0023               	movlb	3	; select bank3
  3407     088E  018D               	clrf	13	;volatile
  3408     088F                     l4023:
  3409                           
  3410                           ;main.c: 145: FVRCON = 0b00000000;
  3411     088F  0022               	movlb	2	; select bank2
  3412     0890  0197               	clrf	23	;volatile
  3413     0891                     l4025:
  3414                           
  3415                           ;main.c: 146: DAC1CON0 = 0b10100000;
  3416     0891  30A0               	movlw	160
  3417     0892  0098               	movwf	24	;volatile
  3418                           
  3419                           ;main.c: 147: DAC1CON1 = 0;
  3420     0893  0199               	clrf	25	;volatile
  3421     0894                     l4027:
  3422                           
  3423                           ;main.c: 149: WPUB = 0b00111111;
  3424     0894  303F               	movlw	63
  3425     0895  0024               	movlb	4	; select bank4
  3426     0896  008D               	movwf	13	;volatile
  3427     0897                     l4029:
  3428                           
  3429                           ;main.c: 150: OPTION_REG = 0x00;
  3430     0897  0021               	movlb	1	; select bank1
  3431     0898  0195               	clrf	21	;volatile
  3432                           
  3433                           ;main.c: 152: ADCON0 = 0b00010001;
  3434     0899  3011               	movlw	17
  3435     089A  009D               	movwf	29	;volatile
  3436                           
  3437                           ;main.c: 153: ADCON1 = 0b10100011;
  3438     089B  30A3               	movlw	163
  3439     089C  009E               	movwf	30	;volatile
  3440                           
  3441                           ;main.c: 155: FVRCON = 0b10000010;
  3442     089D  3082               	movlw	130
  3443     089E  0022               	movlb	2	; select bank2
  3444     089F  0097               	movwf	23	;volatile
  3445     08A0                     l4031:
  3446                           
  3447                           ;main.c: 157: ADRESL = 0x00;
  3448     08A0  0021               	movlb	1	; select bank1
  3449     08A1  019B               	clrf	27	;volatile
  3450     08A2                     l4033:
  3451                           
  3452                           ;main.c: 158: ADRESH = 0x00;
  3453     08A2  019C               	clrf	28	;volatile
  3454     08A3                     l4035:
  3455                           
  3456                           ;main.c: 161: initUART();
  3457     08A3  3199  21AF  3188   	fcall	_initUART
  3458     08A6                     l4037:
  3459                           
  3460                           ;main.c: 163: long LP_ADR = 8;
  3461     08A6  3000               	movlw	0
  3462     08A7  0021               	movlb	1	; select bank1
  3463     08A8  00CB               	movwf	(main@LP_ADR+3)^(0+128)
  3464     08A9  3000               	movlw	0
  3465     08AA  00CA               	movwf	(main@LP_ADR+2)^(0+128)
  3466     08AB  3000               	movlw	0
  3467     08AC  00C9               	movwf	(main@LP_ADR+1)^(0+128)
  3468     08AD  3008               	movlw	8
  3469     08AE  00C8               	movwf	main@LP_ADR^(0+128)
  3470     08AF                     l4039:
  3471                           
  3472                           ;main.c: 164: long LW_ADR = 10;
  3473     08AF  3000               	movlw	0
  3474     08B0  00CF               	movwf	(main@LW_ADR+3)^(0+128)
  3475     08B1  3000               	movlw	0
  3476     08B2  00CE               	movwf	(main@LW_ADR+2)^(0+128)
  3477     08B3  3000               	movlw	0
  3478     08B4  00CD               	movwf	(main@LW_ADR+1)^(0+128)
  3479     08B5  300A               	movlw	10
  3480     08B6  00CC               	movwf	main@LW_ADR^(0+128)
  3481     08B7                     l4041:
  3482                           
  3483                           ;main.c: 165: long LT_ADR = 12;
  3484     08B7  3000               	movlw	0
  3485     08B8  00D3               	movwf	(main@LT_ADR+3)^(0+128)
  3486     08B9  3000               	movlw	0
  3487     08BA  00D2               	movwf	(main@LT_ADR+2)^(0+128)
  3488     08BB  3000               	movlw	0
  3489     08BC  00D1               	movwf	(main@LT_ADR+1)^(0+128)
  3490     08BD  300C               	movlw	12
  3491     08BE  00D0               	movwf	main@LT_ADR^(0+128)
  3492     08BF                     l4043:
  3493                           
  3494                           ;main.c: 169: long INTVL_ADR = 16;
  3495     08BF  3000               	movlw	0
  3496     08C0  00D7               	movwf	(main@INTVL_ADR+3)^(0+128)
  3497     08C1  3000               	movlw	0
  3498     08C2  00D6               	movwf	(main@INTVL_ADR+2)^(0+128)
  3499     08C3  3000               	movlw	0
  3500     08C4  00D5               	movwf	(main@INTVL_ADR+1)^(0+128)
  3501     08C5  3010               	movlw	16
  3502     08C6  00D4               	movwf	main@INTVL_ADR^(0+128)
  3503     08C7                     l4045:
  3504                           
  3505                           ;main.c: 170: long NPD_ADR = 18;
  3506     08C7  3000               	movlw	0
  3507     08C8  00DB               	movwf	(main@NPD_ADR+3)^(0+128)
  3508     08C9  3000               	movlw	0
  3509     08CA  00DA               	movwf	(main@NPD_ADR+2)^(0+128)
  3510     08CB  3000               	movlw	0
  3511     08CC  00D9               	movwf	(main@NPD_ADR+1)^(0+128)
  3512     08CD  3012               	movlw	18
  3513     08CE  00D8               	movwf	main@NPD_ADR^(0+128)
  3514     08CF                     l4047:
  3515                           
  3516                           ;main.c: 171: long NIP_ADR = 20;
  3517     08CF  3000               	movlw	0
  3518     08D0  00DF               	movwf	(main@NIP_ADR+3)^(0+128)
  3519     08D1  3000               	movlw	0
  3520     08D2  00DE               	movwf	(main@NIP_ADR+2)^(0+128)
  3521     08D3  3000               	movlw	0
  3522     08D4  00DD               	movwf	(main@NIP_ADR+1)^(0+128)
  3523     08D5  3014               	movlw	20
  3524     08D6  00DC               	movwf	main@NIP_ADR^(0+128)
  3525     08D7                     l4049:
  3526                           
  3527                           ;main.c: 172: long NDCNT_ADR = 14;
  3528     08D7  3000               	movlw	0
  3529     08D8  0022               	movlb	2	; select bank2
  3530     08D9  00A5               	movwf	(main@NDCNT_ADR+3)^(0+256)
  3531     08DA  3000               	movlw	0
  3532     08DB  00A4               	movwf	(main@NDCNT_ADR+2)^(0+256)
  3533     08DC  3000               	movlw	0
  3534     08DD  00A3               	movwf	(main@NDCNT_ADR+1)^(0+256)
  3535     08DE  300E               	movlw	14
  3536     08DF  00A2               	movwf	main@NDCNT_ADR^(0+256)
  3537     08E0                     l4051:
  3538                           
  3539                           ;main.c: 174: char tmp[40];;main.c: 175: int j = 10;
  3540     08E0  300A               	movlw	10
  3541     08E1  00BE               	movwf	main@j^(0+256)
  3542     08E2  3000               	movlw	0
  3543     08E3  00BF               	movwf	(main@j^(0+256)+1)
  3544     08E4                     l4053:
  3545                           
  3546                           ;main.c: 176: int k = 0;
  3547     08E4  01BA               	clrf	main@k^(0+256)
  3548     08E5  01BB               	clrf	(main@k+1)^(0+256)
  3549     08E6                     l4055:
  3550                           
  3551                           ;main.c: 177: int dist = 10;
  3552     08E6  300A               	movlw	10
  3553     08E7  00B8               	movwf	main@dist^(0+256)
  3554     08E8  3000               	movlw	0
  3555     08E9  00B9               	movwf	(main@dist^(0+256)+1)
  3556     08EA                     l4057:
  3557                           
  3558                           ;main.c: 178: int intvl = 20;
  3559     08EA  3014               	movlw	20
  3560     08EB  00BC               	movwf	main@intvl^(0+256)
  3561     08EC  3000               	movlw	0
  3562     08ED  00BD               	movwf	(main@intvl^(0+256)+1)
  3563     08EE                     l4059:
  3564                           
  3565                           ;main.c: 179: char rcmd[4];;main.c: 180: int mx_spd = 20250;
  3566     08EE  301A               	movlw	26
  3567     08EF  0020               	movlb	0	; select bank0
  3568     08F0  00D9               	movwf	main@mx_spd
  3569     08F1  304F               	movlw	79
  3570     08F2  00DA               	movwf	main@mx_spd+1
  3571     08F3                     l4061:
  3572                           
  3573                           ;main.c: 181: int set_spd;;main.c: 182: long int npd = 2500;
  3574     08F3  3000               	movlw	0
  3575     08F4  0022               	movlb	2	; select bank2
  3576     08F5  00A9               	movwf	(main@npd+3)^(0+256)
  3577     08F6  3000               	movlw	0
  3578     08F7  00A8               	movwf	(main@npd+2)^(0+256)
  3579     08F8  3009               	movlw	9
  3580     08F9  00A7               	movwf	(main@npd+1)^(0+256)
  3581     08FA  30C4               	movlw	196
  3582     08FB  00A6               	movwf	main@npd^(0+256)
  3583     08FC                     l4063:
  3584                           
  3585                           ;main.c: 183: int t_npd = 100;
  3586     08FC  3064               	movlw	100
  3587     08FD  0020               	movlb	0	; select bank0
  3588     08FE  00EB               	movwf	main@t_npd
  3589     08FF  3000               	movlw	0
  3590     0900  00EC               	movwf	main@t_npd+1
  3591     0901                     l4065:
  3592                           
  3593                           ;main.c: 184: int nsp = 500;
  3594     0901  30F4               	movlw	244
  3595     0902  00E1               	movwf	main@nsp
  3596     0903  3001               	movlw	1
  3597     0904  00E2               	movwf	main@nsp+1
  3598     0905                     l4067:
  3599                           
  3600                           ;main.c: 185: char ln[4];;main.c: 186: int npos = 0;
  3601     0905  0022               	movlb	2	; select bank2
  3602     0906  01B6               	clrf	main@npos^(0+256)
  3603     0907  01B7               	clrf	(main@npos+1)^(0+256)
  3604     0908                     l4069:
  3605                           
  3606                           ;main.c: 187: int nip = 5000;
  3607     0908  3088               	movlw	136
  3608     0909  00A0               	movwf	main@nip^(0+256)
  3609     090A  3013               	movlw	19
  3610     090B  00A1               	movwf	(main@nip^(0+256)+1)
  3611     090C                     l4071:
  3612                           
  3613                           ;main.c: 188: long int ndcnt = 0;
  3614     090C  3000               	movlw	0
  3615     090D  00AF               	movwf	(main@ndcnt+3)^(0+256)
  3616     090E  3000               	movlw	0
  3617     090F  00AE               	movwf	(main@ndcnt+2)^(0+256)
  3618     0910  3000               	movlw	0
  3619     0911  00AD               	movwf	(main@ndcnt+1)^(0+256)
  3620     0912  3000               	movlw	0
  3621     0913  00AC               	movwf	main@ndcnt^(0+256)
  3622     0914                     l4073:
  3623                           
  3624                           ;main.c: 189: int pzt_l = 0;
  3625     0914  0021               	movlb	1	; select bank1
  3626     0915  01EA               	clrf	main@pzt_l^(0+128)
  3627     0916  01EB               	clrf	(main@pzt_l+1)^(0+128)
  3628     0917                     l4075:
  3629                           
  3630                           ;main.c: 190: double pzt_l_d = 0;
  3631     0917  3000               	movlw	0
  3632     0918  0020               	movlb	0	; select bank0
  3633     0919  00E0               	movwf	main@pzt_l_d+3
  3634     091A  3000               	movlw	0
  3635     091B  00DF               	movwf	main@pzt_l_d+2
  3636     091C  3000               	movlw	0
  3637     091D  00DE               	movwf	main@pzt_l_d+1
  3638     091E  3000               	movlw	0
  3639     091F  00DD               	movwf	main@pzt_l_d
  3640     0920                     l4077:
  3641                           
  3642                           ;main.c: 191: int pzt_t = 100;
  3643     0920  3064               	movlw	100
  3644     0921  0021               	movlb	1	; select bank1
  3645     0922  00E0               	movwf	main@pzt_t^(0+128)
  3646     0923  3000               	movlw	0
  3647     0924  00E1               	movwf	(main@pzt_t^(0+128)+1)
  3648     0925                     l4079:
  3649                           
  3650                           ;main.c: 192: double pzt_d = 0;
  3651     0925  3000               	movlw	0
  3652     0926  00E9               	movwf	(main@pzt_d+3)^(0+128)
  3653     0927  3000               	movlw	0
  3654     0928  00E8               	movwf	(main@pzt_d+2)^(0+128)
  3655     0929  3000               	movlw	0
  3656     092A  00E7               	movwf	(main@pzt_d+1)^(0+128)
  3657     092B  3000               	movlw	0
  3658     092C  00E6               	movwf	main@pzt_d^(0+128)
  3659     092D                     l4081:
  3660                           
  3661                           ;main.c: 193: int c_pzt = 0;
  3662     092D  0022               	movlb	2	; select bank2
  3663     092E  01AA               	clrf	main@c_pzt^(0+256)
  3664     092F  01AB               	clrf	(main@c_pzt+1)^(0+256)
  3665                           
  3666                           ;main.c: 194: char *ptr;;main.c: 196: enum command cmd;;main.c: 198: unsigned int val;;m
      +                          ain.c: 200: int lp;;main.c: 201: int lw;;main.c: 202: int lt;;main.c: 203: lp = read_dat
      +                          a_eeprom(LP_ADR);
  3667     0930  3000               	movlw	0
  3668     0931  00F7               	movwf	read_data_eeprom@adr+3
  3669     0932  3000               	movlw	0
  3670     0933  00F6               	movwf	read_data_eeprom@adr+2
  3671     0934  3000               	movlw	0
  3672     0935  00F5               	movwf	read_data_eeprom@adr+1
  3673     0936  3008               	movlw	8
  3674     0937  00F4               	movwf	read_data_eeprom@adr
  3675     0938  319B  23C1  3188   	fcall	_read_data_eeprom
  3676     093B  0875               	movf	?_read_data_eeprom+1,w
  3677     093C  0022               	movlb	2	; select bank2
  3678     093D  00B1               	movwf	(main@lp+1)^(0+256)
  3679     093E  0874               	movf	?_read_data_eeprom,w
  3680     093F  00B0               	movwf	main@lp^(0+256)
  3681                           
  3682                           ;main.c: 204: lw = read_data_eeprom(LW_ADR);
  3683     0940  3000               	movlw	0
  3684     0941  00F7               	movwf	read_data_eeprom@adr+3
  3685     0942  3000               	movlw	0
  3686     0943  00F6               	movwf	read_data_eeprom@adr+2
  3687     0944  3000               	movlw	0
  3688     0945  00F5               	movwf	read_data_eeprom@adr+1
  3689     0946  300A               	movlw	10
  3690     0947  00F4               	movwf	read_data_eeprom@adr
  3691     0948  319B  23C1  3188   	fcall	_read_data_eeprom
  3692     094B  0875               	movf	?_read_data_eeprom+1,w
  3693     094C  0021               	movlb	1	; select bank1
  3694     094D  00ED               	movwf	(main@lw+1)^(0+128)
  3695     094E  0874               	movf	?_read_data_eeprom,w
  3696     094F  00EC               	movwf	main@lw^(0+128)
  3697                           
  3698                           ;main.c: 205: lt = read_data_eeprom(LT_ADR);
  3699     0950  0853               	movf	(main@LT_ADR+3)^(0+128),w
  3700     0951  00F7               	movwf	read_data_eeprom@adr+3
  3701     0952  0852               	movf	(main@LT_ADR+2)^(0+128),w
  3702     0953  00F6               	movwf	read_data_eeprom@adr+2
  3703     0954  0851               	movf	(main@LT_ADR+1)^(0+128),w
  3704     0955  00F5               	movwf	read_data_eeprom@adr+1
  3705     0956  0850               	movf	main@LT_ADR^(0+128),w
  3706     0957  00F4               	movwf	read_data_eeprom@adr
  3707     0958  319B  23C1  3188   	fcall	_read_data_eeprom
  3708     095B  0875               	movf	?_read_data_eeprom+1,w
  3709     095C  0021               	movlb	1	; select bank1
  3710     095D  00EF               	movwf	(main@lt+1)^(0+128)
  3711     095E  0874               	movf	?_read_data_eeprom,w
  3712     095F  00EE               	movwf	main@lt^(0+128)
  3713                           
  3714                           ;main.c: 207: DAC1CON1 = (int)(lp * 255 / 100);
  3715     0960  3064               	movlw	100
  3716     0961  00F6               	movwf	___awdiv@divisor
  3717     0962  3000               	movlw	0
  3718     0963  00F7               	movwf	___awdiv@divisor+1
  3719     0964  0022               	movlb	2	; select bank2
  3720     0965  0831               	movf	(main@lp+1)^(0+256),w
  3721     0966  00F1               	movwf	___wmul@multiplier+1
  3722     0967  0830               	movf	main@lp^(0+256),w
  3723     0968  00F0               	movwf	___wmul@multiplier
  3724     0969  30FF               	movlw	255
  3725     096A  00F2               	movwf	___wmul@multiplicand
  3726     096B  3000               	movlw	0
  3727     096C  00F3               	movwf	___wmul@multiplicand+1
  3728     096D  319A  221B  3188   	fcall	___wmul
  3729     0970  0871               	movf	?___wmul+1,w
  3730     0971  00F9               	movwf	___awdiv@dividend+1
  3731     0972  0870               	movf	?___wmul,w
  3732     0973  00F8               	movwf	___awdiv@dividend
  3733     0974  319C  2467  3188   	fcall	___awdiv
  3734     0977  0876               	movf	?___awdiv,w
  3735     0978  0022               	movlb	2	; select bank2
  3736     0979  0099               	movwf	25	;volatile
  3737     097A                     l4083:
  3738                           
  3739                           ;main.c: 209: RA3 = 0;
  3740     097A  0020               	movlb	0	; select bank0
  3741     097B  118C               	bcf	12,3	;volatile
  3742     097C                     l4085:
  3743                           
  3744                           ;main.c: 210: RB1 = 1;
  3745     097C  148D               	bsf	13,1	;volatile
  3746     097D                     l4087:
  3747                           
  3748                           ;main.c: 212: RB5 = 1;
  3749     097D  168D               	bsf	13,5	;volatile
  3750     097E                     l4089:
  3751                           
  3752                           ;main.c: 213: RB4 = 1;
  3753     097E  160D               	bsf	13,4	;volatile
  3754     097F                     l4091:
  3755                           
  3756                           ;main.c: 215: RB3 = 1;
  3757     097F  158D               	bsf	13,3	;volatile
  3758     0980                     l4093:
  3759                           
  3760                           ;main.c: 216: RB2 = 1;
  3761     0980  150D               	bsf	13,2	;volatile
  3762     0981                     l4095:
  3763                           
  3764                           ;main.c: 217: RB0 = 1;
  3765     0981  140D               	bsf	13,0	;volatile
  3766     0982                     l4097:
  3767                           
  3768                           ;main.c: 218: RA7 = 0;
  3769     0982  138C               	bcf	12,7	;volatile
  3770                           
  3771                           ;main.c: 220: ndcnt = read_data_eeprom(NDCNT_ADR);
  3772     0983  0022               	movlb	2	; select bank2
  3773     0984  0825               	movf	(main@NDCNT_ADR+3)^(0+256),w
  3774     0985  00F7               	movwf	read_data_eeprom@adr+3
  3775     0986  0824               	movf	(main@NDCNT_ADR+2)^(0+256),w
  3776     0987  00F6               	movwf	read_data_eeprom@adr+2
  3777     0988  0823               	movf	(main@NDCNT_ADR+1)^(0+256),w
  3778     0989  00F5               	movwf	read_data_eeprom@adr+1
  3779     098A  0822               	movf	main@NDCNT_ADR^(0+256),w
  3780     098B  00F4               	movwf	read_data_eeprom@adr
  3781     098C  319B  23C1  3188   	fcall	_read_data_eeprom
  3782     098F  0877               	movf	?_read_data_eeprom+3,w
  3783     0990  0022               	movlb	2	; select bank2
  3784     0991  00AF               	movwf	(main@ndcnt+3)^(0+256)
  3785     0992  0876               	movf	?_read_data_eeprom+2,w
  3786     0993  00AE               	movwf	(main@ndcnt+2)^(0+256)
  3787     0994  0875               	movf	?_read_data_eeprom+1,w
  3788     0995  00AD               	movwf	(main@ndcnt+1)^(0+256)
  3789     0996  0874               	movf	?_read_data_eeprom,w
  3790     0997  00AC               	movwf	main@ndcnt^(0+256)
  3791                           
  3792                           ;main.c: 221: npd = read_data_eeprom(NPD_ADR);
  3793     0998  0021               	movlb	1	; select bank1
  3794     0999  085B               	movf	(main@NPD_ADR+3)^(0+128),w
  3795     099A  00F7               	movwf	read_data_eeprom@adr+3
  3796     099B  085A               	movf	(main@NPD_ADR+2)^(0+128),w
  3797     099C  00F6               	movwf	read_data_eeprom@adr+2
  3798     099D  0859               	movf	(main@NPD_ADR+1)^(0+128),w
  3799     099E  00F5               	movwf	read_data_eeprom@adr+1
  3800     099F  0858               	movf	main@NPD_ADR^(0+128),w
  3801     09A0  00F4               	movwf	read_data_eeprom@adr
  3802     09A1  319B  23C1  3188   	fcall	_read_data_eeprom
  3803     09A4  0877               	movf	?_read_data_eeprom+3,w
  3804     09A5  0022               	movlb	2	; select bank2
  3805     09A6  00A9               	movwf	(main@npd+3)^(0+256)
  3806     09A7  0876               	movf	?_read_data_eeprom+2,w
  3807     09A8  00A8               	movwf	(main@npd+2)^(0+256)
  3808     09A9  0875               	movf	?_read_data_eeprom+1,w
  3809     09AA  00A7               	movwf	(main@npd+1)^(0+256)
  3810     09AB  0874               	movf	?_read_data_eeprom,w
  3811     09AC  00A6               	movwf	main@npd^(0+256)
  3812                           
  3813                           ;main.c: 222: nip = read_data_eeprom(NIP_ADR);
  3814     09AD  0021               	movlb	1	; select bank1
  3815     09AE  085F               	movf	(main@NIP_ADR+3)^(0+128),w
  3816     09AF  00F7               	movwf	read_data_eeprom@adr+3
  3817     09B0  085E               	movf	(main@NIP_ADR+2)^(0+128),w
  3818     09B1  00F6               	movwf	read_data_eeprom@adr+2
  3819     09B2  085D               	movf	(main@NIP_ADR+1)^(0+128),w
  3820     09B3  00F5               	movwf	read_data_eeprom@adr+1
  3821     09B4  085C               	movf	main@NIP_ADR^(0+128),w
  3822     09B5  00F4               	movwf	read_data_eeprom@adr
  3823     09B6  319B  23C1  3188   	fcall	_read_data_eeprom
  3824     09B9  0875               	movf	?_read_data_eeprom+1,w
  3825     09BA  0022               	movlb	2	; select bank2
  3826     09BB  00A1               	movwf	(main@nip+1)^(0+256)
  3827     09BC  0874               	movf	?_read_data_eeprom,w
  3828     09BD  00A0               	movwf	main@nip^(0+256)
  3829                           
  3830                           ;main.c: 223: intvl = read_data_eeprom(INTVL_ADR);
  3831     09BE  0021               	movlb	1	; select bank1
  3832     09BF  0857               	movf	(main@INTVL_ADR+3)^(0+128),w
  3833     09C0  00F7               	movwf	read_data_eeprom@adr+3
  3834     09C1  0856               	movf	(main@INTVL_ADR+2)^(0+128),w
  3835     09C2  00F6               	movwf	read_data_eeprom@adr+2
  3836     09C3  0855               	movf	(main@INTVL_ADR+1)^(0+128),w
  3837     09C4  00F5               	movwf	read_data_eeprom@adr+1
  3838     09C5  0854               	movf	main@INTVL_ADR^(0+128),w
  3839     09C6  00F4               	movwf	read_data_eeprom@adr
  3840     09C7  319B  23C1  3188   	fcall	_read_data_eeprom
  3841     09CA  0875               	movf	?_read_data_eeprom+1,w
  3842     09CB  0022               	movlb	2	; select bank2
  3843     09CC  00BD               	movwf	(main@intvl+1)^(0+256)
  3844     09CD  0874               	movf	?_read_data_eeprom,w
  3845     09CE  00BC               	movwf	main@intvl^(0+256)
  3846     09CF                     l4099:
  3847                           
  3848                           ;main.c: 233: cmd = NON;
  3849     09CF  3024               	movlw	36
  3850     09D0  0020               	movlb	0	; select bank0
  3851     09D1  00ED               	movwf	main@cmd
  3852     09D2                     l4101:
  3853                           
  3854                           ;main.c: 235: rcmd[0] = 'Q';
  3855     09D2  3051               	movlw	81
  3856     09D3  0022               	movlb	2	; select bank2
  3857     09D4  00B2               	movwf	main@rcmd^(0+256)
  3858     09D5                     l4103:
  3859                           
  3860                           ;main.c: 236: rcmd[1] = 'Q';
  3861     09D5  3051               	movlw	81
  3862     09D6  00B3               	movwf	(main@rcmd^(0+256)+1)
  3863     09D7                     l4105:
  3864                           
  3865                           ;main.c: 237: rcmd[2] = 'Q';
  3866     09D7  3051               	movlw	81
  3867     09D8  00B4               	movwf	(main@rcmd^(0+256)+2)
  3868     09D9                     l4107:
  3869                           
  3870                           ;main.c: 238: rcmd[3] = '\0';
  3871     09D9  01B5               	clrf	(main@rcmd^(0+256)+3)
  3872     09DA                     l4109:
  3873                           
  3874                           ;main.c: 240: tmp[0] = 'Q';
  3875     09DA  3051               	movlw	81
  3876     09DB  0021               	movlb	1	; select bank1
  3877     09DC  00A0               	movwf	main@tmp^(0+128)
  3878     09DD                     l4111:
  3879                           
  3880                           ;main.c: 241: tmp[1] = 'Q';
  3881     09DD  3051               	movlw	81
  3882     09DE  00A1               	movwf	(main@tmp^(0+128)+1)
  3883     09DF                     l4113:
  3884                           
  3885                           ;main.c: 242: tmp[2] = 'Q';
  3886     09DF  3051               	movlw	81
  3887     09E0  00A2               	movwf	(main@tmp^(0+128)+2)
  3888     09E1                     l4115:
  3889                           
  3890                           ;main.c: 243: tmp[3] = '\0';
  3891     09E1  01A3               	clrf	(main@tmp^(0+128)+3)
  3892     09E2                     l4117:
  3893                           
  3894                           ;main.c: 248: if (RB5 == 1){
  3895     09E2  0020               	movlb	0	; select bank0
  3896     09E3  1E8D               	btfss	13,5	;volatile
  3897     09E4  29E6               	goto	u5091
  3898     09E5  29E7               	goto	u5090
  3899     09E6                     u5091:
  3900     09E6  29EE               	goto	l4123
  3901     09E7                     u5090:
  3902     09E7                     l4119:
  3903                           
  3904                           ;main.c: 249: if(RB4 == 0){
  3905     09E7  1A0D               	btfsc	13,4	;volatile
  3906     09E8  29EA               	goto	u5101
  3907     09E9  29EB               	goto	u5100
  3908     09EA                     u5101:
  3909     09EA  29F2               	goto	l4125
  3910     09EB                     u5100:
  3911     09EB                     l4121:
  3912                           
  3913                           ;main.c: 250: cmd = LPF;
  3914     09EB  3022               	movlw	34
  3915     09EC  00ED               	movwf	main@cmd
  3916     09ED  29F2               	goto	l4125
  3917     09EE                     l4123:
  3918                           
  3919                           ;main.c: 253: gets(tmp);
  3920     09EE  30A0               	movlw	(low (main@tmp| 0))& (0+255)
  3921     09EF  3199  21A1  3188   	fcall	_gets
  3922     09F2                     l4125:
  3923                           
  3924                           ;main.c: 254: };main.c: 257: rcmd[0] = tmp[1];
  3925     09F2  0021               	movlb	1	; select bank1
  3926     09F3  0821               	movf	(main@tmp^(0+128)+1),w
  3927     09F4  0022               	movlb	2	; select bank2
  3928     09F5  00B2               	movwf	main@rcmd^(0+256)
  3929     09F6                     l4127:
  3930                           
  3931                           ;main.c: 258: rcmd[1] = tmp[2];
  3932     09F6  0021               	movlb	1	; select bank1
  3933     09F7  0822               	movf	(main@tmp^(0+128)+2),w
  3934     09F8  0022               	movlb	2	; select bank2
  3935     09F9  00B3               	movwf	(main@rcmd^(0+256)+1)
  3936     09FA                     l4129:
  3937                           
  3938                           ;main.c: 259: rcmd[2] = tmp[3];
  3939     09FA  0021               	movlb	1	; select bank1
  3940     09FB  0823               	movf	(main@tmp^(0+128)+3),w
  3941     09FC  0022               	movlb	2	; select bank2
  3942     09FD  00B4               	movwf	(main@rcmd^(0+256)+2)
  3943     09FE                     l4131:
  3944                           
  3945                           ;main.c: 260: rcmd[3] = '\0';
  3946     09FE  01B5               	clrf	(main@rcmd^(0+256)+3)
  3947     09FF                     l4133:
  3948                           
  3949                           ;main.c: 262: if(strcmp(rcmd,"RPS") == 0) {
  3950     09FF  30D0               	movlw	low (STR_1| (0+32768))
  3951     0A00  00F0               	movwf	strcmp@s2
  3952     0A01  30A1               	movlw	high (STR_1| (0+32768))
  3953     0A02  00F1               	movwf	strcmp@s2+1
  3954     0A03  3032               	movlw	(low (main@rcmd| (0+256)))& (0+255)
  3955     0A04  319A  223A  3188   	fcall	_strcmp
  3956     0A07  0870               	movf	?_strcmp,w
  3957     0A08  0471               	iorwf	?_strcmp+1,w
  3958     0A09  1D03               	btfss	3,2
  3959     0A0A  2A0D               	goto	u5111
  3960     0A0B  3191  2936         	goto	u5110
  3961     0A0D                     u5111:
  3962     0A0D  3191  293A         	goto	l4137
  3963                           
  3964                           	psect	text1
  3965     1B2D                     __ptext1:	
  3966 ;; *************** function _write_data_eeprom *****************
  3967 ;; Defined at:
  3968 ;;		line 94 in file "main.c"
  3969 ;; Parameters:    Size  Location     Type
  3970 ;;  adr             4    4[COMMON] long 
  3971 ;;  value           4    8[COMMON] long 
  3972 ;; Auto vars:     Size  Location     Type
  3973 ;;  set_value       4    5[BANK0 ] long 
  3974 ;; Return value:  Size  Location     Type
  3975 ;;                  1    wreg      void 
  3976 ;; Registers used:
  3977 ;;		wreg, status,2, status,0, pclath, cstack
  3978 ;; Tracked objects:
  3979 ;;		On entry : 0/0
  3980 ;;		On exit  : 0/0
  3981 ;;		Unchanged: 0/0
  3982 ;; Data sizes:     COMMON   BANK0   BANK1   BANK2   BANK3   BANK4   BANK5   BANK6   BANK7   BANK8   BANK9  BANK10  BANK1
      +1  BANK12  BANK13  BANK14  BANK15  BANK16  BANK17  BANK18  BANK19  BANK20  BANK21  BANK22  BANK23  BANK24  BANK25
  3983 ;;      Params:         8       0       0       0       0       0       0       0       0       0       0       0       
      +0       0       0       0       0       0       0       0       0       0       0       0       0       0       0
  3984 ;;      Locals:         0       4       0       0       0       0       0       0       0       0       0       0       
      +0       0       0       0       0       0       0       0       0       0       0       0       0       0       0
  3985 ;;      Temps:          0       5       0       0       0       0       0       0       0       0       0       0       
      +0       0       0       0       0       0       0       0       0       0       0       0       0       0       0
  3986 ;;      Totals:         8       9       0       0       0       0       0       0       0       0       0       0       
      +0       0       0       0       0       0       0       0       0       0       0       0       0       0       0
  3987 ;;Total ram usage:       17 bytes
  3988 ;; Hardware stack levels used: 1
  3989 ;; Hardware stack levels required when called: 1
  3990 ;; This function calls:
  3991 ;;		_eeprom_write
  3992 ;; This function is called by:
  3993 ;;		_main
  3994 ;; This function uses a non-reentrant model
  3995 ;;
  3996                           
  3997     1B2D                     _write_data_eeprom:	
  3998                           ;psect for function _write_data_eeprom
  3999                           
  4000     1B2D                     l3245:	
  4001                           ;incstack = 0
  4002                           ; Regs used in _write_data_eeprom: [wreg+status,2+status,0+pclath+cstack]
  4003                           
  4004                           
  4005                           ;main.c: 95: long set_value;;main.c: 97: set_value = value & 0x00FF;
  4006     1B2D  30FF               	movlw	255
  4007     1B2E  0578               	andwf	write_data_eeprom@value,w
  4008     1B2F  0020               	movlb	0	; select bank0
  4009     1B30  00A5               	movwf	write_data_eeprom@set_value
  4010     1B31  3000               	movlw	0
  4011     1B32  0579               	andwf	write_data_eeprom@value+1,w
  4012     1B33  00A6               	movwf	write_data_eeprom@set_value+1
  4013     1B34  3000               	movlw	0
  4014     1B35  057A               	andwf	write_data_eeprom@value+2,w
  4015     1B36  00A7               	movwf	write_data_eeprom@set_value+2
  4016     1B37  3000               	movlw	0
  4017     1B38  057B               	andwf	write_data_eeprom@value+3,w
  4018     1B39  00A8               	movwf	write_data_eeprom@set_value+3
  4019     1B3A                     l3247:
  4020                           
  4021                           ;main.c: 98: eeprom_write(adr, set_value);
  4022     1B3A  0825               	movf	write_data_eeprom@set_value,w
  4023     1B3B  00F0               	movwf	eeprom_write@value
  4024     1B3C  0874               	movf	write_data_eeprom@adr,w
  4025     1B3D  319A  2263  319B   	fcall	_eeprom_write
  4026     1B40                     l3249:
  4027                           
  4028                           ;main.c: 100: set_value = value >> 8;
  4029     1B40  0878               	movf	write_data_eeprom@value,w
  4030     1B41  0020               	movlb	0	; select bank0
  4031     1B42  00A0               	movwf	??_write_data_eeprom
  4032     1B43  0879               	movf	write_data_eeprom@value+1,w
  4033     1B44  00A1               	movwf	??_write_data_eeprom+1
  4034     1B45  087A               	movf	write_data_eeprom@value+2,w
  4035     1B46  00A2               	movwf	??_write_data_eeprom+2
  4036     1B47  087B               	movf	write_data_eeprom@value+3,w
  4037     1B48  00A3               	movwf	??_write_data_eeprom+3
  4038     1B49  3008               	movlw	8
  4039     1B4A  00A4               	movwf	??_write_data_eeprom+4
  4040     1B4B                     u3545:
  4041     1B4B  37A3               	asrf	??_write_data_eeprom+3,f
  4042     1B4C  0CA2               	rrf	??_write_data_eeprom+2,f
  4043     1B4D  0CA1               	rrf	??_write_data_eeprom+1,f
  4044     1B4E  0CA0               	rrf	??_write_data_eeprom,f
  4045     1B4F                     u3540:
  4046     1B4F  0BA4               	decfsz	??_write_data_eeprom+4,f
  4047     1B50  2B4B               	goto	u3545
  4048     1B51  0823               	movf	??_write_data_eeprom+3,w
  4049     1B52  00A8               	movwf	write_data_eeprom@set_value+3
  4050     1B53  0822               	movf	??_write_data_eeprom+2,w
  4051     1B54  00A7               	movwf	write_data_eeprom@set_value+2
  4052     1B55  0821               	movf	??_write_data_eeprom+1,w
  4053     1B56  00A6               	movwf	write_data_eeprom@set_value+1
  4054     1B57  0820               	movf	??_write_data_eeprom,w
  4055     1B58  00A5               	movwf	write_data_eeprom@set_value
  4056     1B59                     l3251:
  4057                           
  4058                           ;main.c: 101: set_value = set_value & 0x00FF;
  4059     1B59  30FF               	movlw	255
  4060     1B5A  0525               	andwf	write_data_eeprom@set_value,w
  4061     1B5B  00A0               	movwf	??_write_data_eeprom
  4062     1B5C  3000               	movlw	0
  4063     1B5D  0526               	andwf	write_data_eeprom@set_value+1,w
  4064     1B5E  00A1               	movwf	??_write_data_eeprom+1
  4065     1B5F  3000               	movlw	0
  4066     1B60  0527               	andwf	write_data_eeprom@set_value+2,w
  4067     1B61  00A2               	movwf	??_write_data_eeprom+2
  4068     1B62  3000               	movlw	0
  4069     1B63  0528               	andwf	write_data_eeprom@set_value+3,w
  4070     1B64  00A3               	movwf	??_write_data_eeprom+3
  4071     1B65  0823               	movf	??_write_data_eeprom+3,w
  4072     1B66  00A8               	movwf	write_data_eeprom@set_value+3
  4073     1B67  0822               	movf	??_write_data_eeprom+2,w
  4074     1B68  00A7               	movwf	write_data_eeprom@set_value+2
  4075     1B69  0821               	movf	??_write_data_eeprom+1,w
  4076     1B6A  00A6               	movwf	write_data_eeprom@set_value+1
  4077     1B6B  0820               	movf	??_write_data_eeprom,w
  4078     1B6C  00A5               	movwf	write_data_eeprom@set_value
  4079     1B6D                     l3253:
  4080                           
  4081                           ;main.c: 102: eeprom_write(adr+1, set_value);
  4082     1B6D  0825               	movf	write_data_eeprom@set_value,w
  4083     1B6E  00F0               	movwf	eeprom_write@value
  4084     1B6F  0874               	movf	write_data_eeprom@adr,w
  4085     1B70  3E01               	addlw	1
  4086     1B71  319A  2263  319B   	fcall	_eeprom_write
  4087     1B74                     l79:
  4088     1B74  0008               	return
  4089     1B75                     __end_of_write_data_eeprom:
  4090                           
  4091                           	psect	text2
  4092     1A63                     __ptext2:	
  4093 ;; *************** function _eeprom_write *****************
  4094 ;; Defined at:
  4095 ;;		line 6 in file "C:\Program Files\Microchip\xc8\v2.41\pic\sources\c90\pic\__eewrite.c"
  4096 ;; Parameters:    Size  Location     Type
  4097 ;;  addr            1    wreg     unsigned char 
  4098 ;;  value           1    0[COMMON] unsigned char 
  4099 ;; Auto vars:     Size  Location     Type
  4100 ;;  addr            1    3[COMMON] unsigned char 
  4101 ;; Return value:  Size  Location     Type
  4102 ;;                  1    wreg      void 
  4103 ;; Registers used:
  4104 ;;		wreg, status,2, status,0
  4105 ;; Tracked objects:
  4106 ;;		On entry : 0/0
  4107 ;;		On exit  : 0/0
  4108 ;;		Unchanged: 0/0
  4109 ;; Data sizes:     COMMON   BANK0   BANK1   BANK2   BANK3   BANK4   BANK5   BANK6   BANK7   BANK8   BANK9  BANK10  BANK1
      +1  BANK12  BANK13  BANK14  BANK15  BANK16  BANK17  BANK18  BANK19  BANK20  BANK21  BANK22  BANK23  BANK24  BANK25
  4110 ;;      Params:         1       0       0       0       0       0       0       0       0       0       0       0       
      +0       0       0       0       0       0       0       0       0       0       0       0       0       0       0
  4111 ;;      Locals:         1       0       0       0       0       0       0       0       0       0       0       0       
      +0       0       0       0       0       0       0       0       0       0       0       0       0       0       0
  4112 ;;      Temps:          2       0       0       0       0       0       0       0       0       0       0       0       
      +0       0       0       0       0       0       0       0       0       0       0       0       0       0       0
  4113 ;;      Totals:         4       0       0       0       0       0       0       0       0       0       0       0       
      +0       0       0       0       0       0       0       0       0       0       0       0       0       0       0
  4114 ;;Total ram usage:        4 bytes
  4115 ;; Hardware stack levels used: 1
  4116 ;; This function calls:
  4117 ;;		Nothing
  4118 ;; This function is called by:
  4119 ;;		_write_data_eeprom
  4120 ;; This function uses a non-reentrant model
  4121 ;;
  4122                           
  4123     1A63                     _eeprom_write:	
  4124                           ;psect for function _eeprom_write
  4125                           
  4126                           
  4127                           ;incstack = 0
  4128                           ; Regs used in _eeprom_write: [wreg+status,2+status,0]
  4129                           ;eeprom_write@addr stored from wreg
  4130     1A63  00F3               	movwf	eeprom_write@addr
  4131     1A64                     l614:	
  4132                           ;__eewrite.c: 8: do{ while (EECON1bits.WR) { continue; } EEADR = (addr); EEDATA = (value
      +                          ); EECON1 &= 0x3F; STATUSbits.CARRY = 0; if (INTCONbits.GIE) { STATUSbits.CARRY = 1; } I
      +                          NTCONbits.GIE = 0; EECON1bits.WREN = 1; EECON2 = 0x55; EECON2 = 0xAA; EECON1bits.WR = 1;
      +                           EE
  4133                           
  4134     1A64                     l615:
  4135     1A64  0023               	movlb	3	; select bank3
  4136     1A65  1895               	btfsc	21,1	;volsfr
  4137     1A66  2A68               	goto	u3221
  4138     1A67  2A69               	goto	u3220
  4139     1A68                     u3221:
  4140     1A68  2A64               	goto	l615
  4141     1A69                     u3220:
  4142     1A69                     l3075:
  4143     1A69  0873               	movf	eeprom_write@addr,w
  4144     1A6A  00F1               	movwf	??_eeprom_write
  4145     1A6B  01F2               	clrf	??_eeprom_write+1
  4146     1A6C  0871               	movf	??_eeprom_write,w
  4147     1A6D  0091               	movwf	17	;volatile
  4148     1A6E  0872               	movf	??_eeprom_write+1,w
  4149     1A6F  0092               	movwf	18	;volatile
  4150     1A70  0870               	movf	eeprom_write@value,w
  4151     1A71  0093               	movwf	19	;volatile
  4152     1A72                     l3077:
  4153     1A72  303F               	movlw	63
  4154     1A73  00F1               	movwf	??_eeprom_write
  4155     1A74  0871               	movf	??_eeprom_write,w
  4156     1A75  0595               	andwf	21,f	;volsfr
  4157     1A76                     l3079:
  4158     1A76  0020               	movlb	0	; select bank0
  4159     1A77  1003               	bcf	3,0	;volatile
  4160     1A78                     l3081:
  4161     1A78  1F8B               	btfss	11,7	;volatile
  4162     1A79  2A7B               	goto	u3231
  4163     1A7A  2A7C               	goto	u3230
  4164     1A7B                     u3231:
  4165     1A7B  2A7D               	goto	l618
  4166     1A7C                     u3230:
  4167     1A7C                     l3083:
  4168     1A7C  1403               	bsf	3,0	;volatile
  4169     1A7D                     l618:
  4170     1A7D  138B               	bcf	11,7	;volatile
  4171     1A7E  0023               	movlb	3	; select bank3
  4172     1A7F  1515               	bsf	21,2	;volsfr
  4173     1A80                     l3085:
  4174     1A80  3055               	movlw	85
  4175     1A81  0096               	movwf	22	;volsfr
  4176     1A82  30AA               	movlw	170
  4177     1A83  0096               	movwf	22	;volsfr
  4178     1A84                     l3087:
  4179     1A84  1495               	bsf	21,1	;volsfr
  4180     1A85                     l3089:
  4181     1A85  1115               	bcf	21,2	;volsfr
  4182     1A86                     l3091:
  4183     1A86  0020               	movlb	0	; select bank0
  4184     1A87  1C03               	btfss	3,0	;volatile
  4185     1A88  2A8A               	goto	u3241
  4186     1A89  2A8B               	goto	u3240
  4187     1A8A                     u3241:
  4188     1A8A  2A8C               	goto	l621
  4189     1A8B                     u3240:
  4190     1A8B                     l3093:
  4191     1A8B  178B               	bsf	11,7	;volatile
  4192     1A8C                     l621:
  4193     1A8C  0008               	return
  4194     1A8D                     __end_of_eeprom_write:
  4195                           
  4196                           	psect	text3
  4197     1B75                     __ptext3:	
  4198 ;; *************** function _strtok *****************
  4199 ;; Defined at:
  4200 ;;		line 8 in file "C:\Program Files\Microchip\xc8\v2.41\pic\sources\c90\common\strtok.c"
  4201 ;; Parameters:    Size  Location     Type
  4202 ;;  s1              1    wreg     PTR unsigned char 
  4203 ;;		 -> NULL(0), main@tmp(40), 
  4204 ;;  s2              2    0[BANK0 ] PTR const unsigned char 
  4205 ;;		 -> STR_85(2), STR_83(2), STR_81(2), STR_78(2), 
  4206 ;;		 -> STR_76(2), STR_74(2), STR_73(2), STR_64(2), 
  4207 ;;		 -> STR_62(2), STR_58(2), STR_53(2), STR_52(2), 
  4208 ;;		 -> STR_51(2), STR_50(2), STR_49(2), STR_47(2), 
  4209 ;;		 -> STR_45(2), STR_44(2), STR_43(2), STR_41(2), 
  4210 ;;		 -> STR_40(2), STR_39(2), STR_38(2), STR_37(2), 
  4211 ;; Auto vars:     Size  Location     Type
  4212 ;;  s1              1    4[BANK0 ] PTR unsigned char 
  4213 ;;		 -> NULL(0), main@tmp(40), 
  4214 ;; Return value:  Size  Location     Type
  4215 ;;                  1    wreg      PTR unsigned char 
  4216 ;; Registers used:
  4217 ;;		wreg, fsr0l, fsr0h, fsr1l, fsr1h, status,2, status,0, pclath, cstack
  4218 ;; Tracked objects:
  4219 ;;		On entry : 0/0
  4220 ;;		On exit  : 0/0
  4221 ;;		Unchanged: 0/0
  4222 ;; Data sizes:     COMMON   BANK0   BANK1   BANK2   BANK3   BANK4   BANK5   BANK6   BANK7   BANK8   BANK9  BANK10  BANK1
      +1  BANK12  BANK13  BANK14  BANK15  BANK16  BANK17  BANK18  BANK19  BANK20  BANK21  BANK22  BANK23  BANK24  BANK25
  4223 ;;      Params:         0       2       0       0       0       0       0       0       0       0       0       0       
      +0       0       0       0       0       0       0       0       0       0       0       0       0       0       0
  4224 ;;      Locals:         0       1       0       0       0       0       0       0       0       0       0       0       
      +0       0       0       0       0       0       0       0       0       0       0       0       0       0       0
  4225 ;;      Temps:          0       2       0       0       0       0       0       0       0       0       0       0       
      +0       0       0       0       0       0       0       0       0       0       0       0       0       0       0
  4226 ;;      Totals:         0       5       0       0       0       0       0       0       0       0       0       0       
      +0       0       0       0       0       0       0       0       0       0       0       0       0       0       0
  4227 ;;Total ram usage:        5 bytes
  4228 ;; Hardware stack levels used: 1
  4229 ;; Hardware stack levels required when called: 2
  4230 ;; This function calls:
  4231 ;;		_strcspn
  4232 ;;		_strspn
  4233 ;; This function is called by:
  4234 ;;		_main
  4235 ;; This function uses a non-reentrant model
  4236 ;;
  4237                           
  4238     1B75                     _strtok:	
  4239                           ;psect for function _strtok
  4240                           
  4241                           
  4242                           ;incstack = 0
  4243                           ; Regs used in _strtok: [wreg-fsr1h+status,2+status,0+pclath+cstack]
  4244                           ;strtok@s1 stored from wreg
  4245     1B75  0020               	movlb	0	; select bank0
  4246     1B76  00A4               	movwf	strtok@s1
  4247     1B77                     l3293:
  4248     1B77  0824               	movf	strtok@s1,w
  4249     1B78  1D03               	btfss	3,2
  4250     1B79  2B7B               	goto	u3591
  4251     1B7A  2B7C               	goto	u3590
  4252     1B7B                     u3591:
  4253     1B7B  2B7E               	goto	l3297
  4254     1B7C                     u3590:
  4255     1B7C                     l3295:
  4256     1B7C  086F               	movf	strtok@sp,w
  4257     1B7D  00A4               	movwf	strtok@s1
  4258     1B7E                     l3297:
  4259     1B7E  0824               	movf	strtok@s1,w
  4260     1B7F  1D03               	btfss	3,2
  4261     1B80  2B82               	goto	u3601
  4262     1B81  2B83               	goto	u3600
  4263     1B82                     u3601:
  4264     1B82  2B85               	goto	l3303
  4265     1B83                     u3600:
  4266     1B83                     l3299:
  4267     1B83  3000               	movlw	0
  4268     1B84  2BC0               	goto	l1170
  4269     1B85                     l3303:
  4270     1B85  0821               	movf	strtok@s2+1,w
  4271     1B86  00F8               	movwf	strspn@s2+1
  4272     1B87  0820               	movf	strtok@s2,w
  4273     1B88  00F7               	movwf	strspn@s2
  4274     1B89  0824               	movf	strtok@s1,w
  4275     1B8A  3180  2005  319B   	fcall	_strspn
  4276     1B8D  0877               	movf	?_strspn,w
  4277     1B8E  0020               	movlb	0	; select bank0
  4278     1B8F  00A2               	movwf	??_strtok
  4279     1B90  0822               	movf	??_strtok,w
  4280     1B91  07A4               	addwf	strtok@s1,f
  4281     1B92                     l3305:
  4282     1B92  0824               	movf	strtok@s1,w
  4283     1B93  0086               	movwf	6
  4284     1B94  0187               	clrf	7
  4285     1B95  0801               	movf	1,w
  4286     1B96  1D03               	btfss	3,2
  4287     1B97  2B99               	goto	u3611
  4288     1B98  2B9A               	goto	u3610
  4289     1B99                     u3611:
  4290     1B99  2B9D               	goto	l3311
  4291     1B9A                     u3610:
  4292     1B9A                     l3307:
  4293     1B9A  01EF               	clrf	strtok@sp
  4294     1B9B  3000               	movlw	0
  4295     1B9C  2BC0               	goto	l1170
  4296     1B9D                     l3311:
  4297     1B9D  0821               	movf	strtok@s2+1,w
  4298     1B9E  00F8               	movwf	strcspn@s2+1
  4299     1B9F  0820               	movf	strtok@s2,w
  4300     1BA0  00F7               	movwf	strcspn@s2
  4301     1BA1  0824               	movf	strtok@s1,w
  4302     1BA2  319A  228D  319B   	fcall	_strcspn
  4303     1BA5  0877               	movf	?_strcspn,w
  4304     1BA6  0020               	movlb	0	; select bank0
  4305     1BA7  00A2               	movwf	??_strtok
  4306     1BA8  0878               	movf	?_strcspn+1,w
  4307     1BA9  00A3               	movwf	??_strtok+1
  4308     1BAA  0824               	movf	strtok@s1,w
  4309     1BAB  0722               	addwf	??_strtok,w
  4310     1BAC  00EF               	movwf	strtok@sp
  4311     1BAD                     l3313:
  4312     1BAD  086F               	movf	strtok@sp,w
  4313     1BAE  0086               	movwf	6
  4314     1BAF  0187               	clrf	7
  4315     1BB0  0801               	movf	1,w
  4316     1BB1  1903               	btfsc	3,2
  4317     1BB2  2BB4               	goto	u3621
  4318     1BB3  2BB5               	goto	u3620
  4319     1BB4                     u3621:
  4320     1BB4  2BBE               	goto	l3319
  4321     1BB5                     u3620:
  4322     1BB5                     l3315:
  4323     1BB5  086F               	movf	strtok@sp,w
  4324     1BB6  0086               	movwf	6
  4325     1BB7  0187               	clrf	7
  4326     1BB8  0181               	clrf	1
  4327     1BB9                     l3317:
  4328     1BB9  3001               	movlw	1
  4329     1BBA  00A2               	movwf	??_strtok
  4330     1BBB  0822               	movf	??_strtok,w
  4331     1BBC  07EF               	addwf	strtok@sp,f
  4332     1BBD  2BBF               	goto	l3321
  4333     1BBE                     l3319:
  4334     1BBE  01EF               	clrf	strtok@sp
  4335     1BBF                     l3321:
  4336     1BBF  0824               	movf	strtok@s1,w
  4337     1BC0                     l1170:
  4338     1BC0  0008               	return
  4339     1BC1                     __end_of_strtok:
  4340                           
  4341                           	psect	text4
  4342     0005                     __ptext4:	
  4343 ;; *************** function _strspn *****************
  4344 ;; Defined at:
  4345 ;;		line 4 in file "C:\Program Files\Microchip\xc8\v2.41\pic\sources\c90\common\strspn.c"
  4346 ;; Parameters:    Size  Location     Type
  4347 ;;  s1              1    wreg     PTR const unsigned char 
  4348 ;;		 -> NULL(0), main@tmp(40), 
  4349 ;;  s2              2    7[COMMON] PTR const unsigned char 
  4350 ;;		 -> STR_85(2), STR_83(2), STR_81(2), STR_78(2), 
  4351 ;;		 -> STR_76(2), STR_74(2), STR_73(2), STR_64(2), 
  4352 ;;		 -> STR_62(2), STR_58(2), STR_53(2), STR_52(2), 
  4353 ;;		 -> STR_51(2), STR_50(2), STR_49(2), STR_47(2), 
  4354 ;;		 -> STR_45(2), STR_44(2), STR_43(2), STR_41(2), 
  4355 ;;		 -> STR_40(2), STR_39(2), STR_38(2), STR_37(2), 
  4356 ;; Auto vars:     Size  Location     Type
  4357 ;;  s1              1   13[COMMON] PTR const unsigned char 
  4358 ;;		 -> NULL(0), main@tmp(40), 
  4359 ;;  i               2   11[COMMON] unsigned int 
  4360 ;; Return value:  Size  Location     Type
  4361 ;;                  2    7[COMMON] unsigned int 
  4362 ;; Registers used:
  4363 ;;		wreg, fsr0l, fsr0h, fsr1l, fsr1h, status,2, status,0, pclath, cstack
  4364 ;; Tracked objects:
  4365 ;;		On entry : 0/0
  4366 ;;		On exit  : 0/0
  4367 ;;		Unchanged: 0/0
  4368 ;; Data sizes:     COMMON   BANK0   BANK1   BANK2   BANK3   BANK4   BANK5   BANK6   BANK7   BANK8   BANK9  BANK10  BANK1
      +1  BANK12  BANK13  BANK14  BANK15  BANK16  BANK17  BANK18  BANK19  BANK20  BANK21  BANK22  BANK23  BANK24  BANK25
  4369 ;;      Params:         2       0       0       0       0       0       0       0       0       0       0       0       
      +0       0       0       0       0       0       0       0       0       0       0       0       0       0       0
  4370 ;;      Locals:         3       0       0       0       0       0       0       0       0       0       0       0       
      +0       0       0       0       0       0       0       0       0       0       0       0       0       0       0
  4371 ;;      Temps:          2       0       0       0       0       0       0       0       0       0       0       0       
      +0       0       0       0       0       0       0       0       0       0       0       0       0       0       0
  4372 ;;      Totals:         7       0       0       0       0       0       0       0       0       0       0       0       
      +0       0       0       0       0       0       0       0       0       0       0       0       0       0       0
  4373 ;;Total ram usage:        7 bytes
  4374 ;; Hardware stack levels used: 1
  4375 ;; Hardware stack levels required when called: 1
  4376 ;; This function calls:
  4377 ;;		_strchr
  4378 ;; This function is called by:
  4379 ;;		_strtok
  4380 ;; This function uses a non-reentrant model
  4381 ;;
  4382                           
  4383     0005                     _strspn:	
  4384                           ;psect for function _strspn
  4385                           
  4386                           
  4387                           ;incstack = 0
  4388                           ; Regs used in _strspn: [wreg-fsr1h+status,2+status,0+pclath+cstack]
  4389                           ;strspn@s1 stored from wreg
  4390     0005  00FD               	movwf	strspn@s1
  4391     0006                     l3221:
  4392     0006  01FB               	clrf	strspn@i
  4393     0007  01FC               	clrf	strspn@i+1
  4394     0008  2811               	goto	l3225
  4395     0009                     l3223:
  4396     0009  3001               	movlw	1
  4397     000A  00F9               	movwf	??_strspn
  4398     000B  0879               	movf	??_strspn,w
  4399     000C  07FD               	addwf	strspn@s1,f
  4400     000D  3001               	movlw	1
  4401     000E  07FB               	addwf	strspn@i,f
  4402     000F  3000               	movlw	0
  4403     0010  3DFC               	addwfc	strspn@i+1,f
  4404     0011                     l3225:
  4405     0011  087D               	movf	strspn@s1,w
  4406     0012  0086               	movwf	6
  4407     0013  0187               	clrf	7
  4408     0014  0801               	movf	1,w
  4409     0015  1903               	btfsc	3,2
  4410     0016  2818               	goto	u3501
  4411     0017  2819               	goto	u3500
  4412     0018                     u3501:
  4413     0018  2830               	goto	l3229
  4414     0019                     u3500:
  4415     0019                     l3227:
  4416     0019  0878               	movf	strspn@s2+1,w
  4417     001A  00F1               	movwf	strchr@ptr+1
  4418     001B  0877               	movf	strspn@s2,w
  4419     001C  00F0               	movwf	strchr@ptr
  4420     001D  087D               	movf	strspn@s1,w
  4421     001E  0086               	movwf	6
  4422     001F  0187               	clrf	7
  4423     0020  0801               	movf	1,w
  4424     0021  00F9               	movwf	??_strspn
  4425     0022  01FA               	clrf	??_strspn+1
  4426     0023  0879               	movf	??_strspn,w
  4427     0024  00F2               	movwf	strchr@chr
  4428     0025  087A               	movf	??_strspn+1,w
  4429     0026  00F3               	movwf	strchr@chr+1
  4430     0027  3199  21FD  3180   	fcall	_strchr
  4431     002A  0870               	movf	?_strchr,w
  4432     002B  0471               	iorwf	?_strchr+1,w
  4433     002C  1D03               	btfss	3,2
  4434     002D  282F               	goto	u3511
  4435     002E  2830               	goto	u3510
  4436     002F                     u3511:
  4437     002F  2809               	goto	l3223
  4438     0030                     u3510:
  4439     0030                     l3229:
  4440     0030  087C               	movf	strspn@i+1,w
  4441     0031  00F8               	movwf	?_strspn+1
  4442     0032  087B               	movf	strspn@i,w
  4443     0033  00F7               	movwf	?_strspn
  4444     0034                     l1199:
  4445     0034  0008               	return
  4446     0035                     __end_of_strspn:
  4447                           
  4448                           	psect	text5
  4449     1A8D                     __ptext5:	
  4450 ;; *************** function _strcspn *****************
  4451 ;; Defined at:
  4452 ;;		line 4 in file "C:\Program Files\Microchip\xc8\v2.41\pic\sources\c90\common\strcspn.c"
  4453 ;; Parameters:    Size  Location     Type
  4454 ;;  s1              1    wreg     PTR const unsigned char 
  4455 ;;		 -> NULL(0), main@tmp(40), 
  4456 ;;  s2              2    7[COMMON] PTR const unsigned char 
  4457 ;;		 -> STR_85(2), STR_83(2), STR_81(2), STR_78(2), 
  4458 ;;		 -> STR_76(2), STR_74(2), STR_73(2), STR_64(2), 
  4459 ;;		 -> STR_62(2), STR_58(2), STR_53(2), STR_52(2), 
  4460 ;;		 -> STR_51(2), STR_50(2), STR_49(2), STR_47(2), 
  4461 ;;		 -> STR_45(2), STR_44(2), STR_43(2), STR_41(2), 
  4462 ;;		 -> STR_40(2), STR_39(2), STR_38(2), STR_37(2), 
  4463 ;; Auto vars:     Size  Location     Type
  4464 ;;  s1              1   13[COMMON] PTR const unsigned char 
  4465 ;;		 -> NULL(0), main@tmp(40), 
  4466 ;;  i               2   11[COMMON] unsigned int 
  4467 ;; Return value:  Size  Location     Type
  4468 ;;                  2    7[COMMON] unsigned int 
  4469 ;; Registers used:
  4470 ;;		wreg, fsr0l, fsr0h, fsr1l, fsr1h, status,2, status,0, pclath, cstack
  4471 ;; Tracked objects:
  4472 ;;		On entry : 0/0
  4473 ;;		On exit  : 0/0
  4474 ;;		Unchanged: 0/0
  4475 ;; Data sizes:     COMMON   BANK0   BANK1   BANK2   BANK3   BANK4   BANK5   BANK6   BANK7   BANK8   BANK9  BANK10  BANK1
      +1  BANK12  BANK13  BANK14  BANK15  BANK16  BANK17  BANK18  BANK19  BANK20  BANK21  BANK22  BANK23  BANK24  BANK25
  4476 ;;      Params:         2       0       0       0       0       0       0       0       0       0       0       0       
      +0       0       0       0       0       0       0       0       0       0       0       0       0       0       0
  4477 ;;      Locals:         3       0       0       0       0       0       0       0       0       0       0       0       
      +0       0       0       0       0       0       0       0       0       0       0       0       0       0       0
  4478 ;;      Temps:          2       0       0       0       0       0       0       0       0       0       0       0       
      +0       0       0       0       0       0       0       0       0       0       0       0       0       0       0
  4479 ;;      Totals:         7       0       0       0       0       0       0       0       0       0       0       0       
      +0       0       0       0       0       0       0       0       0       0       0       0       0       0       0
  4480 ;;Total ram usage:        7 bytes
  4481 ;; Hardware stack levels used: 1
  4482 ;; Hardware stack levels required when called: 1
  4483 ;; This function calls:
  4484 ;;		_strchr
  4485 ;; This function is called by:
  4486 ;;		_strtok
  4487 ;; This function uses a non-reentrant model
  4488 ;;
  4489                           
  4490     1A8D                     _strcspn:	
  4491                           ;psect for function _strcspn
  4492                           
  4493                           
  4494                           ;incstack = 0
  4495                           ; Regs used in _strcspn: [wreg-fsr1h+status,2+status,0+pclath+cstack]
  4496                           ;strcspn@s1 stored from wreg
  4497     1A8D  00FD               	movwf	strcspn@s1
  4498     1A8E                     l3233:
  4499     1A8E  01FB               	clrf	strcspn@i
  4500     1A8F  01FC               	clrf	strcspn@i+1
  4501     1A90  2A99               	goto	l3237
  4502     1A91                     l3235:
  4503     1A91  3001               	movlw	1
  4504     1A92  00F9               	movwf	??_strcspn
  4505     1A93  0879               	movf	??_strcspn,w
  4506     1A94  07FD               	addwf	strcspn@s1,f
  4507     1A95  3001               	movlw	1
  4508     1A96  07FB               	addwf	strcspn@i,f
  4509     1A97  3000               	movlw	0
  4510     1A98  3DFC               	addwfc	strcspn@i+1,f
  4511     1A99                     l3237:
  4512     1A99  087D               	movf	strcspn@s1,w
  4513     1A9A  0086               	movwf	6
  4514     1A9B  0187               	clrf	7
  4515     1A9C  0801               	movf	1,w
  4516     1A9D  1903               	btfsc	3,2
  4517     1A9E  2AA0               	goto	u3521
  4518     1A9F  2AA1               	goto	u3520
  4519     1AA0                     u3521:
  4520     1AA0  2AB8               	goto	l3241
  4521     1AA1                     u3520:
  4522     1AA1                     l3239:
  4523     1AA1  0878               	movf	strcspn@s2+1,w
  4524     1AA2  00F1               	movwf	strchr@ptr+1
  4525     1AA3  0877               	movf	strcspn@s2,w
  4526     1AA4  00F0               	movwf	strchr@ptr
  4527     1AA5  087D               	movf	strcspn@s1,w
  4528     1AA6  0086               	movwf	6
  4529     1AA7  0187               	clrf	7
  4530     1AA8  0801               	movf	1,w
  4531     1AA9  00F9               	movwf	??_strcspn
  4532     1AAA  01FA               	clrf	??_strcspn+1
  4533     1AAB  0879               	movf	??_strcspn,w
  4534     1AAC  00F2               	movwf	strchr@chr
  4535     1AAD  087A               	movf	??_strcspn+1,w
  4536     1AAE  00F3               	movwf	strchr@chr+1
  4537     1AAF  3199  21FD  319A   	fcall	_strchr
  4538     1AB2  0870               	movf	?_strchr,w
  4539     1AB3  0471               	iorwf	?_strchr+1,w
  4540     1AB4  1903               	btfsc	3,2
  4541     1AB5  2AB7               	goto	u3531
  4542     1AB6  2AB8               	goto	u3530
  4543     1AB7                     u3531:
  4544     1AB7  2A91               	goto	l3235
  4545     1AB8                     u3530:
  4546     1AB8                     l3241:
  4547     1AB8  087C               	movf	strcspn@i+1,w
  4548     1AB9  00F8               	movwf	?_strcspn+1
  4549     1ABA  087B               	movf	strcspn@i,w
  4550     1ABB  00F7               	movwf	?_strcspn
  4551     1ABC                     l1183:
  4552     1ABC  0008               	return
  4553     1ABD                     __end_of_strcspn:
  4554                           
  4555                           	psect	text6
  4556     19FD                     __ptext6:	
  4557 ;; *************** function _strchr *****************
  4558 ;; Defined at:
  4559 ;;		line 4 in file "C:\Program Files\Microchip\xc8\v2.41\pic\sources\c90\common\strchr.c"
  4560 ;; Parameters:    Size  Location     Type
  4561 ;;  ptr             2    0[COMMON] PTR const unsigned char 
  4562 ;;		 -> STR_85(2), STR_83(2), STR_81(2), STR_78(2), 
  4563 ;;		 -> STR_76(2), STR_74(2), STR_73(2), STR_64(2), 
  4564 ;;		 -> STR_62(2), STR_58(2), STR_53(2), STR_52(2), 
  4565 ;;		 -> STR_51(2), STR_50(2), STR_49(2), STR_47(2), 
  4566 ;;		 -> STR_45(2), STR_44(2), STR_43(2), STR_41(2), 
  4567 ;;		 -> STR_40(2), STR_39(2), STR_38(2), STR_37(2), 
  4568 ;;  chr             2    2[COMMON] int 
  4569 ;; Auto vars:     Size  Location     Type
  4570 ;;		None
  4571 ;; Return value:  Size  Location     Type
  4572 ;;                  2    0[COMMON] PTR unsigned char 
  4573 ;; Registers used:
  4574 ;;		wreg, fsr0l, fsr0h, status,2, status,0, pclath
  4575 ;; Tracked objects:
  4576 ;;		On entry : 0/0
  4577 ;;		On exit  : 0/0
  4578 ;;		Unchanged: 0/0
  4579 ;; Data sizes:     COMMON   BANK0   BANK1   BANK2   BANK3   BANK4   BANK5   BANK6   BANK7   BANK8   BANK9  BANK10  BANK1
      +1  BANK12  BANK13  BANK14  BANK15  BANK16  BANK17  BANK18  BANK19  BANK20  BANK21  BANK22  BANK23  BANK24  BANK25
  4580 ;;      Params:         4       0       0       0       0       0       0       0       0       0       0       0       
      +0       0       0       0       0       0       0       0       0       0       0       0       0       0       0
  4581 ;;      Locals:         0       0       0       0       0       0       0       0       0       0       0       0       
      +0       0       0       0       0       0       0       0       0       0       0       0       0       0       0
  4582 ;;      Temps:          3       0       0       0       0       0       0       0       0       0       0       0       
      +0       0       0       0       0       0       0       0       0       0       0       0       0       0       0
  4583 ;;      Totals:         7       0       0       0       0       0       0       0       0       0       0       0       
      +0       0       0       0       0       0       0       0       0       0       0       0       0       0       0
  4584 ;;Total ram usage:        7 bytes
  4585 ;; Hardware stack levels used: 1
  4586 ;; This function calls:
  4587 ;;		Nothing
  4588 ;; This function is called by:
  4589 ;;		_strcspn
  4590 ;;		_strspn
  4591 ;; This function uses a non-reentrant model
  4592 ;;
  4593                           
  4594     19FD                     _strchr:	
  4595                           ;psect for function _strchr
  4596                           
  4597     19FD                     l1186:	
  4598                           ;incstack = 0
  4599                           ; Regs used in _strchr: [wreg-fsr0h+status,2+status,0+pclath]
  4600                           
  4601     19FD                     l3065:
  4602     19FD  0870               	movf	strchr@ptr,w
  4603     19FE  0084               	movwf	4
  4604     19FF  0871               	movf	strchr@ptr+1,w
  4605     1A00  0085               	movwf	5
  4606     1A01  0800               	movf	0,w	;code access
  4607     1A02  0672               	xorwf	strchr@chr,w
  4608     1A03  1D03               	skipz
  4609     1A04  2A06               	goto	u3201
  4610     1A05  2A07               	goto	u3200
  4611     1A06                     u3201:
  4612     1A06  2A08               	goto	l3069
  4613     1A07                     u3200:
  4614     1A07                     l3067:
  4615     1A07  2A1A               	goto	l1188
  4616     1A08                     l3069:
  4617     1A08  0871               	movf	strchr@ptr+1,w
  4618     1A09  00F5               	movwf	??_strchr+1
  4619     1A0A  0870               	movf	strchr@ptr,w
  4620     1A0B  00F4               	movwf	??_strchr
  4621     1A0C  0AF0               	incf	strchr@ptr,f
  4622     1A0D  1903               	skipnz
  4623     1A0E  0AF1               	incf	strchr@ptr+1,f
  4624     1A0F  0874               	movf	??_strchr,w
  4625     1A10  0084               	movwf	4
  4626     1A11  0875               	movf	??_strchr+1,w
  4627     1A12  0085               	movwf	5
  4628     1A13  0012               	moviw fsr0++
  4629     1A14  1D03               	btfss	3,2
  4630     1A15  2A17               	goto	u3211
  4631     1A16  2A18               	goto	u3210
  4632     1A17                     u3211:
  4633     1A17  29FD               	goto	l1186
  4634     1A18                     u3210:
  4635     1A18                     l3071:
  4636     1A18  01F0               	clrf	?_strchr
  4637     1A19  01F1               	clrf	?_strchr+1
  4638     1A1A                     l1188:
  4639     1A1A  0008               	return
  4640     1A1B                     __end_of_strchr:
  4641                           
  4642                           	psect	text7
  4643     1A3A                     __ptext7:	
  4644 ;; *************** function _strcmp *****************
  4645 ;; Defined at:
  4646 ;;		line 33 in file "C:\Program Files\Microchip\xc8\v2.41\pic\sources\c90\common\strcmp.c"
  4647 ;; Parameters:    Size  Location     Type
  4648 ;;  s1              1    wreg     PTR const unsigned char 
  4649 ;;		 -> main@rcmd(4), 
  4650 ;;  s2              2    0[COMMON] PTR const unsigned char 
  4651 ;;		 -> STR_36(4), STR_35(4), STR_34(4), STR_33(4), 
  4652 ;;		 -> STR_32(4), STR_31(4), STR_30(4), STR_29(4), 
  4653 ;;		 -> STR_28(4), STR_27(4), STR_26(4), STR_25(4), 
  4654 ;;		 -> STR_24(4), STR_23(4), STR_22(4), STR_21(4), 
  4655 ;;		 -> STR_20(4), STR_19(4), STR_18(4), STR_17(4), 
  4656 ;;		 -> STR_16(4), STR_15(4), STR_14(4), STR_13(4), 
  4657 ;;		 -> STR_12(4), STR_11(4), STR_10(4), STR_9(4), 
  4658 ;;		 -> STR_8(4), STR_7(4), STR_6(4), STR_5(4), 
  4659 ;;		 -> STR_4(4), STR_3(4), STR_2(4), STR_1(4), 
  4660 ;; Auto vars:     Size  Location     Type
  4661 ;;  s1              1    4[COMMON] PTR const unsigned char 
  4662 ;;		 -> main@rcmd(4), 
  4663 ;;  r               1    3[COMMON] char 
  4664 ;; Return value:  Size  Location     Type
  4665 ;;                  2    0[COMMON] int 
  4666 ;; Registers used:
  4667 ;;		wreg, fsr0l, fsr0h, fsr1l, fsr1h, status,2, status,0, pclath
  4668 ;; Tracked objects:
  4669 ;;		On entry : 0/0
  4670 ;;		On exit  : 0/0
  4671 ;;		Unchanged: 0/0
  4672 ;; Data sizes:     COMMON   BANK0   BANK1   BANK2   BANK3   BANK4   BANK5   BANK6   BANK7   BANK8   BANK9  BANK10  BANK1
      +1  BANK12  BANK13  BANK14  BANK15  BANK16  BANK17  BANK18  BANK19  BANK20  BANK21  BANK22  BANK23  BANK24  BANK25
  4673 ;;      Params:         2       0       0       0       0       0       0       0       0       0       0       0       
      +0       0       0       0       0       0       0       0       0       0       0       0       0       0       0
  4674 ;;      Locals:         2       0       0       0       0       0       0       0       0       0       0       0       
      +0       0       0       0       0       0       0       0       0       0       0       0       0       0       0
  4675 ;;      Temps:          1       0       0       0       0       0       0       0       0       0       0       0       
      +0       0       0       0       0       0       0       0       0       0       0       0       0       0       0
  4676 ;;      Totals:         5       0       0       0       0       0       0       0       0       0       0       0       
      +0       0       0       0       0       0       0       0       0       0       0       0       0       0       0
  4677 ;;Total ram usage:        5 bytes
  4678 ;; Hardware stack levels used: 1
  4679 ;; This function calls:
  4680 ;;		Nothing
  4681 ;; This function is called by:
  4682 ;;		_main
  4683 ;; This function uses a non-reentrant model
  4684 ;;
  4685                           
  4686     1A3A                     _strcmp:	
  4687                           ;psect for function _strcmp
  4688                           
  4689                           
  4690                           ;incstack = 0
  4691                           ; Regs used in _strcmp: [wreg-fsr1h+status,2+status,0+pclath]
  4692                           ;strcmp@s1 stored from wreg
  4693     1A3A  00F4               	movwf	strcmp@s1
  4694     1A3B                     l3281:
  4695     1A3B  2A44               	goto	l3285
  4696     1A3C                     l3283:
  4697     1A3C  3001               	movlw	1
  4698     1A3D  00F2               	movwf	??_strcmp
  4699     1A3E  0872               	movf	??_strcmp,w
  4700     1A3F  07F4               	addwf	strcmp@s1,f
  4701     1A40  3001               	movlw	1
  4702     1A41  07F0               	addwf	strcmp@s2,f
  4703     1A42  3000               	movlw	0
  4704     1A43  3DF1               	addwfc	strcmp@s2+1,f
  4705     1A44                     l3285:
  4706     1A44  0874               	movf	strcmp@s1,w
  4707     1A45  0086               	movwf	6
  4708     1A46  3001               	movlw	1	; select bank2/3
  4709     1A47  0087               	movwf	7
  4710     1A48  0870               	movf	strcmp@s2,w
  4711     1A49  0084               	movwf	4
  4712     1A4A  0871               	movf	strcmp@s2+1,w
  4713     1A4B  0085               	movwf	5
  4714     1A4C  0800               	movf	0,w	;code access
  4715     1A4D  0201               	subwf	1,w
  4716     1A4E  00F3               	movwf	strcmp@r
  4717     1A4F  0873               	movf	strcmp@r,w
  4718     1A50  1D03               	btfss	3,2
  4719     1A51  2A53               	goto	u3571
  4720     1A52  2A54               	goto	u3570
  4721     1A53                     u3571:
  4722     1A53  2A5D               	goto	l3289
  4723     1A54                     u3570:
  4724     1A54                     l3287:
  4725     1A54  0874               	movf	strcmp@s1,w
  4726     1A55  0086               	movwf	6
  4727     1A56  3001               	movlw	1	; select bank2/3
  4728     1A57  0087               	movwf	7
  4729     1A58  0801               	movf	1,w
  4730     1A59  1D03               	btfss	3,2
  4731     1A5A  2A5C               	goto	u3581
  4732     1A5B  2A5D               	goto	u3580
  4733     1A5C                     u3581:
  4734     1A5C  2A3C               	goto	l3283
  4735     1A5D                     u3580:
  4736     1A5D                     l3289:
  4737     1A5D  0873               	movf	strcmp@r,w
  4738     1A5E  00F0               	movwf	?_strcmp
  4739     1A5F  01F1               	clrf	?_strcmp+1
  4740     1A60  1BF0               	btfsc	?_strcmp,7
  4741     1A61  03F1               	decf	?_strcmp+1,f
  4742     1A62                     l1159:
  4743     1A62  0008               	return
  4744     1A63                     __end_of_strcmp:
  4745                           
  4746                           	psect	text8
  4747     1BC1                     __ptext8:	
  4748 ;; *************** function _read_data_eeprom *****************
  4749 ;; Defined at:
  4750 ;;		line 105 in file "main.c"
  4751 ;; Parameters:    Size  Location     Type
  4752 ;;  adr             4    4[COMMON] long 
  4753 ;; Auto vars:     Size  Location     Type
  4754 ;;  set_value_h     4    8[BANK0 ] long 
  4755 ;;  set_value       4    4[BANK0 ] long 
  4756 ;;  set_value_l     4    0[BANK0 ] long 
  4757 ;; Return value:  Size  Location     Type
  4758 ;;                  4    4[COMMON] long 
  4759 ;; Registers used:
  4760 ;;		wreg, status,2, status,0, pclath, cstack
  4761 ;; Tracked objects:
  4762 ;;		On entry : 0/0
  4763 ;;		On exit  : 0/0
  4764 ;;		Unchanged: 0/0
  4765 ;; Data sizes:     COMMON   BANK0   BANK1   BANK2   BANK3   BANK4   BANK5   BANK6   BANK7   BANK8   BANK9  BANK10  BANK1
      +1  BANK12  BANK13  BANK14  BANK15  BANK16  BANK17  BANK18  BANK19  BANK20  BANK21  BANK22  BANK23  BANK24  BANK25
  4766 ;;      Params:         4       0       0       0       0       0       0       0       0       0       0       0       
      +0       0       0       0       0       0       0       0       0       0       0       0       0       0       0
  4767 ;;      Locals:         0      12       0       0       0       0       0       0       0       0       0       0       
      +0       0       0       0       0       0       0       0       0       0       0       0       0       0       0
  4768 ;;      Temps:          4       0       0       0       0       0       0       0       0       0       0       0       
      +0       0       0       0       0       0       0       0       0       0       0       0       0       0       0
  4769 ;;      Totals:         8      12       0       0       0       0       0       0       0       0       0       0       
      +0       0       0       0       0       0       0       0       0       0       0       0       0       0       0
  4770 ;;Total ram usage:       20 bytes
  4771 ;; Hardware stack levels used: 1
  4772 ;; Hardware stack levels required when called: 1
  4773 ;; This function calls:
  4774 ;;		_eeprom_read
  4775 ;; This function is called by:
  4776 ;;		_main
  4777 ;; This function uses a non-reentrant model
  4778 ;;
  4779                           
  4780     1BC1                     _read_data_eeprom:	
  4781                           ;psect for function _read_data_eeprom
  4782                           
  4783     1BC1                     l3255:	
  4784                           ;incstack = 0
  4785                           ; Regs used in _read_data_eeprom: [wreg+status,2+status,0+pclath+cstack]
  4786                           
  4787                           
  4788                           ;main.c: 106: long set_value_h;;main.c: 107: long set_value_l;;main.c: 108: long set_val
      +                          ue;;main.c: 110: set_value_l = eeprom_read(adr);
  4789     1BC1  0874               	movf	read_data_eeprom@adr,w
  4790     1BC2  3199  21E8  319B   	fcall	_eeprom_read
  4791     1BC5  00F8               	movwf	??_read_data_eeprom
  4792     1BC6  01F9               	clrf	??_read_data_eeprom+1
  4793     1BC7  01FA               	clrf	??_read_data_eeprom+2
  4794     1BC8  01FB               	clrf	??_read_data_eeprom+3
  4795     1BC9  087B               	movf	??_read_data_eeprom+3,w
  4796     1BCA  0020               	movlb	0	; select bank0
  4797     1BCB  00A3               	movwf	read_data_eeprom@set_value_l+3
  4798     1BCC  087A               	movf	??_read_data_eeprom+2,w
  4799     1BCD  00A2               	movwf	read_data_eeprom@set_value_l+2
  4800     1BCE  0879               	movf	??_read_data_eeprom+1,w
  4801     1BCF  00A1               	movwf	read_data_eeprom@set_value_l+1
  4802     1BD0  0878               	movf	??_read_data_eeprom,w
  4803     1BD1  00A0               	movwf	read_data_eeprom@set_value_l
  4804                           
  4805                           ;main.c: 111: set_value_h = eeprom_read(adr+1);
  4806     1BD2  0874               	movf	read_data_eeprom@adr,w
  4807     1BD3  3E01               	addlw	1
  4808     1BD4  3199  21E8  319B   	fcall	_eeprom_read
  4809     1BD7  00F8               	movwf	??_read_data_eeprom
  4810     1BD8  01F9               	clrf	??_read_data_eeprom+1
  4811     1BD9  01FA               	clrf	??_read_data_eeprom+2
  4812     1BDA  01FB               	clrf	??_read_data_eeprom+3
  4813     1BDB  087B               	movf	??_read_data_eeprom+3,w
  4814     1BDC  0020               	movlb	0	; select bank0
  4815     1BDD  00AB               	movwf	read_data_eeprom@set_value_h+3
  4816     1BDE  087A               	movf	??_read_data_eeprom+2,w
  4817     1BDF  00AA               	movwf	read_data_eeprom@set_value_h+2
  4818     1BE0  0879               	movf	??_read_data_eeprom+1,w
  4819     1BE1  00A9               	movwf	read_data_eeprom@set_value_h+1
  4820     1BE2  0878               	movf	??_read_data_eeprom,w
  4821     1BE3  00A8               	movwf	read_data_eeprom@set_value_h
  4822     1BE4                     l3257:
  4823                           
  4824                           ;main.c: 113: set_value_h = set_value_h << 8;
  4825     1BE4  0828               	movf	read_data_eeprom@set_value_h,w
  4826     1BE5  00F8               	movwf	??_read_data_eeprom
  4827     1BE6  0829               	movf	read_data_eeprom@set_value_h+1,w
  4828     1BE7  00F9               	movwf	??_read_data_eeprom+1
  4829     1BE8  082A               	movf	read_data_eeprom@set_value_h+2,w
  4830     1BE9  00FA               	movwf	??_read_data_eeprom+2
  4831     1BEA  082B               	movf	read_data_eeprom@set_value_h+3,w
  4832     1BEB  00FB               	movwf	??_read_data_eeprom+3
  4833     1BEC  3008               	movlw	8
  4834     1BED                     u3555:
  4835     1BED  35F8               	lslf	??_read_data_eeprom,f
  4836     1BEE  0DF9               	rlf	??_read_data_eeprom+1,f
  4837     1BEF  0DFA               	rlf	??_read_data_eeprom+2,f
  4838     1BF0  0DFB               	rlf	??_read_data_eeprom+3,f
  4839     1BF1                     u3550:
  4840     1BF1  0B89               	decfsz	9,f
  4841     1BF2  2BED               	goto	u3555
  4842     1BF3  087B               	movf	??_read_data_eeprom+3,w
  4843     1BF4  00AB               	movwf	read_data_eeprom@set_value_h+3
  4844     1BF5  087A               	movf	??_read_data_eeprom+2,w
  4845     1BF6  00AA               	movwf	read_data_eeprom@set_value_h+2
  4846     1BF7  0879               	movf	??_read_data_eeprom+1,w
  4847     1BF8  00A9               	movwf	read_data_eeprom@set_value_h+1
  4848     1BF9  0878               	movf	??_read_data_eeprom,w
  4849     1BFA  00A8               	movwf	read_data_eeprom@set_value_h
  4850     1BFB                     l3259:
  4851                           
  4852                           ;main.c: 114: set_value = set_value_h | set_value_l;
  4853     1BFB  0820               	movf	read_data_eeprom@set_value_l,w
  4854     1BFC  0428               	iorwf	read_data_eeprom@set_value_h,w
  4855     1BFD  00A4               	movwf	read_data_eeprom@set_value
  4856     1BFE  0821               	movf	read_data_eeprom@set_value_l+1,w
  4857     1BFF  0429               	iorwf	read_data_eeprom@set_value_h+1,w
  4858     1C00  00A5               	movwf	read_data_eeprom@set_value+1
  4859     1C01  0822               	movf	read_data_eeprom@set_value_l+2,w
  4860     1C02  042A               	iorwf	read_data_eeprom@set_value_h+2,w
  4861     1C03  00A6               	movwf	read_data_eeprom@set_value+2
  4862     1C04  0823               	movf	read_data_eeprom@set_value_l+3,w
  4863     1C05  042B               	iorwf	read_data_eeprom@set_value_h+3,w
  4864     1C06  00A7               	movwf	read_data_eeprom@set_value+3
  4865     1C07                     l3261:
  4866                           
  4867                           ;main.c: 116: return set_value;
  4868     1C07  0827               	movf	read_data_eeprom@set_value+3,w
  4869     1C08  00F7               	movwf	?_read_data_eeprom+3
  4870     1C09  0826               	movf	read_data_eeprom@set_value+2,w
  4871     1C0A  00F6               	movwf	?_read_data_eeprom+2
  4872     1C0B  0825               	movf	read_data_eeprom@set_value+1,w
  4873     1C0C  00F5               	movwf	?_read_data_eeprom+1
  4874     1C0D  0824               	movf	read_data_eeprom@set_value,w
  4875     1C0E  00F4               	movwf	?_read_data_eeprom
  4876     1C0F                     l82:
  4877     1C0F  0008               	return
  4878     1C10                     __end_of_read_data_eeprom:
  4879                           
  4880                           	psect	text9
  4881     19E8                     __ptext9:	
  4882 ;; *************** function _eeprom_read *****************
  4883 ;; Defined at:
  4884 ;;		line 6 in file "C:\Program Files\Microchip\xc8\v2.41\pic\sources\c90\pic\__eeread.c"
  4885 ;; Parameters:    Size  Location     Type
  4886 ;;  addr            1    wreg     unsigned char 
  4887 ;; Auto vars:     Size  Location     Type
  4888 ;;  addr            1    3[COMMON] unsigned char 
  4889 ;; Return value:  Size  Location     Type
  4890 ;;                  1    wreg      unsigned char 
  4891 ;; Registers used:
  4892 ;;		wreg, status,2, status,0
  4893 ;; Tracked objects:
  4894 ;;		On entry : 0/0
  4895 ;;		On exit  : 0/0
  4896 ;;		Unchanged: 0/0
  4897 ;; Data sizes:     COMMON   BANK0   BANK1   BANK2   BANK3   BANK4   BANK5   BANK6   BANK7   BANK8   BANK9  BANK10  BANK1
      +1  BANK12  BANK13  BANK14  BANK15  BANK16  BANK17  BANK18  BANK19  BANK20  BANK21  BANK22  BANK23  BANK24  BANK25
  4898 ;;      Params:         0       0       0       0       0       0       0       0       0       0       0       0       
      +0       0       0       0       0       0       0       0       0       0       0       0       0       0       0
  4899 ;;      Locals:         1       0       0       0       0       0       0       0       0       0       0       0       
      +0       0       0       0       0       0       0       0       0       0       0       0       0       0       0
  4900 ;;      Temps:          3       0       0       0       0       0       0       0       0       0       0       0       
      +0       0       0       0       0       0       0       0       0       0       0       0       0       0       0
  4901 ;;      Totals:         4       0       0       0       0       0       0       0       0       0       0       0       
      +0       0       0       0       0       0       0       0       0       0       0       0       0       0       0
  4902 ;;Total ram usage:        4 bytes
  4903 ;; Hardware stack levels used: 1
  4904 ;; This function calls:
  4905 ;;		Nothing
  4906 ;; This function is called by:
  4907 ;;		_read_data_eeprom
  4908 ;; This function uses a non-reentrant model
  4909 ;;
  4910                           
  4911     19E8                     _eeprom_read:	
  4912                           ;psect for function _eeprom_read
  4913                           
  4914                           
  4915                           ;incstack = 0
  4916                           ; Regs used in _eeprom_read: [wreg+status,2+status,0]
  4917                           ;eeprom_read@addr stored from wreg
  4918     19E8  00F3               	movwf	eeprom_read@addr
  4919     19E9                     l595:	
  4920                           ;__eeread.c: 8: do
  4921                           
  4922     19E9  0064               	clrwdt	;# 
  4923                           
  4924                           ;__eeread.c: 12: while(EECON1bits.WR);
  4925     19EA  0023               	movlb	3	; select bank3
  4926     19EB  1895               	btfsc	21,1	;volsfr
  4927     19EC  29EE               	goto	u3251
  4928     19ED  29EF               	goto	u3250
  4929     19EE                     u3251:
  4930     19EE  29E9               	goto	l595
  4931     19EF                     u3250:
  4932     19EF                     l3095:
  4933                           
  4934                           ;__eeread.c: 18: return ( EEADR = addr, EECON1 &= 0x3F, EECON1bits.RD = 1, EEDATA);
  4935     19EF  0873               	movf	eeprom_read@addr,w
  4936     19F0  00F0               	movwf	??_eeprom_read
  4937     19F1  01F1               	clrf	??_eeprom_read+1
  4938     19F2  0870               	movf	??_eeprom_read,w
  4939     19F3  0091               	movwf	17	;volatile
  4940     19F4  0871               	movf	??_eeprom_read+1,w
  4941     19F5  0092               	movwf	18	;volatile
  4942     19F6  303F               	movlw	63
  4943     19F7  00F2               	movwf	??_eeprom_read+2
  4944     19F8  0872               	movf	??_eeprom_read+2,w
  4945     19F9  0595               	andwf	21,f	;volsfr
  4946     19FA  1415               	bsf	21,0	;volsfr
  4947     19FB  0813               	movf	19,w	;volatile
  4948     19FC                     l597:
  4949     19FC  0008               	return
  4950     19FD                     __end_of_eeprom_read:
  4951                           
  4952                           	psect	text10
  4953     0035                     __ptext10:	
  4954 ;; *************** function _printf *****************
  4955 ;; Defined at:
  4956 ;;		line 477 in file "C:\Program Files\Microchip\xc8\v2.41\pic\sources\c90\common\doprnt.c"
  4957 ;; Parameters:    Size  Location     Type
  4958 ;;  f               2    0[BANK0 ] PTR const unsigned char 
  4959 ;;		 -> STR_94(22), STR_93(10), STR_92(12), STR_91(8), 
  4960 ;;		 -> STR_90(8), STR_89(11), STR_88(11), STR_87(11), 
  4961 ;;		 -> STR_86(11), STR_84(11), STR_82(11), STR_80(11), 
  4962 ;;		 -> STR_79(8), STR_77(8), STR_75(8), STR_72(11), 
  4963 ;;		 -> STR_71(11), STR_70(11), STR_69(11), STR_68(11), 
  4964 ;;		 -> STR_67(11), STR_66(11), STR_65(8), STR_63(11), 
  4965 ;;		 -> STR_61(8), STR_60(8), STR_59(8), STR_57(8), 
  4966 ;;		 -> STR_56(8), STR_55(11), STR_54(8), STR_48(11), 
  4967 ;;		 -> STR_46(11), STR_42(8), 
  4968 ;; Auto vars:     Size  Location     Type
  4969 ;;  tmpval          4    0        struct .
  4970 ;;  val             2   13[BANK0 ] unsigned int 
  4971 ;;  cp              2    0        PTR const unsigned char 
  4972 ;;  len             2    0        unsigned int 
  4973 ;;  c               1   15[BANK0 ] unsigned char 
  4974 ;;  flag            1   12[BANK0 ] unsigned char 
  4975 ;;  ap              1   11[BANK0 ] PTR void [1]
  4976 ;;		 -> ?_printf(2), 
  4977 ;;  prec            1   10[BANK0 ] char 
  4978 ;; Return value:  Size  Location     Type
  4979 ;;                  2    0[BANK0 ] int 
  4980 ;; Registers used:
  4981 ;;		wreg, fsr0l, fsr0h, fsr1l, fsr1h, status,2, status,0, pclath, cstack
  4982 ;; Tracked objects:
  4983 ;;		On entry : 0/0
  4984 ;;		On exit  : 0/0
  4985 ;;		Unchanged: 0/0
  4986 ;; Data sizes:     COMMON   BANK0   BANK1   BANK2   BANK3   BANK4   BANK5   BANK6   BANK7   BANK8   BANK9  BANK10  BANK1
      +1  BANK12  BANK13  BANK14  BANK15  BANK16  BANK17  BANK18  BANK19  BANK20  BANK21  BANK22  BANK23  BANK24  BANK25
  4987 ;;      Params:         0       6       0       0       0       0       0       0       0       0       0       0       
      +0       0       0       0       0       0       0       0       0       0       0       0       0       0       0
  4988 ;;      Locals:         0       6       0       0       0       0       0       0       0       0       0       0       
      +0       0       0       0       0       0       0       0       0       0       0       0       0       0       0
  4989 ;;      Temps:          0       4       0       0       0       0       0       0       0       0       0       0       
      +0       0       0       0       0       0       0       0       0       0       0       0       0       0       0
  4990 ;;      Totals:         0      16       0       0       0       0       0       0       0       0       0       0       
      +0       0       0       0       0       0       0       0       0       0       0       0       0       0       0
  4991 ;;Total ram usage:       16 bytes
  4992 ;; Hardware stack levels used: 1
  4993 ;; Hardware stack levels required when called: 1
  4994 ;; This function calls:
  4995 ;;		___lwdiv
  4996 ;;		___lwmod
  4997 ;;		_putch
  4998 ;; This function is called by:
  4999 ;;		_main
  5000 ;; This function uses a non-reentrant model
  5001 ;;
  5002                           
  5003     0035                     _printf:	
  5004                           ;psect for function _printf
  5005                           
  5006     0035                     l3359:	
  5007                           ;incstack = 0
  5008                           ; Regs used in _printf: [wreg-fsr1h+status,2+status,0+pclath+cstack]
  5009                           
  5010                           
  5011                           ;doprnt.c: 479: va_list ap;;doprnt.c: 512: char c;;doprnt.c: 521: signed char prec;;dopr
      +                          nt.c: 525: unsigned char flag;;doprnt.c: 540: union {;doprnt.c: 541: unsigned long vd;;d
      +                          oprnt.c: 542: double integ;;doprnt.c: 543: } tmpval;;doprnt.c: 545: unsigned int val;;do
      +                          prnt.c: 546: unsigned len;;doprnt.c: 547: const char * cp;;doprnt.c: 550: *ap = __va_sta
      +                          rt();
  5012     0035  3022               	movlw	(low ((?_printf| 0+2)))& (0+255)
  5013     0036  0020               	movlb	0	; select bank0
  5014     0037  00AB               	movwf	printf@ap
  5015                           
  5016                           ;doprnt.c: 553: while((c = *f++)) {
  5017     0038  28F3               	goto	l3409
  5018     0039                     l3361:
  5019                           
  5020                           ;doprnt.c: 555: if(c != '%')
  5021     0039  3025               	movlw	37
  5022     003A  062F               	xorwf	printf@c,w
  5023     003B  1903               	btfsc	3,2
  5024     003C  283E               	goto	u3691
  5025     003D  283F               	goto	u3690
  5026     003E                     u3691:
  5027     003E  2844               	goto	l3365
  5028     003F                     u3690:
  5029     003F                     l3363:
  5030                           
  5031                           ;doprnt.c: 557: {;doprnt.c: 558: (putch(c) );
  5032     003F  082F               	movf	printf@c,w
  5033     0040  3199  21B7  3180   	fcall	_putch
  5034                           
  5035                           ;doprnt.c: 559: continue;
  5036     0043  28F3               	goto	l3409
  5037     0044                     l3365:
  5038                           
  5039                           ;doprnt.c: 560: };doprnt.c: 565: flag = 0;
  5040     0044  01AC               	clrf	printf@flag
  5041                           
  5042                           ;doprnt.c: 661: switch(c = *f++) {
  5043     0045  2848               	goto	l3369
  5044     0046                     l642:	
  5045                           ;doprnt.c: 843: case 'u':
  5046                           
  5047                           
  5048                           ;doprnt.c: 844: flag |= 0x40;
  5049     0046  172C               	bsf	printf@flag,6
  5050                           
  5051                           ;doprnt.c: 845: break;
  5052     0047  2862               	goto	l640
  5053     0048                     l3369:
  5054     0048  0821               	movf	printf@f+1,w
  5055     0049  00A7               	movwf	??_printf+1
  5056     004A  0820               	movf	printf@f,w
  5057     004B  00A6               	movwf	??_printf
  5058     004C  0AA0               	incf	printf@f,f
  5059     004D  1903               	skipnz
  5060     004E  0AA1               	incf	printf@f+1,f
  5061     004F  0826               	movf	??_printf,w
  5062     0050  0084               	movwf	4
  5063     0051  0827               	movf	??_printf+1,w
  5064     0052  0085               	movwf	5
  5065     0053  0800               	movf	0,w	;code access
  5066     0054  00AF               	movwf	printf@c
  5067                           
  5068                           ; Switch size 1, requested type "simple"
  5069                           ; Number of cases is 4, Range of values is 0 to 117
  5070                           ; switch strategies available:
  5071                           ; Name         Instructions Cycles
  5072                           ; simple_byte           13     7 (average)
  5073                           ; direct_byte          242     6 (fixed)
  5074                           ; jumptable            260     6 (fixed)
  5075                           ;	Chosen strategy is simple_byte
  5076     0055  3A00               	xorlw	0	; case 0
  5077     0056  1903               	skipnz
  5078     0057  2906               	goto	l654
  5079     0058  3A64               	xorlw	100	; case 100
  5080     0059  1903               	skipnz
  5081     005A  2862               	goto	l640
  5082     005B  3A0D               	xorlw	13	; case 105
  5083     005C  1903               	skipnz
  5084     005D  2862               	goto	l640
  5085     005E  3A1C               	xorlw	28	; case 117
  5086     005F  1903               	skipnz
  5087     0060  2846               	goto	l642
  5088     0061  28F3               	goto	l3409
  5089     0062                     l640:
  5090                           
  5091                           ;doprnt.c: 1277: if((flag & 0x40) == 0x00)
  5092     0062  1B2C               	btfsc	printf@flag,6
  5093     0063  2865               	goto	u3701
  5094     0064  2866               	goto	u3700
  5095     0065                     u3701:
  5096     0065  287F               	goto	l3381
  5097     0066                     u3700:
  5098     0066                     l3371:
  5099                           
  5100                           ;doprnt.c: 1279: {;doprnt.c: 1285: val = (unsigned int)(*(int *)__va_arg((*(int **)ap), 
      +                          (int)0));
  5101     0066  082B               	movf	printf@ap,w
  5102     0067  0086               	movwf	6
  5103     0068  0187               	clrf	7
  5104     0069  3F40               	moviw [0]fsr1
  5105     006A  00AD               	movwf	printf@val
  5106     006B  3F41               	moviw [1]fsr1
  5107     006C  00AE               	movwf	printf@val+1
  5108     006D                     l3373:
  5109     006D  3002               	movlw	2
  5110     006E  00A6               	movwf	??_printf
  5111     006F  0826               	movf	??_printf,w
  5112     0070  07AB               	addwf	printf@ap,f
  5113     0071                     l3375:
  5114                           
  5115                           ;doprnt.c: 1287: if((int)val < 0) {
  5116     0071  1FAE               	btfss	printf@val+1,7
  5117     0072  2874               	goto	u3711
  5118     0073  2875               	goto	u3710
  5119     0074                     u3711:
  5120     0074  288A               	goto	l3385
  5121     0075                     u3710:
  5122     0075                     l3377:
  5123                           
  5124                           ;doprnt.c: 1288: flag |= 0x03;
  5125     0075  3003               	movlw	3
  5126     0076  00A6               	movwf	??_printf
  5127     0077  0826               	movf	??_printf,w
  5128     0078  04AC               	iorwf	printf@flag,f
  5129     0079                     l3379:
  5130                           
  5131                           ;doprnt.c: 1289: val = -val;
  5132     0079  09AD               	comf	printf@val,f
  5133     007A  09AE               	comf	printf@val+1,f
  5134     007B  0AAD               	incf	printf@val,f
  5135     007C  1903               	skipnz
  5136     007D  0AAE               	incf	printf@val+1,f
  5137     007E  288A               	goto	l3385
  5138     007F                     l3381:
  5139                           
  5140                           ;doprnt.c: 1294: else;doprnt.c: 1299: {;doprnt.c: 1312: val = (*(unsigned *)__va_arg((*(
      +                          unsigned **)ap), (unsigned)0));
  5141     007F  082B               	movf	printf@ap,w
  5142     0080  0086               	movwf	6
  5143     0081  0187               	clrf	7
  5144     0082  3F40               	moviw [0]fsr1
  5145     0083  00AD               	movwf	printf@val
  5146     0084  3F41               	moviw [1]fsr1
  5147     0085  00AE               	movwf	printf@val+1
  5148     0086                     l3383:
  5149     0086  3002               	movlw	2
  5150     0087  00A6               	movwf	??_printf
  5151     0088  0826               	movf	??_printf,w
  5152     0089  07AB               	addwf	printf@ap,f
  5153     008A                     l3385:
  5154                           
  5155                           ;doprnt.c: 1313: };doprnt.c: 1331: for(c = 1 ; c != sizeof dpowers/sizeof dpowers[0] ; c
      +                          ++)
  5156     008A  01AF               	clrf	printf@c
  5157     008B  0AAF               	incf	printf@c,f
  5158     008C                     l3391:
  5159                           
  5160                           ;doprnt.c: 1332: if(val < dpowers[c])
  5161     008C  082F               	movf	printf@c,w
  5162     008D  00A6               	movwf	??_printf
  5163     008E  01A7               	clrf	??_printf+1
  5164     008F  35A6               	lslf	??_printf,f
  5165     0090  0DA7               	rlf	??_printf+1,f
  5166     0091  3000               	movlw	low _dpowers
  5167     0092  0726               	addwf	??_printf,w
  5168     0093  0084               	movwf	4
  5169     0094  3020               	movlw	high _dpowers
  5170     0095  3D27               	addwfc	??_printf+1,w
  5171     0096  3880               	iorlw	128
  5172     0097  0085               	movwf	5
  5173     0098  3F00               	moviw [0]fsr0
  5174     0099  00A8               	movwf	??_printf+2
  5175     009A  3F01               	moviw [1]fsr0
  5176     009B  00A9               	movwf	??_printf+3
  5177     009C  0829               	movf	??_printf+3,w
  5178     009D  022E               	subwf	printf@val+1,w
  5179     009E  1D03               	skipz
  5180     009F  28A2               	goto	u3725
  5181     00A0  0828               	movf	??_printf+2,w
  5182     00A1  022D               	subwf	printf@val,w
  5183     00A2                     u3725:
  5184     00A2  1803               	skipnc
  5185     00A3  28A5               	goto	u3721
  5186     00A4  28A6               	goto	u3720
  5187     00A5                     u3721:
  5188     00A5  28A7               	goto	l3395
  5189     00A6                     u3720:
  5190     00A6  28B1               	goto	l3397
  5191     00A7                     l3395:
  5192     00A7  3001               	movlw	1
  5193     00A8  00A6               	movwf	??_printf
  5194     00A9  0826               	movf	??_printf,w
  5195     00AA  07AF               	addwf	printf@c,f
  5196     00AB  3005               	movlw	5
  5197     00AC  062F               	xorwf	printf@c,w
  5198     00AD  1D03               	btfss	3,2
  5199     00AE  28B0               	goto	u3731
  5200     00AF  28B1               	goto	u3730
  5201     00B0                     u3731:
  5202     00B0  288C               	goto	l3391
  5203     00B1                     u3730:
  5204     00B1                     l3397:
  5205                           
  5206                           ;doprnt.c: 1448: {;doprnt.c: 1464: if(flag & 0x03)
  5207     00B1  082C               	movf	printf@flag,w
  5208     00B2  3903               	andlw	3
  5209     00B3  1903               	btfsc	3,2
  5210     00B4  28B6               	goto	u3741
  5211     00B5  28B7               	goto	u3740
  5212     00B6                     u3741:
  5213     00B6  28BB               	goto	l3401
  5214     00B7                     u3740:
  5215     00B7                     l3399:
  5216                           
  5217                           ;doprnt.c: 1465: (putch('-') );
  5218     00B7  302D               	movlw	45
  5219     00B8  3199  21B7  3180   	fcall	_putch
  5220     00BB                     l3401:
  5221                           
  5222                           ;doprnt.c: 1495: };doprnt.c: 1498: prec = c;
  5223     00BB  0020               	movlb	0	; select bank0
  5224     00BC  082F               	movf	printf@c,w
  5225     00BD  00AA               	movwf	printf@prec
  5226                           
  5227                           ;doprnt.c: 1500: while(prec--) {
  5228     00BE  28E9               	goto	l3407
  5229     00BF                     l3403:
  5230                           
  5231                           ;doprnt.c: 1504: {;doprnt.c: 1515: c = (val / dpowers[(unsigned char)prec]) % 10 + '0';
  5232     00BF  300A               	movlw	10
  5233     00C0  00F8               	movwf	___lwmod@divisor
  5234     00C1  3000               	movlw	0
  5235     00C2  00F9               	movwf	___lwmod@divisor+1
  5236     00C3  082A               	movf	printf@prec,w
  5237     00C4  00A6               	movwf	??_printf
  5238     00C5  01A7               	clrf	??_printf+1
  5239     00C6  35A6               	lslf	??_printf,f
  5240     00C7  0DA7               	rlf	??_printf+1,f
  5241     00C8  3000               	movlw	low _dpowers
  5242     00C9  0726               	addwf	??_printf,w
  5243     00CA  0084               	movwf	4
  5244     00CB  3020               	movlw	high _dpowers
  5245     00CC  3D27               	addwfc	??_printf+1,w
  5246     00CD  3880               	iorlw	128
  5247     00CE  0085               	movwf	5
  5248     00CF  3F00               	moviw [0]fsr0
  5249     00D0  00F0               	movwf	___lwdiv@divisor
  5250     00D1  3F01               	moviw [1]fsr0
  5251     00D2  00F1               	movwf	___lwdiv@divisor+1
  5252     00D3  082E               	movf	printf@val+1,w
  5253     00D4  00F3               	movwf	___lwdiv@dividend+1
  5254     00D5  082D               	movf	printf@val,w
  5255     00D6  00F2               	movwf	___lwdiv@dividend
  5256     00D7  319A  22F1  3180   	fcall	___lwdiv
  5257     00DA  0871               	movf	?___lwdiv+1,w
  5258     00DB  00FB               	movwf	___lwmod@dividend+1
  5259     00DC  0870               	movf	?___lwdiv,w
  5260     00DD  00FA               	movwf	___lwmod@dividend
  5261     00DE  319A  22BD  3180   	fcall	___lwmod
  5262     00E1  0878               	movf	?___lwmod,w
  5263     00E2  3E30               	addlw	48
  5264     00E3  0020               	movlb	0	; select bank0
  5265     00E4  00AF               	movwf	printf@c
  5266     00E5                     l3405:
  5267                           
  5268                           ;doprnt.c: 1549: };doprnt.c: 1550: (putch(c) );
  5269     00E5  082F               	movf	printf@c,w
  5270     00E6  3199  21B7  3180   	fcall	_putch
  5271     00E9                     l3407:
  5272     00E9  30FF               	movlw	255
  5273     00EA  0020               	movlb	0	; select bank0
  5274     00EB  00A6               	movwf	??_printf
  5275     00EC  0826               	movf	??_printf,w
  5276     00ED  07AA               	addwf	printf@prec,f
  5277     00EE  0A2A               	incf	printf@prec,w
  5278     00EF  1D03               	btfss	3,2
  5279     00F0  28F2               	goto	u3751
  5280     00F1  28F3               	goto	u3750
  5281     00F2                     u3751:
  5282     00F2  28BF               	goto	l3403
  5283     00F3                     u3750:
  5284     00F3                     l3409:
  5285     00F3  0020               	movlb	0	; select bank0
  5286     00F4  0821               	movf	printf@f+1,w
  5287     00F5  00A7               	movwf	??_printf+1
  5288     00F6  0820               	movf	printf@f,w
  5289     00F7  00A6               	movwf	??_printf
  5290     00F8  0AA0               	incf	printf@f,f
  5291     00F9  1903               	skipnz
  5292     00FA  0AA1               	incf	printf@f+1,f
  5293     00FB  0826               	movf	??_printf,w
  5294     00FC  0084               	movwf	4
  5295     00FD  0827               	movf	??_printf+1,w
  5296     00FE  0085               	movwf	5
  5297     00FF  0800               	movf	0,w	;code access
  5298     0100  00AF               	movwf	printf@c
  5299     0101  082F               	movf	printf@c,w
  5300     0102  1D03               	btfss	3,2
  5301     0103  2905               	goto	u3761
  5302     0104  2906               	goto	u3760
  5303     0105                     u3761:
  5304     0105  2839               	goto	l3361
  5305     0106                     u3760:
  5306     0106                     l654:
  5307     0106  0008               	return
  5308     0107                     __end_of_printf:
  5309                           
  5310                           	psect	text11
  5311     1ABD                     __ptext11:	
  5312 ;; *************** function ___lwmod *****************
  5313 ;; Defined at:
  5314 ;;		line 5 in file "C:\Program Files\Microchip\xc8\v2.41\pic\sources\c90\common\lwmod.c"
  5315 ;; Parameters:    Size  Location     Type
  5316 ;;  divisor         2    8[COMMON] unsigned int 
  5317 ;;  dividend        2   10[COMMON] unsigned int 
  5318 ;; Auto vars:     Size  Location     Type
  5319 ;;  counter         1   13[COMMON] unsigned char 
  5320 ;; Return value:  Size  Location     Type
  5321 ;;                  2    8[COMMON] unsigned int 
  5322 ;; Registers used:
  5323 ;;		wreg, status,2, status,0
  5324 ;; Tracked objects:
  5325 ;;		On entry : 0/0
  5326 ;;		On exit  : 0/0
  5327 ;;		Unchanged: 0/0
  5328 ;; Data sizes:     COMMON   BANK0   BANK1   BANK2   BANK3   BANK4   BANK5   BANK6   BANK7   BANK8   BANK9  BANK10  BANK1
      +1  BANK12  BANK13  BANK14  BANK15  BANK16  BANK17  BANK18  BANK19  BANK20  BANK21  BANK22  BANK23  BANK24  BANK25
  5329 ;;      Params:         4       0       0       0       0       0       0       0       0       0       0       0       
      +0       0       0       0       0       0       0       0       0       0       0       0       0       0       0
  5330 ;;      Locals:         1       0       0       0       0       0       0       0       0       0       0       0       
      +0       0       0       0       0       0       0       0       0       0       0       0       0       0       0
  5331 ;;      Temps:          1       0       0       0       0       0       0       0       0       0       0       0       
      +0       0       0       0       0       0       0       0       0       0       0       0       0       0       0
  5332 ;;      Totals:         6       0       0       0       0       0       0       0       0       0       0       0       
      +0       0       0       0       0       0       0       0       0       0       0       0       0       0       0
  5333 ;;Total ram usage:        6 bytes
  5334 ;; Hardware stack levels used: 1
  5335 ;; This function calls:
  5336 ;;		Nothing
  5337 ;; This function is called by:
  5338 ;;		_printf
  5339 ;; This function uses a non-reentrant model
  5340 ;;
  5341                           
  5342     1ABD                     ___lwmod:	
  5343                           ;psect for function ___lwmod
  5344                           
  5345     1ABD                     l3139:	
  5346                           ;incstack = 0
  5347                           ; Regs used in ___lwmod: [wreg+status,2+status,0]
  5348                           
  5349     1ABD  0878               	movf	___lwmod@divisor,w
  5350     1ABE  0479               	iorwf	___lwmod@divisor+1,w
  5351     1ABF  1903               	btfsc	3,2
  5352     1AC0  2AC2               	goto	u3371
  5353     1AC1  2AC3               	goto	u3370
  5354     1AC2                     u3371:
  5355     1AC2  2AEC               	goto	l3157
  5356     1AC3                     u3370:
  5357     1AC3                     l3141:
  5358     1AC3  01FD               	clrf	___lwmod@counter
  5359     1AC4  0AFD               	incf	___lwmod@counter,f
  5360     1AC5  2ACF               	goto	l3147
  5361     1AC6                     l3143:
  5362     1AC6  3001               	movlw	1
  5363     1AC7                     u3385:
  5364     1AC7  35F8               	lslf	___lwmod@divisor,f
  5365     1AC8  0DF9               	rlf	___lwmod@divisor+1,f
  5366     1AC9  0B89               	decfsz	9,f
  5367     1ACA  2AC7               	goto	u3385
  5368     1ACB                     l3145:
  5369     1ACB  3001               	movlw	1
  5370     1ACC  00FC               	movwf	??___lwmod
  5371     1ACD  087C               	movf	??___lwmod,w
  5372     1ACE  07FD               	addwf	___lwmod@counter,f
  5373     1ACF                     l3147:
  5374     1ACF  1FF9               	btfss	___lwmod@divisor+1,7
  5375     1AD0  2AD2               	goto	u3391
  5376     1AD1  2AD3               	goto	u3390
  5377     1AD2                     u3391:
  5378     1AD2  2AC6               	goto	l3143
  5379     1AD3                     u3390:
  5380     1AD3                     l3149:
  5381     1AD3  0879               	movf	___lwmod@divisor+1,w
  5382     1AD4  027B               	subwf	___lwmod@dividend+1,w
  5383     1AD5  1D03               	skipz
  5384     1AD6  2AD9               	goto	u3405
  5385     1AD7  0878               	movf	___lwmod@divisor,w
  5386     1AD8  027A               	subwf	___lwmod@dividend,w
  5387     1AD9                     u3405:
  5388     1AD9  1C03               	skipc
  5389     1ADA  2ADC               	goto	u3401
  5390     1ADB  2ADD               	goto	u3400
  5391     1ADC                     u3401:
  5392     1ADC  2AE1               	goto	l3153
  5393     1ADD                     u3400:
  5394     1ADD                     l3151:
  5395     1ADD  0878               	movf	___lwmod@divisor,w
  5396     1ADE  02FA               	subwf	___lwmod@dividend,f
  5397     1ADF  0879               	movf	___lwmod@divisor+1,w
  5398     1AE0  3BFB               	subwfb	___lwmod@dividend+1,f
  5399     1AE1                     l3153:
  5400     1AE1  3001               	movlw	1
  5401     1AE2                     u3415:
  5402     1AE2  36F9               	lsrf	___lwmod@divisor+1,f
  5403     1AE3  0CF8               	rrf	___lwmod@divisor,f
  5404     1AE4  0B89               	decfsz	9,f
  5405     1AE5  2AE2               	goto	u3415
  5406     1AE6                     l3155:
  5407     1AE6  3001               	movlw	1
  5408     1AE7  02FD               	subwf	___lwmod@counter,f
  5409     1AE8  1D03               	btfss	3,2
  5410     1AE9  2AEB               	goto	u3421
  5411     1AEA  2AEC               	goto	u3420
  5412     1AEB                     u3421:
  5413     1AEB  2AD3               	goto	l3149
  5414     1AEC                     u3420:
  5415     1AEC                     l3157:
  5416     1AEC  087B               	movf	___lwmod@dividend+1,w
  5417     1AED  00F9               	movwf	?___lwmod+1
  5418     1AEE  087A               	movf	___lwmod@dividend,w
  5419     1AEF  00F8               	movwf	?___lwmod
  5420     1AF0                     l940:
  5421     1AF0  0008               	return
  5422     1AF1                     __end_of___lwmod:
  5423                           
  5424                           	psect	text12
  5425     1AF1                     __ptext12:	
  5426 ;; *************** function ___lwdiv *****************
  5427 ;; Defined at:
  5428 ;;		line 5 in file "C:\Program Files\Microchip\xc8\v2.41\pic\sources\c90\common\lwdiv.c"
  5429 ;; Parameters:    Size  Location     Type
  5430 ;;  divisor         2    0[COMMON] unsigned int 
  5431 ;;  dividend        2    2[COMMON] unsigned int 
  5432 ;; Auto vars:     Size  Location     Type
  5433 ;;  quotient        2    5[COMMON] unsigned int 
  5434 ;;  counter         1    7[COMMON] unsigned char 
  5435 ;; Return value:  Size  Location     Type
  5436 ;;                  2    0[COMMON] unsigned int 
  5437 ;; Registers used:
  5438 ;;		wreg, status,2, status,0
  5439 ;; Tracked objects:
  5440 ;;		On entry : 0/0
  5441 ;;		On exit  : 0/0
  5442 ;;		Unchanged: 0/0
  5443 ;; Data sizes:     COMMON   BANK0   BANK1   BANK2   BANK3   BANK4   BANK5   BANK6   BANK7   BANK8   BANK9  BANK10  BANK1
      +1  BANK12  BANK13  BANK14  BANK15  BANK16  BANK17  BANK18  BANK19  BANK20  BANK21  BANK22  BANK23  BANK24  BANK25
  5444 ;;      Params:         4       0       0       0       0       0       0       0       0       0       0       0       
      +0       0       0       0       0       0       0       0       0       0       0       0       0       0       0
  5445 ;;      Locals:         3       0       0       0       0       0       0       0       0       0       0       0       
      +0       0       0       0       0       0       0       0       0       0       0       0       0       0       0
  5446 ;;      Temps:          1       0       0       0       0       0       0       0       0       0       0       0       
      +0       0       0       0       0       0       0       0       0       0       0       0       0       0       0
  5447 ;;      Totals:         8       0       0       0       0       0       0       0       0       0       0       0       
      +0       0       0       0       0       0       0       0       0       0       0       0       0       0       0
  5448 ;;Total ram usage:        8 bytes
  5449 ;; Hardware stack levels used: 1
  5450 ;; This function calls:
  5451 ;;		Nothing
  5452 ;; This function is called by:
  5453 ;;		_printf
  5454 ;; This function uses a non-reentrant model
  5455 ;;
  5456                           
  5457     1AF1                     ___lwdiv:	
  5458                           ;psect for function ___lwdiv
  5459                           
  5460     1AF1                     l3113:	
  5461                           ;incstack = 0
  5462                           ; Regs used in ___lwdiv: [wreg+status,2+status,0]
  5463                           
  5464     1AF1  01F5               	clrf	___lwdiv@quotient
  5465     1AF2  01F6               	clrf	___lwdiv@quotient+1
  5466     1AF3                     l3115:
  5467     1AF3  0870               	movf	___lwdiv@divisor,w
  5468     1AF4  0471               	iorwf	___lwdiv@divisor+1,w
  5469     1AF5  1903               	btfsc	3,2
  5470     1AF6  2AF8               	goto	u3301
  5471     1AF7  2AF9               	goto	u3300
  5472     1AF8                     u3301:
  5473     1AF8  2B28               	goto	l3135
  5474     1AF9                     u3300:
  5475     1AF9                     l3117:
  5476     1AF9  01F7               	clrf	___lwdiv@counter
  5477     1AFA  0AF7               	incf	___lwdiv@counter,f
  5478     1AFB  2B05               	goto	l3123
  5479     1AFC                     l3119:
  5480     1AFC  3001               	movlw	1
  5481     1AFD                     u3315:
  5482     1AFD  35F0               	lslf	___lwdiv@divisor,f
  5483     1AFE  0DF1               	rlf	___lwdiv@divisor+1,f
  5484     1AFF  0B89               	decfsz	9,f
  5485     1B00  2AFD               	goto	u3315
  5486     1B01                     l3121:
  5487     1B01  3001               	movlw	1
  5488     1B02  00F4               	movwf	??___lwdiv
  5489     1B03  0874               	movf	??___lwdiv,w
  5490     1B04  07F7               	addwf	___lwdiv@counter,f
  5491     1B05                     l3123:
  5492     1B05  1FF1               	btfss	___lwdiv@divisor+1,7
  5493     1B06  2B08               	goto	u3321
  5494     1B07  2B09               	goto	u3320
  5495     1B08                     u3321:
  5496     1B08  2AFC               	goto	l3119
  5497     1B09                     u3320:
  5498     1B09                     l3125:
  5499     1B09  3001               	movlw	1
  5500     1B0A                     u3335:
  5501     1B0A  35F5               	lslf	___lwdiv@quotient,f
  5502     1B0B  0DF6               	rlf	___lwdiv@quotient+1,f
  5503     1B0C  0B89               	decfsz	9,f
  5504     1B0D  2B0A               	goto	u3335
  5505     1B0E  0871               	movf	___lwdiv@divisor+1,w
  5506     1B0F  0273               	subwf	___lwdiv@dividend+1,w
  5507     1B10  1D03               	skipz
  5508     1B11  2B14               	goto	u3345
  5509     1B12  0870               	movf	___lwdiv@divisor,w
  5510     1B13  0272               	subwf	___lwdiv@dividend,w
  5511     1B14                     u3345:
  5512     1B14  1C03               	skipc
  5513     1B15  2B17               	goto	u3341
  5514     1B16  2B18               	goto	u3340
  5515     1B17                     u3341:
  5516     1B17  2B1D               	goto	l3131
  5517     1B18                     u3340:
  5518     1B18                     l3127:
  5519     1B18  0870               	movf	___lwdiv@divisor,w
  5520     1B19  02F2               	subwf	___lwdiv@dividend,f
  5521     1B1A  0871               	movf	___lwdiv@divisor+1,w
  5522     1B1B  3BF3               	subwfb	___lwdiv@dividend+1,f
  5523     1B1C                     l3129:
  5524     1B1C  1475               	bsf	___lwdiv@quotient,0
  5525     1B1D                     l3131:
  5526     1B1D  3001               	movlw	1
  5527     1B1E                     u3355:
  5528     1B1E  36F1               	lsrf	___lwdiv@divisor+1,f
  5529     1B1F  0CF0               	rrf	___lwdiv@divisor,f
  5530     1B20  0B89               	decfsz	9,f
  5531     1B21  2B1E               	goto	u3355
  5532     1B22                     l3133:
  5533     1B22  3001               	movlw	1
  5534     1B23  02F7               	subwf	___lwdiv@counter,f
  5535     1B24  1D03               	btfss	3,2
  5536     1B25  2B27               	goto	u3361
  5537     1B26  2B28               	goto	u3360
  5538     1B27                     u3361:
  5539     1B27  2B09               	goto	l3125
  5540     1B28                     u3360:
  5541     1B28                     l3135:
  5542     1B28  0876               	movf	___lwdiv@quotient+1,w
  5543     1B29  00F1               	movwf	?___lwdiv+1
  5544     1B2A  0875               	movf	___lwdiv@quotient,w
  5545     1B2B  00F0               	movwf	?___lwdiv
  5546     1B2C                     l930:
  5547     1B2C  0008               	return
  5548     1B2D                     __end_of___lwdiv:
  5549                           
  5550                           	psect	text13
  5551     19AF                     __ptext13:	
  5552 ;; *************** function _initUART *****************
  5553 ;; Defined at:
  5554 ;;		line 6 in file "uart.c"
  5555 ;; Parameters:    Size  Location     Type
  5556 ;;		None
  5557 ;; Auto vars:     Size  Location     Type
  5558 ;;		None
  5559 ;; Return value:  Size  Location     Type
  5560 ;;                  1    wreg      void 
  5561 ;; Registers used:
  5562 ;;		wreg
  5563 ;; Tracked objects:
  5564 ;;		On entry : 0/0
  5565 ;;		On exit  : 0/0
  5566 ;;		Unchanged: 0/0
  5567 ;; Data sizes:     COMMON   BANK0   BANK1   BANK2   BANK3   BANK4   BANK5   BANK6   BANK7   BANK8   BANK9  BANK10  BANK1
      +1  BANK12  BANK13  BANK14  BANK15  BANK16  BANK17  BANK18  BANK19  BANK20  BANK21  BANK22  BANK23  BANK24  BANK25
  5568 ;;      Params:         0       0       0       0       0       0       0       0       0       0       0       0       
      +0       0       0       0       0       0       0       0       0       0       0       0       0       0       0
  5569 ;;      Locals:         0       0       0       0       0       0       0       0       0       0       0       0       
      +0       0       0       0       0       0       0       0       0       0       0       0       0       0       0
  5570 ;;      Temps:          0       0       0       0       0       0       0       0       0       0       0       0       
      +0       0       0       0       0       0       0       0       0       0       0       0       0       0       0
  5571 ;;      Totals:         0       0       0       0       0       0       0       0       0       0       0       0       
      +0       0       0       0       0       0       0       0       0       0       0       0       0       0       0
  5572 ;;Total ram usage:        0 bytes
  5573 ;; Hardware stack levels used: 1
  5574 ;; This function calls:
  5575 ;;		Nothing
  5576 ;; This function is called by:
  5577 ;;		_main
  5578 ;; This function uses a non-reentrant model
  5579 ;;
  5580                           
  5581     19AF                     _initUART:	
  5582                           ;psect for function _initUART
  5583                           
  5584     19AF                     l3275:	
  5585                           ;incstack = 0
  5586                           ; Regs used in _initUART: [wreg]
  5587                           
  5588                           
  5589                           ;uart.c: 8: SPBRG = ((unsigned char)(((4000000 / 16) / 9600) - 1));
  5590     19AF  3019               	movlw	25
  5591     19B0  0023               	movlb	3	; select bank3
  5592     19B1  009B               	movwf	27	;volatile
  5593                           
  5594                           ;uart.c: 9: TXSTA = (0x00 | 0x04 | 0x20);
  5595     19B2  3024               	movlw	36
  5596     19B3  009E               	movwf	30	;volatile
  5597                           
  5598                           ;uart.c: 10: RCSTA = (0x00 | 0x90);
  5599     19B4  3090               	movlw	144
  5600     19B5  009D               	movwf	29	;volatile
  5601     19B6                     l423:
  5602     19B6  0008               	return
  5603     19B7                     __end_of_initUART:
  5604                           
  5605                           	psect	text14
  5606     19A1                     __ptext14:	
  5607 ;; *************** function _gets *****************
  5608 ;; Defined at:
  5609 ;;		line 10 in file "C:\Program Files\Microchip\xc8\v2.41\pic\sources\c90\common\gets.c"
  5610 ;; Parameters:    Size  Location     Type
  5611 ;;  s               1    wreg     PTR unsigned char 
  5612 ;;		 -> main@tmp(40), 
  5613 ;; Auto vars:     Size  Location     Type
  5614 ;;  s               1   10[COMMON] PTR unsigned char 
  5615 ;;		 -> main@tmp(40), 
  5616 ;; Return value:  Size  Location     Type
  5617 ;;                  1    wreg      PTR unsigned char 
  5618 ;; Registers used:
  5619 ;;		wreg, fsr0l, fsr0h, fsr1l, fsr1h, status,2, status,0, pclath, cstack
  5620 ;; Tracked objects:
  5621 ;;		On entry : 0/0
  5622 ;;		On exit  : 0/0
  5623 ;;		Unchanged: 0/0
  5624 ;; Data sizes:     COMMON   BANK0   BANK1   BANK2   BANK3   BANK4   BANK5   BANK6   BANK7   BANK8   BANK9  BANK10  BANK1
      +1  BANK12  BANK13  BANK14  BANK15  BANK16  BANK17  BANK18  BANK19  BANK20  BANK21  BANK22  BANK23  BANK24  BANK25
  5625 ;;      Params:         0       0       0       0       0       0       0       0       0       0       0       0       
      +0       0       0       0       0       0       0       0       0       0       0       0       0       0       0
  5626 ;;      Locals:         1       0       0       0       0       0       0       0       0       0       0       0       
      +0       0       0       0       0       0       0       0       0       0       0       0       0       0       0
  5627 ;;      Temps:          0       0       0       0       0       0       0       0       0       0       0       0       
      +0       0       0       0       0       0       0       0       0       0       0       0       0       0       0
  5628 ;;      Totals:         1       0       0       0       0       0       0       0       0       0       0       0       
      +0       0       0       0       0       0       0       0       0       0       0       0       0       0       0
  5629 ;;Total ram usage:        1 bytes
  5630 ;; Hardware stack levels used: 1
  5631 ;; Hardware stack levels required when called: 3
  5632 ;; This function calls:
  5633 ;;		_cgets
  5634 ;; This function is called by:
  5635 ;;		_main
  5636 ;; This function uses a non-reentrant model
  5637 ;;
  5638                           
  5639     19A1                     _gets:	
  5640                           ;psect for function _gets
  5641                           
  5642                           
  5643                           ;incstack = 0
  5644                           ; Regs used in _gets: [wreg-fsr1h+status,2+status,0+pclath+cstack]
  5645                           ;gets@s stored from wreg
  5646     19A1  00FA               	movwf	gets@s
  5647     19A2                     l3277:
  5648                           
  5649                           ;	Return value of _gets is never used
  5650     19A2  087A               	movf	gets@s,w
  5651     19A3  319C  2410  3199   	fcall	_cgets
  5652     19A6                     l1126:
  5653     19A6  0008               	return
  5654     19A7                     __end_of_gets:
  5655                           
  5656                           	psect	text15
  5657     1C10                     __ptext15:	
  5658 ;; *************** function _cgets *****************
  5659 ;; Defined at:
  5660 ;;		line 4 in file "C:\Program Files\Microchip\xc8\v2.41\pic\sources\c90\common\cgets.c"
  5661 ;; Parameters:    Size  Location     Type
  5662 ;;  s               1    wreg     PTR unsigned char 
  5663 ;;		 -> main@tmp(40), 
  5664 ;; Auto vars:     Size  Location     Type
  5665 ;;  s               1    8[COMMON] PTR unsigned char 
  5666 ;;		 -> main@tmp(40), 
  5667 ;;  c               2    6[COMMON] int 
  5668 ;;  s1              1    9[COMMON] PTR unsigned char 
  5669 ;;		 -> main@tmp(40), 
  5670 ;; Return value:  Size  Location     Type
  5671 ;;                  1    wreg      PTR unsigned char 
  5672 ;; Registers used:
  5673 ;;		wreg, fsr0l, fsr0h, fsr1l, fsr1h, status,2, status,0, pclath, cstack
  5674 ;; Tracked objects:
  5675 ;;		On entry : 0/0
  5676 ;;		On exit  : 0/0
  5677 ;;		Unchanged: 0/0
  5678 ;; Data sizes:     COMMON   BANK0   BANK1   BANK2   BANK3   BANK4   BANK5   BANK6   BANK7   BANK8   BANK9  BANK10  BANK1
      +1  BANK12  BANK13  BANK14  BANK15  BANK16  BANK17  BANK18  BANK19  BANK20  BANK21  BANK22  BANK23  BANK24  BANK25
  5679 ;;      Params:         2       0       0       0       0       0       0       0       0       0       0       0       
      +0       0       0       0       0       0       0       0       0       0       0       0       0       0       0
  5680 ;;      Locals:         4       0       0       0       0       0       0       0       0       0       0       0       
      +0       0       0       0       0       0       0       0       0       0       0       0       0       0       0
  5681 ;;      Temps:          2       0       0       0       0       0       0       0       0       0       0       0       
      +0       0       0       0       0       0       0       0       0       0       0       0       0       0       0
  5682 ;;      Totals:         8       0       0       0       0       0       0       0       0       0       0       0       
      +0       0       0       0       0       0       0       0       0       0       0       0       0       0       0
  5683 ;;Total ram usage:        8 bytes
  5684 ;; Hardware stack levels used: 1
  5685 ;; Hardware stack levels required when called: 2
  5686 ;; This function calls:
  5687 ;;		_getche
  5688 ;;		_putch
  5689 ;; This function is called by:
  5690 ;;		_gets
  5691 ;; This function uses a non-reentrant model
  5692 ;;
  5693                           
  5694     1C10                     _cgets:	
  5695                           ;psect for function _cgets
  5696                           
  5697                           
  5698                           ;incstack = 0
  5699                           ; Regs used in _cgets: [wreg-fsr1h+status,2+status,0+pclath+cstack]
  5700                           ;cgets@s stored from wreg
  5701     1C10  00F8               	movwf	cgets@s
  5702     1C11                     l3187:
  5703     1C11  0878               	movf	cgets@s,w
  5704     1C12  00F9               	movwf	cgets@s1
  5705     1C13  2C4A               	goto	l3215
  5706     1C14                     l3189:
  5707     1C14  0878               	movf	cgets@s,w
  5708     1C15  0679               	xorwf	cgets@s1,w
  5709     1C16  1D03               	skipz
  5710     1C17  2C19               	goto	u3481
  5711     1C18  2C1A               	goto	u3480
  5712     1C19                     u3481:
  5713     1C19  2C1B               	goto	l3193
  5714     1C1A                     u3480:
  5715     1C1A  2C4A               	goto	l3215
  5716     1C1B                     l3193:
  5717     1C1B  3020               	movlw	32
  5718     1C1C  3199  21B7  319C   	fcall	_putch
  5719     1C1F  3008               	movlw	8
  5720     1C20  3199  21B7  319C   	fcall	_putch
  5721     1C23                     l3195:
  5722     1C23  3001               	movlw	1
  5723     1C24  02F9               	subwf	cgets@s1,f
  5724     1C25  2C4A               	goto	l3215
  5725     1C26                     l3197:
  5726     1C26  3008               	movlw	8
  5727     1C27  3199  21B7  319C   	fcall	_putch
  5728     1C2A  3020               	movlw	32
  5729     1C2B  3199  21B7  319C   	fcall	_putch
  5730     1C2E  3008               	movlw	8
  5731     1C2F  3199  21B7  319C   	fcall	_putch
  5732     1C32                     l3199:
  5733     1C32  3001               	movlw	1
  5734     1C33  02F9               	subwf	cgets@s1,f
  5735     1C34                     l3201:
  5736     1C34  0879               	movf	cgets@s1,w
  5737     1C35  0278               	subwf	cgets@s,w
  5738     1C36  1C03               	skipc
  5739     1C37  2C39               	goto	u3491
  5740     1C38  2C3A               	goto	u3490
  5741     1C39                     u3491:
  5742     1C39  2C26               	goto	l3197
  5743     1C3A                     u3490:
  5744     1C3A  2C4A               	goto	l3215
  5745     1C3B                     l3203:
  5746     1C3B  0879               	movf	cgets@s1,w
  5747     1C3C  0086               	movwf	6
  5748     1C3D  0187               	clrf	7
  5749     1C3E  0181               	clrf	1
  5750     1C3F                     l3205:
  5751     1C3F  0878               	movf	cgets@s,w
  5752     1C40  2C66               	goto	l1144
  5753     1C41                     l3209:
  5754     1C41  0879               	movf	cgets@s1,w
  5755     1C42  0086               	movwf	6
  5756     1C43  0187               	clrf	7
  5757     1C44  0876               	movf	cgets@c,w
  5758     1C45  0081               	movwf	1
  5759     1C46                     l3211:
  5760     1C46  3001               	movlw	1
  5761     1C47  00F4               	movwf	??_cgets
  5762     1C48  0874               	movf	??_cgets,w
  5763     1C49  07F9               	addwf	cgets@s1,f
  5764     1C4A                     l3215:
  5765     1C4A  3188  2002  319C   	fcall	_getche
  5766     1C4D  00F4               	movwf	??_cgets
  5767     1C4E  01F5               	clrf	??_cgets+1
  5768     1C4F  0874               	movf	??_cgets,w
  5769     1C50  00F6               	movwf	cgets@c
  5770     1C51  0875               	movf	??_cgets+1,w
  5771     1C52  00F7               	movwf	cgets@c+1
  5772                           
  5773                           ; Switch on 2 bytes has been partitioned into a top level switch of size 1, and 1 sub-sw
      +                          itches
  5774                           ; Switch size 1, requested type "simple"
  5775                           ; Number of cases is 1, Range of values is 0 to 0
  5776                           ; switch strategies available:
  5777                           ; Name         Instructions Cycles
  5778                           ; simple_byte            4     3 (average)
  5779                           ; direct_byte            8     6 (fixed)
  5780                           ; jumptable            260     6 (fixed)
  5781                           ;	Chosen strategy is simple_byte
  5782     1C53  0877               	movf	cgets@c+1,w
  5783     1C54  3A00               	xorlw	0	; case 0
  5784     1C55  1903               	skipnz
  5785     1C56  2C58               	goto	l4837
  5786     1C57  2C41               	goto	l3209
  5787     1C58                     l4837:
  5788                           
  5789                           ; Switch size 1, requested type "simple"
  5790                           ; Number of cases is 4, Range of values is 8 to 21
  5791                           ; switch strategies available:
  5792                           ; Name         Instructions Cycles
  5793                           ; simple_byte           13     7 (average)
  5794                           ; direct_byte           37     9 (fixed)
  5795                           ; jumptable            263     9 (fixed)
  5796                           ;	Chosen strategy is simple_byte
  5797     1C58  0876               	movf	cgets@c,w
  5798     1C59  3A08               	xorlw	8	; case 8
  5799     1C5A  1903               	skipnz
  5800     1C5B  2C14               	goto	l3189
  5801     1C5C  3A02               	xorlw	2	; case 10
  5802     1C5D  1903               	skipnz
  5803     1C5E  2C3B               	goto	l3203
  5804     1C5F  3A07               	xorlw	7	; case 13
  5805     1C60  1903               	skipnz
  5806     1C61  2C3B               	goto	l3203
  5807     1C62  3A18               	xorlw	24	; case 21
  5808     1C63  1903               	skipnz
  5809     1C64  2C34               	goto	l3201
  5810     1C65  2C41               	goto	l3209
  5811     1C66                     l1144:
  5812     1C66  0008               	return
  5813     1C67                     __end_of_cgets:
  5814                           
  5815                           	psect	text16
  5816     0802                     __ptext16:	
  5817 ;; *************** function _getche *****************
  5818 ;; Defined at:
  5819 ;;		line 30 in file "uart.c"
  5820 ;; Parameters:    Size  Location     Type
  5821 ;;		None
  5822 ;; Auto vars:     Size  Location     Type
  5823 ;;  c               1    1[COMMON] unsigned char 
  5824 ;; Return value:  Size  Location     Type
  5825 ;;                  1    wreg      unsigned char 
  5826 ;; Registers used:
  5827 ;;		wreg, status,2, status,0, pclath, cstack
  5828 ;; Tracked objects:
  5829 ;;		On entry : 0/0
  5830 ;;		On exit  : 0/0
  5831 ;;		Unchanged: 0/0
  5832 ;; Data sizes:     COMMON   BANK0   BANK1   BANK2   BANK3   BANK4   BANK5   BANK6   BANK7   BANK8   BANK9  BANK10  BANK1
      +1  BANK12  BANK13  BANK14  BANK15  BANK16  BANK17  BANK18  BANK19  BANK20  BANK21  BANK22  BANK23  BANK24  BANK25
  5833 ;;      Params:         0       0       0       0       0       0       0       0       0       0       0       0       
      +0       0       0       0       0       0       0       0       0       0       0       0       0       0       0
  5834 ;;      Locals:         1       0       0       0       0       0       0       0       0       0       0       0       
      +0       0       0       0       0       0       0       0       0       0       0       0       0       0       0
  5835 ;;      Temps:          0       0       0       0       0       0       0       0       0       0       0       0       
      +0       0       0       0       0       0       0       0       0       0       0       0       0       0       0
  5836 ;;      Totals:         1       0       0       0       0       0       0       0       0       0       0       0       
      +0       0       0       0       0       0       0       0       0       0       0       0       0       0       0
  5837 ;;Total ram usage:        1 bytes
  5838 ;; Hardware stack levels used: 1
  5839 ;; Hardware stack levels required when called: 1
  5840 ;; This function calls:
  5841 ;;		_getch
  5842 ;;		_putch
  5843 ;; This function is called by:
  5844 ;;		_cgets
  5845 ;; This function uses a non-reentrant model
  5846 ;;
  5847                           
  5848     0802                     _getche:	
  5849                           ;psect for function _getche
  5850                           
  5851     0802                     l3057:	
  5852                           ;incstack = 0
  5853                           ; Regs used in _getche: [wreg+status,2+status,0+pclath+cstack]
  5854                           
  5855                           
  5856                           ;uart.c: 32: unsigned char c;;uart.c: 34: c = getch();
  5857     0802  3199  21A7  3188   	fcall	_getch
  5858     0805  00F1               	movwf	getche@c
  5859     0806                     l3059:
  5860                           
  5861                           ;uart.c: 35: putch(c);
  5862     0806  0871               	movf	getche@c,w
  5863     0807  3199  21B7  3188   	fcall	_putch
  5864     080A                     l3061:
  5865                           
  5866                           ;uart.c: 37: return c;
  5867     080A  0871               	movf	getche@c,w
  5868     080B                     l438:
  5869     080B  0008               	return
  5870     080C                     __end_of_getche:
  5871                           
  5872                           	psect	text17
  5873     19B7                     __ptext17:	
  5874 ;; *************** function _putch *****************
  5875 ;; Defined at:
  5876 ;;		line 15 in file "uart.c"
  5877 ;; Parameters:    Size  Location     Type
  5878 ;;  byte            1    wreg     unsigned char 
  5879 ;; Auto vars:     Size  Location     Type
  5880 ;;  byte            1    0[COMMON] unsigned char 
  5881 ;; Return value:  Size  Location     Type
  5882 ;;                  1    wreg      void 
  5883 ;; Registers used:
  5884 ;;		wreg
  5885 ;; Tracked objects:
  5886 ;;		On entry : 0/0
  5887 ;;		On exit  : 0/0
  5888 ;;		Unchanged: 0/0
  5889 ;; Data sizes:     COMMON   BANK0   BANK1   BANK2   BANK3   BANK4   BANK5   BANK6   BANK7   BANK8   BANK9  BANK10  BANK1
      +1  BANK12  BANK13  BANK14  BANK15  BANK16  BANK17  BANK18  BANK19  BANK20  BANK21  BANK22  BANK23  BANK24  BANK25
  5890 ;;      Params:         0       0       0       0       0       0       0       0       0       0       0       0       
      +0       0       0       0       0       0       0       0       0       0       0       0       0       0       0
  5891 ;;      Locals:         1       0       0       0       0       0       0       0       0       0       0       0       
      +0       0       0       0       0       0       0       0       0       0       0       0       0       0       0
  5892 ;;      Temps:          0       0       0       0       0       0       0       0       0       0       0       0       
      +0       0       0       0       0       0       0       0       0       0       0       0       0       0       0
  5893 ;;      Totals:         1       0       0       0       0       0       0       0       0       0       0       0       
      +0       0       0       0       0       0       0       0       0       0       0       0       0       0       0
  5894 ;;Total ram usage:        1 bytes
  5895 ;; Hardware stack levels used: 1
  5896 ;; This function calls:
  5897 ;;		Nothing
  5898 ;; This function is called by:
  5899 ;;		_getche
  5900 ;;		_printf
  5901 ;;		_cgets
  5902 ;; This function uses a non-reentrant model
  5903 ;;
  5904                           
  5905     19B7                     _putch:	
  5906                           ;psect for function _putch
  5907                           
  5908                           
  5909                           ;incstack = 0
  5910                           ; Regs used in _putch: [wreg]
  5911                           ;putch@byte stored from wreg
  5912     19B7  00F0               	movwf	putch@byte
  5913     19B8                     l3047:
  5914     19B8                     l426:	
  5915                           ;uart.c: 17: while(!TXIF){
  5916                           
  5917     19B8  0020               	movlb	0	; select bank0
  5918     19B9  1E11               	btfss	17,4	;volatile
  5919     19BA  29BC               	goto	u3181
  5920     19BB  29BD               	goto	u3180
  5921     19BC                     u3181:
  5922     19BC  29B8               	goto	l426
  5923     19BD                     u3180:
  5924     19BD                     l3049:
  5925                           
  5926                           ;uart.c: 18: };uart.c: 19: TXREG = byte;
  5927     19BD  0870               	movf	putch@byte,w
  5928     19BE  0023               	movlb	3	; select bank3
  5929     19BF  009A               	movwf	26	;volatile
  5930     19C0                     l429:
  5931     19C0  0008               	return
  5932     19C1                     __end_of_putch:
  5933                           
  5934                           	psect	text18
  5935     19A7                     __ptext18:	
  5936 ;; *************** function _getch *****************
  5937 ;; Defined at:
  5938 ;;		line 22 in file "uart.c"
  5939 ;; Parameters:    Size  Location     Type
  5940 ;;		None
  5941 ;; Auto vars:     Size  Location     Type
  5942 ;;		None
  5943 ;; Return value:  Size  Location     Type
  5944 ;;                  1    wreg      unsigned char 
  5945 ;; Registers used:
  5946 ;;		wreg
  5947 ;; Tracked objects:
  5948 ;;		On entry : 0/0
  5949 ;;		On exit  : 0/0
  5950 ;;		Unchanged: 0/0
  5951 ;; Data sizes:     COMMON   BANK0   BANK1   BANK2   BANK3   BANK4   BANK5   BANK6   BANK7   BANK8   BANK9  BANK10  BANK1
      +1  BANK12  BANK13  BANK14  BANK15  BANK16  BANK17  BANK18  BANK19  BANK20  BANK21  BANK22  BANK23  BANK24  BANK25
  5952 ;;      Params:         0       0       0       0       0       0       0       0       0       0       0       0       
      +0       0       0       0       0       0       0       0       0       0       0       0       0       0       0
  5953 ;;      Locals:         0       0       0       0       0       0       0       0       0       0       0       0       
      +0       0       0       0       0       0       0       0       0       0       0       0       0       0       0
  5954 ;;      Temps:          0       0       0       0       0       0       0       0       0       0       0       0       
      +0       0       0       0       0       0       0       0       0       0       0       0       0       0       0
  5955 ;;      Totals:         0       0       0       0       0       0       0       0       0       0       0       0       
      +0       0       0       0       0       0       0       0       0       0       0       0       0       0       0
  5956 ;;Total ram usage:        0 bytes
  5957 ;; Hardware stack levels used: 1
  5958 ;; This function calls:
  5959 ;;		Nothing
  5960 ;; This function is called by:
  5961 ;;		_getche
  5962 ;; This function uses a non-reentrant model
  5963 ;;
  5964                           
  5965     19A7                     _getch:	
  5966                           ;psect for function _getch
  5967                           
  5968     19A7                     l3051:	
  5969                           ;incstack = 0
  5970                           ; Regs used in _getch: [wreg]
  5971                           
  5972     19A7                     l432:	
  5973                           ;uart.c: 24: while(!RCIF){
  5974                           
  5975     19A7  0020               	movlb	0	; select bank0
  5976     19A8  1E91               	btfss	17,5	;volatile
  5977     19A9  29AB               	goto	u3191
  5978     19AA  29AC               	goto	u3190
  5979     19AB                     u3191:
  5980     19AB  29A7               	goto	l432
  5981     19AC                     u3190:
  5982     19AC                     l3053:
  5983                           
  5984                           ;uart.c: 25: };uart.c: 27: return RCREG;
  5985     19AC  0023               	movlb	3	; select bank3
  5986     19AD  0819               	movf	25,w	;volatile
  5987     19AE                     l435:
  5988     19AE  0008               	return
  5989     19AF                     __end_of_getch:
  5990                           
  5991                           	psect	text19
  5992     1CC7                     __ptext19:	
  5993 ;; *************** function _atoi *****************
  5994 ;; Defined at:
  5995 ;;		line 5 in file "C:\Program Files\Microchip\xc8\v2.41\pic\sources\c90\common\atoi.c"
  5996 ;; Parameters:    Size  Location     Type
  5997 ;;  s               1    wreg     PTR const unsigned char 
  5998 ;;		 -> NULL(0), main@tmp(40), 
  5999 ;; Auto vars:     Size  Location     Type
  6000 ;;  s               1    3[BANK0 ] PTR const unsigned char 
  6001 ;;		 -> NULL(0), main@tmp(40), 
  6002 ;;  a               2    1[BANK0 ] int 
  6003 ;;  sign            1    0[BANK0 ] unsigned char 
  6004 ;; Return value:  Size  Location     Type
  6005 ;;                  2    6[COMMON] int 
  6006 ;; Registers used:
  6007 ;;		wreg, fsr1l, fsr1h, status,2, status,0, pclath, cstack
  6008 ;; Tracked objects:
  6009 ;;		On entry : 0/0
  6010 ;;		On exit  : 0/0
  6011 ;;		Unchanged: 0/0
  6012 ;; Data sizes:     COMMON   BANK0   BANK1   BANK2   BANK3   BANK4   BANK5   BANK6   BANK7   BANK8   BANK9  BANK10  BANK1
      +1  BANK12  BANK13  BANK14  BANK15  BANK16  BANK17  BANK18  BANK19  BANK20  BANK21  BANK22  BANK23  BANK24  BANK25
  6013 ;;      Params:         2       0       0       0       0       0       0       0       0       0       0       0       
      +0       0       0       0       0       0       0       0       0       0       0       0       0       0       0
  6014 ;;      Locals:         0       4       0       0       0       0       0       0       0       0       0       0       
      +0       0       0       0       0       0       0       0       0       0       0       0       0       0       0
  6015 ;;      Temps:          4       0       0       0       0       0       0       0       0       0       0       0       
      +0       0       0       0       0       0       0       0       0       0       0       0       0       0       0
  6016 ;;      Totals:         6       4       0       0       0       0       0       0       0       0       0       0       
      +0       0       0       0       0       0       0       0       0       0       0       0       0       0       0
  6017 ;;Total ram usage:       10 bytes
  6018 ;; Hardware stack levels used: 1
  6019 ;; Hardware stack levels required when called: 1
  6020 ;; This function calls:
  6021 ;;		___wmul
  6022 ;;		_isdigit
  6023 ;; This function is called by:
  6024 ;;		_main
  6025 ;; This function uses a non-reentrant model
  6026 ;;
  6027                           
  6028     1CC7                     _atoi:	
  6029                           ;psect for function _atoi
  6030                           
  6031                           
  6032                           ;incstack = 0
  6033                           ; Regs used in _atoi: [wreg+fsr1l+fsr1h+status,2+status,0+pclath+cstack]
  6034                           ;atoi@s stored from wreg
  6035     1CC7  0020               	movlb	0	; select bank0
  6036     1CC8  00A3               	movwf	atoi@s
  6037     1CC9                     l3325:
  6038     1CC9  2CCE               	goto	l3329
  6039     1CCA                     l3327:
  6040     1CCA  3001               	movlw	1
  6041     1CCB  00F8               	movwf	??_atoi
  6042     1CCC  0878               	movf	??_atoi,w
  6043     1CCD  07A3               	addwf	atoi@s,f
  6044     1CCE                     l3329:
  6045     1CCE  0823               	movf	atoi@s,w
  6046     1CCF  0086               	movwf	6
  6047     1CD0  0187               	clrf	7
  6048     1CD1  3020               	movlw	32
  6049     1CD2  0601               	xorwf	1,w
  6050     1CD3  1903               	btfsc	3,2
  6051     1CD4  2CD6               	goto	u3631
  6052     1CD5  2CD7               	goto	u3630
  6053     1CD6                     u3631:
  6054     1CD6  2CCA               	goto	l3327
  6055     1CD7                     u3630:
  6056     1CD7                     l3331:
  6057     1CD7  0823               	movf	atoi@s,w
  6058     1CD8  0086               	movwf	6
  6059     1CD9  0187               	clrf	7
  6060     1CDA  3009               	movlw	9
  6061     1CDB  0601               	xorwf	1,w
  6062     1CDC  1903               	btfsc	3,2
  6063     1CDD  2CDF               	goto	u3641
  6064     1CDE  2CE0               	goto	u3640
  6065     1CDF                     u3641:
  6066     1CDF  2CCA               	goto	l3327
  6067     1CE0                     u3640:
  6068     1CE0                     l3333:
  6069     1CE0  01A1               	clrf	atoi@a
  6070     1CE1  01A2               	clrf	atoi@a+1
  6071     1CE2  01A0               	clrf	atoi@sign
  6072     1CE3                     l3335:
  6073     1CE3  0823               	movf	atoi@s,w
  6074     1CE4  0086               	movwf	6
  6075     1CE5  0187               	clrf	7
  6076     1CE6  302D               	movlw	45
  6077     1CE7  0601               	xorwf	1,w
  6078     1CE8  1D03               	btfss	3,2
  6079     1CE9  2CEB               	goto	u3651
  6080     1CEA  2CEC               	goto	u3650
  6081     1CEB                     u3651:
  6082     1CEB  2CF5               	goto	l3339
  6083     1CEC                     u3650:
  6084     1CEC                     l3337:
  6085     1CEC  3001               	movlw	1
  6086     1CED  00F8               	movwf	??_atoi
  6087     1CEE  0878               	movf	??_atoi,w
  6088     1CEF  07A0               	addwf	atoi@sign,f
  6089     1CF0  3001               	movlw	1
  6090     1CF1  00F8               	movwf	??_atoi
  6091     1CF2  0878               	movf	??_atoi,w
  6092     1CF3  07A3               	addwf	atoi@s,f
  6093     1CF4  2D23               	goto	l3347
  6094     1CF5                     l3339:
  6095     1CF5  0823               	movf	atoi@s,w
  6096     1CF6  0086               	movwf	6
  6097     1CF7  0187               	clrf	7
  6098     1CF8  302B               	movlw	43
  6099     1CF9  0601               	xorwf	1,w
  6100     1CFA  1D03               	btfss	3,2
  6101     1CFB  2CFD               	goto	u3661
  6102     1CFC  2CFE               	goto	u3660
  6103     1CFD                     u3661:
  6104     1CFD  2D23               	goto	l3347
  6105     1CFE                     u3660:
  6106     1CFE                     l3341:
  6107     1CFE  3001               	movlw	1
  6108     1CFF  00F8               	movwf	??_atoi
  6109     1D00  0878               	movf	??_atoi,w
  6110     1D01  07A3               	addwf	atoi@s,f
  6111     1D02  2D23               	goto	l3347
  6112     1D03                     l3343:
  6113     1D03  0020               	movlb	0	; select bank0
  6114     1D04  0823               	movf	atoi@s,w
  6115     1D05  0086               	movwf	6
  6116     1D06  0187               	clrf	7
  6117     1D07  0801               	movf	1,w
  6118     1D08  00F8               	movwf	??_atoi
  6119     1D09  01F9               	clrf	??_atoi+1
  6120     1D0A  0822               	movf	atoi@a+1,w
  6121     1D0B  00F1               	movwf	___wmul@multiplier+1
  6122     1D0C  0821               	movf	atoi@a,w
  6123     1D0D  00F0               	movwf	___wmul@multiplier
  6124     1D0E  300A               	movlw	10
  6125     1D0F  00F2               	movwf	___wmul@multiplicand
  6126     1D10  3000               	movlw	0
  6127     1D11  00F3               	movwf	___wmul@multiplicand+1
  6128     1D12  319A  221B  319C   	fcall	___wmul
  6129     1D15  0878               	movf	??_atoi,w
  6130     1D16  0770               	addwf	?___wmul,w
  6131     1D17  00FA               	movwf	??_atoi+2
  6132     1D18  0879               	movf	??_atoi+1,w
  6133     1D19  3D71               	addwfc	?___wmul+1,w
  6134     1D1A  00FB               	movwf	??_atoi+3
  6135     1D1B  087A               	movf	??_atoi+2,w
  6136     1D1C  3ED0               	addlw	208
  6137     1D1D  0020               	movlb	0	; select bank0
  6138     1D1E  00A1               	movwf	atoi@a
  6139     1D1F  30FF               	movlw	255
  6140     1D20  3D7B               	addwfc	??_atoi+3,w
  6141     1D21  00A2               	movwf	atoi@a+1
  6142     1D22  2CFE               	goto	l3341
  6143     1D23                     l3347:
  6144     1D23  0823               	movf	atoi@s,w
  6145     1D24  0086               	movwf	6
  6146     1D25  0187               	clrf	7
  6147     1D26  0801               	movf	1,w
  6148     1D27  3199  21C1  319C   	fcall	_isdigit
  6149     1D2A  1803               	btfsc	3,0
  6150     1D2B  2D2D               	goto	u3671
  6151     1D2C  2D2E               	goto	u3670
  6152     1D2D                     u3671:
  6153     1D2D  2D03               	goto	l3343
  6154     1D2E                     u3670:
  6155     1D2E                     l3349:
  6156     1D2E  0020               	movlb	0	; select bank0
  6157     1D2F  0820               	movf	atoi@sign,w
  6158     1D30  1903               	btfsc	3,2
  6159     1D31  2D33               	goto	u3681
  6160     1D32  2D34               	goto	u3680
  6161     1D33                     u3681:
  6162     1D33  2D40               	goto	l3355
  6163     1D34                     u3680:
  6164     1D34                     l3351:
  6165     1D34  0921               	comf	atoi@a,w
  6166     1D35  00F8               	movwf	??_atoi
  6167     1D36  0922               	comf	atoi@a+1,w
  6168     1D37  00F9               	movwf	??_atoi+1
  6169     1D38  0AF8               	incf	??_atoi,f
  6170     1D39  1903               	skipnz
  6171     1D3A  0AF9               	incf	??_atoi+1,f
  6172     1D3B  0878               	movf	??_atoi,w
  6173     1D3C  00F6               	movwf	?_atoi
  6174     1D3D  0879               	movf	??_atoi+1,w
  6175     1D3E  00F7               	movwf	?_atoi+1
  6176     1D3F  2D44               	goto	l1121
  6177     1D40                     l3355:
  6178     1D40  0822               	movf	atoi@a+1,w
  6179     1D41  00F7               	movwf	?_atoi+1
  6180     1D42  0821               	movf	atoi@a,w
  6181     1D43  00F6               	movwf	?_atoi
  6182     1D44                     l1121:
  6183     1D44  0008               	return
  6184     1D45                     __end_of_atoi:
  6185                           
  6186                           	psect	text20
  6187     19C1                     __ptext20:	
  6188 ;; *************** function _isdigit *****************
  6189 ;; Defined at:
  6190 ;;		line 8 in file "C:\Program Files\Microchip\xc8\v2.41\pic\sources\c90\common\isdigit.c"
  6191 ;; Parameters:    Size  Location     Type
  6192 ;;  c               1    wreg     unsigned char 
  6193 ;; Auto vars:     Size  Location     Type
  6194 ;;  c               1    1[COMMON] unsigned char 
  6195 ;; Return value:  Size  Location     Type
  6196 ;;		None               void
  6197 ;; Registers used:
  6198 ;;		wreg, status,2, status,0
  6199 ;; Tracked objects:
  6200 ;;		On entry : 0/0
  6201 ;;		On exit  : 0/0
  6202 ;;		Unchanged: 0/0
  6203 ;; Data sizes:     COMMON   BANK0   BANK1   BANK2   BANK3   BANK4   BANK5   BANK6   BANK7   BANK8   BANK9  BANK10  BANK1
      +1  BANK12  BANK13  BANK14  BANK15  BANK16  BANK17  BANK18  BANK19  BANK20  BANK21  BANK22  BANK23  BANK24  BANK25
  6204 ;;      Params:         0       0       0       0       0       0       0       0       0       0       0       0       
      +0       0       0       0       0       0       0       0       0       0       0       0       0       0       0
  6205 ;;      Locals:         2       0       0       0       0       0       0       0       0       0       0       0       
      +0       0       0       0       0       0       0       0       0       0       0       0       0       0       0
  6206 ;;      Temps:          0       0       0       0       0       0       0       0       0       0       0       0       
      +0       0       0       0       0       0       0       0       0       0       0       0       0       0       0
  6207 ;;      Totals:         2       0       0       0       0       0       0       0       0       0       0       0       
      +0       0       0       0       0       0       0       0       0       0       0       0       0       0       0
  6208 ;;Total ram usage:        2 bytes
  6209 ;; Hardware stack levels used: 1
  6210 ;; This function calls:
  6211 ;;		Nothing
  6212 ;; This function is called by:
  6213 ;;		_atoi
  6214 ;; This function uses a non-reentrant model
  6215 ;;
  6216                           
  6217     19C1                     _isdigit:	
  6218                           ;psect for function _isdigit
  6219                           
  6220                           
  6221                           ;incstack = 0
  6222                           ; Regs used in _isdigit: [wreg+status,2+status,0]
  6223                           ;isdigit@c stored from wreg
  6224     19C1  00F1               	movwf	isdigit@c
  6225     19C2                     l3175:
  6226     19C2  01F0               	clrf	_isdigit$940
  6227     19C3                     l3177:
  6228     19C3  303A               	movlw	58
  6229     19C4  0271               	subwf	isdigit@c,w
  6230     19C5  1803               	skipnc
  6231     19C6  29C8               	goto	u3461
  6232     19C7  29C9               	goto	u3460
  6233     19C8                     u3461:
  6234     19C8  29D1               	goto	l3183
  6235     19C9                     u3460:
  6236     19C9                     l3179:
  6237     19C9  3030               	movlw	48
  6238     19CA  0271               	subwf	isdigit@c,w
  6239     19CB  1C03               	skipc
  6240     19CC  29CE               	goto	u3471
  6241     19CD  29CF               	goto	u3470
  6242     19CE                     u3471:
  6243     19CE  29D1               	goto	l3183
  6244     19CF                     u3470:
  6245     19CF                     l3181:
  6246     19CF  01F0               	clrf	_isdigit$940
  6247     19D0  0AF0               	incf	_isdigit$940,f
  6248     19D1                     l3183:
  6249     19D1  0C70               	rrf	_isdigit$940,w
  6250     19D2                     l1151:
  6251     19D2  0008               	return
  6252     19D3                     __end_of_isdigit:
  6253                           
  6254                           	psect	text21
  6255     1A1B                     __ptext21:	
  6256 ;; *************** function ___wmul *****************
  6257 ;; Defined at:
  6258 ;;		line 15 in file "C:\Program Files\Microchip\xc8\v2.41\pic\sources\c90\common\Umul16.c"
  6259 ;; Parameters:    Size  Location     Type
  6260 ;;  multiplier      2    0[COMMON] unsigned int 
  6261 ;;  multiplicand    2    2[COMMON] unsigned int 
  6262 ;; Auto vars:     Size  Location     Type
  6263 ;;  product         2    4[COMMON] unsigned int 
  6264 ;; Return value:  Size  Location     Type
  6265 ;;                  2    0[COMMON] unsigned int 
  6266 ;; Registers used:
  6267 ;;		wreg, status,2, status,0
  6268 ;; Tracked objects:
  6269 ;;		On entry : 0/0
  6270 ;;		On exit  : 0/0
  6271 ;;		Unchanged: 0/0
  6272 ;; Data sizes:     COMMON   BANK0   BANK1   BANK2   BANK3   BANK4   BANK5   BANK6   BANK7   BANK8   BANK9  BANK10  BANK1
      +1  BANK12  BANK13  BANK14  BANK15  BANK16  BANK17  BANK18  BANK19  BANK20  BANK21  BANK22  BANK23  BANK24  BANK25
  6273 ;;      Params:         4       0       0       0       0       0       0       0       0       0       0       0       
      +0       0       0       0       0       0       0       0       0       0       0       0       0       0       0
  6274 ;;      Locals:         2       0       0       0       0       0       0       0       0       0       0       0       
      +0       0       0       0       0       0       0       0       0       0       0       0       0       0       0
  6275 ;;      Temps:          0       0       0       0       0       0       0       0       0       0       0       0       
      +0       0       0       0       0       0       0       0       0       0       0       0       0       0       0
  6276 ;;      Totals:         6       0       0       0       0       0       0       0       0       0       0       0       
      +0       0       0       0       0       0       0       0       0       0       0       0       0       0       0
  6277 ;;Total ram usage:        6 bytes
  6278 ;; Hardware stack levels used: 1
  6279 ;; This function calls:
  6280 ;;		Nothing
  6281 ;; This function is called by:
  6282 ;;		_main
  6283 ;;		_atoi
  6284 ;; This function uses a non-reentrant model
  6285 ;;
  6286                           
  6287     1A1B                     ___wmul:	
  6288                           ;psect for function ___wmul
  6289                           
  6290     1A1B                     l3099:	
  6291                           ;incstack = 0
  6292                           ; Regs used in ___wmul: [wreg+status,2+status,0]
  6293                           
  6294     1A1B  01F4               	clrf	___wmul@product
  6295     1A1C  01F5               	clrf	___wmul@product+1
  6296     1A1D                     l3101:
  6297     1A1D  1C70               	btfss	___wmul@multiplier,0
  6298     1A1E  2A20               	goto	u3261
  6299     1A1F  2A21               	goto	u3260
  6300     1A20                     u3261:
  6301     1A20  2A25               	goto	l658
  6302     1A21                     u3260:
  6303     1A21                     l3103:
  6304     1A21  0872               	movf	___wmul@multiplicand,w
  6305     1A22  07F4               	addwf	___wmul@product,f
  6306     1A23  0873               	movf	___wmul@multiplicand+1,w
  6307     1A24  3DF5               	addwfc	___wmul@product+1,f
  6308     1A25                     l658:
  6309     1A25  3001               	movlw	1
  6310     1A26                     u3275:
  6311     1A26  35F2               	lslf	___wmul@multiplicand,f
  6312     1A27  0DF3               	rlf	___wmul@multiplicand+1,f
  6313     1A28  0B89               	decfsz	9,f
  6314     1A29  2A26               	goto	u3275
  6315     1A2A                     l3105:
  6316     1A2A  3001               	movlw	1
  6317     1A2B                     u3285:
  6318     1A2B  36F1               	lsrf	___wmul@multiplier+1,f
  6319     1A2C  0CF0               	rrf	___wmul@multiplier,f
  6320     1A2D  0B89               	decfsz	9,f
  6321     1A2E  2A2B               	goto	u3285
  6322     1A2F                     l3107:
  6323     1A2F  0870               	movf	___wmul@multiplier,w
  6324     1A30  0471               	iorwf	___wmul@multiplier+1,w
  6325     1A31  1D03               	btfss	3,2
  6326     1A32  2A34               	goto	u3291
  6327     1A33  2A35               	goto	u3290
  6328     1A34                     u3291:
  6329     1A34  2A1D               	goto	l3101
  6330     1A35                     u3290:
  6331     1A35                     l3109:
  6332     1A35  0875               	movf	___wmul@product+1,w
  6333     1A36  00F1               	movwf	?___wmul+1
  6334     1A37  0874               	movf	___wmul@product,w
  6335     1A38  00F0               	movwf	?___wmul
  6336     1A39                     l660:
  6337     1A39  0008               	return
  6338     1A3A                     __end_of___wmul:
  6339                           
  6340                           	psect	text22
  6341     1D45                     __ptext22:	
  6342 ;; *************** function ___xxtofl *****************
  6343 ;; Defined at:
  6344 ;;		line 10 in file "C:\Program Files\Microchip\xc8\v2.41\pic\sources\c90\common\xxtofl.c"
  6345 ;; Parameters:    Size  Location     Type
  6346 ;;  sign            1    wreg     unsigned char 
  6347 ;;  val             4    0[COMMON] long 
  6348 ;; Auto vars:     Size  Location     Type
  6349 ;;  sign            1    8[COMMON] unsigned char 
  6350 ;;  arg             4   10[COMMON] unsigned long 
  6351 ;;  exp             1    9[COMMON] unsigned char 
  6352 ;; Return value:  Size  Location     Type
  6353 ;;                  4    0[COMMON] unsigned char 
  6354 ;; Registers used:
  6355 ;;		wreg, status,2, status,0
  6356 ;; Tracked objects:
  6357 ;;		On entry : 0/0
  6358 ;;		On exit  : 0/0
  6359 ;;		Unchanged: 0/0
  6360 ;; Data sizes:     COMMON   BANK0   BANK1   BANK2   BANK3   BANK4   BANK5   BANK6   BANK7   BANK8   BANK9  BANK10  BANK1
      +1  BANK12  BANK13  BANK14  BANK15  BANK16  BANK17  BANK18  BANK19  BANK20  BANK21  BANK22  BANK23  BANK24  BANK25
  6361 ;;      Params:         4       0       0       0       0       0       0       0       0       0       0       0       
      +0       0       0       0       0       0       0       0       0       0       0       0       0       0       0
  6362 ;;      Locals:         6       0       0       0       0       0       0       0       0       0       0       0       
      +0       0       0       0       0       0       0       0       0       0       0       0       0       0       0
  6363 ;;      Temps:          4       0       0       0       0       0       0       0       0       0       0       0       
      +0       0       0       0       0       0       0       0       0       0       0       0       0       0       0
  6364 ;;      Totals:        14       0       0       0       0       0       0       0       0       0       0       0       
      +0       0       0       0       0       0       0       0       0       0       0       0       0       0       0
  6365 ;;Total ram usage:       14 bytes
  6366 ;; Hardware stack levels used: 1
  6367 ;; This function calls:
  6368 ;;		Nothing
  6369 ;; This function is called by:
  6370 ;;		_main
  6371 ;; This function uses a non-reentrant model
  6372 ;;
  6373                           
  6374     1D45                     ___xxtofl:	
  6375                           ;psect for function ___xxtofl
  6376                           
  6377                           
  6378                           ;incstack = 0
  6379                           ; Regs used in ___xxtofl: [wreg+status,2+status,0]
  6380                           ;___xxtofl@sign stored from wreg
  6381     1D45  00F8               	movwf	___xxtofl@sign
  6382     1D46                     l3965:
  6383     1D46  0878               	movf	___xxtofl@sign,w
  6384     1D47  1903               	btfsc	3,2
  6385     1D48  2D4A               	goto	u4951
  6386     1D49  2D4B               	goto	u4950
  6387     1D4A                     u4951:
  6388     1D4A  2D5F               	goto	l3971
  6389     1D4B                     u4950:
  6390     1D4B                     l3967:
  6391     1D4B  1FF3               	btfss	___xxtofl@val+3,7
  6392     1D4C  2D4E               	goto	u4961
  6393     1D4D  2D4F               	goto	u4960
  6394     1D4E                     u4961:
  6395     1D4E  2D5F               	goto	l3971
  6396     1D4F                     u4960:
  6397     1D4F                     l3969:
  6398     1D4F  0970               	comf	___xxtofl@val,w
  6399     1D50  00FA               	movwf	___xxtofl@arg
  6400     1D51  0971               	comf	___xxtofl@val+1,w
  6401     1D52  00FB               	movwf	___xxtofl@arg+1
  6402     1D53  0972               	comf	___xxtofl@val+2,w
  6403     1D54  00FC               	movwf	___xxtofl@arg+2
  6404     1D55  0973               	comf	___xxtofl@val+3,w
  6405     1D56  00FD               	movwf	___xxtofl@arg+3
  6406     1D57  0AFA               	incf	___xxtofl@arg,f
  6407     1D58  1903               	skipnz
  6408     1D59  0AFB               	incf	___xxtofl@arg+1,f
  6409     1D5A  1903               	skipnz
  6410     1D5B  0AFC               	incf	___xxtofl@arg+2,f
  6411     1D5C  1903               	skipnz
  6412     1D5D  0AFD               	incf	___xxtofl@arg+3,f
  6413     1D5E  2D67               	goto	l1091
  6414     1D5F                     l3971:
  6415     1D5F  0873               	movf	___xxtofl@val+3,w
  6416     1D60  00FD               	movwf	___xxtofl@arg+3
  6417     1D61  0872               	movf	___xxtofl@val+2,w
  6418     1D62  00FC               	movwf	___xxtofl@arg+2
  6419     1D63  0871               	movf	___xxtofl@val+1,w
  6420     1D64  00FB               	movwf	___xxtofl@arg+1
  6421     1D65  0870               	movf	___xxtofl@val,w
  6422     1D66  00FA               	movwf	___xxtofl@arg
  6423     1D67                     l1091:
  6424     1D67  0873               	movf	___xxtofl@val+3,w
  6425     1D68  0472               	iorwf	___xxtofl@val+2,w
  6426     1D69  0471               	iorwf	___xxtofl@val+1,w
  6427     1D6A  0470               	iorwf	___xxtofl@val,w
  6428     1D6B  1D03               	skipz
  6429     1D6C  2D6E               	goto	u4971
  6430     1D6D  2D6F               	goto	u4970
  6431     1D6E                     u4971:
  6432     1D6E  2D78               	goto	l3977
  6433     1D6F                     u4970:
  6434     1D6F                     l3973:
  6435     1D6F  3000               	movlw	0
  6436     1D70  00F3               	movwf	?___xxtofl+3
  6437     1D71  3000               	movlw	0
  6438     1D72  00F2               	movwf	?___xxtofl+2
  6439     1D73  3000               	movlw	0
  6440     1D74  00F1               	movwf	?___xxtofl+1
  6441     1D75  3000               	movlw	0
  6442     1D76  00F0               	movwf	?___xxtofl
  6443     1D77  2DEE               	goto	l1093
  6444     1D78                     l3977:
  6445     1D78  3096               	movlw	150
  6446     1D79  00F9               	movwf	___xxtofl@exp
  6447     1D7A  2D86               	goto	l3981
  6448     1D7B                     l3979:
  6449     1D7B  3001               	movlw	1
  6450     1D7C  00F4               	movwf	??___xxtofl
  6451     1D7D  0874               	movf	??___xxtofl,w
  6452     1D7E  07F9               	addwf	___xxtofl@exp,f
  6453     1D7F  3001               	movlw	1
  6454     1D80                     u4985:
  6455     1D80  36FD               	lsrf	___xxtofl@arg+3,f
  6456     1D81  0CFC               	rrf	___xxtofl@arg+2,f
  6457     1D82  0CFB               	rrf	___xxtofl@arg+1,f
  6458     1D83  0CFA               	rrf	___xxtofl@arg,f
  6459     1D84  0B89               	decfsz	9,f
  6460     1D85  2D80               	goto	u4985
  6461     1D86                     l3981:
  6462     1D86  30FE               	movlw	254
  6463     1D87  057D               	andwf	___xxtofl@arg+3,w
  6464     1D88  1D03               	btfss	3,2
  6465     1D89  2D8B               	goto	u4991
  6466     1D8A  2D8C               	goto	u4990
  6467     1D8B                     u4991:
  6468     1D8B  2D7B               	goto	l3979
  6469     1D8C                     u4990:
  6470     1D8C  2DA0               	goto	l1097
  6471     1D8D                     l3983:
  6472     1D8D  3001               	movlw	1
  6473     1D8E  00F4               	movwf	??___xxtofl
  6474     1D8F  0874               	movf	??___xxtofl,w
  6475     1D90  07F9               	addwf	___xxtofl@exp,f
  6476     1D91                     l3985:
  6477     1D91  3001               	movlw	1
  6478     1D92  07FA               	addwf	___xxtofl@arg,f
  6479     1D93  3000               	movlw	0
  6480     1D94  3DFB               	addwfc	___xxtofl@arg+1,f
  6481     1D95  3000               	movlw	0
  6482     1D96  3DFC               	addwfc	___xxtofl@arg+2,f
  6483     1D97  3000               	movlw	0
  6484     1D98  3DFD               	addwfc	___xxtofl@arg+3,f
  6485     1D99                     l3987:
  6486     1D99  3001               	movlw	1
  6487     1D9A                     u5005:
  6488     1D9A  36FD               	lsrf	___xxtofl@arg+3,f
  6489     1D9B  0CFC               	rrf	___xxtofl@arg+2,f
  6490     1D9C  0CFB               	rrf	___xxtofl@arg+1,f
  6491     1D9D  0CFA               	rrf	___xxtofl@arg,f
  6492     1D9E  0B89               	decfsz	9,f
  6493     1D9F  2D9A               	goto	u5005
  6494     1DA0                     l1097:
  6495     1DA0  30FF               	movlw	255
  6496     1DA1  057D               	andwf	___xxtofl@arg+3,w
  6497     1DA2  1D03               	btfss	3,2
  6498     1DA3  2DA5               	goto	u5011
  6499     1DA4  2DA6               	goto	u5010
  6500     1DA5                     u5011:
  6501     1DA5  2D8D               	goto	l3983
  6502     1DA6                     u5010:
  6503     1DA6  2DB0               	goto	l3991
  6504     1DA7                     l3989:
  6505     1DA7  3001               	movlw	1
  6506     1DA8  02F9               	subwf	___xxtofl@exp,f
  6507     1DA9  3001               	movlw	1
  6508     1DAA                     u5025:
  6509     1DAA  35FA               	lslf	___xxtofl@arg,f
  6510     1DAB  0DFB               	rlf	___xxtofl@arg+1,f
  6511     1DAC  0DFC               	rlf	___xxtofl@arg+2,f
  6512     1DAD  0DFD               	rlf	___xxtofl@arg+3,f
  6513     1DAE  0B89               	decfsz	9,f
  6514     1DAF  2DAA               	goto	u5025
  6515     1DB0                     l3991:
  6516     1DB0  1BFC               	btfsc	___xxtofl@arg+2,7
  6517     1DB1  2DB3               	goto	u5031
  6518     1DB2  2DB4               	goto	u5030
  6519     1DB3                     u5031:
  6520     1DB3  2DBA               	goto	l1104
  6521     1DB4                     u5030:
  6522     1DB4                     l3993:
  6523     1DB4  3002               	movlw	2
  6524     1DB5  0279               	subwf	___xxtofl@exp,w
  6525     1DB6  1803               	skipnc
  6526     1DB7  2DB9               	goto	u5041
  6527     1DB8  2DBA               	goto	u5040
  6528     1DB9                     u5041:
  6529     1DB9  2DA7               	goto	l3989
  6530     1DBA                     u5040:
  6531     1DBA                     l1104:
  6532     1DBA  1879               	btfsc	___xxtofl@exp,0
  6533     1DBB  2DBD               	goto	u5051
  6534     1DBC  2DBE               	goto	u5050
  6535     1DBD                     u5051:
  6536     1DBD  2DC6               	goto	l1105
  6537     1DBE                     u5050:
  6538     1DBE                     l3995:
  6539     1DBE  30FF               	movlw	255
  6540     1DBF  05FA               	andwf	___xxtofl@arg,f
  6541     1DC0  30FF               	movlw	255
  6542     1DC1  05FB               	andwf	___xxtofl@arg+1,f
  6543     1DC2  307F               	movlw	127
  6544     1DC3  05FC               	andwf	___xxtofl@arg+2,f
  6545     1DC4  30FF               	movlw	255
  6546     1DC5  05FD               	andwf	___xxtofl@arg+3,f
  6547     1DC6                     l1105:
  6548     1DC6  1003               	clrc
  6549     1DC7  0CF9               	rrf	___xxtofl@exp,f
  6550     1DC8                     l3997:
  6551     1DC8  0879               	movf	___xxtofl@exp,w
  6552     1DC9  00F4               	movwf	??___xxtofl
  6553     1DCA  01F5               	clrf	??___xxtofl+1
  6554     1DCB  01F6               	clrf	??___xxtofl+2
  6555     1DCC  01F7               	clrf	??___xxtofl+3
  6556     1DCD  3018               	movlw	24
  6557     1DCE                     u5065:
  6558     1DCE  35F4               	lslf	??___xxtofl,f
  6559     1DCF  0DF5               	rlf	??___xxtofl+1,f
  6560     1DD0  0DF6               	rlf	??___xxtofl+2,f
  6561     1DD1  0DF7               	rlf	??___xxtofl+3,f
  6562     1DD2                     u5060:
  6563     1DD2  0B89               	decfsz	9,f
  6564     1DD3  2DCE               	goto	u5065
  6565     1DD4  0874               	movf	??___xxtofl,w
  6566     1DD5  04FA               	iorwf	___xxtofl@arg,f
  6567     1DD6  0875               	movf	??___xxtofl+1,w
  6568     1DD7  04FB               	iorwf	___xxtofl@arg+1,f
  6569     1DD8  0876               	movf	??___xxtofl+2,w
  6570     1DD9  04FC               	iorwf	___xxtofl@arg+2,f
  6571     1DDA  0877               	movf	??___xxtofl+3,w
  6572     1DDB  04FD               	iorwf	___xxtofl@arg+3,f
  6573     1DDC                     l3999:
  6574     1DDC  0878               	movf	___xxtofl@sign,w
  6575     1DDD  1903               	btfsc	3,2
  6576     1DDE  2DE0               	goto	u5071
  6577     1DDF  2DE1               	goto	u5070
  6578     1DE0                     u5071:
  6579     1DE0  2DE6               	goto	l4005
  6580     1DE1                     u5070:
  6581     1DE1                     l4001:
  6582     1DE1  1FF3               	btfss	___xxtofl@val+3,7
  6583     1DE2  2DE4               	goto	u5081
  6584     1DE3  2DE5               	goto	u5080
  6585     1DE4                     u5081:
  6586     1DE4  2DE6               	goto	l4005
  6587     1DE5                     u5080:
  6588     1DE5                     l4003:
  6589     1DE5  17FD               	bsf	___xxtofl@arg+3,7
  6590     1DE6                     l4005:
  6591     1DE6  087D               	movf	___xxtofl@arg+3,w
  6592     1DE7  00F3               	movwf	?___xxtofl+3
  6593     1DE8  087C               	movf	___xxtofl@arg+2,w
  6594     1DE9  00F2               	movwf	?___xxtofl+2
  6595     1DEA  087B               	movf	___xxtofl@arg+1,w
  6596     1DEB  00F1               	movwf	?___xxtofl+1
  6597     1DEC  087A               	movf	___xxtofl@arg,w
  6598     1DED  00F0               	movwf	?___xxtofl
  6599     1DEE                     l1093:
  6600     1DEE  0008               	return
  6601     1DEF                     __end_of___xxtofl:
  6602                           
  6603                           	psect	text23
  6604     080C                     __ptext23:	
  6605 ;; *************** function ___fltol *****************
  6606 ;; Defined at:
  6607 ;;		line 43 in file "C:\Program Files\Microchip\xc8\v2.41\pic\sources\c90\common\fltol.c"
  6608 ;; Parameters:    Size  Location     Type
  6609 ;;  f1              4   26[BANK0 ] unsigned char 
  6610 ;; Auto vars:     Size  Location     Type
  6611 ;;  exp1            1   35[BANK0 ] unsigned char 
  6612 ;;  sign1           1   34[BANK0 ] unsigned char 
  6613 ;; Return value:  Size  Location     Type
  6614 ;;                  4   26[BANK0 ] long 
  6615 ;; Registers used:
  6616 ;;		wreg, status,2, status,0
  6617 ;; Tracked objects:
  6618 ;;		On entry : 0/0
  6619 ;;		On exit  : 0/0
  6620 ;;		Unchanged: 0/0
  6621 ;; Data sizes:     COMMON   BANK0   BANK1   BANK2   BANK3   BANK4   BANK5   BANK6   BANK7   BANK8   BANK9  BANK10  BANK1
      +1  BANK12  BANK13  BANK14  BANK15  BANK16  BANK17  BANK18  BANK19  BANK20  BANK21  BANK22  BANK23  BANK24  BANK25
  6622 ;;      Params:         0       4       0       0       0       0       0       0       0       0       0       0       
      +0       0       0       0       0       0       0       0       0       0       0       0       0       0       0
  6623 ;;      Locals:         0       2       0       0       0       0       0       0       0       0       0       0       
      +0       0       0       0       0       0       0       0       0       0       0       0       0       0       0
  6624 ;;      Temps:          0       4       0       0       0       0       0       0       0       0       0       0       
      +0       0       0       0       0       0       0       0       0       0       0       0       0       0       0
  6625 ;;      Totals:         0      10       0       0       0       0       0       0       0       0       0       0       
      +0       0       0       0       0       0       0       0       0       0       0       0       0       0       0
  6626 ;;Total ram usage:       10 bytes
  6627 ;; Hardware stack levels used: 1
  6628 ;; This function calls:
  6629 ;;		Nothing
  6630 ;; This function is called by:
  6631 ;;		_main
  6632 ;; This function uses a non-reentrant model
  6633 ;;
  6634                           
  6635     080C                     ___fltol:	
  6636                           ;psect for function ___fltol
  6637                           
  6638     080C                     l3455:	
  6639                           ;incstack = 0
  6640                           ; Regs used in ___fltol: [wreg+status,2+status,0]
  6641                           
  6642     080C  1003               	clrc
  6643     080D  0020               	movlb	0	; select bank0
  6644     080E  0D3C               	rlf	___fltol@f1+2,w
  6645     080F  0D3D               	rlf	___fltol@f1+3,w
  6646     0810  00C3               	movwf	___fltol@exp1
  6647     0811  0843               	movf	___fltol@exp1,w
  6648     0812  1D03               	btfss	3,2
  6649     0813  2815               	goto	u3871
  6650     0814  2816               	goto	u3870
  6651     0815                     u3871:
  6652     0815  281F               	goto	l3461
  6653     0816                     u3870:
  6654     0816                     l3457:
  6655     0816  3000               	movlw	0
  6656     0817  00BD               	movwf	?___fltol+3
  6657     0818  3000               	movlw	0
  6658     0819  00BC               	movwf	?___fltol+2
  6659     081A  3000               	movlw	0
  6660     081B  00BB               	movwf	?___fltol+1
  6661     081C  3000               	movlw	0
  6662     081D  00BA               	movwf	?___fltol
  6663     081E  287C               	goto	l844
  6664     081F                     l3461:
  6665     081F  083A               	movf	___fltol@f1,w
  6666     0820  00BE               	movwf	??___fltol
  6667     0821  083B               	movf	___fltol@f1+1,w
  6668     0822  00BF               	movwf	??___fltol+1
  6669     0823  083C               	movf	___fltol@f1+2,w
  6670     0824  00C0               	movwf	??___fltol+2
  6671     0825  083D               	movf	___fltol@f1+3,w
  6672     0826  00C1               	movwf	??___fltol+3
  6673     0827  301F               	movlw	31
  6674     0828                     u3885:
  6675     0828  36C1               	lsrf	??___fltol+3,f
  6676     0829  0CC0               	rrf	??___fltol+2,f
  6677     082A  0CBF               	rrf	??___fltol+1,f
  6678     082B  0CBE               	rrf	??___fltol,f
  6679     082C                     u3880:
  6680     082C  0B89               	decfsz	9,f
  6681     082D  2828               	goto	u3885
  6682     082E  083E               	movf	??___fltol,w
  6683     082F  00C2               	movwf	___fltol@sign1
  6684     0830                     l3463:
  6685     0830  17BC               	bsf	___fltol@f1+2,7
  6686     0831                     l3465:
  6687     0831  30FF               	movlw	255
  6688     0832  05BA               	andwf	___fltol@f1,f
  6689     0833  30FF               	movlw	255
  6690     0834  05BB               	andwf	___fltol@f1+1,f
  6691     0835  30FF               	movlw	255
  6692     0836  05BC               	andwf	___fltol@f1+2,f
  6693     0837  3000               	movlw	0
  6694     0838  05BD               	andwf	___fltol@f1+3,f
  6695     0839                     l3467:
  6696     0839  3096               	movlw	150
  6697     083A  02C3               	subwf	___fltol@exp1,f
  6698     083B                     l3469:
  6699     083B  1FC3               	btfss	___fltol@exp1,7
  6700     083C  283E               	goto	u3891
  6701     083D  283F               	goto	u3890
  6702     083E                     u3891:
  6703     083E  2857               	goto	l3479
  6704     083F                     u3890:
  6705     083F                     l3471:
  6706     083F  0843               	movf	___fltol@exp1,w
  6707     0840  3A80               	xorlw	128
  6708     0841  3E97               	addlw	151
  6709     0842  1803               	skipnc
  6710     0843  2845               	goto	u3901
  6711     0844  2846               	goto	u3900
  6712     0845                     u3901:
  6713     0845  2847               	goto	l3477
  6714     0846                     u3900:
  6715     0846  2816               	goto	l3457
  6716     0847                     l3477:
  6717     0847  3001               	movlw	1
  6718     0848                     u3915:
  6719     0848  36BD               	lsrf	___fltol@f1+3,f
  6720     0849  0CBC               	rrf	___fltol@f1+2,f
  6721     084A  0CBB               	rrf	___fltol@f1+1,f
  6722     084B  0CBA               	rrf	___fltol@f1,f
  6723     084C  0B89               	decfsz	9,f
  6724     084D  2848               	goto	u3915
  6725     084E  3001               	movlw	1
  6726     084F  00BE               	movwf	??___fltol
  6727     0850  083E               	movf	??___fltol,w
  6728     0851  07C3               	addwf	___fltol@exp1,f
  6729     0852  1D03               	btfss	3,2
  6730     0853  2855               	goto	u3921
  6731     0854  2856               	goto	u3920
  6732     0855                     u3921:
  6733     0855  2847               	goto	l3477
  6734     0856                     u3920:
  6735     0856  286C               	goto	l3487
  6736     0857                     l3479:
  6737     0857  3020               	movlw	32
  6738     0858  0243               	subwf	___fltol@exp1,w
  6739     0859  1C03               	skipc
  6740     085A  285C               	goto	u3931
  6741     085B  285D               	goto	u3930
  6742     085C                     u3931:
  6743     085C  2867               	goto	l851
  6744     085D                     u3930:
  6745     085D  2816               	goto	l3457
  6746     085E                     l3485:
  6747     085E  3001               	movlw	1
  6748     085F                     u3945:
  6749     085F  35BA               	lslf	___fltol@f1,f
  6750     0860  0DBB               	rlf	___fltol@f1+1,f
  6751     0861  0DBC               	rlf	___fltol@f1+2,f
  6752     0862  0DBD               	rlf	___fltol@f1+3,f
  6753     0863  0B89               	decfsz	9,f
  6754     0864  285F               	goto	u3945
  6755     0865  3001               	movlw	1
  6756     0866  02C3               	subwf	___fltol@exp1,f
  6757     0867                     l851:
  6758     0867  0843               	movf	___fltol@exp1,w
  6759     0868  1D03               	btfss	3,2
  6760     0869  286B               	goto	u3951
  6761     086A  286C               	goto	u3950
  6762     086B                     u3951:
  6763     086B  285E               	goto	l3485
  6764     086C                     u3950:
  6765     086C                     l3487:
  6766     086C  0842               	movf	___fltol@sign1,w
  6767     086D  1903               	btfsc	3,2
  6768     086E  2870               	goto	u3961
  6769     086F  2871               	goto	u3960
  6770     0870                     u3961:
  6771     0870  287C               	goto	l854
  6772     0871                     u3960:
  6773     0871                     l3489:
  6774     0871  09BA               	comf	___fltol@f1,f
  6775     0872  09BB               	comf	___fltol@f1+1,f
  6776     0873  09BC               	comf	___fltol@f1+2,f
  6777     0874  09BD               	comf	___fltol@f1+3,f
  6778     0875  0ABA               	incf	___fltol@f1,f
  6779     0876  1903               	skipnz
  6780     0877  0ABB               	incf	___fltol@f1+1,f
  6781     0878  1903               	skipnz
  6782     0879  0ABC               	incf	___fltol@f1+2,f
  6783     087A  1903               	skipnz
  6784     087B  0ABD               	incf	___fltol@f1+3,f
  6785     087C                     l854:
  6786     087C                     l844:
  6787     087C  0008               	return
  6788     087D                     __end_of___fltol:
  6789                           
  6790                           	psect	text24
  6791     0DC5                     __ptext24:	
  6792 ;; *************** function ___flmul *****************
  6793 ;; Defined at:
  6794 ;;		line 8 in file "C:\Program Files\Microchip\xc8\v2.41\pic\sources\c90\common\sprcmul.c"
  6795 ;; Parameters:    Size  Location     Type
  6796 ;;  b               4    0[BANK0 ] long 
  6797 ;;  a               4    4[BANK0 ] long 
  6798 ;; Auto vars:     Size  Location     Type
  6799 ;;  prod            4   20[BANK0 ] struct .
  6800 ;;  grs             4   14[BANK0 ] unsigned long 
  6801 ;;  temp            2   24[BANK0 ] struct .
  6802 ;;  bexp            1   19[BANK0 ] unsigned char 
  6803 ;;  aexp            1   18[BANK0 ] unsigned char 
  6804 ;;  sign            1   13[BANK0 ] unsigned char 
  6805 ;; Return value:  Size  Location     Type
  6806 ;;                  4    0[BANK0 ] unsigned char 
  6807 ;; Registers used:
  6808 ;;		wreg, status,2, status,0, pclath, cstack
  6809 ;; Tracked objects:
  6810 ;;		On entry : 0/0
  6811 ;;		On exit  : 0/0
  6812 ;;		Unchanged: 0/0
  6813 ;; Data sizes:     COMMON   BANK0   BANK1   BANK2   BANK3   BANK4   BANK5   BANK6   BANK7   BANK8   BANK9  BANK10  BANK1
      +1  BANK12  BANK13  BANK14  BANK15  BANK16  BANK17  BANK18  BANK19  BANK20  BANK21  BANK22  BANK23  BANK24  BANK25
  6814 ;;      Params:         0       8       0       0       0       0       0       0       0       0       0       0       
      +0       0       0       0       0       0       0       0       0       0       0       0       0       0       0
  6815 ;;      Locals:         0      13       0       0       0       0       0       0       0       0       0       0       
      +0       0       0       0       0       0       0       0       0       0       0       0       0       0       0
  6816 ;;      Temps:          0       5       0       0       0       0       0       0       0       0       0       0       
      +0       0       0       0       0       0       0       0       0       0       0       0       0       0       0
  6817 ;;      Totals:         0      26       0       0       0       0       0       0       0       0       0       0       
      +0       0       0       0       0       0       0       0       0       0       0       0       0       0       0
  6818 ;;Total ram usage:       26 bytes
  6819 ;; Hardware stack levels used: 1
  6820 ;; Hardware stack levels required when called: 1
  6821 ;; This function calls:
  6822 ;;		__Umul8_16
  6823 ;; This function is called by:
  6824 ;;		_main
  6825 ;; This function uses a non-reentrant model
  6826 ;;
  6827                           
  6828     0DC5                     ___flmul:	
  6829                           ;psect for function ___flmul
  6830                           
  6831     0DC5                     l3825:	
  6832                           ;incstack = 0
  6833                           ; Regs used in ___flmul: [wreg+status,2+status,0+pclath+cstack]
  6834                           
  6835     0DC5  0020               	movlb	0	; select bank0
  6836     0DC6  0823               	movf	___flmul@b+3,w
  6837     0DC7  3980               	andlw	128
  6838     0DC8  00AD               	movwf	___flmul@sign
  6839     0DC9                     l3827:
  6840     0DC9  3523               	lslf	___flmul@b+3,w
  6841     0DCA  00B3               	movwf	___flmul@bexp
  6842     0DCB                     l3829:
  6843     0DCB  1FA2               	btfss	___flmul@b+2,7
  6844     0DCC  2DCE               	goto	u4691
  6845     0DCD  2DCF               	goto	u4690
  6846     0DCE                     u4691:
  6847     0DCE  2DD0               	goto	l3833
  6848     0DCF                     u4690:
  6849     0DCF                     l3831:
  6850     0DCF  1433               	bsf	___flmul@bexp,0
  6851     0DD0                     l3833:
  6852     0DD0  0833               	movf	___flmul@bexp,w
  6853     0DD1  1903               	btfsc	3,2
  6854     0DD2  2DD4               	goto	u4701
  6855     0DD3  2DD5               	goto	u4700
  6856     0DD4                     u4701:
  6857     0DD4  2DE4               	goto	l3841
  6858     0DD5                     u4700:
  6859     0DD5                     l3835:
  6860     0DD5  0A33               	incf	___flmul@bexp,w
  6861     0DD6  1D03               	btfss	3,2
  6862     0DD7  2DD9               	goto	u4711
  6863     0DD8  2DDA               	goto	u4710
  6864     0DD9                     u4711:
  6865     0DD9  2DE2               	goto	l3839
  6866     0DDA                     u4710:
  6867     0DDA                     l3837:
  6868     0DDA  3000               	movlw	0
  6869     0DDB  00A3               	movwf	___flmul@b+3
  6870     0DDC  3000               	movlw	0
  6871     0DDD  00A2               	movwf	___flmul@b+2
  6872     0DDE  3000               	movlw	0
  6873     0DDF  00A1               	movwf	___flmul@b+1
  6874     0DE0  3000               	movlw	0
  6875     0DE1  00A0               	movwf	___flmul@b
  6876     0DE2                     l3839:
  6877     0DE2  17A2               	bsf	___flmul@b+2,7
  6878     0DE3  2DEC               	goto	l3843
  6879     0DE4                     l3841:
  6880     0DE4  3000               	movlw	0
  6881     0DE5  00A3               	movwf	___flmul@b+3
  6882     0DE6  3000               	movlw	0
  6883     0DE7  00A2               	movwf	___flmul@b+2
  6884     0DE8  3000               	movlw	0
  6885     0DE9  00A1               	movwf	___flmul@b+1
  6886     0DEA  3000               	movlw	0
  6887     0DEB  00A0               	movwf	___flmul@b
  6888     0DEC                     l3843:
  6889     0DEC  0827               	movf	___flmul@a+3,w
  6890     0DED  3980               	andlw	128
  6891     0DEE  00A8               	movwf	??___flmul
  6892     0DEF  0828               	movf	??___flmul,w
  6893     0DF0  06AD               	xorwf	___flmul@sign,f
  6894     0DF1                     l3845:
  6895     0DF1  3527               	lslf	___flmul@a+3,w
  6896     0DF2  00B2               	movwf	___flmul@aexp
  6897     0DF3                     l3847:
  6898     0DF3  1FA6               	btfss	___flmul@a+2,7
  6899     0DF4  2DF6               	goto	u4721
  6900     0DF5  2DF7               	goto	u4720
  6901     0DF6                     u4721:
  6902     0DF6  2DF8               	goto	l3851
  6903     0DF7                     u4720:
  6904     0DF7                     l3849:
  6905     0DF7  1432               	bsf	___flmul@aexp,0
  6906     0DF8                     l3851:
  6907     0DF8  0832               	movf	___flmul@aexp,w
  6908     0DF9  1903               	btfsc	3,2
  6909     0DFA  2DFC               	goto	u4731
  6910     0DFB  2DFD               	goto	u4730
  6911     0DFC                     u4731:
  6912     0DFC  2E0C               	goto	l3859
  6913     0DFD                     u4730:
  6914     0DFD                     l3853:
  6915     0DFD  0A32               	incf	___flmul@aexp,w
  6916     0DFE  1D03               	btfss	3,2
  6917     0DFF  2E01               	goto	u4741
  6918     0E00  2E02               	goto	u4740
  6919     0E01                     u4741:
  6920     0E01  2E0A               	goto	l3857
  6921     0E02                     u4740:
  6922     0E02                     l3855:
  6923     0E02  3000               	movlw	0
  6924     0E03  00A7               	movwf	___flmul@a+3
  6925     0E04  3000               	movlw	0
  6926     0E05  00A6               	movwf	___flmul@a+2
  6927     0E06  3000               	movlw	0
  6928     0E07  00A5               	movwf	___flmul@a+1
  6929     0E08  3000               	movlw	0
  6930     0E09  00A4               	movwf	___flmul@a
  6931     0E0A                     l3857:
  6932     0E0A  17A6               	bsf	___flmul@a+2,7
  6933     0E0B  2E14               	goto	l3861
  6934     0E0C                     l3859:
  6935     0E0C  3000               	movlw	0
  6936     0E0D  00A7               	movwf	___flmul@a+3
  6937     0E0E  3000               	movlw	0
  6938     0E0F  00A6               	movwf	___flmul@a+2
  6939     0E10  3000               	movlw	0
  6940     0E11  00A5               	movwf	___flmul@a+1
  6941     0E12  3000               	movlw	0
  6942     0E13  00A4               	movwf	___flmul@a
  6943     0E14                     l3861:
  6944     0E14  0832               	movf	___flmul@aexp,w
  6945     0E15  1903               	btfsc	3,2
  6946     0E16  2E18               	goto	u4751
  6947     0E17  2E19               	goto	u4750
  6948     0E18                     u4751:
  6949     0E18  2E1E               	goto	l3865
  6950     0E19                     u4750:
  6951     0E19                     l3863:
  6952     0E19  0833               	movf	___flmul@bexp,w
  6953     0E1A  1D03               	btfss	3,2
  6954     0E1B  2E1D               	goto	u4761
  6955     0E1C  2E1E               	goto	u4760
  6956     0E1D                     u4761:
  6957     0E1D  2E27               	goto	l3869
  6958     0E1E                     u4760:
  6959     0E1E                     l3865:
  6960     0E1E  3000               	movlw	0
  6961     0E1F  00A3               	movwf	?___flmul+3
  6962     0E20  3000               	movlw	0
  6963     0E21  00A2               	movwf	?___flmul+2
  6964     0E22  3000               	movlw	0
  6965     0E23  00A1               	movwf	?___flmul+1
  6966     0E24  3000               	movlw	0
  6967     0E25  00A0               	movwf	?___flmul
  6968     0E26  2FFF               	goto	l1047
  6969     0E27                     l3869:
  6970     0E27  0820               	movf	___flmul@b,w
  6971     0E28  00F0               	movwf	__Umul8_16@multiplicand
  6972     0E29  0826               	movf	___flmul@a+2,w
  6973     0E2A  3190  2004  318D   	fcall	__Umul8_16
  6974     0E2D  0871               	movf	?__Umul8_16+1,w
  6975     0E2E  0020               	movlb	0	; select bank0
  6976     0E2F  00B9               	movwf	___flmul@temp+1
  6977     0E30  0870               	movf	?__Umul8_16,w
  6978     0E31  00B8               	movwf	___flmul@temp
  6979     0E32                     l3871:
  6980     0E32  0838               	movf	___flmul@temp,w
  6981     0E33  00A8               	movwf	??___flmul
  6982     0E34  01A9               	clrf	??___flmul+1
  6983     0E35  01AA               	clrf	??___flmul+2
  6984     0E36  01AB               	clrf	??___flmul+3
  6985     0E37  082B               	movf	??___flmul+3,w
  6986     0E38  00B1               	movwf	___flmul@grs+3
  6987     0E39  082A               	movf	??___flmul+2,w
  6988     0E3A  00B0               	movwf	___flmul@grs+2
  6989     0E3B  0829               	movf	??___flmul+1,w
  6990     0E3C  00AF               	movwf	___flmul@grs+1
  6991     0E3D  0828               	movf	??___flmul,w
  6992     0E3E  00AE               	movwf	___flmul@grs
  6993     0E3F                     l3873:
  6994     0E3F  0839               	movf	___flmul@temp+1,w
  6995     0E40  00A8               	movwf	??___flmul
  6996     0E41  01A9               	clrf	??___flmul+1
  6997     0E42  01AA               	clrf	??___flmul+2
  6998     0E43  01AB               	clrf	??___flmul+3
  6999     0E44  082B               	movf	??___flmul+3,w
  7000     0E45  00B7               	movwf	___flmul@prod+3
  7001     0E46  082A               	movf	??___flmul+2,w
  7002     0E47  00B6               	movwf	___flmul@prod+2
  7003     0E48  0829               	movf	??___flmul+1,w
  7004     0E49  00B5               	movwf	___flmul@prod+1
  7005     0E4A  0828               	movf	??___flmul,w
  7006     0E4B  00B4               	movwf	___flmul@prod
  7007     0E4C  0821               	movf	___flmul@b+1,w
  7008     0E4D  00F0               	movwf	__Umul8_16@multiplicand
  7009     0E4E  0825               	movf	___flmul@a+1,w
  7010     0E4F  3190  2004  318D   	fcall	__Umul8_16
  7011     0E52  0871               	movf	?__Umul8_16+1,w
  7012     0E53  0020               	movlb	0	; select bank0
  7013     0E54  00B9               	movwf	___flmul@temp+1
  7014     0E55  0870               	movf	?__Umul8_16,w
  7015     0E56  00B8               	movwf	___flmul@temp
  7016     0E57                     l3875:
  7017     0E57  0838               	movf	___flmul@temp,w
  7018     0E58  00A8               	movwf	??___flmul
  7019     0E59  01A9               	clrf	??___flmul+1
  7020     0E5A  01AA               	clrf	??___flmul+2
  7021     0E5B  01AB               	clrf	??___flmul+3
  7022     0E5C  0828               	movf	??___flmul,w
  7023     0E5D  07AE               	addwf	___flmul@grs,f
  7024     0E5E  0829               	movf	??___flmul+1,w
  7025     0E5F  3DAF               	addwfc	___flmul@grs+1,f
  7026     0E60  082A               	movf	??___flmul+2,w
  7027     0E61  3DB0               	addwfc	___flmul@grs+2,f
  7028     0E62  082B               	movf	??___flmul+3,w
  7029     0E63  3DB1               	addwfc	___flmul@grs+3,f
  7030     0E64                     l3877:
  7031     0E64  0839               	movf	___flmul@temp+1,w
  7032     0E65  00A8               	movwf	??___flmul
  7033     0E66  01A9               	clrf	??___flmul+1
  7034     0E67  01AA               	clrf	??___flmul+2
  7035     0E68  01AB               	clrf	??___flmul+3
  7036     0E69  0828               	movf	??___flmul,w
  7037     0E6A  07B4               	addwf	___flmul@prod,f
  7038     0E6B  0829               	movf	??___flmul+1,w
  7039     0E6C  3DB5               	addwfc	___flmul@prod+1,f
  7040     0E6D  082A               	movf	??___flmul+2,w
  7041     0E6E  3DB6               	addwfc	___flmul@prod+2,f
  7042     0E6F  082B               	movf	??___flmul+3,w
  7043     0E70  3DB7               	addwfc	___flmul@prod+3,f
  7044     0E71  0822               	movf	___flmul@b+2,w
  7045     0E72  00F0               	movwf	__Umul8_16@multiplicand
  7046     0E73  0824               	movf	___flmul@a,w
  7047     0E74  3190  2004  318D   	fcall	__Umul8_16
  7048     0E77  0871               	movf	?__Umul8_16+1,w
  7049     0E78  0020               	movlb	0	; select bank0
  7050     0E79  00B9               	movwf	___flmul@temp+1
  7051     0E7A  0870               	movf	?__Umul8_16,w
  7052     0E7B  00B8               	movwf	___flmul@temp
  7053     0E7C                     l3879:
  7054     0E7C  0838               	movf	___flmul@temp,w
  7055     0E7D  00A8               	movwf	??___flmul
  7056     0E7E  01A9               	clrf	??___flmul+1
  7057     0E7F  01AA               	clrf	??___flmul+2
  7058     0E80  01AB               	clrf	??___flmul+3
  7059     0E81  0828               	movf	??___flmul,w
  7060     0E82  07AE               	addwf	___flmul@grs,f
  7061     0E83  0829               	movf	??___flmul+1,w
  7062     0E84  3DAF               	addwfc	___flmul@grs+1,f
  7063     0E85  082A               	movf	??___flmul+2,w
  7064     0E86  3DB0               	addwfc	___flmul@grs+2,f
  7065     0E87  082B               	movf	??___flmul+3,w
  7066     0E88  3DB1               	addwfc	___flmul@grs+3,f
  7067     0E89                     l3881:
  7068     0E89  0839               	movf	___flmul@temp+1,w
  7069     0E8A  00A8               	movwf	??___flmul
  7070     0E8B  01A9               	clrf	??___flmul+1
  7071     0E8C  01AA               	clrf	??___flmul+2
  7072     0E8D  01AB               	clrf	??___flmul+3
  7073     0E8E  0828               	movf	??___flmul,w
  7074     0E8F  07B4               	addwf	___flmul@prod,f
  7075     0E90  0829               	movf	??___flmul+1,w
  7076     0E91  3DB5               	addwfc	___flmul@prod+1,f
  7077     0E92  082A               	movf	??___flmul+2,w
  7078     0E93  3DB6               	addwfc	___flmul@prod+2,f
  7079     0E94  082B               	movf	??___flmul+3,w
  7080     0E95  3DB7               	addwfc	___flmul@prod+3,f
  7081     0E96                     l3883:
  7082     0E96  3008               	movlw	8
  7083     0E97                     u4775:
  7084     0E97  35AE               	lslf	___flmul@grs,f
  7085     0E98  0DAF               	rlf	___flmul@grs+1,f
  7086     0E99  0DB0               	rlf	___flmul@grs+2,f
  7087     0E9A  0DB1               	rlf	___flmul@grs+3,f
  7088     0E9B  0B89               	decfsz	9,f
  7089     0E9C  2E97               	goto	u4775
  7090     0E9D                     l3885:
  7091     0E9D  0821               	movf	___flmul@b+1,w
  7092     0E9E  00F0               	movwf	__Umul8_16@multiplicand
  7093     0E9F  0824               	movf	___flmul@a,w
  7094     0EA0  3190  2004  318D   	fcall	__Umul8_16
  7095     0EA3  0871               	movf	?__Umul8_16+1,w
  7096     0EA4  0020               	movlb	0	; select bank0
  7097     0EA5  00B9               	movwf	___flmul@temp+1
  7098     0EA6  0870               	movf	?__Umul8_16,w
  7099     0EA7  00B8               	movwf	___flmul@temp
  7100     0EA8                     l3887:
  7101     0EA8  0838               	movf	___flmul@temp,w
  7102     0EA9  07AE               	addwf	___flmul@grs,f
  7103     0EAA  0839               	movf	___flmul@temp+1,w
  7104     0EAB  3DAF               	addwfc	___flmul@grs+1,f
  7105     0EAC  3000               	movlw	0
  7106     0EAD  3DB0               	addwfc	___flmul@grs+2,f
  7107     0EAE  3DB1               	addwfc	___flmul@grs+3,f
  7108     0EAF                     l3889:
  7109     0EAF  0820               	movf	___flmul@b,w
  7110     0EB0  00F0               	movwf	__Umul8_16@multiplicand
  7111     0EB1  0825               	movf	___flmul@a+1,w
  7112     0EB2  3190  2004  318D   	fcall	__Umul8_16
  7113     0EB5  0871               	movf	?__Umul8_16+1,w
  7114     0EB6  0020               	movlb	0	; select bank0
  7115     0EB7  00B9               	movwf	___flmul@temp+1
  7116     0EB8  0870               	movf	?__Umul8_16,w
  7117     0EB9  00B8               	movwf	___flmul@temp
  7118     0EBA                     l3891:
  7119     0EBA  0838               	movf	___flmul@temp,w
  7120     0EBB  07AE               	addwf	___flmul@grs,f
  7121     0EBC  0839               	movf	___flmul@temp+1,w
  7122     0EBD  3DAF               	addwfc	___flmul@grs+1,f
  7123     0EBE  3000               	movlw	0
  7124     0EBF  3DB0               	addwfc	___flmul@grs+2,f
  7125     0EC0  3DB1               	addwfc	___flmul@grs+3,f
  7126     0EC1                     l3893:
  7127     0EC1  3008               	movlw	8
  7128     0EC2                     u4785:
  7129     0EC2  35AE               	lslf	___flmul@grs,f
  7130     0EC3  0DAF               	rlf	___flmul@grs+1,f
  7131     0EC4  0DB0               	rlf	___flmul@grs+2,f
  7132     0EC5  0DB1               	rlf	___flmul@grs+3,f
  7133     0EC6  0B89               	decfsz	9,f
  7134     0EC7  2EC2               	goto	u4785
  7135     0EC8  0820               	movf	___flmul@b,w
  7136     0EC9  00F0               	movwf	__Umul8_16@multiplicand
  7137     0ECA  0824               	movf	___flmul@a,w
  7138     0ECB  3190  2004  318D   	fcall	__Umul8_16
  7139     0ECE  0871               	movf	?__Umul8_16+1,w
  7140     0ECF  0020               	movlb	0	; select bank0
  7141     0ED0  00B9               	movwf	___flmul@temp+1
  7142     0ED1  0870               	movf	?__Umul8_16,w
  7143     0ED2  00B8               	movwf	___flmul@temp
  7144     0ED3                     l3895:
  7145     0ED3  0838               	movf	___flmul@temp,w
  7146     0ED4  07AE               	addwf	___flmul@grs,f
  7147     0ED5  0839               	movf	___flmul@temp+1,w
  7148     0ED6  3DAF               	addwfc	___flmul@grs+1,f
  7149     0ED7  3000               	movlw	0
  7150     0ED8  3DB0               	addwfc	___flmul@grs+2,f
  7151     0ED9  3DB1               	addwfc	___flmul@grs+3,f
  7152     0EDA                     l3897:
  7153     0EDA  0821               	movf	___flmul@b+1,w
  7154     0EDB  00F0               	movwf	__Umul8_16@multiplicand
  7155     0EDC  0826               	movf	___flmul@a+2,w
  7156     0EDD  3190  2004  318D   	fcall	__Umul8_16
  7157     0EE0  0871               	movf	?__Umul8_16+1,w
  7158     0EE1  0020               	movlb	0	; select bank0
  7159     0EE2  00B9               	movwf	___flmul@temp+1
  7160     0EE3  0870               	movf	?__Umul8_16,w
  7161     0EE4  00B8               	movwf	___flmul@temp
  7162     0EE5  0838               	movf	___flmul@temp,w
  7163     0EE6  07B4               	addwf	___flmul@prod,f
  7164     0EE7  0839               	movf	___flmul@temp+1,w
  7165     0EE8  3DB5               	addwfc	___flmul@prod+1,f
  7166     0EE9  3000               	movlw	0
  7167     0EEA  3DB6               	addwfc	___flmul@prod+2,f
  7168     0EEB  3DB7               	addwfc	___flmul@prod+3,f
  7169     0EEC                     l3899:
  7170     0EEC  0822               	movf	___flmul@b+2,w
  7171     0EED  00F0               	movwf	__Umul8_16@multiplicand
  7172     0EEE  0825               	movf	___flmul@a+1,w
  7173     0EEF  3190  2004  318D   	fcall	__Umul8_16
  7174     0EF2  0871               	movf	?__Umul8_16+1,w
  7175     0EF3  0020               	movlb	0	; select bank0
  7176     0EF4  00B9               	movwf	___flmul@temp+1
  7177     0EF5  0870               	movf	?__Umul8_16,w
  7178     0EF6  00B8               	movwf	___flmul@temp
  7179     0EF7                     l3901:
  7180     0EF7  0838               	movf	___flmul@temp,w
  7181     0EF8  07B4               	addwf	___flmul@prod,f
  7182     0EF9  0839               	movf	___flmul@temp+1,w
  7183     0EFA  3DB5               	addwfc	___flmul@prod+1,f
  7184     0EFB  3000               	movlw	0
  7185     0EFC  3DB6               	addwfc	___flmul@prod+2,f
  7186     0EFD  3DB7               	addwfc	___flmul@prod+3,f
  7187     0EFE  0822               	movf	___flmul@b+2,w
  7188     0EFF  00F0               	movwf	__Umul8_16@multiplicand
  7189     0F00  0826               	movf	___flmul@a+2,w
  7190     0F01  3190  2004  318D   	fcall	__Umul8_16
  7191     0F04  0871               	movf	?__Umul8_16+1,w
  7192     0F05  0020               	movlb	0	; select bank0
  7193     0F06  00B9               	movwf	___flmul@temp+1
  7194     0F07  0870               	movf	?__Umul8_16,w
  7195     0F08  00B8               	movwf	___flmul@temp
  7196     0F09                     l3903:
  7197     0F09  0838               	movf	___flmul@temp,w
  7198     0F0A  00A8               	movwf	??___flmul
  7199     0F0B  0839               	movf	___flmul@temp+1,w
  7200     0F0C  00A9               	movwf	??___flmul+1
  7201     0F0D  01AA               	clrf	??___flmul+2
  7202     0F0E  01AB               	clrf	??___flmul+3
  7203     0F0F  3008               	movlw	8
  7204     0F10                     u4795:
  7205     0F10  35A8               	lslf	??___flmul,f
  7206     0F11  0DA9               	rlf	??___flmul+1,f
  7207     0F12  0DAA               	rlf	??___flmul+2,f
  7208     0F13  0DAB               	rlf	??___flmul+3,f
  7209     0F14                     u4790:
  7210     0F14  0B89               	decfsz	9,f
  7211     0F15  2F10               	goto	u4795
  7212     0F16  0828               	movf	??___flmul,w
  7213     0F17  07B4               	addwf	___flmul@prod,f
  7214     0F18  0829               	movf	??___flmul+1,w
  7215     0F19  3DB5               	addwfc	___flmul@prod+1,f
  7216     0F1A  082A               	movf	??___flmul+2,w
  7217     0F1B  3DB6               	addwfc	___flmul@prod+2,f
  7218     0F1C  082B               	movf	??___flmul+3,w
  7219     0F1D  3DB7               	addwfc	___flmul@prod+3,f
  7220     0F1E                     l3905:
  7221     0F1E  082E               	movf	___flmul@grs,w
  7222     0F1F  00A8               	movwf	??___flmul
  7223     0F20  082F               	movf	___flmul@grs+1,w
  7224     0F21  00A9               	movwf	??___flmul+1
  7225     0F22  0830               	movf	___flmul@grs+2,w
  7226     0F23  00AA               	movwf	??___flmul+2
  7227     0F24  0831               	movf	___flmul@grs+3,w
  7228     0F25  00AB               	movwf	??___flmul+3
  7229     0F26  3018               	movlw	24
  7230     0F27                     u4805:
  7231     0F27  36AB               	lsrf	??___flmul+3,f
  7232     0F28  0CAA               	rrf	??___flmul+2,f
  7233     0F29  0CA9               	rrf	??___flmul+1,f
  7234     0F2A  0CA8               	rrf	??___flmul,f
  7235     0F2B                     u4800:
  7236     0F2B  0B89               	decfsz	9,f
  7237     0F2C  2F27               	goto	u4805
  7238     0F2D  0828               	movf	??___flmul,w
  7239     0F2E  07B4               	addwf	___flmul@prod,f
  7240     0F2F  0829               	movf	??___flmul+1,w
  7241     0F30  3DB5               	addwfc	___flmul@prod+1,f
  7242     0F31  082A               	movf	??___flmul+2,w
  7243     0F32  3DB6               	addwfc	___flmul@prod+2,f
  7244     0F33  082B               	movf	??___flmul+3,w
  7245     0F34  3DB7               	addwfc	___flmul@prod+3,f
  7246     0F35                     l3907:
  7247     0F35  3008               	movlw	8
  7248     0F36                     u4815:
  7249     0F36  35AE               	lslf	___flmul@grs,f
  7250     0F37  0DAF               	rlf	___flmul@grs+1,f
  7251     0F38  0DB0               	rlf	___flmul@grs+2,f
  7252     0F39  0DB1               	rlf	___flmul@grs+3,f
  7253     0F3A  0B89               	decfsz	9,f
  7254     0F3B  2F36               	goto	u4815
  7255     0F3C                     l3909:
  7256     0F3C  0833               	movf	___flmul@bexp,w
  7257     0F3D  0732               	addwf	___flmul@aexp,w
  7258     0F3E  00A8               	movwf	??___flmul
  7259     0F3F  01A9               	clrf	??___flmul+1
  7260     0F40  0DA9               	rlf	??___flmul+1,f
  7261     0F41  0828               	movf	??___flmul,w
  7262     0F42  3E82               	addlw	130
  7263     0F43  00B8               	movwf	___flmul@temp
  7264     0F44  30FF               	movlw	255
  7265     0F45  3D29               	addwfc	??___flmul+1,w
  7266     0F46  00B9               	movwf	___flmul@temp+1
  7267     0F47  2F5F               	goto	l3921
  7268     0F48                     l3911:
  7269     0F48  3001               	movlw	1
  7270     0F49                     u4825:
  7271     0F49  35B4               	lslf	___flmul@prod,f
  7272     0F4A  0DB5               	rlf	___flmul@prod+1,f
  7273     0F4B  0DB6               	rlf	___flmul@prod+2,f
  7274     0F4C  0DB7               	rlf	___flmul@prod+3,f
  7275     0F4D  0B89               	decfsz	9,f
  7276     0F4E  2F49               	goto	u4825
  7277     0F4F                     l3913:
  7278     0F4F  1FB1               	btfss	___flmul@grs+3,7
  7279     0F50  2F52               	goto	u4831
  7280     0F51  2F53               	goto	u4830
  7281     0F52                     u4831:
  7282     0F52  2F54               	goto	l3917
  7283     0F53                     u4830:
  7284     0F53                     l3915:
  7285     0F53  1434               	bsf	___flmul@prod,0
  7286     0F54                     l3917:
  7287     0F54  3001               	movlw	1
  7288     0F55                     u4845:
  7289     0F55  35AE               	lslf	___flmul@grs,f
  7290     0F56  0DAF               	rlf	___flmul@grs+1,f
  7291     0F57  0DB0               	rlf	___flmul@grs+2,f
  7292     0F58  0DB1               	rlf	___flmul@grs+3,f
  7293     0F59  0B89               	decfsz	9,f
  7294     0F5A  2F55               	goto	u4845
  7295     0F5B                     l3919:
  7296     0F5B  30FF               	movlw	255
  7297     0F5C  07B8               	addwf	___flmul@temp,f
  7298     0F5D  30FF               	movlw	255
  7299     0F5E  3DB9               	addwfc	___flmul@temp+1,f
  7300     0F5F                     l3921:
  7301     0F5F  1FB6               	btfss	___flmul@prod+2,7
  7302     0F60  2F62               	goto	u4851
  7303     0F61  2F63               	goto	u4850
  7304     0F62                     u4851:
  7305     0F62  2F48               	goto	l3911
  7306     0F63                     u4850:
  7307     0F63                     l3923:
  7308     0F63  01B2               	clrf	___flmul@aexp
  7309     0F64                     l3925:
  7310     0F64  1FB1               	btfss	___flmul@grs+3,7
  7311     0F65  2F67               	goto	u4861
  7312     0F66  2F68               	goto	u4860
  7313     0F67                     u4861:
  7314     0F67  2F84               	goto	l3933
  7315     0F68                     u4860:
  7316     0F68                     l3927:
  7317     0F68  30FF               	movlw	255
  7318     0F69  052E               	andwf	___flmul@grs,w
  7319     0F6A  00A8               	movwf	??___flmul
  7320     0F6B  30FF               	movlw	255
  7321     0F6C  052F               	andwf	___flmul@grs+1,w
  7322     0F6D  00A9               	movwf	??___flmul+1
  7323     0F6E  30FF               	movlw	255
  7324     0F6F  0530               	andwf	___flmul@grs+2,w
  7325     0F70  00AA               	movwf	??___flmul+2
  7326     0F71  307F               	movlw	127
  7327     0F72  0531               	andwf	___flmul@grs+3,w
  7328     0F73  00AB               	movwf	??___flmul+3
  7329     0F74  082B               	movf	??___flmul+3,w
  7330     0F75  042A               	iorwf	??___flmul+2,w
  7331     0F76  0429               	iorwf	??___flmul+1,w
  7332     0F77  0428               	iorwf	??___flmul,w
  7333     0F78  1903               	skipnz
  7334     0F79  2F7B               	goto	u4871
  7335     0F7A  2F7C               	goto	u4870
  7336     0F7B                     u4871:
  7337     0F7B  2F7F               	goto	l1053
  7338     0F7C                     u4870:
  7339     0F7C                     l3929:
  7340     0F7C  01B2               	clrf	___flmul@aexp
  7341     0F7D  0AB2               	incf	___flmul@aexp,f
  7342     0F7E  2F84               	goto	l3933
  7343     0F7F                     l1053:
  7344     0F7F  1C34               	btfss	___flmul@prod,0
  7345     0F80  2F82               	goto	u4881
  7346     0F81  2F83               	goto	u4880
  7347     0F82                     u4881:
  7348     0F82  2F84               	goto	l3933
  7349     0F83                     u4880:
  7350     0F83  2F7C               	goto	l3929
  7351     0F84                     l3933:
  7352     0F84  0832               	movf	___flmul@aexp,w
  7353     0F85  1903               	btfsc	3,2
  7354     0F86  2F88               	goto	u4891
  7355     0F87  2F89               	goto	u4890
  7356     0F88                     u4891:
  7357     0F88  2FB1               	goto	l3943
  7358     0F89                     u4890:
  7359     0F89                     l3935:
  7360     0F89  3001               	movlw	1
  7361     0F8A  07B4               	addwf	___flmul@prod,f
  7362     0F8B  3000               	movlw	0
  7363     0F8C  3DB5               	addwfc	___flmul@prod+1,f
  7364     0F8D  3000               	movlw	0
  7365     0F8E  3DB6               	addwfc	___flmul@prod+2,f
  7366     0F8F  3000               	movlw	0
  7367     0F90  3DB7               	addwfc	___flmul@prod+3,f
  7368     0F91                     l3937:
  7369     0F91  1C37               	btfss	___flmul@prod+3,0
  7370     0F92  2F94               	goto	u4901
  7371     0F93  2F95               	goto	u4900
  7372     0F94                     u4901:
  7373     0F94  2FB1               	goto	l3943
  7374     0F95                     u4900:
  7375     0F95                     l3939:
  7376     0F95  0834               	movf	___flmul@prod,w
  7377     0F96  00A8               	movwf	??___flmul
  7378     0F97  0835               	movf	___flmul@prod+1,w
  7379     0F98  00A9               	movwf	??___flmul+1
  7380     0F99  0836               	movf	___flmul@prod+2,w
  7381     0F9A  00AA               	movwf	??___flmul+2
  7382     0F9B  0837               	movf	___flmul@prod+3,w
  7383     0F9C  00AB               	movwf	??___flmul+3
  7384     0F9D  3001               	movlw	1
  7385     0F9E  00AC               	movwf	??___flmul+4
  7386     0F9F                     u4915:
  7387     0F9F  37AB               	asrf	??___flmul+3,f
  7388     0FA0  0CAA               	rrf	??___flmul+2,f
  7389     0FA1  0CA9               	rrf	??___flmul+1,f
  7390     0FA2  0CA8               	rrf	??___flmul,f
  7391     0FA3                     u4910:
  7392     0FA3  0BAC               	decfsz	??___flmul+4,f
  7393     0FA4  2F9F               	goto	u4915
  7394     0FA5  082B               	movf	??___flmul+3,w
  7395     0FA6  00B7               	movwf	___flmul@prod+3
  7396     0FA7  082A               	movf	??___flmul+2,w
  7397     0FA8  00B6               	movwf	___flmul@prod+2
  7398     0FA9  0829               	movf	??___flmul+1,w
  7399     0FAA  00B5               	movwf	___flmul@prod+1
  7400     0FAB  0828               	movf	??___flmul,w
  7401     0FAC  00B4               	movwf	___flmul@prod
  7402     0FAD                     l3941:
  7403     0FAD  3001               	movlw	1
  7404     0FAE  07B8               	addwf	___flmul@temp,f
  7405     0FAF  3000               	movlw	0
  7406     0FB0  3DB9               	addwfc	___flmul@temp+1,f
  7407     0FB1                     l3943:
  7408     0FB1  0839               	movf	___flmul@temp+1,w
  7409     0FB2  3A80               	xorlw	128
  7410     0FB3  00A8               	movwf	??___flmul
  7411     0FB4  3080               	movlw	128
  7412     0FB5  0228               	subwf	??___flmul,w
  7413     0FB6  1D03               	skipz
  7414     0FB7  2FBA               	goto	u4925
  7415     0FB8  30FF               	movlw	255
  7416     0FB9  0238               	subwf	___flmul@temp,w
  7417     0FBA                     u4925:
  7418     0FBA  1C03               	skipc
  7419     0FBB  2FBD               	goto	u4921
  7420     0FBC  2FBE               	goto	u4920
  7421     0FBD                     u4921:
  7422     0FBD  2FC8               	goto	l3947
  7423     0FBE                     u4920:
  7424     0FBE                     l3945:
  7425     0FBE  307F               	movlw	127
  7426     0FBF  0020               	movlb	0	; select bank0
  7427     0FC0  00B7               	movwf	___flmul@prod+3
  7428     0FC1  3080               	movlw	128
  7429     0FC2  00B6               	movwf	___flmul@prod+2
  7430     0FC3  3000               	movlw	0
  7431     0FC4  00B5               	movwf	___flmul@prod+1
  7432     0FC5  3000               	movlw	0
  7433     0FC6  00B4               	movwf	___flmul@prod
  7434     0FC7  2FF3               	goto	l1059
  7435     0FC8                     l3947:
  7436     0FC8  0020               	movlb	0	; select bank0
  7437     0FC9  0839               	movf	___flmul@temp+1,w
  7438     0FCA  3A80               	xorlw	128
  7439     0FCB  00A8               	movwf	??___flmul
  7440     0FCC  3080               	movlw	128
  7441     0FCD  0228               	subwf	??___flmul,w
  7442     0FCE  1D03               	skipz
  7443     0FCF  2FD2               	goto	u4935
  7444     0FD0  3001               	movlw	1
  7445     0FD1  0238               	subwf	___flmul@temp,w
  7446     0FD2                     u4935:
  7447     0FD2  1803               	skipnc
  7448     0FD3  2FD5               	goto	u4931
  7449     0FD4  2FD6               	goto	u4930
  7450     0FD5                     u4931:
  7451     0FD5  2FE1               	goto	l3953
  7452     0FD6                     u4930:
  7453     0FD6                     l3949:
  7454     0FD6  3000               	movlw	0
  7455     0FD7  0020               	movlb	0	; select bank0
  7456     0FD8  00B7               	movwf	___flmul@prod+3
  7457     0FD9  3000               	movlw	0
  7458     0FDA  00B6               	movwf	___flmul@prod+2
  7459     0FDB  3000               	movlw	0
  7460     0FDC  00B5               	movwf	___flmul@prod+1
  7461     0FDD  3000               	movlw	0
  7462     0FDE  00B4               	movwf	___flmul@prod
  7463     0FDF                     l3951:
  7464     0FDF  01AD               	clrf	___flmul@sign
  7465     0FE0  2FF3               	goto	l1059
  7466     0FE1                     l3953:
  7467     0FE1  0020               	movlb	0	; select bank0
  7468     0FE2  0838               	movf	___flmul@temp,w
  7469     0FE3  00B3               	movwf	___flmul@bexp
  7470     0FE4  30FF               	movlw	255
  7471     0FE5  05B4               	andwf	___flmul@prod,f
  7472     0FE6  30FF               	movlw	255
  7473     0FE7  05B5               	andwf	___flmul@prod+1,f
  7474     0FE8  307F               	movlw	127
  7475     0FE9  05B6               	andwf	___flmul@prod+2,f
  7476     0FEA  3000               	movlw	0
  7477     0FEB  05B7               	andwf	___flmul@prod+3,f
  7478     0FEC                     l3955:
  7479     0FEC  1C33               	btfss	___flmul@bexp,0
  7480     0FED  2FEF               	goto	u4941
  7481     0FEE  2FF0               	goto	u4940
  7482     0FEF                     u4941:
  7483     0FEF  2FF1               	goto	l3959
  7484     0FF0                     u4940:
  7485     0FF0                     l3957:
  7486     0FF0  17B6               	bsf	___flmul@prod+2,7
  7487     0FF1                     l3959:
  7488     0FF1  3633               	lsrf	___flmul@bexp,w
  7489     0FF2  00B7               	movwf	___flmul@prod+3
  7490     0FF3                     l1059:
  7491     0FF3  082D               	movf	___flmul@sign,w
  7492     0FF4  00A8               	movwf	??___flmul
  7493     0FF5  0828               	movf	??___flmul,w
  7494     0FF6  04B7               	iorwf	___flmul@prod+3,f
  7495     0FF7                     l3961:
  7496     0FF7  0837               	movf	___flmul@prod+3,w
  7497     0FF8  00A3               	movwf	?___flmul+3
  7498     0FF9  0836               	movf	___flmul@prod+2,w
  7499     0FFA  00A2               	movwf	?___flmul+2
  7500     0FFB  0835               	movf	___flmul@prod+1,w
  7501     0FFC  00A1               	movwf	?___flmul+1
  7502     0FFD  0834               	movf	___flmul@prod,w
  7503     0FFE  00A0               	movwf	?___flmul
  7504     0FFF                     l1047:
  7505     0FFF  0008               	return
  7506     1000                     __end_of___flmul:
  7507                           
  7508                           	psect	text25
  7509     1004                     __ptext25:	
  7510 ;; *************** function __Umul8_16 *****************
  7511 ;; Defined at:
  7512 ;;		line 4 in file "C:\Program Files\Microchip\xc8\v2.41\pic\sources\c90\common\Umul8_16.c"
  7513 ;; Parameters:    Size  Location     Type
  7514 ;;  multiplier      1    wreg     unsigned char 
  7515 ;;  multiplicand    1    0[COMMON] unsigned char 
  7516 ;; Auto vars:     Size  Location     Type
  7517 ;;  multiplier      1    8[COMMON] unsigned char 
  7518 ;;  word_mpld       2    6[COMMON] unsigned int 
  7519 ;;  product         2    4[COMMON] unsigned int 
  7520 ;; Return value:  Size  Location     Type
  7521 ;;                  2    0[COMMON] unsigned int 
  7522 ;; Registers used:
  7523 ;;		wreg, status,2, status,0
  7524 ;; Tracked objects:
  7525 ;;		On entry : 0/0
  7526 ;;		On exit  : 0/0
  7527 ;;		Unchanged: 0/0
  7528 ;; Data sizes:     COMMON   BANK0   BANK1   BANK2   BANK3   BANK4   BANK5   BANK6   BANK7   BANK8   BANK9  BANK10  BANK1
      +1  BANK12  BANK13  BANK14  BANK15  BANK16  BANK17  BANK18  BANK19  BANK20  BANK21  BANK22  BANK23  BANK24  BANK25
  7529 ;;      Params:         2       0       0       0       0       0       0       0       0       0       0       0       
      +0       0       0       0       0       0       0       0       0       0       0       0       0       0       0
  7530 ;;      Locals:         5       0       0       0       0       0       0       0       0       0       0       0       
      +0       0       0       0       0       0       0       0       0       0       0       0       0       0       0
  7531 ;;      Temps:          2       0       0       0       0       0       0       0       0       0       0       0       
      +0       0       0       0       0       0       0       0       0       0       0       0       0       0       0
  7532 ;;      Totals:         9       0       0       0       0       0       0       0       0       0       0       0       
      +0       0       0       0       0       0       0       0       0       0       0       0       0       0       0
  7533 ;;Total ram usage:        9 bytes
  7534 ;; Hardware stack levels used: 1
  7535 ;; This function calls:
  7536 ;;		Nothing
  7537 ;; This function is called by:
  7538 ;;		___flmul
  7539 ;; This function uses a non-reentrant model
  7540 ;;
  7541                           
  7542     1004                     __Umul8_16:	
  7543                           ;psect for function __Umul8_16
  7544                           
  7545                           
  7546                           ;incstack = 0
  7547                           ; Regs used in __Umul8_16: [wreg+status,2+status,0]
  7548                           ;__Umul8_16@multiplier stored from wreg
  7549     1004  00F8               	movwf	__Umul8_16@multiplier
  7550     1005                     l3161:
  7551     1005  01F4               	clrf	__Umul8_16@product
  7552     1006  01F5               	clrf	__Umul8_16@product+1
  7553     1007                     l3163:
  7554     1007  0870               	movf	__Umul8_16@multiplicand,w
  7555     1008  00F2               	movwf	??__Umul8_16
  7556     1009  01F3               	clrf	??__Umul8_16+1
  7557     100A  0872               	movf	??__Umul8_16,w
  7558     100B  00F6               	movwf	__Umul8_16@word_mpld
  7559     100C  0873               	movf	??__Umul8_16+1,w
  7560     100D  00F7               	movwf	__Umul8_16@word_mpld+1
  7561     100E                     l3165:
  7562     100E  1C78               	btfss	__Umul8_16@multiplier,0
  7563     100F  2811               	goto	u3431
  7564     1010  2812               	goto	u3430
  7565     1011                     u3431:
  7566     1011  2816               	goto	l1066
  7567     1012                     u3430:
  7568     1012                     l3167:
  7569     1012  0876               	movf	__Umul8_16@word_mpld,w
  7570     1013  07F4               	addwf	__Umul8_16@product,f
  7571     1014  0877               	movf	__Umul8_16@word_mpld+1,w
  7572     1015  3DF5               	addwfc	__Umul8_16@product+1,f
  7573     1016                     l1066:
  7574     1016  3001               	movlw	1
  7575     1017                     u3445:
  7576     1017  35F6               	lslf	__Umul8_16@word_mpld,f
  7577     1018  0DF7               	rlf	__Umul8_16@word_mpld+1,f
  7578     1019  0B89               	decfsz	9,f
  7579     101A  2817               	goto	u3445
  7580     101B  1003               	clrc
  7581     101C  0CF8               	rrf	__Umul8_16@multiplier,f
  7582     101D                     l3169:
  7583     101D  0878               	movf	__Umul8_16@multiplier,w
  7584     101E  1D03               	btfss	3,2
  7585     101F  2821               	goto	u3451
  7586     1020  2822               	goto	u3450
  7587     1021                     u3451:
  7588     1021  280E               	goto	l3165
  7589     1022                     u3450:
  7590     1022                     l3171:
  7591     1022  0875               	movf	__Umul8_16@product+1,w
  7592     1023  00F1               	movwf	?__Umul8_16+1
  7593     1024  0874               	movf	__Umul8_16@product,w
  7594     1025  00F0               	movwf	?__Umul8_16
  7595     1026                     l1068:
  7596     1026  0008               	return
  7597     1027                     __end_of__Umul8_16:
  7598                           
  7599                           	psect	text26
  7600     0A0F                     __ptext26:	
  7601 ;; *************** function ___fldiv *****************
  7602 ;; Defined at:
  7603 ;;		line 8 in file "C:\Program Files\Microchip\xc8\v2.41\pic\sources\c90\common\sprcdiv.c"
  7604 ;; Parameters:    Size  Location     Type
  7605 ;;  a               4   26[BANK0 ] unsigned int 
  7606 ;;  b               4   30[BANK0 ] unsigned int 
  7607 ;; Auto vars:     Size  Location     Type
  7608 ;;  grs             4   46[BANK0 ] unsigned long 
  7609 ;;  rem             4   39[BANK0 ] unsigned long 
  7610 ;;  new_exp         2   44[BANK0 ] int 
  7611 ;;  aexp            1   51[BANK0 ] unsigned char 
  7612 ;;  bexp            1   50[BANK0 ] unsigned char 
  7613 ;;  sign            1   43[BANK0 ] unsigned char 
  7614 ;; Return value:  Size  Location     Type
  7615 ;;                  4   26[BANK0 ] unsigned char 
  7616 ;; Registers used:
  7617 ;;		wreg, status,2, status,0
  7618 ;; Tracked objects:
  7619 ;;		On entry : 0/0
  7620 ;;		On exit  : 0/0
  7621 ;;		Unchanged: 0/0
  7622 ;; Data sizes:     COMMON   BANK0   BANK1   BANK2   BANK3   BANK4   BANK5   BANK6   BANK7   BANK8   BANK9  BANK10  BANK1
      +1  BANK12  BANK13  BANK14  BANK15  BANK16  BANK17  BANK18  BANK19  BANK20  BANK21  BANK22  BANK23  BANK24  BANK25
  7623 ;;      Params:         0       8       0       0       0       0       0       0       0       0       0       0       
      +0       0       0       0       0       0       0       0       0       0       0       0       0       0       0
  7624 ;;      Locals:         0      13       0       0       0       0       0       0       0       0       0       0       
      +0       0       0       0       0       0       0       0       0       0       0       0       0       0       0
  7625 ;;      Temps:          0       5       0       0       0       0       0       0       0       0       0       0       
      +0       0       0       0       0       0       0       0       0       0       0       0       0       0       0
  7626 ;;      Totals:         0      26       0       0       0       0       0       0       0       0       0       0       
      +0       0       0       0       0       0       0       0       0       0       0       0       0       0       0
  7627 ;;Total ram usage:       26 bytes
  7628 ;; Hardware stack levels used: 1
  7629 ;; This function calls:
  7630 ;;		Nothing
  7631 ;; This function is called by:
  7632 ;;		_main
  7633 ;; This function uses a non-reentrant model
  7634 ;;
  7635                           
  7636     0A0F                     ___fldiv:	
  7637                           ;psect for function ___fldiv
  7638                           
  7639     0A0F                     l3685:	
  7640                           ;incstack = 0
  7641                           ; Regs used in ___fldiv: [wreg+status,2+status,0]
  7642                           
  7643     0A0F  0020               	movlb	0	; select bank0
  7644     0A10  0841               	movf	___fldiv@b+3,w
  7645     0A11  3980               	andlw	128
  7646     0A12  00CB               	movwf	___fldiv@sign
  7647     0A13                     l3687:
  7648     0A13  3541               	lslf	___fldiv@b+3,w
  7649     0A14  00D2               	movwf	___fldiv@bexp
  7650     0A15                     l3689:
  7651     0A15  1FC0               	btfss	___fldiv@b+2,7
  7652     0A16  2A18               	goto	u4401
  7653     0A17  2A19               	goto	u4400
  7654     0A18                     u4401:
  7655     0A18  2A1A               	goto	l3693
  7656     0A19                     u4400:
  7657     0A19                     l3691:
  7658     0A19  1452               	bsf	___fldiv@bexp,0
  7659     0A1A                     l3693:
  7660     0A1A  0852               	movf	___fldiv@bexp,w
  7661     0A1B  1903               	btfsc	3,2
  7662     0A1C  2A1E               	goto	u4411
  7663     0A1D  2A1F               	goto	u4410
  7664     0A1E                     u4411:
  7665     0A1E  2A2F               	goto	l3703
  7666     0A1F                     u4410:
  7667     0A1F                     l3695:
  7668     0A1F  0A52               	incf	___fldiv@bexp,w
  7669     0A20  1D03               	btfss	3,2
  7670     0A21  2A23               	goto	u4421
  7671     0A22  2A24               	goto	u4420
  7672     0A23                     u4421:
  7673     0A23  2A2C               	goto	l3699
  7674     0A24                     u4420:
  7675     0A24                     l3697:
  7676     0A24  3000               	movlw	0
  7677     0A25  00C1               	movwf	___fldiv@b+3
  7678     0A26  3000               	movlw	0
  7679     0A27  00C0               	movwf	___fldiv@b+2
  7680     0A28  3000               	movlw	0
  7681     0A29  00BF               	movwf	___fldiv@b+1
  7682     0A2A  3000               	movlw	0
  7683     0A2B  00BE               	movwf	___fldiv@b
  7684     0A2C                     l3699:
  7685     0A2C  17C0               	bsf	___fldiv@b+2,7
  7686     0A2D                     l3701:
  7687     0A2D  01C1               	clrf	___fldiv@b+3
  7688     0A2E  2A37               	goto	l3705
  7689     0A2F                     l3703:
  7690     0A2F  3000               	movlw	0
  7691     0A30  00C1               	movwf	___fldiv@b+3
  7692     0A31  3000               	movlw	0
  7693     0A32  00C0               	movwf	___fldiv@b+2
  7694     0A33  3000               	movlw	0
  7695     0A34  00BF               	movwf	___fldiv@b+1
  7696     0A35  3000               	movlw	0
  7697     0A36  00BE               	movwf	___fldiv@b
  7698     0A37                     l3705:
  7699     0A37  083D               	movf	___fldiv@a+3,w
  7700     0A38  3980               	andlw	128
  7701     0A39  00C2               	movwf	??___fldiv
  7702     0A3A  0842               	movf	??___fldiv,w
  7703     0A3B  06CB               	xorwf	___fldiv@sign,f
  7704     0A3C                     l3707:
  7705     0A3C  353D               	lslf	___fldiv@a+3,w
  7706     0A3D  00D3               	movwf	___fldiv@aexp
  7707     0A3E                     l3709:
  7708     0A3E  1FBC               	btfss	___fldiv@a+2,7
  7709     0A3F  2A41               	goto	u4431
  7710     0A40  2A42               	goto	u4430
  7711     0A41                     u4431:
  7712     0A41  2A43               	goto	l3713
  7713     0A42                     u4430:
  7714     0A42                     l3711:
  7715     0A42  1453               	bsf	___fldiv@aexp,0
  7716     0A43                     l3713:
  7717     0A43  0853               	movf	___fldiv@aexp,w
  7718     0A44  1903               	btfsc	3,2
  7719     0A45  2A47               	goto	u4441
  7720     0A46  2A48               	goto	u4440
  7721     0A47                     u4441:
  7722     0A47  2A58               	goto	l3723
  7723     0A48                     u4440:
  7724     0A48                     l3715:
  7725     0A48  0A53               	incf	___fldiv@aexp,w
  7726     0A49  1D03               	btfss	3,2
  7727     0A4A  2A4C               	goto	u4451
  7728     0A4B  2A4D               	goto	u4450
  7729     0A4C                     u4451:
  7730     0A4C  2A55               	goto	l3719
  7731     0A4D                     u4450:
  7732     0A4D                     l3717:
  7733     0A4D  3000               	movlw	0
  7734     0A4E  00BD               	movwf	___fldiv@a+3
  7735     0A4F  3000               	movlw	0
  7736     0A50  00BC               	movwf	___fldiv@a+2
  7737     0A51  3000               	movlw	0
  7738     0A52  00BB               	movwf	___fldiv@a+1
  7739     0A53  3000               	movlw	0
  7740     0A54  00BA               	movwf	___fldiv@a
  7741     0A55                     l3719:
  7742     0A55  17BC               	bsf	___fldiv@a+2,7
  7743     0A56                     l3721:
  7744     0A56  01BD               	clrf	___fldiv@a+3
  7745     0A57  2A60               	goto	l1007
  7746     0A58                     l3723:
  7747     0A58  3000               	movlw	0
  7748     0A59  00BD               	movwf	___fldiv@a+3
  7749     0A5A  3000               	movlw	0
  7750     0A5B  00BC               	movwf	___fldiv@a+2
  7751     0A5C  3000               	movlw	0
  7752     0A5D  00BB               	movwf	___fldiv@a+1
  7753     0A5E  3000               	movlw	0
  7754     0A5F  00BA               	movwf	___fldiv@a
  7755     0A60                     l1007:
  7756     0A60  083D               	movf	___fldiv@a+3,w
  7757     0A61  043C               	iorwf	___fldiv@a+2,w
  7758     0A62  043B               	iorwf	___fldiv@a+1,w
  7759     0A63  043A               	iorwf	___fldiv@a,w
  7760     0A64  1D03               	skipz
  7761     0A65  2A67               	goto	u4461
  7762     0A66  2A68               	goto	u4460
  7763     0A67                     u4461:
  7764     0A67  2A81               	goto	l3733
  7765     0A68                     u4460:
  7766     0A68                     l3725:
  7767     0A68  3000               	movlw	0
  7768     0A69  00C1               	movwf	___fldiv@b+3
  7769     0A6A  3000               	movlw	0
  7770     0A6B  00C0               	movwf	___fldiv@b+2
  7771     0A6C  3000               	movlw	0
  7772     0A6D  00BF               	movwf	___fldiv@b+1
  7773     0A6E  3000               	movlw	0
  7774     0A6F  00BE               	movwf	___fldiv@b
  7775     0A70  3080               	movlw	128
  7776     0A71  04C0               	iorwf	___fldiv@b+2,f
  7777     0A72  307F               	movlw	127
  7778     0A73  04C1               	iorwf	___fldiv@b+3,f
  7779     0A74                     l3727:
  7780     0A74  084B               	movf	___fldiv@sign,w
  7781     0A75  00C2               	movwf	??___fldiv
  7782     0A76  0842               	movf	??___fldiv,w
  7783     0A77  04C1               	iorwf	___fldiv@b+3,f
  7784     0A78                     l3729:
  7785     0A78  0841               	movf	___fldiv@b+3,w
  7786     0A79  00BD               	movwf	?___fldiv+3
  7787     0A7A  0840               	movf	___fldiv@b+2,w
  7788     0A7B  00BC               	movwf	?___fldiv+2
  7789     0A7C  083F               	movf	___fldiv@b+1,w
  7790     0A7D  00BB               	movwf	?___fldiv+1
  7791     0A7E  083E               	movf	___fldiv@b,w
  7792     0A7F  00BA               	movwf	?___fldiv
  7793     0A80  2BB8               	goto	l1009
  7794     0A81                     l3733:
  7795     0A81  0852               	movf	___fldiv@bexp,w
  7796     0A82  1D03               	btfss	3,2
  7797     0A83  2A85               	goto	u4471
  7798     0A84  2A86               	goto	u4470
  7799     0A85                     u4471:
  7800     0A85  2A8F               	goto	l3739
  7801     0A86                     u4470:
  7802     0A86                     l3735:
  7803     0A86  3000               	movlw	0
  7804     0A87  00BD               	movwf	?___fldiv+3
  7805     0A88  3000               	movlw	0
  7806     0A89  00BC               	movwf	?___fldiv+2
  7807     0A8A  3000               	movlw	0
  7808     0A8B  00BB               	movwf	?___fldiv+1
  7809     0A8C  3000               	movlw	0
  7810     0A8D  00BA               	movwf	?___fldiv
  7811     0A8E  2BB8               	goto	l1009
  7812     0A8F                     l3739:
  7813     0A8F  0852               	movf	___fldiv@bexp,w
  7814     0A90  00C2               	movwf	??___fldiv
  7815     0A91  01C3               	clrf	??___fldiv+1
  7816     0A92  0843               	movf	??___fldiv+1,w
  7817     0A93  00C5               	movwf	??___fldiv+3
  7818     0A94  0853               	movf	___fldiv@aexp,w
  7819     0A95  0242               	subwf	??___fldiv,w
  7820     0A96  00C4               	movwf	??___fldiv+2
  7821     0A97  1C03               	skipc
  7822     0A98  03C5               	decf	??___fldiv+3,f
  7823     0A99  0844               	movf	??___fldiv+2,w
  7824     0A9A  3E7F               	addlw	127
  7825     0A9B  00CC               	movwf	___fldiv@new_exp
  7826     0A9C  3000               	movlw	0
  7827     0A9D  3D45               	addwfc	??___fldiv+3,w
  7828     0A9E  00CD               	movwf	___fldiv@new_exp+1
  7829     0A9F                     l3741:
  7830     0A9F  0841               	movf	___fldiv@b+3,w
  7831     0AA0  00CA               	movwf	___fldiv@rem+3
  7832     0AA1  0840               	movf	___fldiv@b+2,w
  7833     0AA2  00C9               	movwf	___fldiv@rem+2
  7834     0AA3  083F               	movf	___fldiv@b+1,w
  7835     0AA4  00C8               	movwf	___fldiv@rem+1
  7836     0AA5  083E               	movf	___fldiv@b,w
  7837     0AA6  00C7               	movwf	___fldiv@rem
  7838     0AA7                     l3743:
  7839     0AA7  3000               	movlw	0
  7840     0AA8  00C1               	movwf	___fldiv@b+3
  7841     0AA9  3000               	movlw	0
  7842     0AAA  00C0               	movwf	___fldiv@b+2
  7843     0AAB  3000               	movlw	0
  7844     0AAC  00BF               	movwf	___fldiv@b+1
  7845     0AAD  3000               	movlw	0
  7846     0AAE  00BE               	movwf	___fldiv@b
  7847     0AAF                     l3745:
  7848     0AAF  3000               	movlw	0
  7849     0AB0  00D1               	movwf	___fldiv@grs+3
  7850     0AB1  3000               	movlw	0
  7851     0AB2  00D0               	movwf	___fldiv@grs+2
  7852     0AB3  3000               	movlw	0
  7853     0AB4  00CF               	movwf	___fldiv@grs+1
  7854     0AB5  3000               	movlw	0
  7855     0AB6  00CE               	movwf	___fldiv@grs
  7856     0AB7                     l3747:
  7857     0AB7  01D3               	clrf	___fldiv@aexp
  7858     0AB8  2AF7               	goto	l3767
  7859     0AB9                     l3749:
  7860     0AB9  0853               	movf	___fldiv@aexp,w
  7861     0ABA  1903               	btfsc	3,2
  7862     0ABB  2ABD               	goto	u4481
  7863     0ABC  2ABE               	goto	u4480
  7864     0ABD                     u4481:
  7865     0ABD  2AD8               	goto	l3759
  7866     0ABE                     u4480:
  7867     0ABE                     l3751:
  7868     0ABE  3001               	movlw	1
  7869     0ABF                     u4495:
  7870     0ABF  35C7               	lslf	___fldiv@rem,f
  7871     0AC0  0DC8               	rlf	___fldiv@rem+1,f
  7872     0AC1  0DC9               	rlf	___fldiv@rem+2,f
  7873     0AC2  0DCA               	rlf	___fldiv@rem+3,f
  7874     0AC3  0B89               	decfsz	9,f
  7875     0AC4  2ABF               	goto	u4495
  7876     0AC5  3001               	movlw	1
  7877     0AC6                     u4505:
  7878     0AC6  35BE               	lslf	___fldiv@b,f
  7879     0AC7  0DBF               	rlf	___fldiv@b+1,f
  7880     0AC8  0DC0               	rlf	___fldiv@b+2,f
  7881     0AC9  0DC1               	rlf	___fldiv@b+3,f
  7882     0ACA  0B89               	decfsz	9,f
  7883     0ACB  2AC6               	goto	u4505
  7884     0ACC                     l3753:
  7885     0ACC  1FD1               	btfss	___fldiv@grs+3,7
  7886     0ACD  2ACF               	goto	u4511
  7887     0ACE  2AD0               	goto	u4510
  7888     0ACF                     u4511:
  7889     0ACF  2AD1               	goto	l3757
  7890     0AD0                     u4510:
  7891     0AD0                     l3755:
  7892     0AD0  143E               	bsf	___fldiv@b,0
  7893     0AD1                     l3757:
  7894     0AD1  3001               	movlw	1
  7895     0AD2                     u4525:
  7896     0AD2  35CE               	lslf	___fldiv@grs,f
  7897     0AD3  0DCF               	rlf	___fldiv@grs+1,f
  7898     0AD4  0DD0               	rlf	___fldiv@grs+2,f
  7899     0AD5  0DD1               	rlf	___fldiv@grs+3,f
  7900     0AD6  0B89               	decfsz	9,f
  7901     0AD7  2AD2               	goto	u4525
  7902     0AD8                     l3759:
  7903     0AD8  083D               	movf	___fldiv@a+3,w
  7904     0AD9  024A               	subwf	___fldiv@rem+3,w
  7905     0ADA  1D03               	skipz
  7906     0ADB  2AE6               	goto	u4535
  7907     0ADC  083C               	movf	___fldiv@a+2,w
  7908     0ADD  0249               	subwf	___fldiv@rem+2,w
  7909     0ADE  1D03               	skipz
  7910     0ADF  2AE6               	goto	u4535
  7911     0AE0  083B               	movf	___fldiv@a+1,w
  7912     0AE1  0248               	subwf	___fldiv@rem+1,w
  7913     0AE2  1D03               	skipz
  7914     0AE3  2AE6               	goto	u4535
  7915     0AE4  083A               	movf	___fldiv@a,w
  7916     0AE5  0247               	subwf	___fldiv@rem,w
  7917     0AE6                     u4535:
  7918     0AE6  1C03               	skipc
  7919     0AE7  2AE9               	goto	u4531
  7920     0AE8  2AEA               	goto	u4530
  7921     0AE9                     u4531:
  7922     0AE9  2AF3               	goto	l3765
  7923     0AEA                     u4530:
  7924     0AEA                     l3761:
  7925     0AEA  1751               	bsf	___fldiv@grs+3,6
  7926     0AEB                     l3763:
  7927     0AEB  083A               	movf	___fldiv@a,w
  7928     0AEC  02C7               	subwf	___fldiv@rem,f
  7929     0AED  083B               	movf	___fldiv@a+1,w
  7930     0AEE  3BC8               	subwfb	___fldiv@rem+1,f
  7931     0AEF  083C               	movf	___fldiv@a+2,w
  7932     0AF0  3BC9               	subwfb	___fldiv@rem+2,f
  7933     0AF1  083D               	movf	___fldiv@a+3,w
  7934     0AF2  3BCA               	subwfb	___fldiv@rem+3,f
  7935     0AF3                     l3765:
  7936     0AF3  3001               	movlw	1
  7937     0AF4  00C2               	movwf	??___fldiv
  7938     0AF5  0842               	movf	??___fldiv,w
  7939     0AF6  07D3               	addwf	___fldiv@aexp,f
  7940     0AF7                     l3767:
  7941     0AF7  301A               	movlw	26
  7942     0AF8  0253               	subwf	___fldiv@aexp,w
  7943     0AF9  1C03               	skipc
  7944     0AFA  2AFC               	goto	u4541
  7945     0AFB  2AFD               	goto	u4540
  7946     0AFC                     u4541:
  7947     0AFC  2AB9               	goto	l3749
  7948     0AFD                     u4540:
  7949     0AFD                     l3769:
  7950     0AFD  084A               	movf	___fldiv@rem+3,w
  7951     0AFE  0449               	iorwf	___fldiv@rem+2,w
  7952     0AFF  0448               	iorwf	___fldiv@rem+1,w
  7953     0B00  0447               	iorwf	___fldiv@rem,w
  7954     0B01  1903               	skipnz
  7955     0B02  2B04               	goto	u4551
  7956     0B03  2B05               	goto	u4550
  7957     0B04                     u4551:
  7958     0B04  2B1E               	goto	l3783
  7959     0B05                     u4550:
  7960     0B05                     l3771:
  7961     0B05  144E               	bsf	___fldiv@grs,0
  7962     0B06  2B1E               	goto	l3783
  7963     0B07                     l3773:
  7964     0B07  3001               	movlw	1
  7965     0B08                     u4565:
  7966     0B08  35BE               	lslf	___fldiv@b,f
  7967     0B09  0DBF               	rlf	___fldiv@b+1,f
  7968     0B0A  0DC0               	rlf	___fldiv@b+2,f
  7969     0B0B  0DC1               	rlf	___fldiv@b+3,f
  7970     0B0C  0B89               	decfsz	9,f
  7971     0B0D  2B08               	goto	u4565
  7972     0B0E                     l3775:
  7973     0B0E  1FD1               	btfss	___fldiv@grs+3,7
  7974     0B0F  2B11               	goto	u4571
  7975     0B10  2B12               	goto	u4570
  7976     0B11                     u4571:
  7977     0B11  2B13               	goto	l3779
  7978     0B12                     u4570:
  7979     0B12                     l3777:
  7980     0B12  143E               	bsf	___fldiv@b,0
  7981     0B13                     l3779:
  7982     0B13  3001               	movlw	1
  7983     0B14                     u4585:
  7984     0B14  35CE               	lslf	___fldiv@grs,f
  7985     0B15  0DCF               	rlf	___fldiv@grs+1,f
  7986     0B16  0DD0               	rlf	___fldiv@grs+2,f
  7987     0B17  0DD1               	rlf	___fldiv@grs+3,f
  7988     0B18  0B89               	decfsz	9,f
  7989     0B19  2B14               	goto	u4585
  7990     0B1A                     l3781:
  7991     0B1A  30FF               	movlw	255
  7992     0B1B  07CC               	addwf	___fldiv@new_exp,f
  7993     0B1C  30FF               	movlw	255
  7994     0B1D  3DCD               	addwfc	___fldiv@new_exp+1,f
  7995     0B1E                     l3783:
  7996     0B1E  1FC0               	btfss	___fldiv@b+2,7
  7997     0B1F  2B21               	goto	u4591
  7998     0B20  2B22               	goto	u4590
  7999     0B21                     u4591:
  8000     0B21  2B07               	goto	l3773
  8001     0B22                     u4590:
  8002     0B22                     l3785:
  8003     0B22  01D3               	clrf	___fldiv@aexp
  8004     0B23                     l3787:
  8005     0B23  1FD1               	btfss	___fldiv@grs+3,7
  8006     0B24  2B26               	goto	u4601
  8007     0B25  2B27               	goto	u4600
  8008     0B26                     u4601:
  8009     0B26  2B43               	goto	l3795
  8010     0B27                     u4600:
  8011     0B27                     l3789:
  8012     0B27  30FF               	movlw	255
  8013     0B28  054E               	andwf	___fldiv@grs,w
  8014     0B29  00C2               	movwf	??___fldiv
  8015     0B2A  30FF               	movlw	255
  8016     0B2B  054F               	andwf	___fldiv@grs+1,w
  8017     0B2C  00C3               	movwf	??___fldiv+1
  8018     0B2D  30FF               	movlw	255
  8019     0B2E  0550               	andwf	___fldiv@grs+2,w
  8020     0B2F  00C4               	movwf	??___fldiv+2
  8021     0B30  307F               	movlw	127
  8022     0B31  0551               	andwf	___fldiv@grs+3,w
  8023     0B32  00C5               	movwf	??___fldiv+3
  8024     0B33  0845               	movf	??___fldiv+3,w
  8025     0B34  0444               	iorwf	??___fldiv+2,w
  8026     0B35  0443               	iorwf	??___fldiv+1,w
  8027     0B36  0442               	iorwf	??___fldiv,w
  8028     0B37  1903               	skipnz
  8029     0B38  2B3A               	goto	u4611
  8030     0B39  2B3B               	goto	u4610
  8031     0B3A                     u4611:
  8032     0B3A  2B3E               	goto	l1023
  8033     0B3B                     u4610:
  8034     0B3B                     l3791:
  8035     0B3B  01D3               	clrf	___fldiv@aexp
  8036     0B3C  0AD3               	incf	___fldiv@aexp,f
  8037     0B3D  2B43               	goto	l3795
  8038     0B3E                     l1023:
  8039     0B3E  1C3E               	btfss	___fldiv@b,0
  8040     0B3F  2B41               	goto	u4621
  8041     0B40  2B42               	goto	u4620
  8042     0B41                     u4621:
  8043     0B41  2B43               	goto	l3795
  8044     0B42                     u4620:
  8045     0B42  2B3B               	goto	l3791
  8046     0B43                     l3795:
  8047     0B43  0853               	movf	___fldiv@aexp,w
  8048     0B44  1903               	btfsc	3,2
  8049     0B45  2B47               	goto	u4631
  8050     0B46  2B48               	goto	u4630
  8051     0B47                     u4631:
  8052     0B47  2B70               	goto	l3805
  8053     0B48                     u4630:
  8054     0B48                     l3797:
  8055     0B48  3001               	movlw	1
  8056     0B49  07BE               	addwf	___fldiv@b,f
  8057     0B4A  3000               	movlw	0
  8058     0B4B  3DBF               	addwfc	___fldiv@b+1,f
  8059     0B4C  3000               	movlw	0
  8060     0B4D  3DC0               	addwfc	___fldiv@b+2,f
  8061     0B4E  3000               	movlw	0
  8062     0B4F  3DC1               	addwfc	___fldiv@b+3,f
  8063     0B50                     l3799:
  8064     0B50  1C41               	btfss	___fldiv@b+3,0
  8065     0B51  2B53               	goto	u4641
  8066     0B52  2B54               	goto	u4640
  8067     0B53                     u4641:
  8068     0B53  2B70               	goto	l3805
  8069     0B54                     u4640:
  8070     0B54                     l3801:
  8071     0B54  083E               	movf	___fldiv@b,w
  8072     0B55  00C2               	movwf	??___fldiv
  8073     0B56  083F               	movf	___fldiv@b+1,w
  8074     0B57  00C3               	movwf	??___fldiv+1
  8075     0B58  0840               	movf	___fldiv@b+2,w
  8076     0B59  00C4               	movwf	??___fldiv+2
  8077     0B5A  0841               	movf	___fldiv@b+3,w
  8078     0B5B  00C5               	movwf	??___fldiv+3
  8079     0B5C  3001               	movlw	1
  8080     0B5D  00C6               	movwf	??___fldiv+4
  8081     0B5E                     u4655:
  8082     0B5E  37C5               	asrf	??___fldiv+3,f
  8083     0B5F  0CC4               	rrf	??___fldiv+2,f
  8084     0B60  0CC3               	rrf	??___fldiv+1,f
  8085     0B61  0CC2               	rrf	??___fldiv,f
  8086     0B62                     u4650:
  8087     0B62  0BC6               	decfsz	??___fldiv+4,f
  8088     0B63  2B5E               	goto	u4655
  8089     0B64  0845               	movf	??___fldiv+3,w
  8090     0B65  00C1               	movwf	___fldiv@b+3
  8091     0B66  0844               	movf	??___fldiv+2,w
  8092     0B67  00C0               	movwf	___fldiv@b+2
  8093     0B68  0843               	movf	??___fldiv+1,w
  8094     0B69  00BF               	movwf	___fldiv@b+1
  8095     0B6A  0842               	movf	??___fldiv,w
  8096     0B6B  00BE               	movwf	___fldiv@b
  8097     0B6C                     l3803:
  8098     0B6C  3001               	movlw	1
  8099     0B6D  07CC               	addwf	___fldiv@new_exp,f
  8100     0B6E  3000               	movlw	0
  8101     0B6F  3DCD               	addwfc	___fldiv@new_exp+1,f
  8102     0B70                     l3805:
  8103     0B70  084D               	movf	___fldiv@new_exp+1,w
  8104     0B71  3A80               	xorlw	128
  8105     0B72  00C2               	movwf	??___fldiv
  8106     0B73  3080               	movlw	128
  8107     0B74  0242               	subwf	??___fldiv,w
  8108     0B75  1D03               	skipz
  8109     0B76  2B79               	goto	u4665
  8110     0B77  30FF               	movlw	255
  8111     0B78  024C               	subwf	___fldiv@new_exp,w
  8112     0B79                     u4665:
  8113     0B79  1C03               	skipc
  8114     0B7A  2B7C               	goto	u4661
  8115     0B7B  2B7D               	goto	u4660
  8116     0B7C                     u4661:
  8117     0B7C  2B8A               	goto	l1028
  8118     0B7D                     u4660:
  8119     0B7D                     l3807:
  8120     0B7D  30FF               	movlw	255
  8121     0B7E  0020               	movlb	0	; select bank0
  8122     0B7F  00CC               	movwf	___fldiv@new_exp
  8123     0B80  3000               	movlw	0
  8124     0B81  00CD               	movwf	___fldiv@new_exp+1
  8125     0B82  3000               	movlw	0
  8126     0B83  00C1               	movwf	___fldiv@b+3
  8127     0B84  3000               	movlw	0
  8128     0B85  00C0               	movwf	___fldiv@b+2
  8129     0B86  3000               	movlw	0
  8130     0B87  00BF               	movwf	___fldiv@b+1
  8131     0B88  3000               	movlw	0
  8132     0B89  00BE               	movwf	___fldiv@b
  8133     0B8A                     l1028:
  8134     0B8A  0020               	movlb	0	; select bank0
  8135     0B8B  084D               	movf	___fldiv@new_exp+1,w
  8136     0B8C  3A80               	xorlw	128
  8137     0B8D  00C2               	movwf	??___fldiv
  8138     0B8E  3080               	movlw	128
  8139     0B8F  0242               	subwf	??___fldiv,w
  8140     0B90  1D03               	skipz
  8141     0B91  2B94               	goto	u4675
  8142     0B92  3001               	movlw	1
  8143     0B93  024C               	subwf	___fldiv@new_exp,w
  8144     0B94                     u4675:
  8145     0B94  1803               	skipnc
  8146     0B95  2B97               	goto	u4671
  8147     0B96  2B98               	goto	u4670
  8148     0B97                     u4671:
  8149     0B97  2BA4               	goto	l1029
  8150     0B98                     u4670:
  8151     0B98                     l3809:
  8152     0B98  0020               	movlb	0	; select bank0
  8153     0B99  01CC               	clrf	___fldiv@new_exp
  8154     0B9A  01CD               	clrf	___fldiv@new_exp+1
  8155     0B9B                     l3811:
  8156     0B9B  3000               	movlw	0
  8157     0B9C  00C1               	movwf	___fldiv@b+3
  8158     0B9D  3000               	movlw	0
  8159     0B9E  00C0               	movwf	___fldiv@b+2
  8160     0B9F  3000               	movlw	0
  8161     0BA0  00BF               	movwf	___fldiv@b+1
  8162     0BA1  3000               	movlw	0
  8163     0BA2  00BE               	movwf	___fldiv@b
  8164     0BA3                     l3813:
  8165     0BA3  01CB               	clrf	___fldiv@sign
  8166     0BA4                     l1029:
  8167     0BA4  0020               	movlb	0	; select bank0
  8168     0BA5  084C               	movf	___fldiv@new_exp,w
  8169     0BA6  00D2               	movwf	___fldiv@bexp
  8170     0BA7                     l3815:
  8171     0BA7  1C52               	btfss	___fldiv@bexp,0
  8172     0BA8  2BAA               	goto	u4681
  8173     0BA9  2BAB               	goto	u4680
  8174     0BAA                     u4681:
  8175     0BAA  2BAD               	goto	l3819
  8176     0BAB                     u4680:
  8177     0BAB                     l3817:
  8178     0BAB  17C0               	bsf	___fldiv@b+2,7
  8179     0BAC  2BB1               	goto	l1031
  8180     0BAD                     l3819:
  8181     0BAD  307F               	movlw	127
  8182     0BAE  00C2               	movwf	??___fldiv
  8183     0BAF  0842               	movf	??___fldiv,w
  8184     0BB0  05C0               	andwf	___fldiv@b+2,f
  8185     0BB1                     l1031:
  8186     0BB1  3652               	lsrf	___fldiv@bexp,w
  8187     0BB2  00C1               	movwf	___fldiv@b+3
  8188     0BB3  084B               	movf	___fldiv@sign,w
  8189     0BB4  00C2               	movwf	??___fldiv
  8190     0BB5  0842               	movf	??___fldiv,w
  8191     0BB6  04C1               	iorwf	___fldiv@b+3,f
  8192     0BB7  2A78               	goto	l3729
  8193     0BB8                     l1009:
  8194     0BB8  0008               	return
  8195     0BB9                     __end_of___fldiv:
  8196                           
  8197                           	psect	text27
  8198     0BB9                     __ptext27:	
  8199 ;; *************** function ___fladd *****************
  8200 ;; Defined at:
  8201 ;;		line 10 in file "C:\Program Files\Microchip\xc8\v2.41\pic\sources\c90\common\sprcadd.c"
  8202 ;; Parameters:    Size  Location     Type
  8203 ;;  b               4    0[COMMON] unsigned char 
  8204 ;;  a               4    4[COMMON] unsigned char 
  8205 ;; Auto vars:     Size  Location     Type
  8206 ;;  grs             1   11[COMMON] unsigned char 
  8207 ;;  bexp            1   10[COMMON] unsigned char 
  8208 ;;  aexp            1    9[COMMON] unsigned char 
  8209 ;;  signs           1    8[COMMON] unsigned char 
  8210 ;; Return value:  Size  Location     Type
  8211 ;;                  4    0[COMMON] unsigned char 
  8212 ;; Registers used:
  8213 ;;		wreg, status,2, status,0
  8214 ;; Tracked objects:
  8215 ;;		On entry : 0/0
  8216 ;;		On exit  : 0/0
  8217 ;;		Unchanged: 0/0
  8218 ;; Data sizes:     COMMON   BANK0   BANK1   BANK2   BANK3   BANK4   BANK5   BANK6   BANK7   BANK8   BANK9  BANK10  BANK1
      +1  BANK12  BANK13  BANK14  BANK15  BANK16  BANK17  BANK18  BANK19  BANK20  BANK21  BANK22  BANK23  BANK24  BANK25
  8219 ;;      Params:         8       0       0       0       0       0       0       0       0       0       0       0       
      +0       0       0       0       0       0       0       0       0       0       0       0       0       0       0
  8220 ;;      Locals:         4       0       0       0       0       0       0       0       0       0       0       0       
      +0       0       0       0       0       0       0       0       0       0       0       0       0       0       0
  8221 ;;      Temps:          0       8       0       0       0       0       0       0       0       0       0       0       
      +0       0       0       0       0       0       0       0       0       0       0       0       0       0       0
  8222 ;;      Totals:        12       8       0       0       0       0       0       0       0       0       0       0       
      +0       0       0       0       0       0       0       0       0       0       0       0       0       0       0
  8223 ;;Total ram usage:       20 bytes
  8224 ;; Hardware stack levels used: 1
  8225 ;; This function calls:
  8226 ;;		Nothing
  8227 ;; This function is called by:
  8228 ;;		_main
  8229 ;; This function uses a non-reentrant model
  8230 ;;
  8231                           
  8232     0BB9                     ___fladd:	
  8233                           ;psect for function ___fladd
  8234                           
  8235     0BB9                     l3491:	
  8236                           ;incstack = 0
  8237                           ; Regs used in ___fladd: [wreg+status,2+status,0]
  8238                           
  8239     0BB9  0873               	movf	___fladd@b+3,w
  8240     0BBA  3980               	andlw	128
  8241     0BBB  00F8               	movwf	___fladd@signs
  8242     0BBC                     l3493:
  8243     0BBC  3573               	lslf	___fladd@b+3,w
  8244     0BBD  00FA               	movwf	___fladd@bexp
  8245     0BBE                     l3495:
  8246     0BBE  1FF2               	btfss	___fladd@b+2,7
  8247     0BBF  2BC1               	goto	u3971
  8248     0BC0  2BC2               	goto	u3970
  8249     0BC1                     u3971:
  8250     0BC1  2BC3               	goto	l3499
  8251     0BC2                     u3970:
  8252     0BC2                     l3497:
  8253     0BC2  147A               	bsf	___fladd@bexp,0
  8254     0BC3                     l3499:
  8255     0BC3  087A               	movf	___fladd@bexp,w
  8256     0BC4  1903               	btfsc	3,2
  8257     0BC5  2BC7               	goto	u3981
  8258     0BC6  2BC8               	goto	u3980
  8259     0BC7                     u3981:
  8260     0BC7  2BD8               	goto	l3509
  8261     0BC8                     u3980:
  8262     0BC8                     l3501:
  8263     0BC8  0A7A               	incf	___fladd@bexp,w
  8264     0BC9  1D03               	btfss	3,2
  8265     0BCA  2BCC               	goto	u3991
  8266     0BCB  2BCD               	goto	u3990
  8267     0BCC                     u3991:
  8268     0BCC  2BD5               	goto	l3505
  8269     0BCD                     u3990:
  8270     0BCD                     l3503:
  8271     0BCD  3000               	movlw	0
  8272     0BCE  00F3               	movwf	___fladd@b+3
  8273     0BCF  3000               	movlw	0
  8274     0BD0  00F2               	movwf	___fladd@b+2
  8275     0BD1  3000               	movlw	0
  8276     0BD2  00F1               	movwf	___fladd@b+1
  8277     0BD3  3000               	movlw	0
  8278     0BD4  00F0               	movwf	___fladd@b
  8279     0BD5                     l3505:
  8280     0BD5  17F2               	bsf	___fladd@b+2,7
  8281     0BD6                     l3507:
  8282     0BD6  01F3               	clrf	___fladd@b+3
  8283     0BD7  2BE0               	goto	l3511
  8284     0BD8                     l3509:
  8285     0BD8  3000               	movlw	0
  8286     0BD9  00F3               	movwf	___fladd@b+3
  8287     0BDA  3000               	movlw	0
  8288     0BDB  00F2               	movwf	___fladd@b+2
  8289     0BDC  3000               	movlw	0
  8290     0BDD  00F1               	movwf	___fladd@b+1
  8291     0BDE  3000               	movlw	0
  8292     0BDF  00F0               	movwf	___fladd@b
  8293     0BE0                     l3511:
  8294     0BE0  0877               	movf	___fladd@a+3,w
  8295     0BE1  3980               	andlw	128
  8296     0BE2  00F9               	movwf	___fladd@aexp
  8297     0BE3                     l3513:
  8298     0BE3  0879               	movf	___fladd@aexp,w
  8299     0BE4  0678               	xorwf	___fladd@signs,w
  8300     0BE5  1903               	skipnz
  8301     0BE6  2BE8               	goto	u4001
  8302     0BE7  2BE9               	goto	u4000
  8303     0BE8                     u4001:
  8304     0BE8  2BEA               	goto	l3517
  8305     0BE9                     u4000:
  8306     0BE9                     l3515:
  8307     0BE9  1778               	bsf	___fladd@signs,6
  8308     0BEA                     l3517:
  8309     0BEA  3577               	lslf	___fladd@a+3,w
  8310     0BEB  00F9               	movwf	___fladd@aexp
  8311     0BEC                     l3519:
  8312     0BEC  1FF6               	btfss	___fladd@a+2,7
  8313     0BED  2BEF               	goto	u4011
  8314     0BEE  2BF0               	goto	u4010
  8315     0BEF                     u4011:
  8316     0BEF  2BF1               	goto	l3523
  8317     0BF0                     u4010:
  8318     0BF0                     l3521:
  8319     0BF0  1479               	bsf	___fladd@aexp,0
  8320     0BF1                     l3523:
  8321     0BF1  0879               	movf	___fladd@aexp,w
  8322     0BF2  1903               	btfsc	3,2
  8323     0BF3  2BF5               	goto	u4021
  8324     0BF4  2BF6               	goto	u4020
  8325     0BF5                     u4021:
  8326     0BF5  2C06               	goto	l3533
  8327     0BF6                     u4020:
  8328     0BF6                     l3525:
  8329     0BF6  0A79               	incf	___fladd@aexp,w
  8330     0BF7  1D03               	btfss	3,2
  8331     0BF8  2BFA               	goto	u4031
  8332     0BF9  2BFB               	goto	u4030
  8333     0BFA                     u4031:
  8334     0BFA  2C03               	goto	l3529
  8335     0BFB                     u4030:
  8336     0BFB                     l3527:
  8337     0BFB  3000               	movlw	0
  8338     0BFC  00F7               	movwf	___fladd@a+3
  8339     0BFD  3000               	movlw	0
  8340     0BFE  00F6               	movwf	___fladd@a+2
  8341     0BFF  3000               	movlw	0
  8342     0C00  00F5               	movwf	___fladd@a+1
  8343     0C01  3000               	movlw	0
  8344     0C02  00F4               	movwf	___fladd@a
  8345     0C03                     l3529:
  8346     0C03  17F6               	bsf	___fladd@a+2,7
  8347     0C04                     l3531:
  8348     0C04  01F7               	clrf	___fladd@a+3
  8349     0C05  2C0E               	goto	l951
  8350     0C06                     l3533:
  8351     0C06  3000               	movlw	0
  8352     0C07  00F7               	movwf	___fladd@a+3
  8353     0C08  3000               	movlw	0
  8354     0C09  00F6               	movwf	___fladd@a+2
  8355     0C0A  3000               	movlw	0
  8356     0C0B  00F5               	movwf	___fladd@a+1
  8357     0C0C  3000               	movlw	0
  8358     0C0D  00F4               	movwf	___fladd@a
  8359     0C0E                     l951:
  8360     0C0E  087A               	movf	___fladd@bexp,w
  8361     0C0F  0279               	subwf	___fladd@aexp,w
  8362     0C10  1803               	skipnc
  8363     0C11  2C13               	goto	u4041
  8364     0C12  2C14               	goto	u4040
  8365     0C13                     u4041:
  8366     0C13  2C3B               	goto	l3569
  8367     0C14                     u4040:
  8368     0C14                     l3535:
  8369     0C14  1F78               	btfss	___fladd@signs,6
  8370     0C15  2C17               	goto	u4051
  8371     0C16  2C18               	goto	u4050
  8372     0C17                     u4051:
  8373     0C17  2C1D               	goto	l3539
  8374     0C18                     u4050:
  8375     0C18                     l3537:
  8376     0C18  3080               	movlw	128
  8377     0C19  0020               	movlb	0	; select bank0
  8378     0C1A  00A0               	movwf	??___fladd
  8379     0C1B  0820               	movf	??___fladd,w
  8380     0C1C  06F8               	xorwf	___fladd@signs,f
  8381     0C1D                     l3539:
  8382     0C1D  087A               	movf	___fladd@bexp,w
  8383     0C1E  00FB               	movwf	___fladd@grs
  8384     0C1F                     l3541:
  8385     0C1F  0879               	movf	___fladd@aexp,w
  8386     0C20  00FA               	movwf	___fladd@bexp
  8387     0C21                     l3543:
  8388     0C21  087B               	movf	___fladd@grs,w
  8389     0C22  00F9               	movwf	___fladd@aexp
  8390     0C23                     l3545:
  8391     0C23  0870               	movf	___fladd@b,w
  8392     0C24  00FB               	movwf	___fladd@grs
  8393     0C25                     l3547:
  8394     0C25  0874               	movf	___fladd@a,w
  8395     0C26  00F0               	movwf	___fladd@b
  8396     0C27                     l3549:
  8397     0C27  087B               	movf	___fladd@grs,w
  8398     0C28  00F4               	movwf	___fladd@a
  8399     0C29                     l3551:
  8400     0C29  0871               	movf	___fladd@b+1,w
  8401     0C2A  00FB               	movwf	___fladd@grs
  8402     0C2B                     l3553:
  8403     0C2B  0875               	movf	___fladd@a+1,w
  8404     0C2C  00F1               	movwf	___fladd@b+1
  8405     0C2D                     l3555:
  8406     0C2D  087B               	movf	___fladd@grs,w
  8407     0C2E  00F5               	movwf	___fladd@a+1
  8408     0C2F                     l3557:
  8409     0C2F  0872               	movf	___fladd@b+2,w
  8410     0C30  00FB               	movwf	___fladd@grs
  8411     0C31                     l3559:
  8412     0C31  0876               	movf	___fladd@a+2,w
  8413     0C32  00F2               	movwf	___fladd@b+2
  8414     0C33                     l3561:
  8415     0C33  087B               	movf	___fladd@grs,w
  8416     0C34  00F6               	movwf	___fladd@a+2
  8417     0C35                     l3563:
  8418     0C35  0873               	movf	___fladd@b+3,w
  8419     0C36  00FB               	movwf	___fladd@grs
  8420     0C37                     l3565:
  8421     0C37  0877               	movf	___fladd@a+3,w
  8422     0C38  00F3               	movwf	___fladd@b+3
  8423     0C39                     l3567:
  8424     0C39  087B               	movf	___fladd@grs,w
  8425     0C3A  00F7               	movwf	___fladd@a+3
  8426     0C3B                     l3569:
  8427     0C3B  01FB               	clrf	___fladd@grs
  8428     0C3C                     l3571:
  8429     0C3C  0879               	movf	___fladd@aexp,w
  8430     0C3D  0020               	movlb	0	; select bank0
  8431     0C3E  00A0               	movwf	??___fladd
  8432     0C3F  01A1               	clrf	??___fladd+1
  8433     0C40  0821               	movf	??___fladd+1,w
  8434     0C41  00A3               	movwf	??___fladd+3
  8435     0C42  087A               	movf	___fladd@bexp,w
  8436     0C43  0220               	subwf	??___fladd,w
  8437     0C44  00A2               	movwf	??___fladd+2
  8438     0C45  1C03               	skipc
  8439     0C46  03A3               	decf	??___fladd+3,f
  8440     0C47  0823               	movf	??___fladd+3,w
  8441     0C48  3A80               	xorlw	128
  8442     0C49  00A4               	movwf	??___fladd+4
  8443     0C4A  3080               	movlw	128
  8444     0C4B  0224               	subwf	??___fladd+4,w
  8445     0C4C  1D03               	skipz
  8446     0C4D  2C50               	goto	u4065
  8447     0C4E  301A               	movlw	26
  8448     0C4F  0222               	subwf	??___fladd+2,w
  8449     0C50                     u4065:
  8450     0C50  1C03               	skipc
  8451     0C51  2C53               	goto	u4061
  8452     0C52  2C54               	goto	u4060
  8453     0C53                     u4061:
  8454     0C53  2C86               	goto	l3587
  8455     0C54                     u4060:
  8456     0C54                     l3573:
  8457     0C54  0873               	movf	___fladd@b+3,w
  8458     0C55  0472               	iorwf	___fladd@b+2,w
  8459     0C56  0471               	iorwf	___fladd@b+1,w
  8460     0C57  0470               	iorwf	___fladd@b,w
  8461     0C58  1D03               	skipz
  8462     0C59  2C5B               	goto	u4071
  8463     0C5A  2C5D               	goto	u4070
  8464     0C5B                     u4071:
  8465     0C5B  3001               	movlw	1
  8466     0C5C  2C5E               	goto	u4080
  8467     0C5D                     u4070:
  8468     0C5D  3000               	movlw	0
  8469     0C5E                     u4080:
  8470     0C5E  00FB               	movwf	___fladd@grs
  8471     0C5F  3000               	movlw	0
  8472     0C60  00F3               	movwf	___fladd@b+3
  8473     0C61  3000               	movlw	0
  8474     0C62  00F2               	movwf	___fladd@b+2
  8475     0C63  3000               	movlw	0
  8476     0C64  00F1               	movwf	___fladd@b+1
  8477     0C65  3000               	movlw	0
  8478     0C66  00F0               	movwf	___fladd@b
  8479     0C67  0879               	movf	___fladd@aexp,w
  8480     0C68  00FA               	movwf	___fladd@bexp
  8481     0C69  2C8C               	goto	l955
  8482     0C6A                     l957:
  8483     0C6A  1C7B               	btfss	___fladd@grs,0
  8484     0C6B  2C6D               	goto	u4091
  8485     0C6C  2C6E               	goto	u4090
  8486     0C6D                     u4091:
  8487     0C6D  2C72               	goto	l3577
  8488     0C6E                     u4090:
  8489     0C6E                     l3575:
  8490     0C6E  367B               	lsrf	___fladd@grs,w
  8491     0C6F  3801               	iorlw	1
  8492     0C70  00FB               	movwf	___fladd@grs
  8493     0C71  2C74               	goto	l3579
  8494     0C72                     l3577:
  8495     0C72  1003               	clrc
  8496     0C73  0CFB               	rrf	___fladd@grs,f
  8497     0C74                     l3579:
  8498     0C74  1C70               	btfss	___fladd@b,0
  8499     0C75  2C77               	goto	u4101
  8500     0C76  2C78               	goto	u4100
  8501     0C77                     u4101:
  8502     0C77  2C79               	goto	l3583
  8503     0C78                     u4100:
  8504     0C78                     l3581:
  8505     0C78  17FB               	bsf	___fladd@grs,7
  8506     0C79                     l3583:
  8507     0C79  3001               	movlw	1
  8508     0C7A  0020               	movlb	0	; select bank0
  8509     0C7B  00A0               	movwf	??___fladd
  8510     0C7C                     u4115:
  8511     0C7C  37F3               	asrf	___fladd@b+3,f
  8512     0C7D  0CF2               	rrf	___fladd@b+2,f
  8513     0C7E  0CF1               	rrf	___fladd@b+1,f
  8514     0C7F  0CF0               	rrf	___fladd@b,f
  8515     0C80  0BA0               	decfsz	??___fladd& (0+127),f
  8516     0C81  2C7C               	goto	u4115
  8517     0C82                     l3585:
  8518     0C82  3001               	movlw	1
  8519     0C83  00A0               	movwf	??___fladd
  8520     0C84  0820               	movf	??___fladd,w
  8521     0C85  07FA               	addwf	___fladd@bexp,f
  8522     0C86                     l3587:
  8523     0C86  0879               	movf	___fladd@aexp,w
  8524     0C87  027A               	subwf	___fladd@bexp,w
  8525     0C88  1C03               	skipc
  8526     0C89  2C8B               	goto	u4121
  8527     0C8A  2C8C               	goto	u4120
  8528     0C8B                     u4121:
  8529     0C8B  2C6A               	goto	l957
  8530     0C8C                     u4120:
  8531     0C8C                     l955:
  8532     0C8C  1B78               	btfsc	___fladd@signs,6
  8533     0C8D  2C8F               	goto	u4131
  8534     0C8E  2C90               	goto	u4130
  8535     0C8F                     u4131:
  8536     0C8F  2CC7               	goto	l3613
  8537     0C90                     u4130:
  8538     0C90                     l3589:
  8539     0C90  087A               	movf	___fladd@bexp,w
  8540     0C91  1D03               	btfss	3,2
  8541     0C92  2C94               	goto	u4141
  8542     0C93  2C95               	goto	u4140
  8543     0C94                     u4141:
  8544     0C94  2C9E               	goto	l3595
  8545     0C95                     u4140:
  8546     0C95                     l3591:
  8547     0C95  3000               	movlw	0
  8548     0C96  00F3               	movwf	?___fladd+3
  8549     0C97  3000               	movlw	0
  8550     0C98  00F2               	movwf	?___fladd+2
  8551     0C99  3000               	movlw	0
  8552     0C9A  00F1               	movwf	?___fladd+1
  8553     0C9B  3000               	movlw	0
  8554     0C9C  00F0               	movwf	?___fladd
  8555     0C9D  2DC4               	goto	l964
  8556     0C9E                     l3595:
  8557     0C9E  0874               	movf	___fladd@a,w
  8558     0C9F  07F0               	addwf	___fladd@b,f
  8559     0CA0  0875               	movf	___fladd@a+1,w
  8560     0CA1  3DF1               	addwfc	___fladd@b+1,f
  8561     0CA2  0876               	movf	___fladd@a+2,w
  8562     0CA3  3DF2               	addwfc	___fladd@b+2,f
  8563     0CA4  0877               	movf	___fladd@a+3,w
  8564     0CA5  3DF3               	addwfc	___fladd@b+3,f
  8565     0CA6                     l3597:
  8566     0CA6  1C73               	btfss	___fladd@b+3,0
  8567     0CA7  2CA9               	goto	u4151
  8568     0CA8  2CAA               	goto	u4150
  8569     0CA9                     u4151:
  8570     0CA9  2D54               	goto	l3647
  8571     0CAA                     u4150:
  8572     0CAA                     l3599:
  8573     0CAA  1C7B               	btfss	___fladd@grs,0
  8574     0CAB  2CAD               	goto	u4161
  8575     0CAC  2CAE               	goto	u4160
  8576     0CAD                     u4161:
  8577     0CAD  2CB2               	goto	l3603
  8578     0CAE                     u4160:
  8579     0CAE                     l3601:
  8580     0CAE  367B               	lsrf	___fladd@grs,w
  8581     0CAF  3801               	iorlw	1
  8582     0CB0  00FB               	movwf	___fladd@grs
  8583     0CB1  2CB4               	goto	l3605
  8584     0CB2                     l3603:
  8585     0CB2  1003               	clrc
  8586     0CB3  0CFB               	rrf	___fladd@grs,f
  8587     0CB4                     l3605:
  8588     0CB4  1C70               	btfss	___fladd@b,0
  8589     0CB5  2CB7               	goto	u4171
  8590     0CB6  2CB8               	goto	u4170
  8591     0CB7                     u4171:
  8592     0CB7  2CB9               	goto	l3609
  8593     0CB8                     u4170:
  8594     0CB8                     l3607:
  8595     0CB8  17FB               	bsf	___fladd@grs,7
  8596     0CB9                     l3609:
  8597     0CB9  3001               	movlw	1
  8598     0CBA  0020               	movlb	0	; select bank0
  8599     0CBB  00A0               	movwf	??___fladd
  8600     0CBC                     u4185:
  8601     0CBC  37F3               	asrf	___fladd@b+3,f
  8602     0CBD  0CF2               	rrf	___fladd@b+2,f
  8603     0CBE  0CF1               	rrf	___fladd@b+1,f
  8604     0CBF  0CF0               	rrf	___fladd@b,f
  8605     0CC0  0BA0               	decfsz	??___fladd& (0+127),f
  8606     0CC1  2CBC               	goto	u4185
  8607     0CC2                     l3611:
  8608     0CC2  3001               	movlw	1
  8609     0CC3  00A0               	movwf	??___fladd
  8610     0CC4  0820               	movf	??___fladd,w
  8611     0CC5  07FA               	addwf	___fladd@bexp,f
  8612     0CC6  2D54               	goto	l3647
  8613     0CC7                     l3613:
  8614     0CC7  0873               	movf	___fladd@b+3,w
  8615     0CC8  3A80               	xorlw	128
  8616     0CC9  0020               	movlb	0	; select bank0
  8617     0CCA  00A0               	movwf	??___fladd
  8618     0CCB  0877               	movf	___fladd@a+3,w
  8619     0CCC  3A80               	xorlw	128
  8620     0CCD  0220               	subwf	??___fladd,w
  8621     0CCE  1D03               	skipz
  8622     0CCF  2CDA               	goto	u4193
  8623     0CD0  0876               	movf	___fladd@a+2,w
  8624     0CD1  0272               	subwf	___fladd@b+2,w
  8625     0CD2  1D03               	skipz
  8626     0CD3  2CDA               	goto	u4193
  8627     0CD4  0875               	movf	___fladd@a+1,w
  8628     0CD5  0271               	subwf	___fladd@b+1,w
  8629     0CD6  1D03               	skipz
  8630     0CD7  2CDA               	goto	u4193
  8631     0CD8  0874               	movf	___fladd@a,w
  8632     0CD9  0270               	subwf	___fladd@b,w
  8633     0CDA                     u4193:
  8634     0CDA  1803               	skipnc
  8635     0CDB  2CDD               	goto	u4191
  8636     0CDC  2CDE               	goto	u4190
  8637     0CDD                     u4191:
  8638     0CDD  2D16               	goto	l3623
  8639     0CDE                     u4190:
  8640     0CDE                     l3615:
  8641     0CDE  30FF               	movlw	255
  8642     0CDF  00A0               	movwf	??___fladd
  8643     0CE0  30FF               	movlw	255
  8644     0CE1  00A1               	movwf	??___fladd+1
  8645     0CE2  30FF               	movlw	255
  8646     0CE3  00A2               	movwf	??___fladd+2
  8647     0CE4  30FF               	movlw	255
  8648     0CE5  00A3               	movwf	??___fladd+3
  8649     0CE6  0870               	movf	___fladd@b,w
  8650     0CE7  0274               	subwf	___fladd@a,w
  8651     0CE8  00A4               	movwf	??___fladd+4
  8652     0CE9  0871               	movf	___fladd@b+1,w
  8653     0CEA  3B75               	subwfb	___fladd@a+1,w
  8654     0CEB  00A5               	movwf	??___fladd+5
  8655     0CEC  0872               	movf	___fladd@b+2,w
  8656     0CED  3B76               	subwfb	___fladd@a+2,w
  8657     0CEE  00A6               	movwf	??___fladd+6
  8658     0CEF  0873               	movf	___fladd@b+3,w
  8659     0CF0  3B77               	subwfb	___fladd@a+3,w
  8660     0CF1  00A7               	movwf	??___fladd+7
  8661     0CF2  0824               	movf	??___fladd+4,w
  8662     0CF3  07A0               	addwf	??___fladd,f
  8663     0CF4  0825               	movf	??___fladd+5,w
  8664     0CF5  3DA1               	addwfc	??___fladd+1,f
  8665     0CF6  0826               	movf	??___fladd+6,w
  8666     0CF7  3DA2               	addwfc	??___fladd+2,f
  8667     0CF8  0827               	movf	??___fladd+7,w
  8668     0CF9  3DA3               	addwfc	??___fladd+3,f
  8669     0CFA  0823               	movf	??___fladd+3,w
  8670     0CFB  00F3               	movwf	___fladd@b+3
  8671     0CFC  0822               	movf	??___fladd+2,w
  8672     0CFD  00F2               	movwf	___fladd@b+2
  8673     0CFE  0821               	movf	??___fladd+1,w
  8674     0CFF  00F1               	movwf	___fladd@b+1
  8675     0D00  0820               	movf	??___fladd,w
  8676     0D01  00F0               	movwf	___fladd@b
  8677     0D02                     l3617:
  8678     0D02  3080               	movlw	128
  8679     0D03  00A0               	movwf	??___fladd
  8680     0D04  0820               	movf	??___fladd,w
  8681     0D05  06F8               	xorwf	___fladd@signs,f
  8682     0D06  09FB               	comf	___fladd@grs,f
  8683     0D07  0AFB               	incf	___fladd@grs,f
  8684     0D08                     l3619:
  8685     0D08  087B               	movf	___fladd@grs,w
  8686     0D09  1D03               	btfss	3,2
  8687     0D0A  2D0C               	goto	u4201
  8688     0D0B  2D0D               	goto	u4200
  8689     0D0C                     u4201:
  8690     0D0C  2D1E               	goto	l972
  8691     0D0D                     u4200:
  8692     0D0D                     l3621:
  8693     0D0D  3001               	movlw	1
  8694     0D0E  07F0               	addwf	___fladd@b,f
  8695     0D0F  3000               	movlw	0
  8696     0D10  3DF1               	addwfc	___fladd@b+1,f
  8697     0D11  3000               	movlw	0
  8698     0D12  3DF2               	addwfc	___fladd@b+2,f
  8699     0D13  3000               	movlw	0
  8700     0D14  3DF3               	addwfc	___fladd@b+3,f
  8701     0D15  2D1E               	goto	l972
  8702     0D16                     l3623:
  8703     0D16  0874               	movf	___fladd@a,w
  8704     0D17  02F0               	subwf	___fladd@b,f
  8705     0D18  0875               	movf	___fladd@a+1,w
  8706     0D19  3BF1               	subwfb	___fladd@b+1,f
  8707     0D1A  0876               	movf	___fladd@a+2,w
  8708     0D1B  3BF2               	subwfb	___fladd@b+2,f
  8709     0D1C  0877               	movf	___fladd@a+3,w
  8710     0D1D  3BF3               	subwfb	___fladd@b+3,f
  8711     0D1E                     l972:
  8712     0D1E  0873               	movf	___fladd@b+3,w
  8713     0D1F  0472               	iorwf	___fladd@b+2,w
  8714     0D20  0471               	iorwf	___fladd@b+1,w
  8715     0D21  0470               	iorwf	___fladd@b,w
  8716     0D22  1D03               	skipz
  8717     0D23  2D25               	goto	u4211
  8718     0D24  2D26               	goto	u4210
  8719     0D25                     u4211:
  8720     0D25  2D50               	goto	l3645
  8721     0D26                     u4210:
  8722     0D26                     l3625:
  8723     0D26  087B               	movf	___fladd@grs,w
  8724     0D27  1D03               	btfss	3,2
  8725     0D28  2D2A               	goto	u4221
  8726     0D29  2D2B               	goto	u4220
  8727     0D2A                     u4221:
  8728     0D2A  2D50               	goto	l3645
  8729     0D2B                     u4220:
  8730     0D2B                     l3627:
  8731     0D2B  3000               	movlw	0
  8732     0D2C  00F3               	movwf	?___fladd+3
  8733     0D2D  3000               	movlw	0
  8734     0D2E  00F2               	movwf	?___fladd+2
  8735     0D2F  3000               	movlw	0
  8736     0D30  00F1               	movwf	?___fladd+1
  8737     0D31  3000               	movlw	0
  8738     0D32  00F0               	movwf	?___fladd
  8739     0D33  2DC4               	goto	l964
  8740     0D34                     l3631:
  8741     0D34  3001               	movlw	1
  8742     0D35                     u4235:
  8743     0D35  35F0               	lslf	___fladd@b,f
  8744     0D36  0DF1               	rlf	___fladd@b+1,f
  8745     0D37  0DF2               	rlf	___fladd@b+2,f
  8746     0D38  0DF3               	rlf	___fladd@b+3,f
  8747     0D39  0B89               	decfsz	9,f
  8748     0D3A  2D35               	goto	u4235
  8749     0D3B                     l3633:
  8750     0D3B  1FFB               	btfss	___fladd@grs,7
  8751     0D3C  2D3E               	goto	u4241
  8752     0D3D  2D3F               	goto	u4240
  8753     0D3E                     u4241:
  8754     0D3E  2D40               	goto	l976
  8755     0D3F                     u4240:
  8756     0D3F                     l3635:
  8757     0D3F  1470               	bsf	___fladd@b,0
  8758     0D40                     l976:
  8759     0D40  1C7B               	btfss	___fladd@grs,0
  8760     0D41  2D43               	goto	u4251
  8761     0D42  2D44               	goto	u4250
  8762     0D43                     u4251:
  8763     0D43  2D47               	goto	l3639
  8764     0D44                     u4250:
  8765     0D44                     l3637:
  8766     0D44  1403               	setc
  8767     0D45  0DFB               	rlf	___fladd@grs,f
  8768     0D46  2D49               	goto	l3641
  8769     0D47                     l3639:
  8770     0D47  1003               	clrc
  8771     0D48  0DFB               	rlf	___fladd@grs,f
  8772     0D49                     l3641:
  8773     0D49  087A               	movf	___fladd@bexp,w
  8774     0D4A  1903               	btfsc	3,2
  8775     0D4B  2D4D               	goto	u4261
  8776     0D4C  2D4E               	goto	u4260
  8777     0D4D                     u4261:
  8778     0D4D  2D50               	goto	l3645
  8779     0D4E                     u4260:
  8780     0D4E                     l3643:
  8781     0D4E  3001               	movlw	1
  8782     0D4F  02FA               	subwf	___fladd@bexp,f
  8783     0D50                     l3645:
  8784     0D50  1FF2               	btfss	___fladd@b+2,7
  8785     0D51  2D53               	goto	u4271
  8786     0D52  2D54               	goto	u4270
  8787     0D53                     u4271:
  8788     0D53  2D34               	goto	l3631
  8789     0D54                     u4270:
  8790     0D54                     l3647:
  8791     0D54  01F9               	clrf	___fladd@aexp
  8792     0D55                     l3649:
  8793     0D55  1FFB               	btfss	___fladd@grs,7
  8794     0D56  2D58               	goto	u4281
  8795     0D57  2D59               	goto	u4280
  8796     0D58                     u4281:
  8797     0D58  2D67               	goto	l3657
  8798     0D59                     u4280:
  8799     0D59                     l3651:
  8800     0D59  087B               	movf	___fladd@grs,w
  8801     0D5A  397F               	andlw	127
  8802     0D5B  1903               	btfsc	3,2
  8803     0D5C  2D5E               	goto	u4291
  8804     0D5D  2D5F               	goto	u4290
  8805     0D5E                     u4291:
  8806     0D5E  2D62               	goto	l982
  8807     0D5F                     u4290:
  8808     0D5F                     l3653:
  8809     0D5F  01F9               	clrf	___fladd@aexp
  8810     0D60  0AF9               	incf	___fladd@aexp,f
  8811     0D61  2D67               	goto	l3657
  8812     0D62                     l982:
  8813     0D62  1C70               	btfss	___fladd@b,0
  8814     0D63  2D65               	goto	u4301
  8815     0D64  2D66               	goto	u4300
  8816     0D65                     u4301:
  8817     0D65  2D67               	goto	l3657
  8818     0D66                     u4300:
  8819     0D66  2D5F               	goto	l3653
  8820     0D67                     l3657:
  8821     0D67  0879               	movf	___fladd@aexp,w
  8822     0D68  1903               	btfsc	3,2
  8823     0D69  2D6B               	goto	u4311
  8824     0D6A  2D6C               	goto	u4310
  8825     0D6B                     u4311:
  8826     0D6B  2D9A               	goto	l985
  8827     0D6C                     u4310:
  8828     0D6C                     l3659:
  8829     0D6C  3001               	movlw	1
  8830     0D6D  07F0               	addwf	___fladd@b,f
  8831     0D6E  3000               	movlw	0
  8832     0D6F  3DF1               	addwfc	___fladd@b+1,f
  8833     0D70  3000               	movlw	0
  8834     0D71  3DF2               	addwfc	___fladd@b+2,f
  8835     0D72  3000               	movlw	0
  8836     0D73  3DF3               	addwfc	___fladd@b+3,f
  8837     0D74                     l3661:
  8838     0D74  1C73               	btfss	___fladd@b+3,0
  8839     0D75  2D77               	goto	u4321
  8840     0D76  2D78               	goto	u4320
  8841     0D77                     u4321:
  8842     0D77  2D9A               	goto	l985
  8843     0D78                     u4320:
  8844     0D78                     l3663:
  8845     0D78  0870               	movf	___fladd@b,w
  8846     0D79  0020               	movlb	0	; select bank0
  8847     0D7A  00A0               	movwf	??___fladd
  8848     0D7B  0871               	movf	___fladd@b+1,w
  8849     0D7C  00A1               	movwf	??___fladd+1
  8850     0D7D  0872               	movf	___fladd@b+2,w
  8851     0D7E  00A2               	movwf	??___fladd+2
  8852     0D7F  0873               	movf	___fladd@b+3,w
  8853     0D80  00A3               	movwf	??___fladd+3
  8854     0D81  3001               	movlw	1
  8855     0D82  00A4               	movwf	??___fladd+4
  8856     0D83                     u4335:
  8857     0D83  37A3               	asrf	??___fladd+3,f
  8858     0D84  0CA2               	rrf	??___fladd+2,f
  8859     0D85  0CA1               	rrf	??___fladd+1,f
  8860     0D86  0CA0               	rrf	??___fladd,f
  8861     0D87                     u4330:
  8862     0D87  0BA4               	decfsz	??___fladd+4,f
  8863     0D88  2D83               	goto	u4335
  8864     0D89  0823               	movf	??___fladd+3,w
  8865     0D8A  00F3               	movwf	___fladd@b+3
  8866     0D8B  0822               	movf	??___fladd+2,w
  8867     0D8C  00F2               	movwf	___fladd@b+2
  8868     0D8D  0821               	movf	??___fladd+1,w
  8869     0D8E  00F1               	movwf	___fladd@b+1
  8870     0D8F  0820               	movf	??___fladd,w
  8871     0D90  00F0               	movwf	___fladd@b
  8872     0D91  0A7A               	incf	___fladd@bexp,w
  8873     0D92  1903               	btfsc	3,2
  8874     0D93  2D95               	goto	u4341
  8875     0D94  2D96               	goto	u4340
  8876     0D95                     u4341:
  8877     0D95  2D9A               	goto	l985
  8878     0D96                     u4340:
  8879     0D96                     l3665:
  8880     0D96  3001               	movlw	1
  8881     0D97  00A0               	movwf	??___fladd
  8882     0D98  0820               	movf	??___fladd,w
  8883     0D99  07FA               	addwf	___fladd@bexp,f
  8884     0D9A                     l985:
  8885     0D9A  0A7A               	incf	___fladd@bexp,w
  8886     0D9B  1903               	btfsc	3,2
  8887     0D9C  2D9E               	goto	u4351
  8888     0D9D  2D9F               	goto	u4350
  8889     0D9E                     u4351:
  8890     0D9E  2DA4               	goto	l3669
  8891     0D9F                     u4350:
  8892     0D9F                     l3667:
  8893     0D9F  087A               	movf	___fladd@bexp,w
  8894     0DA0  1D03               	btfss	3,2
  8895     0DA1  2DA3               	goto	u4361
  8896     0DA2  2DA4               	goto	u4360
  8897     0DA3                     u4361:
  8898     0DA3  2DB2               	goto	l3675
  8899     0DA4                     u4360:
  8900     0DA4                     l3669:
  8901     0DA4  3000               	movlw	0
  8902     0DA5  00F3               	movwf	___fladd@b+3
  8903     0DA6  3000               	movlw	0
  8904     0DA7  00F2               	movwf	___fladd@b+2
  8905     0DA8  3000               	movlw	0
  8906     0DA9  00F1               	movwf	___fladd@b+1
  8907     0DAA  3000               	movlw	0
  8908     0DAB  00F0               	movwf	___fladd@b
  8909     0DAC                     l3671:
  8910     0DAC  087A               	movf	___fladd@bexp,w
  8911     0DAD  1D03               	btfss	3,2
  8912     0DAE  2DB0               	goto	u4371
  8913     0DAF  2DB1               	goto	u4370
  8914     0DB0                     u4371:
  8915     0DB0  2DB2               	goto	l3675
  8916     0DB1                     u4370:
  8917     0DB1                     l3673:
  8918     0DB1  01F8               	clrf	___fladd@signs
  8919     0DB2                     l3675:
  8920     0DB2  1C7A               	btfss	___fladd@bexp,0
  8921     0DB3  2DB5               	goto	u4381
  8922     0DB4  2DB6               	goto	u4380
  8923     0DB5                     u4381:
  8924     0DB5  2DB8               	goto	l3679
  8925     0DB6                     u4380:
  8926     0DB6                     l3677:
  8927     0DB6  17F2               	bsf	___fladd@b+2,7
  8928     0DB7  2DBD               	goto	l993
  8929     0DB8                     l3679:
  8930     0DB8  307F               	movlw	127
  8931     0DB9  0020               	movlb	0	; select bank0
  8932     0DBA  00A0               	movwf	??___fladd
  8933     0DBB  0820               	movf	??___fladd,w
  8934     0DBC  05F2               	andwf	___fladd@b+2,f
  8935     0DBD                     l993:
  8936     0DBD  367A               	lsrf	___fladd@bexp,w
  8937     0DBE  00F3               	movwf	___fladd@b+3
  8938     0DBF                     l3681:
  8939     0DBF  1FF8               	btfss	___fladd@signs,7
  8940     0DC0  2DC2               	goto	u4391
  8941     0DC1  2DC3               	goto	u4390
  8942     0DC2                     u4391:
  8943     0DC2  2DC4               	goto	l994
  8944     0DC3                     u4390:
  8945     0DC3                     l3683:
  8946     0DC3  17F3               	bsf	___fladd@b+3,7
  8947     0DC4                     l994:
  8948     0DC4                     l964:
  8949     0DC4  0008               	return
  8950     0DC5                     __end_of___fladd:
  8951                           
  8952                           	psect	text28
  8953     1C67                     __ptext28:	
  8954 ;; *************** function ___awdiv *****************
  8955 ;; Defined at:
  8956 ;;		line 5 in file "C:\Program Files\Microchip\xc8\v2.41\pic\sources\c90\common\awdiv.c"
  8957 ;; Parameters:    Size  Location     Type
  8958 ;;  divisor         2    6[COMMON] int 
  8959 ;;  dividend        2    8[COMMON] int 
  8960 ;; Auto vars:     Size  Location     Type
  8961 ;;  quotient        2    2[BANK0 ] int 
  8962 ;;  sign            1    1[BANK0 ] unsigned char 
  8963 ;;  counter         1    0[BANK0 ] unsigned char 
  8964 ;; Return value:  Size  Location     Type
  8965 ;;                  2    6[COMMON] int 
  8966 ;; Registers used:
  8967 ;;		wreg, status,2, status,0
  8968 ;; Tracked objects:
  8969 ;;		On entry : 0/0
  8970 ;;		On exit  : 0/0
  8971 ;;		Unchanged: 0/0
  8972 ;; Data sizes:     COMMON   BANK0   BANK1   BANK2   BANK3   BANK4   BANK5   BANK6   BANK7   BANK8   BANK9  BANK10  BANK1
      +1  BANK12  BANK13  BANK14  BANK15  BANK16  BANK17  BANK18  BANK19  BANK20  BANK21  BANK22  BANK23  BANK24  BANK25
  8973 ;;      Params:         4       0       0       0       0       0       0       0       0       0       0       0       
      +0       0       0       0       0       0       0       0       0       0       0       0       0       0       0
  8974 ;;      Locals:         0       4       0       0       0       0       0       0       0       0       0       0       
      +0       0       0       0       0       0       0       0       0       0       0       0       0       0       0
  8975 ;;      Temps:          1       0       0       0       0       0       0       0       0       0       0       0       
      +0       0       0       0       0       0       0       0       0       0       0       0       0       0       0
  8976 ;;      Totals:         5       4       0       0       0       0       0       0       0       0       0       0       
      +0       0       0       0       0       0       0       0       0       0       0       0       0       0       0
  8977 ;;Total ram usage:        9 bytes
  8978 ;; Hardware stack levels used: 1
  8979 ;; This function calls:
  8980 ;;		Nothing
  8981 ;; This function is called by:
  8982 ;;		_main
  8983 ;; This function uses a non-reentrant model
  8984 ;;
  8985                           
  8986     1C67                     ___awdiv:	
  8987                           ;psect for function ___awdiv
  8988                           
  8989     1C67                     l3411:	
  8990                           ;incstack = 0
  8991                           ; Regs used in ___awdiv: [wreg+status,2+status,0]
  8992                           
  8993     1C67  0020               	movlb	0	; select bank0
  8994     1C68  01A1               	clrf	___awdiv@sign
  8995     1C69                     l3413:
  8996     1C69  1FF7               	btfss	___awdiv@divisor+1,7
  8997     1C6A  2C6C               	goto	u3771
  8998     1C6B  2C6D               	goto	u3770
  8999     1C6C                     u3771:
  9000     1C6C  2C74               	goto	l3419
  9001     1C6D                     u3770:
  9002     1C6D                     l3415:
  9003     1C6D  09F6               	comf	___awdiv@divisor,f
  9004     1C6E  09F7               	comf	___awdiv@divisor+1,f
  9005     1C6F  0AF6               	incf	___awdiv@divisor,f
  9006     1C70  1903               	skipnz
  9007     1C71  0AF7               	incf	___awdiv@divisor+1,f
  9008     1C72                     l3417:
  9009     1C72  01A1               	clrf	___awdiv@sign
  9010     1C73  0AA1               	incf	___awdiv@sign,f
  9011     1C74                     l3419:
  9012     1C74  1FF9               	btfss	___awdiv@dividend+1,7
  9013     1C75  2C77               	goto	u3781
  9014     1C76  2C78               	goto	u3780
  9015     1C77                     u3781:
  9016     1C77  2C81               	goto	l3425
  9017     1C78                     u3780:
  9018     1C78                     l3421:
  9019     1C78  09F8               	comf	___awdiv@dividend,f
  9020     1C79  09F9               	comf	___awdiv@dividend+1,f
  9021     1C7A  0AF8               	incf	___awdiv@dividend,f
  9022     1C7B  1903               	skipnz
  9023     1C7C  0AF9               	incf	___awdiv@dividend+1,f
  9024     1C7D                     l3423:
  9025     1C7D  3001               	movlw	1
  9026     1C7E  00FA               	movwf	??___awdiv
  9027     1C7F  087A               	movf	??___awdiv,w
  9028     1C80  06A1               	xorwf	___awdiv@sign,f
  9029     1C81                     l3425:
  9030     1C81  01A2               	clrf	___awdiv@quotient
  9031     1C82  01A3               	clrf	___awdiv@quotient+1
  9032     1C83                     l3427:
  9033     1C83  0876               	movf	___awdiv@divisor,w
  9034     1C84  0477               	iorwf	___awdiv@divisor+1,w
  9035     1C85  1903               	btfsc	3,2
  9036     1C86  2C88               	goto	u3791
  9037     1C87  2C89               	goto	u3790
  9038     1C88                     u3791:
  9039     1C88  2CB8               	goto	l3447
  9040     1C89                     u3790:
  9041     1C89                     l3429:
  9042     1C89  01A0               	clrf	___awdiv@counter
  9043     1C8A  0AA0               	incf	___awdiv@counter,f
  9044     1C8B  2C95               	goto	l3435
  9045     1C8C                     l3431:
  9046     1C8C  3001               	movlw	1
  9047     1C8D                     u3805:
  9048     1C8D  35F6               	lslf	___awdiv@divisor,f
  9049     1C8E  0DF7               	rlf	___awdiv@divisor+1,f
  9050     1C8F  0B89               	decfsz	9,f
  9051     1C90  2C8D               	goto	u3805
  9052     1C91                     l3433:
  9053     1C91  3001               	movlw	1
  9054     1C92  00FA               	movwf	??___awdiv
  9055     1C93  087A               	movf	??___awdiv,w
  9056     1C94  07A0               	addwf	___awdiv@counter,f
  9057     1C95                     l3435:
  9058     1C95  1FF7               	btfss	___awdiv@divisor+1,7
  9059     1C96  2C98               	goto	u3811
  9060     1C97  2C99               	goto	u3810
  9061     1C98                     u3811:
  9062     1C98  2C8C               	goto	l3431
  9063     1C99                     u3810:
  9064     1C99                     l3437:
  9065     1C99  3001               	movlw	1
  9066     1C9A                     u3825:
  9067     1C9A  35A2               	lslf	___awdiv@quotient,f
  9068     1C9B  0DA3               	rlf	___awdiv@quotient+1,f
  9069     1C9C  0B89               	decfsz	9,f
  9070     1C9D  2C9A               	goto	u3825
  9071     1C9E  0877               	movf	___awdiv@divisor+1,w
  9072     1C9F  0279               	subwf	___awdiv@dividend+1,w
  9073     1CA0  1D03               	skipz
  9074     1CA1  2CA4               	goto	u3835
  9075     1CA2  0876               	movf	___awdiv@divisor,w
  9076     1CA3  0278               	subwf	___awdiv@dividend,w
  9077     1CA4                     u3835:
  9078     1CA4  1C03               	skipc
  9079     1CA5  2CA7               	goto	u3831
  9080     1CA6  2CA8               	goto	u3830
  9081     1CA7                     u3831:
  9082     1CA7  2CAD               	goto	l3443
  9083     1CA8                     u3830:
  9084     1CA8                     l3439:
  9085     1CA8  0876               	movf	___awdiv@divisor,w
  9086     1CA9  02F8               	subwf	___awdiv@dividend,f
  9087     1CAA  0877               	movf	___awdiv@divisor+1,w
  9088     1CAB  3BF9               	subwfb	___awdiv@dividend+1,f
  9089     1CAC                     l3441:
  9090     1CAC  1422               	bsf	___awdiv@quotient,0
  9091     1CAD                     l3443:
  9092     1CAD  3001               	movlw	1
  9093     1CAE                     u3845:
  9094     1CAE  36F7               	lsrf	___awdiv@divisor+1,f
  9095     1CAF  0CF6               	rrf	___awdiv@divisor,f
  9096     1CB0  0B89               	decfsz	9,f
  9097     1CB1  2CAE               	goto	u3845
  9098     1CB2                     l3445:
  9099     1CB2  3001               	movlw	1
  9100     1CB3  02A0               	subwf	___awdiv@counter,f
  9101     1CB4  1D03               	btfss	3,2
  9102     1CB5  2CB7               	goto	u3851
  9103     1CB6  2CB8               	goto	u3850
  9104     1CB7                     u3851:
  9105     1CB7  2C99               	goto	l3437
  9106     1CB8                     u3850:
  9107     1CB8                     l3447:
  9108     1CB8  0821               	movf	___awdiv@sign,w
  9109     1CB9  1903               	btfsc	3,2
  9110     1CBA  2CBC               	goto	u3861
  9111     1CBB  2CBD               	goto	u3860
  9112     1CBC                     u3861:
  9113     1CBC  2CC2               	goto	l3451
  9114     1CBD                     u3860:
  9115     1CBD                     l3449:
  9116     1CBD  09A2               	comf	___awdiv@quotient,f
  9117     1CBE  09A3               	comf	___awdiv@quotient+1,f
  9118     1CBF  0AA2               	incf	___awdiv@quotient,f
  9119     1CC0  1903               	skipnz
  9120     1CC1  0AA3               	incf	___awdiv@quotient+1,f
  9121     1CC2                     l3451:
  9122     1CC2  0823               	movf	___awdiv@quotient+1,w
  9123     1CC3  00F7               	movwf	?___awdiv+1
  9124     1CC4  0822               	movf	___awdiv@quotient,w
  9125     1CC5  00F6               	movwf	?___awdiv
  9126     1CC6                     l811:
  9127     1CC6  0008               	return
  9128     1CC7                     __end_of___awdiv:
  9129                           
  9130                           	psect	text29
  9131     19D3                     __ptext29:	
  9132 ;; *************** function _AD_convert *****************
  9133 ;; Defined at:
  9134 ;;		line 120 in file "main.c"
  9135 ;; Parameters:    Size  Location     Type
  9136 ;;  channel         1    wreg     unsigned char 
  9137 ;; Auto vars:     Size  Location     Type
  9138 ;;  channel         1    0[COMMON] unsigned char 
  9139 ;; Return value:  Size  Location     Type
  9140 ;;                  2    0[COMMON] unsigned int 
  9141 ;; Registers used:
  9142 ;;		wreg
  9143 ;; Tracked objects:
  9144 ;;		On entry : 0/0
  9145 ;;		On exit  : 0/0
  9146 ;;		Unchanged: 0/0
  9147 ;; Data sizes:     COMMON   BANK0   BANK1   BANK2   BANK3   BANK4   BANK5   BANK6   BANK7   BANK8   BANK9  BANK10  BANK1
      +1  BANK12  BANK13  BANK14  BANK15  BANK16  BANK17  BANK18  BANK19  BANK20  BANK21  BANK22  BANK23  BANK24  BANK25
  9148 ;;      Params:         2       0       0       0       0       0       0       0       0       0       0       0       
      +0       0       0       0       0       0       0       0       0       0       0       0       0       0       0
  9149 ;;      Locals:         0       0       0       0       0       0       0       0       0       0       0       0       
      +0       0       0       0       0       0       0       0       0       0       0       0       0       0       0
  9150 ;;      Temps:          0       0       0       0       0       0       0       0       0       0       0       0       
      +0       0       0       0       0       0       0       0       0       0       0       0       0       0       0
  9151 ;;      Totals:         2       0       0       0       0       0       0       0       0       0       0       0       
      +0       0       0       0       0       0       0       0       0       0       0       0       0       0       0
  9152 ;;Total ram usage:        2 bytes
  9153 ;; Hardware stack levels used: 1
  9154 ;; This function calls:
  9155 ;;		Nothing
  9156 ;; This function is called by:
  9157 ;;		_main
  9158 ;; This function uses a non-reentrant model
  9159 ;;
  9160                           
  9161     19D3                     _AD_convert:	
  9162                           ;psect for function _AD_convert
  9163                           
  9164     19D3                     l3265:	
  9165                           ;incstack = 0
  9166                           ; Regs used in _AD_convert: [wreg]
  9167                           
  9168                           
  9169                           ;main.c: 122: ADCON0bits.CHS0 = 0;
  9170     19D3  0021               	movlb	1	; select bank1
  9171     19D4  111D               	bcf	29,2	;volatile
  9172                           
  9173                           ;main.c: 123: ADCON0bits.CHS1 = 0;
  9174     19D5  119D               	bcf	29,3	;volatile
  9175                           
  9176                           ;main.c: 124: ADCON0bits.CHS2 = 1;
  9177     19D6  161D               	bsf	29,4	;volatile
  9178                           
  9179                           ;main.c: 125: ADCON0bits.CHS3 = 0;
  9180     19D7  129D               	bcf	29,5	;volatile
  9181                           
  9182                           ;main.c: 126: ADCON0bits.CHS4 = 0;
  9183     19D8  131D               	bcf	29,6	;volatile
  9184     19D9                     l3267:
  9185                           
  9186                           ;main.c: 127: _delay((unsigned long)((20)*(4000000/4000000.0)));
  9187     19D9  3006               	movlw	6
  9188     19DA                     u6407:
  9189     19DA  0B89               	decfsz	9,f
  9190     19DB  29DA               	goto	u6407
  9191     19DC  3200               	nop2
  9192     19DD                     l3269:
  9193                           
  9194                           ;main.c: 128: ADCON0bits.GO_nDONE = 1;
  9195     19DD  0021               	movlb	1	; select bank1
  9196     19DE  149D               	bsf	29,1	;volatile
  9197     19DF                     l85:	
  9198                           ;main.c: 129: while(ADCON0bits.GO_nDONE){};
  9199                           
  9200     19DF  189D               	btfsc	29,1	;volatile
  9201     19E0  29E2               	goto	u3561
  9202     19E1  29E3               	goto	u3560
  9203     19E2                     u3561:
  9204     19E2  29DF               	goto	l85
  9205     19E3                     u3560:
  9206     19E3                     l3271:
  9207                           
  9208                           ;main.c: 131: return (ADRESH<<8) + ADRESL;
  9209     19E3  081C               	movf	28,w	;volatile
  9210     19E4  00F1               	movwf	?_AD_convert+1
  9211     19E5  081B               	movf	27,w	;volatile
  9212     19E6  00F0               	movwf	?_AD_convert
  9213     19E7                     l88:
  9214     19E7  0008               	return
  9215     19E8                     __end_of_AD_convert:
  9216     007E                     btemp	set	126	;btemp
  9217     007E                     wtemp0	set	126
  9218                           
  9219                           	psect	idloc
  9220                           
  9221                           ;Config register IDLOC0 @ 0x8000
  9222                           ;	unspecified, using default values
  9223     8000                     	org	32768
  9224     8000  3FFF               	dw	16383
  9225                           
  9226                           ;Config register IDLOC1 @ 0x8001
  9227                           ;	unspecified, using default values
  9228     8001                     	org	32769
  9229     8001  3FFF               	dw	16383
  9230                           
  9231                           ;Config register IDLOC2 @ 0x8002
  9232                           ;	unspecified, using default values
  9233     8002                     	org	32770
  9234     8002  3FFF               	dw	16383
  9235                           
  9236                           ;Config register IDLOC3 @ 0x8003
  9237                           ;	unspecified, using default values
  9238     8003                     	org	32771
  9239     8003  3FFF               	dw	16383
  9240                           
  9241                           	psect	config
  9242                           
  9243                           ;Config register CONFIG1 @ 0x8007
  9244                           ;	Oscillator Selection
  9245                           ;	FOSC = INTOSC, INTOSC oscillator: I/O function on CLKIN pin
  9246                           ;	Watchdog Timer Enable
  9247                           ;	WDTE = OFF, WDT disabled
  9248                           ;	Power-up Timer Enable
  9249                           ;	PWRTE = OFF, PWRT disabled
  9250                           ;	MCLR Pin Function Select
  9251                           ;	MCLRE = ON, MCLR/VPP pin function is MCLR
  9252                           ;	Flash Program Memory Code Protection
  9253                           ;	CP = OFF, Program memory code protection is disabled
  9254                           ;	Data Memory Code Protection
  9255                           ;	CPD = OFF, Data memory code protection is disabled
  9256                           ;	Brown-out Reset Enable
  9257                           ;	BOREN = ON, Brown-out Reset enabled
  9258                           ;	Clock Out Enable
  9259                           ;	CLKOUTEN = 0x1, unprogrammed default
  9260                           ;	Internal/External Switchover
  9261                           ;	IESO = 0x1, unprogrammed default
  9262                           ;	Fail-Safe Clock Monitor Enable
  9263                           ;	FCMEN = 0x1, unprogrammed default
  9264     8007                     	org	32775
  9265     8007  3FE4               	dw	16356
  9266                           
  9267                           ;Config register CONFIG2 @ 0x8008
  9268                           ;	Flash Memory Self-Write Protection
  9269                           ;	WRT = 0x3, unprogrammed default
  9270                           ;	Voltage Regulator Capacitor Enable bit
  9271                           ;	VCAPEN = 0x1, unprogrammed default
  9272                           ;	PLL Enable
  9273                           ;	PLLEN = 0x1, unprogrammed default
  9274                           ;	Stack Overflow/Underflow Reset Enable
  9275                           ;	STVREN = 0x1, unprogrammed default
  9276                           ;	Brown-out Reset Voltage Selection
  9277                           ;	BORV = 0x1, unprogrammed default
  9278                           ;	Low Power Brown-Out Reset Enable Bit
  9279                           ;	LPBOR = 0x1, unprogrammed default
  9280                           ;	Low-Voltage Programming Enable
  9281                           ;	LVP = OFF, High-voltage on MCLR/VPP must be used for programming
  9282     8008                     	org	32776
  9283     8008  1FFF               	dw	8191
  9284                           
  9285                           	psect	maintext_split_1
  9286     1136                     u5110:
  9287     1136                     l4135:
  9288                           
  9289                           ;main.c: 263: cmd = RPS;
  9290     1136  0020               	movlb	0	; select bank0
  9291     1137  01ED               	clrf	main@cmd
  9292     1138                     L1:
  9293                           
  9294                           ;main.c: 264: }else if(strcmp(rcmd,"WTB") == 0){
  9295     1138  3190  2885         	goto	l4277
  9296     113A                     l4137:
  9297     113A  306C               	movlw	low (STR_2| (0+32768))
  9298     113B  00F0               	movwf	strcmp@s2
  9299     113C  30A1               	movlw	high (STR_2| (0+32768))
  9300     113D  00F1               	movwf	strcmp@s2+1
  9301     113E  3032               	movlw	(low (main@rcmd| (0+256)))& (0+255)
  9302     113F  319A  223A  3191   	fcall	_strcmp
  9303     1142  0870               	movf	?_strcmp,w
  9304     1143  0471               	iorwf	?_strcmp+1,w
  9305     1144  1D03               	btfss	3,2
  9306     1145  2947               	goto	u5121
  9307     1146  2948               	goto	u5120
  9308     1147                     u5121:
  9309     1147  294C               	goto	l4141
  9310     1148                     u5120:
  9311     1148                     l4139:
  9312                           
  9313                           ;main.c: 265: cmd = WTB;
  9314     1148  0020               	movlb	0	; select bank0
  9315     1149  01ED               	clrf	main@cmd
  9316     114A  0AED               	incf	main@cmd,f
  9317                           
  9318                           ;main.c: 266: }else if(strcmp(rcmd,"WNI") == 0){
  9319     114B  2938               	goto	L1
  9320     114C                     l4141:
  9321     114C  309C               	movlw	low (STR_3| (0+32768))
  9322     114D  00F0               	movwf	strcmp@s2
  9323     114E  30A1               	movlw	high (STR_3| (0+32768))
  9324     114F  00F1               	movwf	strcmp@s2+1
  9325     1150  3032               	movlw	(low (main@rcmd| (0+256)))& (0+255)
  9326     1151  319A  223A  3191   	fcall	_strcmp
  9327     1154  0870               	movf	?_strcmp,w
  9328     1155  0471               	iorwf	?_strcmp+1,w
  9329     1156  1D03               	btfss	3,2
  9330     1157  2959               	goto	u5131
  9331     1158  295A               	goto	u5130
  9332     1159                     u5131:
  9333     1159  295E               	goto	l4145
  9334     115A                     u5130:
  9335     115A                     l4143:
  9336                           
  9337                           ;main.c: 267: cmd = WNI;
  9338     115A  3002               	movlw	2
  9339     115B  0020               	movlb	0	; select bank0
  9340     115C  00ED               	movwf	main@cmd
  9341                           
  9342                           ;main.c: 268: }else if(strcmp(rcmd,"WPD") == 0){
  9343     115D  2938               	goto	L1
  9344     115E                     l4145:
  9345     115E  3088               	movlw	low (STR_4| (0+32768))
  9346     115F  00F0               	movwf	strcmp@s2
  9347     1160  30A1               	movlw	high (STR_4| (0+32768))
  9348     1161  00F1               	movwf	strcmp@s2+1
  9349     1162  3032               	movlw	(low (main@rcmd| (0+256)))& (0+255)
  9350     1163  319A  223A  3191   	fcall	_strcmp
  9351     1166  0870               	movf	?_strcmp,w
  9352     1167  0471               	iorwf	?_strcmp+1,w
  9353     1168  1D03               	btfss	3,2
  9354     1169  296B               	goto	u5141
  9355     116A  296C               	goto	u5140
  9356     116B                     u5141:
  9357     116B  2970               	goto	l4149
  9358     116C                     u5140:
  9359     116C                     l4147:
  9360                           
  9361                           ;main.c: 269: cmd = WPD;
  9362     116C  3003               	movlw	3
  9363     116D  0020               	movlb	0	; select bank0
  9364     116E  00ED               	movwf	main@cmd
  9365                           
  9366                           ;main.c: 270: }else if(strcmp(rcmd,"OSC") == 0){
  9367     116F  2938               	goto	L1
  9368     1170                     l4149:
  9369     1170  307C               	movlw	low (STR_5| (0+32768))
  9370     1171  00F0               	movwf	strcmp@s2
  9371     1172  30A1               	movlw	high (STR_5| (0+32768))
  9372     1173  00F1               	movwf	strcmp@s2+1
  9373     1174  3032               	movlw	(low (main@rcmd| (0+256)))& (0+255)
  9374     1175  319A  223A  3191   	fcall	_strcmp
  9375     1178  0870               	movf	?_strcmp,w
  9376     1179  0471               	iorwf	?_strcmp+1,w
  9377     117A  1D03               	btfss	3,2
  9378     117B  297D               	goto	u5151
  9379     117C  297E               	goto	u5150
  9380     117D                     u5151:
  9381     117D  2982               	goto	l4153
  9382     117E                     u5150:
  9383     117E                     l4151:
  9384                           
  9385                           ;main.c: 271: cmd = OSC;
  9386     117E  3004               	movlw	4
  9387     117F  0020               	movlb	0	; select bank0
  9388     1180  00ED               	movwf	main@cmd
  9389                           
  9390                           ;main.c: 272: }else if(strcmp(rcmd,"NOS") == 0){
  9391     1181  2938               	goto	L1
  9392     1182                     l4153:
  9393     1182  30CC               	movlw	low (STR_6| (0+32768))
  9394     1183  00F0               	movwf	strcmp@s2
  9395     1184  30A1               	movlw	high (STR_6| (0+32768))
  9396     1185  00F1               	movwf	strcmp@s2+1
  9397     1186  3032               	movlw	(low (main@rcmd| (0+256)))& (0+255)
  9398     1187  319A  223A  3191   	fcall	_strcmp
  9399     118A  0870               	movf	?_strcmp,w
  9400     118B  0471               	iorwf	?_strcmp+1,w
  9401     118C  1D03               	btfss	3,2
  9402     118D  298F               	goto	u5161
  9403     118E  2990               	goto	u5160
  9404     118F                     u5161:
  9405     118F  2994               	goto	l4157
  9406     1190                     u5160:
  9407     1190                     l4155:
  9408                           
  9409                           ;main.c: 273: cmd = NOS;
  9410     1190  3005               	movlw	5
  9411     1191  0020               	movlb	0	; select bank0
  9412     1192  00ED               	movwf	main@cmd
  9413                           
  9414                           ;main.c: 274: }else if(strcmp(rcmd,"NTD") == 0){
  9415     1193  2938               	goto	L1
  9416     1194                     l4157:
  9417     1194  3090               	movlw	low (STR_7| (0+32768))
  9418     1195  00F0               	movwf	strcmp@s2
  9419     1196  30A1               	movlw	high (STR_7| (0+32768))
  9420     1197  00F1               	movwf	strcmp@s2+1
  9421     1198  3032               	movlw	(low (main@rcmd| (0+256)))& (0+255)
  9422     1199  319A  223A  3191   	fcall	_strcmp
  9423     119C  0870               	movf	?_strcmp,w
  9424     119D  0471               	iorwf	?_strcmp+1,w
  9425     119E  1D03               	btfss	3,2
  9426     119F  29A1               	goto	u5171
  9427     11A0  29A2               	goto	u5170
  9428     11A1                     u5171:
  9429     11A1  29A6               	goto	l4161
  9430     11A2                     u5170:
  9431     11A2                     l4159:
  9432                           
  9433                           ;main.c: 275: cmd = NTD;
  9434     11A2  3006               	movlw	6
  9435     11A3  0020               	movlb	0	; select bank0
  9436     11A4  00ED               	movwf	main@cmd
  9437                           
  9438                           ;main.c: 276: }else if(strcmp(rcmd,"NDO") == 0){
  9439     11A5  2938               	goto	L1
  9440     11A6                     l4161:
  9441     11A6  30A8               	movlw	low (STR_8| (0+32768))
  9442     11A7  00F0               	movwf	strcmp@s2
  9443     11A8  30A1               	movlw	high (STR_8| (0+32768))
  9444     11A9  00F1               	movwf	strcmp@s2+1
  9445     11AA  3032               	movlw	(low (main@rcmd| (0+256)))& (0+255)
  9446     11AB  319A  223A  3191   	fcall	_strcmp
  9447     11AE  0870               	movf	?_strcmp,w
  9448     11AF  0471               	iorwf	?_strcmp+1,w
  9449     11B0  1D03               	btfss	3,2
  9450     11B1  29B3               	goto	u5181
  9451     11B2  29B4               	goto	u5180
  9452     11B3                     u5181:
  9453     11B3  29B8               	goto	l4165
  9454     11B4                     u5180:
  9455     11B4                     l4163:
  9456                           
  9457                           ;main.c: 277: cmd = NDO;
  9458     11B4  3007               	movlw	7
  9459     11B5  0020               	movlb	0	; select bank0
  9460     11B6  00ED               	movwf	main@cmd
  9461                           
  9462                           ;main.c: 278: }else if(strcmp(rcmd,"NDD") == 0){
  9463     11B7  2938               	goto	L1
  9464     11B8                     l4165:
  9465     11B8  3080               	movlw	low (STR_9| (0+32768))
  9466     11B9  00F0               	movwf	strcmp@s2
  9467     11BA  30A1               	movlw	high (STR_9| (0+32768))
  9468     11BB  00F1               	movwf	strcmp@s2+1
  9469     11BC  3032               	movlw	(low (main@rcmd| (0+256)))& (0+255)
  9470     11BD  319A  223A  3191   	fcall	_strcmp
  9471     11C0  0870               	movf	?_strcmp,w
  9472     11C1  0471               	iorwf	?_strcmp+1,w
  9473     11C2  1D03               	btfss	3,2
  9474     11C3  29C5               	goto	u5191
  9475     11C4  29C6               	goto	u5190
  9476     11C5                     u5191:
  9477     11C5  29CA               	goto	l4169
  9478     11C6                     u5190:
  9479     11C6                     l4167:
  9480                           
  9481                           ;main.c: 279: cmd = NDD;
  9482     11C6  3008               	movlw	8
  9483     11C7  0020               	movlb	0	; select bank0
  9484     11C8  00ED               	movwf	main@cmd
  9485                           
  9486                           ;main.c: 280: }else if(strcmp(rcmd,"NSC") == 0){
  9487     11C9  2938               	goto	L1
  9488     11CA                     l4169:
  9489     11CA  3078               	movlw	low (STR_10| (0+32768))
  9490     11CB  00F0               	movwf	strcmp@s2
  9491     11CC  30A1               	movlw	high (STR_10| (0+32768))
  9492     11CD  00F1               	movwf	strcmp@s2+1
  9493     11CE  3032               	movlw	(low (main@rcmd| (0+256)))& (0+255)
  9494     11CF  319A  223A  3191   	fcall	_strcmp
  9495     11D2  0870               	movf	?_strcmp,w
  9496     11D3  0471               	iorwf	?_strcmp+1,w
  9497     11D4  1D03               	btfss	3,2
  9498     11D5  29D7               	goto	u5201
  9499     11D6  29D8               	goto	u5200
  9500     11D7                     u5201:
  9501     11D7  29DC               	goto	l4173
  9502     11D8                     u5200:
  9503     11D8                     l4171:
  9504                           
  9505                           ;main.c: 281: cmd = NSC;
  9506     11D8  300B               	movlw	11
  9507     11D9  0020               	movlb	0	; select bank0
  9508     11DA  00ED               	movwf	main@cmd
  9509                           
  9510                           ;main.c: 282: }else if(strcmp(rcmd,"WRP") == 0){
  9511     11DB  2938               	goto	L1
  9512     11DC                     l4173:
  9513     11DC  30BC               	movlw	low (STR_11| (0+32768))
  9514     11DD  00F0               	movwf	strcmp@s2
  9515     11DE  30A1               	movlw	high (STR_11| (0+32768))
  9516     11DF  00F1               	movwf	strcmp@s2+1
  9517     11E0  3032               	movlw	(low (main@rcmd| (0+256)))& (0+255)
  9518     11E1  319A  223A  3191   	fcall	_strcmp
  9519     11E4  0870               	movf	?_strcmp,w
  9520     11E5  0471               	iorwf	?_strcmp+1,w
  9521     11E6  1D03               	btfss	3,2
  9522     11E7  29E9               	goto	u5211
  9523     11E8  29EA               	goto	u5210
  9524     11E9                     u5211:
  9525     11E9  29EE               	goto	l4177
  9526     11EA                     u5210:
  9527     11EA                     l4175:
  9528                           
  9529                           ;main.c: 283: cmd = WRP;
  9530     11EA  3010               	movlw	16
  9531     11EB  0020               	movlb	0	; select bank0
  9532     11EC  00ED               	movwf	main@cmd
  9533                           
  9534                           ;main.c: 284: }else if(strcmp(rcmd,"RDC") == 0){
  9535     11ED  2938               	goto	L1
  9536     11EE                     l4177:
  9537     11EE  3070               	movlw	low (STR_12| (0+32768))
  9538     11EF  00F0               	movwf	strcmp@s2
  9539     11F0  30A1               	movlw	high (STR_12| (0+32768))
  9540     11F1  00F1               	movwf	strcmp@s2+1
  9541     11F2  3032               	movlw	(low (main@rcmd| (0+256)))& (0+255)
  9542     11F3  319A  223A  3191   	fcall	_strcmp
  9543     11F6  0870               	movf	?_strcmp,w
  9544     11F7  0471               	iorwf	?_strcmp+1,w
  9545     11F8  1D03               	btfss	3,2
  9546     11F9  29FB               	goto	u5221
  9547     11FA  29FC               	goto	u5220
  9548     11FB                     u5221:
  9549     11FB  2A00               	goto	l4181
  9550     11FC                     u5220:
  9551     11FC                     l4179:
  9552                           
  9553                           ;main.c: 285: cmd = RDC;
  9554     11FC  3011               	movlw	17
  9555     11FD  0020               	movlb	0	; select bank0
  9556     11FE  00ED               	movwf	main@cmd
  9557                           
  9558                           ;main.c: 286: }else if(strcmp(rcmd,"WDC") == 0){
  9559     11FF  2938               	goto	L1
  9560     1200                     l4181:
  9561     1200  3074               	movlw	low (STR_13| (0+32768))
  9562     1201  00F0               	movwf	strcmp@s2
  9563     1202  30A1               	movlw	high (STR_13| (0+32768))
  9564     1203  00F1               	movwf	strcmp@s2+1
  9565     1204  3032               	movlw	(low (main@rcmd| (0+256)))& (0+255)
  9566     1205  319A  223A  3191   	fcall	_strcmp
  9567     1208  0870               	movf	?_strcmp,w
  9568     1209  0471               	iorwf	?_strcmp+1,w
  9569     120A  1D03               	btfss	3,2
  9570     120B  2A0D               	goto	u5231
  9571     120C  2A0E               	goto	u5230
  9572     120D                     u5231:
  9573     120D  2A12               	goto	l4185
  9574     120E                     u5230:
  9575     120E                     l4183:
  9576                           
  9577                           ;main.c: 287: cmd = WDC;
  9578     120E  3012               	movlw	18
  9579     120F  0020               	movlb	0	; select bank0
  9580     1210  00ED               	movwf	main@cmd
  9581                           
  9582                           ;main.c: 288: }else if(strcmp(rcmd,"VER") == 0){
  9583     1211  2938               	goto	L1
  9584     1212                     l4185:
  9585     1212  30C4               	movlw	low (STR_14| (0+32768))
  9586     1213  00F0               	movwf	strcmp@s2
  9587     1214  30A1               	movlw	high (STR_14| (0+32768))
  9588     1215  00F1               	movwf	strcmp@s2+1
  9589     1216  3032               	movlw	(low (main@rcmd| (0+256)))& (0+255)
  9590     1217  319A  223A  3191   	fcall	_strcmp
  9591     121A  0870               	movf	?_strcmp,w
  9592     121B  0471               	iorwf	?_strcmp+1,w
  9593     121C  1D03               	btfss	3,2
  9594     121D  2A1F               	goto	u5241
  9595     121E  2A20               	goto	u5240
  9596     121F                     u5241:
  9597     121F  2A24               	goto	l4189
  9598     1220                     u5240:
  9599     1220                     l4187:
  9600                           
  9601                           ;main.c: 289: cmd = VER;
  9602     1220  3013               	movlw	19
  9603     1221  0020               	movlb	0	; select bank0
  9604     1222  00ED               	movwf	main@cmd
  9605                           
  9606                           ;main.c: 290: }else if(strcmp(rcmd,"STS") == 0){
  9607     1223  2938               	goto	L1
  9608     1224                     l4189:
  9609     1224  30D4               	movlw	low (STR_15| (0+32768))
  9610     1225  00F0               	movwf	strcmp@s2
  9611     1226  30A1               	movlw	high (STR_15| (0+32768))
  9612     1227  00F1               	movwf	strcmp@s2+1
  9613     1228  3032               	movlw	(low (main@rcmd| (0+256)))& (0+255)
  9614     1229  319A  223A  3191   	fcall	_strcmp
  9615     122C  0870               	movf	?_strcmp,w
  9616     122D  0471               	iorwf	?_strcmp+1,w
  9617     122E  1D03               	btfss	3,2
  9618     122F  2A31               	goto	u5251
  9619     1230  2A32               	goto	u5250
  9620     1231                     u5251:
  9621     1231  2A36               	goto	l4193
  9622     1232                     u5250:
  9623     1232                     l4191:
  9624                           
  9625                           ;main.c: 291: cmd = STS;
  9626     1232  3014               	movlw	20
  9627     1233  0020               	movlb	0	; select bank0
  9628     1234  00ED               	movwf	main@cmd
  9629                           
  9630                           ;main.c: 292: }else if(strcmp(rcmd,"NSP") == 0){
  9631     1235  2938               	goto	L1
  9632     1236                     l4193:
  9633     1236  30C0               	movlw	low (STR_16| (0+32768))
  9634     1237  00F0               	movwf	strcmp@s2
  9635     1238  30A1               	movlw	high (STR_16| (0+32768))
  9636     1239  00F1               	movwf	strcmp@s2+1
  9637     123A  3032               	movlw	(low (main@rcmd| (0+256)))& (0+255)
  9638     123B  319A  223A  3191   	fcall	_strcmp
  9639     123E  0870               	movf	?_strcmp,w
  9640     123F  0471               	iorwf	?_strcmp+1,w
  9641     1240  1D03               	btfss	3,2
  9642     1241  2A44               	goto	u5261
  9643     1242  3192  2A46         	goto	u5260
  9644     1244                     u5261:
  9645     1244  3192  2A4B         	goto	l4197
  9646                           
  9647                           	psect	maintext_split_2
  9648     1246                     u5260:
  9649     1246                     l4195:
  9650                           
  9651                           ;main.c: 293: cmd = NSP;
  9652     1246  3009               	movlw	9
  9653     1247  0020               	movlb	0	; select bank0
  9654     1248  00ED               	movwf	main@cmd
  9655     1249                     L2:
  9656                           
  9657                           ;main.c: 294: }else if(strcmp(rcmd,"RNP") == 0){
  9658     1249  3190  2885         	goto	l4277
  9659     124B                     l4197:
  9660     124B  30B4               	movlw	low (STR_17| (0+32768))
  9661     124C  00F0               	movwf	strcmp@s2
  9662     124D  30A1               	movlw	high (STR_17| (0+32768))
  9663     124E  00F1               	movwf	strcmp@s2+1
  9664     124F  3032               	movlw	(low (main@rcmd| (0+256)))& (0+255)
  9665     1250  319A  223A  3192   	fcall	_strcmp
  9666     1253  0870               	movf	?_strcmp,w
  9667     1254  0471               	iorwf	?_strcmp+1,w
  9668     1255  1D03               	btfss	3,2
  9669     1256  2A58               	goto	u5271
  9670     1257  2A59               	goto	u5270
  9671     1258                     u5271:
  9672     1258  2A5D               	goto	l4201
  9673     1259                     u5270:
  9674     1259                     l4199:
  9675                           
  9676                           ;main.c: 295: cmd = RNP;
  9677     1259  300C               	movlw	12
  9678     125A  0020               	movlb	0	; select bank0
  9679     125B  00ED               	movwf	main@cmd
  9680                           
  9681                           ;main.c: 296: }else if(strcmp(rcmd,"RNI") == 0){
  9682     125C  2A49               	goto	L2
  9683     125D                     l4201:
  9684     125D  3098               	movlw	low (STR_18| (0+32768))
  9685     125E  00F0               	movwf	strcmp@s2
  9686     125F  30A1               	movlw	high (STR_18| (0+32768))
  9687     1260  00F1               	movwf	strcmp@s2+1
  9688     1261  3032               	movlw	(low (main@rcmd| (0+256)))& (0+255)
  9689     1262  319A  223A  3192   	fcall	_strcmp
  9690     1265  0870               	movf	?_strcmp,w
  9691     1266  0471               	iorwf	?_strcmp+1,w
  9692     1267  1D03               	btfss	3,2
  9693     1268  2A6A               	goto	u5281
  9694     1269  2A6B               	goto	u5280
  9695     126A                     u5281:
  9696     126A  2A6F               	goto	l4205
  9697     126B                     u5280:
  9698     126B                     l4203:
  9699                           
  9700                           ;main.c: 297: cmd = RNI;
  9701     126B  300D               	movlw	13
  9702     126C  0020               	movlb	0	; select bank0
  9703     126D  00ED               	movwf	main@cmd
  9704                           
  9705                           ;main.c: 298: }else if(strcmp(rcmd,"RPD") == 0){
  9706     126E  2A49               	goto	L2
  9707     126F                     l4205:
  9708     126F  3084               	movlw	low (STR_19| (0+32768))
  9709     1270  00F0               	movwf	strcmp@s2
  9710     1271  30A1               	movlw	high (STR_19| (0+32768))
  9711     1272  00F1               	movwf	strcmp@s2+1
  9712     1273  3032               	movlw	(low (main@rcmd| (0+256)))& (0+255)
  9713     1274  319A  223A  3192   	fcall	_strcmp
  9714     1277  0870               	movf	?_strcmp,w
  9715     1278  0471               	iorwf	?_strcmp+1,w
  9716     1279  1D03               	btfss	3,2
  9717     127A  2A7C               	goto	u5291
  9718     127B  2A7D               	goto	u5290
  9719     127C                     u5291:
  9720     127C  2A81               	goto	l4209
  9721     127D                     u5290:
  9722     127D                     l4207:
  9723                           
  9724                           ;main.c: 299: cmd = RPD;
  9725     127D  300E               	movlw	14
  9726     127E  0020               	movlb	0	; select bank0
  9727     127F  00ED               	movwf	main@cmd
  9728                           
  9729                           ;main.c: 300: }else if(strcmp(rcmd,"RLM") == 0){
  9730     1280  2A49               	goto	L2
  9731     1281                     l4209:
  9732     1281  30A0               	movlw	low (STR_20| (0+32768))
  9733     1282  00F0               	movwf	strcmp@s2
  9734     1283  30A1               	movlw	high (STR_20| (0+32768))
  9735     1284  00F1               	movwf	strcmp@s2+1
  9736     1285  3032               	movlw	(low (main@rcmd| (0+256)))& (0+255)
  9737     1286  319A  223A  3192   	fcall	_strcmp
  9738     1289  0870               	movf	?_strcmp,w
  9739     128A  0471               	iorwf	?_strcmp+1,w
  9740     128B  1D03               	btfss	3,2
  9741     128C  2A8E               	goto	u5301
  9742     128D  2A8F               	goto	u5300
  9743     128E                     u5301:
  9744     128E  2A93               	goto	l4213
  9745     128F                     u5300:
  9746     128F                     l4211:
  9747                           
  9748                           ;main.c: 301: cmd = RLM;
  9749     128F  300F               	movlw	15
  9750     1290  0020               	movlb	0	; select bank0
  9751     1291  00ED               	movwf	main@cmd
  9752                           
  9753                           ;main.c: 302: }else if(strcmp(rcmd,"DA0") == 0){
  9754     1292  2A49               	goto	L2
  9755     1293                     l4213:
  9756     1293  305C               	movlw	low (STR_21| (0+32768))
  9757     1294  00F0               	movwf	strcmp@s2
  9758     1295  30A1               	movlw	high (STR_21| (0+32768))
  9759     1296  00F1               	movwf	strcmp@s2+1
  9760     1297  3032               	movlw	(low (main@rcmd| (0+256)))& (0+255)
  9761     1298  319A  223A  3192   	fcall	_strcmp
  9762     129B  0870               	movf	?_strcmp,w
  9763     129C  0471               	iorwf	?_strcmp+1,w
  9764     129D  1D03               	btfss	3,2
  9765     129E  2AA0               	goto	u5311
  9766     129F  2AA1               	goto	u5310
  9767     12A0                     u5311:
  9768     12A0  2AA5               	goto	l4217
  9769     12A1                     u5310:
  9770     12A1                     l4215:
  9771                           
  9772                           ;main.c: 303: cmd = DA0;
  9773     12A1  3015               	movlw	21
  9774     12A2  0020               	movlb	0	; select bank0
  9775     12A3  00ED               	movwf	main@cmd
  9776                           
  9777                           ;main.c: 304: }else if(strcmp(rcmd,"DA1") == 0){
  9778     12A4  2A49               	goto	L2
  9779     12A5                     l4217:
  9780     12A5  3060               	movlw	low (STR_22| (0+32768))
  9781     12A6  00F0               	movwf	strcmp@s2
  9782     12A7  30A1               	movlw	high (STR_22| (0+32768))
  9783     12A8  00F1               	movwf	strcmp@s2+1
  9784     12A9  3032               	movlw	(low (main@rcmd| (0+256)))& (0+255)
  9785     12AA  319A  223A  3192   	fcall	_strcmp
  9786     12AD  0870               	movf	?_strcmp,w
  9787     12AE  0471               	iorwf	?_strcmp+1,w
  9788     12AF  1D03               	btfss	3,2
  9789     12B0  2AB2               	goto	u5321
  9790     12B1  2AB3               	goto	u5320
  9791     12B2                     u5321:
  9792     12B2  2AB7               	goto	l4221
  9793     12B3                     u5320:
  9794     12B3                     l4219:
  9795                           
  9796                           ;main.c: 305: cmd = DA1;
  9797     12B3  3016               	movlw	22
  9798     12B4  0020               	movlb	0	; select bank0
  9799     12B5  00ED               	movwf	main@cmd
  9800                           
  9801                           ;main.c: 306: }else if(strcmp(rcmd,"DA2") == 0){
  9802     12B6  2A49               	goto	L2
  9803     12B7                     l4221:
  9804     12B7  3064               	movlw	low (STR_23| (0+32768))
  9805     12B8  00F0               	movwf	strcmp@s2
  9806     12B9  30A1               	movlw	high (STR_23| (0+32768))
  9807     12BA  00F1               	movwf	strcmp@s2+1
  9808     12BB  3032               	movlw	(low (main@rcmd| (0+256)))& (0+255)
  9809     12BC  319A  223A  3192   	fcall	_strcmp
  9810     12BF  0870               	movf	?_strcmp,w
  9811     12C0  0471               	iorwf	?_strcmp+1,w
  9812     12C1  1D03               	btfss	3,2
  9813     12C2  2AC4               	goto	u5331
  9814     12C3  2AC5               	goto	u5330
  9815     12C4                     u5331:
  9816     12C4  2AC9               	goto	l4225
  9817     12C5                     u5330:
  9818     12C5                     l4223:
  9819                           
  9820                           ;main.c: 307: cmd = DA2;
  9821     12C5  3017               	movlw	23
  9822     12C6  0020               	movlb	0	; select bank0
  9823     12C7  00ED               	movwf	main@cmd
  9824                           
  9825                           ;main.c: 308: }else if(strcmp(rcmd,"PMV") == 0){
  9826     12C8  2A49               	goto	L2
  9827     12C9                     l4225:
  9828     12C9  30E0               	movlw	low (STR_24| (0+32768))
  9829     12CA  00F0               	movwf	strcmp@s2
  9830     12CB  30A1               	movlw	high (STR_24| (0+32768))
  9831     12CC  00F1               	movwf	strcmp@s2+1
  9832     12CD  3032               	movlw	(low (main@rcmd| (0+256)))& (0+255)
  9833     12CE  319A  223A  3192   	fcall	_strcmp
  9834     12D1  0870               	movf	?_strcmp,w
  9835     12D2  0471               	iorwf	?_strcmp+1,w
  9836     12D3  1D03               	btfss	3,2
  9837     12D4  2AD6               	goto	u5341
  9838     12D5  2AD7               	goto	u5340
  9839     12D6                     u5341:
  9840     12D6  2ADB               	goto	l4229
  9841     12D7                     u5340:
  9842     12D7                     l4227:
  9843                           
  9844                           ;main.c: 309: cmd = PMV;
  9845     12D7  3018               	movlw	24
  9846     12D8  0020               	movlb	0	; select bank0
  9847     12D9  00ED               	movwf	main@cmd
  9848                           
  9849                           ;main.c: 310: }else if(strcmp(rcmd,"PMA") == 0){
  9850     12DA  2A49               	goto	L2
  9851     12DB                     l4229:
  9852     12DB  3068               	movlw	low (STR_25| (0+32768))
  9853     12DC  00F0               	movwf	strcmp@s2
  9854     12DD  30A1               	movlw	high (STR_25| (0+32768))
  9855     12DE  00F1               	movwf	strcmp@s2+1
  9856     12DF  3032               	movlw	(low (main@rcmd| (0+256)))& (0+255)
  9857     12E0  319A  223A  3192   	fcall	_strcmp
  9858     12E3  0870               	movf	?_strcmp,w
  9859     12E4  0471               	iorwf	?_strcmp+1,w
  9860     12E5  1D03               	btfss	3,2
  9861     12E6  2AE8               	goto	u5351
  9862     12E7  2AE9               	goto	u5350
  9863     12E8                     u5351:
  9864     12E8  2AED               	goto	l4233
  9865     12E9                     u5350:
  9866     12E9                     l4231:
  9867                           
  9868                           ;main.c: 311: cmd = PMA;
  9869     12E9  3019               	movlw	25
  9870     12EA  0020               	movlb	0	; select bank0
  9871     12EB  00ED               	movwf	main@cmd
  9872                           
  9873                           ;main.c: 312: }else if(strcmp(rcmd,"PMR") == 0){
  9874     12EC  2A49               	goto	L2
  9875     12ED                     l4233:
  9876     12ED  30C8               	movlw	low (STR_26| (0+32768))
  9877     12EE  00F0               	movwf	strcmp@s2
  9878     12EF  30A1               	movlw	high (STR_26| (0+32768))
  9879     12F0  00F1               	movwf	strcmp@s2+1
  9880     12F1  3032               	movlw	(low (main@rcmd| (0+256)))& (0+255)
  9881     12F2  319A  223A  3192   	fcall	_strcmp
  9882     12F5  0870               	movf	?_strcmp,w
  9883     12F6  0471               	iorwf	?_strcmp+1,w
  9884     12F7  1D03               	btfss	3,2
  9885     12F8  2AFA               	goto	u5361
  9886     12F9  2AFB               	goto	u5360
  9887     12FA                     u5361:
  9888     12FA  2AFF               	goto	l4237
  9889     12FB                     u5360:
  9890     12FB                     l4235:
  9891                           
  9892                           ;main.c: 313: cmd = PMR;
  9893     12FB  301A               	movlw	26
  9894     12FC  0020               	movlb	0	; select bank0
  9895     12FD  00ED               	movwf	main@cmd
  9896                           
  9897                           ;main.c: 314: }else if(strcmp(rcmd,"RPP") == 0){
  9898     12FE  2A49               	goto	L2
  9899     12FF                     l4237:
  9900     12FF  30B8               	movlw	low (STR_27| (0+32768))
  9901     1300  00F0               	movwf	strcmp@s2
  9902     1301  30A1               	movlw	high (STR_27| (0+32768))
  9903     1302  00F1               	movwf	strcmp@s2+1
  9904     1303  3032               	movlw	(low (main@rcmd| (0+256)))& (0+255)
  9905     1304  319A  223A  3192   	fcall	_strcmp
  9906     1307  0870               	movf	?_strcmp,w
  9907     1308  0471               	iorwf	?_strcmp+1,w
  9908     1309  1D03               	btfss	3,2
  9909     130A  2B0C               	goto	u5371
  9910     130B  2B0D               	goto	u5370
  9911     130C                     u5371:
  9912     130C  2B11               	goto	l4241
  9913     130D                     u5370:
  9914     130D                     l4239:
  9915                           
  9916                           ;main.c: 315: cmd = RPP;
  9917     130D  301B               	movlw	27
  9918     130E  0020               	movlb	0	; select bank0
  9919     130F  00ED               	movwf	main@cmd
  9920                           
  9921                           ;main.c: 316: }else if(strcmp(rcmd,"WLP") == 0){
  9922     1310  2A49               	goto	L2
  9923     1311                     l4241:
  9924     1311  30B0               	movlw	low (STR_28| (0+32768))
  9925     1312  00F0               	movwf	strcmp@s2
  9926     1313  30A1               	movlw	high (STR_28| (0+32768))
  9927     1314  00F1               	movwf	strcmp@s2+1
  9928     1315  3032               	movlw	(low (main@rcmd| (0+256)))& (0+255)
  9929     1316  319A  223A  3192   	fcall	_strcmp
  9930     1319  0870               	movf	?_strcmp,w
  9931     131A  0471               	iorwf	?_strcmp+1,w
  9932     131B  1D03               	btfss	3,2
  9933     131C  2B1E               	goto	u5381
  9934     131D  2B1F               	goto	u5380
  9935     131E                     u5381:
  9936     131E  2B23               	goto	l4245
  9937     131F                     u5380:
  9938     131F                     l4243:
  9939                           
  9940                           ;main.c: 317: cmd = WLP;
  9941     131F  301C               	movlw	28
  9942     1320  0020               	movlb	0	; select bank0
  9943     1321  00ED               	movwf	main@cmd
  9944                           
  9945                           ;main.c: 318: }else if(strcmp(rcmd,"WLW") == 0){
  9946     1322  2A49               	goto	L2
  9947     1323                     l4245:
  9948     1323  30E8               	movlw	low (STR_29| (0+32768))
  9949     1324  00F0               	movwf	strcmp@s2
  9950     1325  30A1               	movlw	high (STR_29| (0+32768))
  9951     1326  00F1               	movwf	strcmp@s2+1
  9952     1327  3032               	movlw	(low (main@rcmd| (0+256)))& (0+255)
  9953     1328  319A  223A  3192   	fcall	_strcmp
  9954     132B  0870               	movf	?_strcmp,w
  9955     132C  0471               	iorwf	?_strcmp+1,w
  9956     132D  1D03               	btfss	3,2
  9957     132E  2B30               	goto	u5391
  9958     132F  2B31               	goto	u5390
  9959     1330                     u5391:
  9960     1330  2B35               	goto	l4249
  9961     1331                     u5390:
  9962     1331                     l4247:
  9963                           
  9964                           ;main.c: 319: cmd = WLW;
  9965     1331  301D               	movlw	29
  9966     1332  0020               	movlb	0	; select bank0
  9967     1333  00ED               	movwf	main@cmd
  9968                           
  9969                           ;main.c: 320: }else if(strcmp(rcmd,"WLT") == 0){
  9970     1334  2A49               	goto	L2
  9971     1335                     l4249:
  9972     1335  30DC               	movlw	low (STR_30| (0+32768))
  9973     1336  00F0               	movwf	strcmp@s2
  9974     1337  30A1               	movlw	high (STR_30| (0+32768))
  9975     1338  00F1               	movwf	strcmp@s2+1
  9976     1339  3032               	movlw	(low (main@rcmd| (0+256)))& (0+255)
  9977     133A  319A  223A  3192   	fcall	_strcmp
  9978     133D  0870               	movf	?_strcmp,w
  9979     133E  0471               	iorwf	?_strcmp+1,w
  9980     133F  1D03               	btfss	3,2
  9981     1340  2B42               	goto	u5401
  9982     1341  2B43               	goto	u5400
  9983     1342                     u5401:
  9984     1342  2B47               	goto	l4253
  9985     1343                     u5400:
  9986     1343                     l4251:
  9987                           
  9988                           ;main.c: 321: cmd = WLT;
  9989     1343  301E               	movlw	30
  9990     1344  0020               	movlb	0	; select bank0
  9991     1345  00ED               	movwf	main@cmd
  9992                           
  9993                           ;main.c: 322: }else if(strcmp(rcmd,"RLP") == 0){
  9994     1346  2A49               	goto	L2
  9995     1347                     l4253:
  9996     1347  30AC               	movlw	low (STR_31| (0+32768))
  9997     1348  00F0               	movwf	strcmp@s2
  9998     1349  30A1               	movlw	high (STR_31| (0+32768))
  9999     134A  00F1               	movwf	strcmp@s2+1
 10000     134B  3032               	movlw	(low (main@rcmd| (0+256)))& (0+255)
 10001     134C  319A  223A  3192   	fcall	_strcmp
 10002     134F  0870               	movf	?_strcmp,w
 10003     1350  0471               	iorwf	?_strcmp+1,w
 10004     1351  1D03               	btfss	3,2
 10005     1352  2B55               	goto	u5411
 10006     1353  3190  2827         	goto	u5410
 10007     1355                     u5411:
 10008     1355  3190  282B         	goto	l4257
 10009                           
 10010                           	psect	maintext_split_3
 10011     1027                     u5410:
 10012     1027                     l4255:
 10013                           
 10014                           ;main.c: 323: cmd = RLP;
 10015     1027  301F               	movlw	31
 10016     1028  0020               	movlb	0	; select bank0
 10017     1029  00ED               	movwf	main@cmd
 10018                           
 10019                           ;main.c: 324: }else if(strcmp(rcmd,"RLW") == 0){
 10020     102A  2885               	goto	l4277
 10021     102B                     l4257:
 10022     102B  30E4               	movlw	low (STR_32| (0+32768))
 10023     102C  00F0               	movwf	strcmp@s2
 10024     102D  30A1               	movlw	high (STR_32| (0+32768))
 10025     102E  00F1               	movwf	strcmp@s2+1
 10026     102F  3032               	movlw	(low (main@rcmd| (0+256)))& (0+255)
 10027     1030  319A  223A  3190   	fcall	_strcmp
 10028     1033  0870               	movf	?_strcmp,w
 10029     1034  0471               	iorwf	?_strcmp+1,w
 10030     1035  1D03               	btfss	3,2
 10031     1036  2838               	goto	u5421
 10032     1037  2839               	goto	u5420
 10033     1038                     u5421:
 10034     1038  283D               	goto	l4261
 10035     1039                     u5420:
 10036     1039                     l4259:
 10037                           
 10038                           ;main.c: 325: cmd = RLW;
 10039     1039  3020               	movlw	32
 10040     103A  0020               	movlb	0	; select bank0
 10041     103B  00ED               	movwf	main@cmd
 10042                           
 10043                           ;main.c: 326: }else if(strcmp(rcmd,"RLT") == 0){
 10044     103C  2885               	goto	l4277
 10045     103D                     l4261:
 10046     103D  30D8               	movlw	low (STR_33| (0+32768))
 10047     103E  00F0               	movwf	strcmp@s2
 10048     103F  30A1               	movlw	high (STR_33| (0+32768))
 10049     1040  00F1               	movwf	strcmp@s2+1
 10050     1041  3032               	movlw	(low (main@rcmd| (0+256)))& (0+255)
 10051     1042  319A  223A  3190   	fcall	_strcmp
 10052     1045  0870               	movf	?_strcmp,w
 10053     1046  0471               	iorwf	?_strcmp+1,w
 10054     1047  1D03               	btfss	3,2
 10055     1048  284A               	goto	u5431
 10056     1049  284B               	goto	u5430
 10057     104A                     u5431:
 10058     104A  284F               	goto	l4265
 10059     104B                     u5430:
 10060     104B                     l4263:
 10061                           
 10062                           ;main.c: 327: cmd = RLT;
 10063     104B  3021               	movlw	33
 10064     104C  0020               	movlb	0	; select bank0
 10065     104D  00ED               	movwf	main@cmd
 10066                           
 10067                           ;main.c: 328: }else if(strcmp(rcmd,"LPF") == 0){
 10068     104E  2885               	goto	l4277
 10069     104F                     l4265:
 10070     104F  3094               	movlw	low (STR_34| (0+32768))
 10071     1050  00F0               	movwf	strcmp@s2
 10072     1051  30A1               	movlw	high (STR_34| (0+32768))
 10073     1052  00F1               	movwf	strcmp@s2+1
 10074     1053  3032               	movlw	(low (main@rcmd| (0+256)))& (0+255)
 10075     1054  319A  223A  3190   	fcall	_strcmp
 10076     1057  0870               	movf	?_strcmp,w
 10077     1058  0471               	iorwf	?_strcmp+1,w
 10078     1059  1D03               	btfss	3,2
 10079     105A  285C               	goto	u5441
 10080     105B  285D               	goto	u5440
 10081     105C                     u5441:
 10082     105C  2861               	goto	l4269
 10083     105D                     u5440:
 10084     105D                     l4267:
 10085                           
 10086                           ;main.c: 329: cmd = LPF;
 10087     105D  3022               	movlw	34
 10088     105E  0020               	movlb	0	; select bank0
 10089     105F  00ED               	movwf	main@cmd
 10090                           
 10091                           ;main.c: 330: }else if(strcmp(rcmd,"AIN") == 0){
 10092     1060  2885               	goto	l4277
 10093     1061                     l4269:
 10094     1061  30A4               	movlw	low (STR_35| (0+32768))
 10095     1062  00F0               	movwf	strcmp@s2
 10096     1063  30A1               	movlw	high (STR_35| (0+32768))
 10097     1064  00F1               	movwf	strcmp@s2+1
 10098     1065  3032               	movlw	(low (main@rcmd| (0+256)))& (0+255)
 10099     1066  319A  223A  3190   	fcall	_strcmp
 10100     1069  0870               	movf	?_strcmp,w
 10101     106A  0471               	iorwf	?_strcmp+1,w
 10102     106B  1D03               	btfss	3,2
 10103     106C  286E               	goto	u5451
 10104     106D  286F               	goto	u5450
 10105     106E                     u5451:
 10106     106E  2873               	goto	l4273
 10107     106F                     u5450:
 10108     106F                     l4271:
 10109                           
 10110                           ;main.c: 331: cmd = AIN;
 10111     106F  3023               	movlw	35
 10112     1070  0020               	movlb	0	; select bank0
 10113     1071  00ED               	movwf	main@cmd
 10114                           
 10115                           ;main.c: 332: }else if(strcmp(rcmd,"NSD") == 0){
 10116     1072  2885               	goto	l4277
 10117     1073                     l4273:
 10118     1073  308C               	movlw	low (STR_36| (0+32768))
 10119     1074  00F0               	movwf	strcmp@s2
 10120     1075  30A1               	movlw	high (STR_36| (0+32768))
 10121     1076  00F1               	movwf	strcmp@s2+1
 10122     1077  3032               	movlw	(low (main@rcmd| (0+256)))& (0+255)
 10123     1078  319A  223A  3190   	fcall	_strcmp
 10124     107B  0870               	movf	?_strcmp,w
 10125     107C  0471               	iorwf	?_strcmp+1,w
 10126     107D  1D03               	btfss	3,2
 10127     107E  2880               	goto	u5461
 10128     107F  2881               	goto	u5460
 10129     1080                     u5461:
 10130     1080  2885               	goto	l162
 10131     1081                     u5460:
 10132     1081                     l4275:
 10133                           
 10134                           ;main.c: 333: cmd = NSD;
 10135     1081  300A               	movlw	10
 10136     1082  0020               	movlb	0	; select bank0
 10137     1083  00ED               	movwf	main@cmd
 10138     1084  2885               	goto	l4277
 10139     1085                     l162:
 10140     1085                     l4277:
 10141                           
 10142                           ;main.c: 334: };main.c: 335: ptr = strtok(tmp, "/");
 10143     1085  30EC               	movlw	low (STR_37| (0+32768))
 10144     1086  0020               	movlb	0	; select bank0
 10145     1087  00A0               	movwf	strtok@s2
 10146     1088  30A1               	movlw	high (STR_37| (0+32768))
 10147     1089  00A1               	movwf	strtok@s2+1
 10148     108A  30A0               	movlw	(low (main@tmp| 0))& (0+255)
 10149     108B  319B  2375  3190   	fcall	_strtok
 10150     108E  0020               	movlb	0	; select bank0
 10151     108F  00EE               	movwf	main@ptr
 10152                           
 10153                           ;main.c: 339: switch(cmd){
 10154     1090  3187  2F7B         	goto	l4815
 10155     1092                     l4279:
 10156                           
 10157                           ;main.c: 342: ptr = strtok((0), "/");
 10158     1092  30EC               	movlw	low (STR_37| (0+32768))
 10159     1093  00A0               	movwf	strtok@s2
 10160     1094  30A1               	movlw	high (STR_37| (0+32768))
 10161     1095  00A1               	movwf	strtok@s2+1
 10162     1096  0103               	clrw
 10163     1097  319B  2375  3190   	fcall	_strtok
 10164     109A  0020               	movlb	0	; select bank0
 10165     109B  00EE               	movwf	main@ptr
 10166                           
 10167                           ;main.c: 343: ptr = strtok((0), "/");
 10168     109C  30EC               	movlw	low (STR_37| (0+32768))
 10169     109D  00A0               	movwf	strtok@s2
 10170     109E  30A1               	movlw	high (STR_37| (0+32768))
 10171     109F  00A1               	movwf	strtok@s2+1
 10172     10A0  0103               	clrw
 10173     10A1  319B  2375  3190   	fcall	_strtok
 10174     10A4  0020               	movlb	0	; select bank0
 10175     10A5  00EE               	movwf	main@ptr
 10176                           
 10177                           ;main.c: 344: ptr = strtok((0), "/");
 10178     10A6  30EC               	movlw	low (STR_37| (0+32768))
 10179     10A7  00A0               	movwf	strtok@s2
 10180     10A8  30A1               	movlw	high (STR_37| (0+32768))
 10181     10A9  00A1               	movwf	strtok@s2+1
 10182     10AA  0103               	clrw
 10183     10AB  319B  2375  3190   	fcall	_strtok
 10184     10AE  0020               	movlb	0	; select bank0
 10185     10AF  00EE               	movwf	main@ptr
 10186                           
 10187                           ;main.c: 345: ptr = strtok((0), "/");
 10188     10B0  30EC               	movlw	low (STR_37| (0+32768))
 10189     10B1  00A0               	movwf	strtok@s2
 10190     10B2  30A1               	movlw	high (STR_37| (0+32768))
 10191     10B3  00A1               	movwf	strtok@s2+1
 10192     10B4  0103               	clrw
 10193     10B5  319B  2375  3190   	fcall	_strtok
 10194     10B8  0020               	movlb	0	; select bank0
 10195     10B9  00EE               	movwf	main@ptr
 10196     10BA                     l4281:
 10197                           
 10198                           ;main.c: 346: if(ptr != (0)) {
 10199     10BA  086E               	movf	main@ptr,w
 10200     10BB  1903               	btfsc	3,2
 10201     10BC  28BE               	goto	u5471
 10202     10BD  28BF               	goto	u5470
 10203     10BE                     u5471:
 10204     10BE  28C8               	goto	l4285
 10205     10BF                     u5470:
 10206     10BF                     l4283:
 10207                           
 10208                           ;main.c: 347: dist = atoi(ptr);
 10209     10BF  086E               	movf	main@ptr,w
 10210     10C0  319C  24C7  3190   	fcall	_atoi
 10211     10C3  0877               	movf	?_atoi+1,w
 10212     10C4  0022               	movlb	2	; select bank2
 10213     10C5  00B9               	movwf	(main@dist+1)^(0+256)
 10214     10C6  0876               	movf	?_atoi,w
 10215     10C7  00B8               	movwf	main@dist^(0+256)
 10216     10C8                     l4285:
 10217                           
 10218                           ;main.c: 348: };main.c: 350: if (dist > 0){
 10219     10C8  0022               	movlb	2	; select bank2
 10220     10C9  0839               	movf	(main@dist+1)^(0+256),w
 10221     10CA  3A80               	xorlw	128
 10222     10CB  0020               	movlb	0	; select bank0
 10223     10CC  00D4               	movwf	??_main
 10224     10CD  3080               	movlw	128
 10225     10CE  0254               	subwf	??_main,w
 10226     10CF  1D03               	skipz
 10227     10D0  28D4               	goto	u5485
 10228     10D1  3001               	movlw	1
 10229     10D2  0022               	movlb	2	; select bank2
 10230     10D3  0238               	subwf	main@dist^(0+256),w
 10231     10D4                     u5485:
 10232     10D4  1C03               	skipc
 10233     10D5  28D7               	goto	u5481
 10234     10D6  28D9               	goto	u5480
 10235     10D7                     u5481:
 10236     10D7  3195  2D95         	goto	l4301
 10237     10D9                     u5480:
 10238     10D9                     l4287:
 10239                           
 10240                           ;main.c: 351: for(k = 0 ; k < dist ; k++){
 10241     10D9  0022               	movlb	2	; select bank2
 10242     10DA  01BA               	clrf	main@k^(0+256)
 10243     10DB  01BB               	clrf	(main@k+1)^(0+256)
 10244     10DC  2922               	goto	l172
 10245     10DD                     l173:
 10246                           
 10247                           ;main.c: 352: RA0 = 1;
 10248     10DD  0020               	movlb	0	; select bank0
 10249     10DE  140C               	bsf	12,0	;volatile
 10250     10DF                     l4289:
 10251                           
 10252                           ;main.c: 353: npos += 1;
 10253     10DF  3001               	movlw	1
 10254     10E0  0022               	movlb	2	; select bank2
 10255     10E1  07B6               	addwf	main@npos^(0+256),f
 10256     10E2  3000               	movlw	0
 10257     10E3  3DB7               	addwfc	(main@npos+1)^(0+256),f
 10258     10E4                     l4291:
 10259                           
 10260                           ;main.c: 354: for(j = 0 ; j < intvl ; j++){
 10261     10E4  01BE               	clrf	main@j^(0+256)
 10262     10E5  01BF               	clrf	(main@j+1)^(0+256)
 10263     10E6  28ED               	goto	l174
 10264     10E7                     l175:
 10265                           
 10266                           ;main.c: 355: _delay((unsigned long)((1)*(4000000/4000000.0)));
 10267     10E7  0000               	nop
 10268     10E8                     l4293:
 10269     10E8  3001               	movlw	1
 10270     10E9  0022               	movlb	2	; select bank2
 10271     10EA  07BE               	addwf	main@j^(0+256),f
 10272     10EB  3000               	movlw	0
 10273     10EC  3DBF               	addwfc	(main@j+1)^(0+256),f
 10274     10ED                     l174:
 10275     10ED  083F               	movf	(main@j+1)^(0+256),w
 10276     10EE  3A80               	xorlw	128
 10277     10EF  0020               	movlb	0	; select bank0
 10278     10F0  00D4               	movwf	??_main
 10279     10F1  0022               	movlb	2	; select bank2
 10280     10F2  083D               	movf	(main@intvl+1)^(0+256),w
 10281     10F3  3A80               	xorlw	128
 10282     10F4  0020               	movlb	0	; select bank0
 10283     10F5  0254               	subwf	??_main,w
 10284     10F6  1D03               	skipz
 10285     10F7  28FB               	goto	u5495
 10286     10F8  0022               	movlb	2	; select bank2
 10287     10F9  083C               	movf	main@intvl^(0+256),w
 10288     10FA  023E               	subwf	main@j^(0+256),w
 10289     10FB                     u5495:
 10290     10FB  1C03               	skipc
 10291     10FC  28FE               	goto	u5491
 10292     10FD  28FF               	goto	u5490
 10293     10FE                     u5491:
 10294     10FE  28E7               	goto	l175
 10295     10FF                     u5490:
 10296     10FF                     l176:
 10297                           
 10298                           ;main.c: 356: };main.c: 357: RA0 = 0;
 10299     10FF  0020               	movlb	0	; select bank0
 10300     1100  100C               	bcf	12,0	;volatile
 10301     1101                     l4295:
 10302                           
 10303                           ;main.c: 358: for(j = 0 ; j < intvl ; j++){
 10304     1101  0022               	movlb	2	; select bank2
 10305     1102  01BE               	clrf	main@j^(0+256)
 10306     1103  01BF               	clrf	(main@j+1)^(0+256)
 10307     1104  290B               	goto	l177
 10308     1105                     l178:
 10309                           
 10310                           ;main.c: 359: _delay((unsigned long)((1)*(4000000/4000000.0)));
 10311     1105  0000               	nop
 10312     1106                     l4297:
 10313     1106  3001               	movlw	1
 10314     1107  0022               	movlb	2	; select bank2
 10315     1108  07BE               	addwf	main@j^(0+256),f
 10316     1109  3000               	movlw	0
 10317     110A  3DBF               	addwfc	(main@j+1)^(0+256),f
 10318     110B                     l177:
 10319     110B  083F               	movf	(main@j+1)^(0+256),w
 10320     110C  3A80               	xorlw	128
 10321     110D  0020               	movlb	0	; select bank0
 10322     110E  00D4               	movwf	??_main
 10323     110F  0022               	movlb	2	; select bank2
 10324     1110  083D               	movf	(main@intvl+1)^(0+256),w
 10325     1111  3A80               	xorlw	128
 10326     1112  0020               	movlb	0	; select bank0
 10327     1113  0254               	subwf	??_main,w
 10328     1114  1D03               	skipz
 10329     1115  2919               	goto	u5505
 10330     1116  0022               	movlb	2	; select bank2
 10331     1117  083C               	movf	main@intvl^(0+256),w
 10332     1118  023E               	subwf	main@j^(0+256),w
 10333     1119                     u5505:
 10334     1119  1C03               	skipc
 10335     111A  291C               	goto	u5501
 10336     111B  291D               	goto	u5500
 10337     111C                     u5501:
 10338     111C  2905               	goto	l178
 10339     111D                     u5500:
 10340     111D                     l4299:
 10341     111D  3001               	movlw	1
 10342     111E  0022               	movlb	2	; select bank2
 10343     111F  07BA               	addwf	main@k^(0+256),f
 10344     1120  3000               	movlw	0
 10345     1121  3DBB               	addwfc	(main@k+1)^(0+256),f
 10346     1122                     l172:
 10347     1122  083B               	movf	(main@k+1)^(0+256),w
 10348     1123  3A80               	xorlw	128
 10349     1124  0020               	movlb	0	; select bank0
 10350     1125  00D4               	movwf	??_main
 10351     1126  0022               	movlb	2	; select bank2
 10352     1127  0839               	movf	(main@dist+1)^(0+256),w
 10353     1128  3A80               	xorlw	128
 10354     1129  0020               	movlb	0	; select bank0
 10355     112A  0254               	subwf	??_main,w
 10356     112B  1D03               	skipz
 10357     112C  2930               	goto	u5515
 10358     112D  0022               	movlb	2	; select bank2
 10359     112E  0838               	movf	main@dist^(0+256),w
 10360     112F  023A               	subwf	main@k^(0+256),w
 10361     1130                     u5515:
 10362     1130  1C03               	skipc
 10363     1131  2933               	goto	u5511
 10364     1132  2934               	goto	u5510
 10365     1133                     u5511:
 10366     1133  28DD               	goto	l173
 10367     1134                     u5510:
 10368     1134  3196  2E14         	goto	l4319
 10369                           
 10370                           	psect	maintext_split_4
 10371     1595                     l4301:
 10372                           
 10373                           ;main.c: 363: dist *= -1;
 10374     1595  30FF               	movlw	255
 10375     1596  00F0               	movwf	___wmul@multiplier
 10376     1597  30FF               	movlw	255
 10377     1598  00F1               	movwf	___wmul@multiplier+1
 10378     1599  0022               	movlb	2	; select bank2
 10379     159A  0839               	movf	(main@dist+1)^(0+256),w
 10380     159B  00F3               	movwf	___wmul@multiplicand+1
 10381     159C  0838               	movf	main@dist^(0+256),w
 10382     159D  00F2               	movwf	___wmul@multiplicand
 10383     159E  319A  221B  3195   	fcall	___wmul
 10384     15A1  0871               	movf	?___wmul+1,w
 10385     15A2  0022               	movlb	2	; select bank2
 10386     15A3  00B9               	movwf	(main@dist+1)^(0+256)
 10387     15A4  0870               	movf	?___wmul,w
 10388     15A5  00B8               	movwf	main@dist^(0+256)
 10389     15A6                     l4303:
 10390                           
 10391                           ;main.c: 364: for(k = 0 ; k < dist ; k++){
 10392     15A6  01BA               	clrf	main@k^(0+256)
 10393     15A7  01BB               	clrf	(main@k+1)^(0+256)
 10394     15A8  2E02               	goto	l182
 10395     15A9                     l183:
 10396                           
 10397                           ;main.c: 365: RA1 = 1;
 10398     15A9  0020               	movlb	0	; select bank0
 10399     15AA  148C               	bsf	12,1	;volatile
 10400     15AB                     l4305:
 10401                           
 10402                           ;main.c: 366: if(npos > 1){
 10403     15AB  0022               	movlb	2	; select bank2
 10404     15AC  0837               	movf	(main@npos+1)^(0+256),w
 10405     15AD  3A80               	xorlw	128
 10406     15AE  0020               	movlb	0	; select bank0
 10407     15AF  00D4               	movwf	??_main
 10408     15B0  3080               	movlw	128
 10409     15B1  0254               	subwf	??_main,w
 10410     15B2  1D03               	skipz
 10411     15B3  2DB7               	goto	u5525
 10412     15B4  3002               	movlw	2
 10413     15B5  0022               	movlb	2	; select bank2
 10414     15B6  0236               	subwf	main@npos^(0+256),w
 10415     15B7                     u5525:
 10416     15B7  1C03               	skipc
 10417     15B8  2DBA               	goto	u5521
 10418     15B9  2DBB               	goto	u5520
 10419     15BA                     u5521:
 10420     15BA  2DC1               	goto	l4309
 10421     15BB                     u5520:
 10422     15BB                     l4307:
 10423                           
 10424                           ;main.c: 367: npos -= 1;
 10425     15BB  30FF               	movlw	255
 10426     15BC  0022               	movlb	2	; select bank2
 10427     15BD  07B6               	addwf	main@npos^(0+256),f
 10428     15BE  30FF               	movlw	255
 10429     15BF  3DB7               	addwfc	(main@npos+1)^(0+256),f
 10430                           
 10431                           ;main.c: 368: }else{
 10432     15C0  2DC4               	goto	l185
 10433     15C1                     l4309:
 10434                           
 10435                           ;main.c: 369: npos = 0;
 10436     15C1  0022               	movlb	2	; select bank2
 10437     15C2  01B6               	clrf	main@npos^(0+256)
 10438     15C3  01B7               	clrf	(main@npos+1)^(0+256)
 10439     15C4                     l185:
 10440                           
 10441                           ;main.c: 370: };main.c: 371: for(j = 0 ; j < intvl ; j++){
 10442     15C4  01BE               	clrf	main@j^(0+256)
 10443     15C5  01BF               	clrf	(main@j+1)^(0+256)
 10444     15C6  2DCD               	goto	l186
 10445     15C7                     l187:
 10446                           
 10447                           ;main.c: 372: _delay((unsigned long)((1)*(4000000/4000000.0)));
 10448     15C7  0000               	nop
 10449     15C8                     l4311:
 10450     15C8  3001               	movlw	1
 10451     15C9  0022               	movlb	2	; select bank2
 10452     15CA  07BE               	addwf	main@j^(0+256),f
 10453     15CB  3000               	movlw	0
 10454     15CC  3DBF               	addwfc	(main@j+1)^(0+256),f
 10455     15CD                     l186:
 10456     15CD  083F               	movf	(main@j+1)^(0+256),w
 10457     15CE  3A80               	xorlw	128
 10458     15CF  0020               	movlb	0	; select bank0
 10459     15D0  00D4               	movwf	??_main
 10460     15D1  0022               	movlb	2	; select bank2
 10461     15D2  083D               	movf	(main@intvl+1)^(0+256),w
 10462     15D3  3A80               	xorlw	128
 10463     15D4  0020               	movlb	0	; select bank0
 10464     15D5  0254               	subwf	??_main,w
 10465     15D6  1D03               	skipz
 10466     15D7  2DDB               	goto	u5535
 10467     15D8  0022               	movlb	2	; select bank2
 10468     15D9  083C               	movf	main@intvl^(0+256),w
 10469     15DA  023E               	subwf	main@j^(0+256),w
 10470     15DB                     u5535:
 10471     15DB  1C03               	skipc
 10472     15DC  2DDE               	goto	u5531
 10473     15DD  2DDF               	goto	u5530
 10474     15DE                     u5531:
 10475     15DE  2DC7               	goto	l187
 10476     15DF                     u5530:
 10477     15DF                     l188:
 10478                           
 10479                           ;main.c: 373: };main.c: 374: RA1 = 0;
 10480     15DF  0020               	movlb	0	; select bank0
 10481     15E0  108C               	bcf	12,1	;volatile
 10482     15E1                     l4313:
 10483                           
 10484                           ;main.c: 375: for(j = 0 ; j < intvl ; j++){
 10485     15E1  0022               	movlb	2	; select bank2
 10486     15E2  01BE               	clrf	main@j^(0+256)
 10487     15E3  01BF               	clrf	(main@j+1)^(0+256)
 10488     15E4  2DEB               	goto	l189
 10489     15E5                     l190:
 10490                           
 10491                           ;main.c: 376: _delay((unsigned long)((1)*(4000000/4000000.0)));
 10492     15E5  0000               	nop
 10493     15E6                     l4315:
 10494     15E6  3001               	movlw	1
 10495     15E7  0022               	movlb	2	; select bank2
 10496     15E8  07BE               	addwf	main@j^(0+256),f
 10497     15E9  3000               	movlw	0
 10498     15EA  3DBF               	addwfc	(main@j+1)^(0+256),f
 10499     15EB                     l189:
 10500     15EB  083F               	movf	(main@j+1)^(0+256),w
 10501     15EC  3A80               	xorlw	128
 10502     15ED  0020               	movlb	0	; select bank0
 10503     15EE  00D4               	movwf	??_main
 10504     15EF  0022               	movlb	2	; select bank2
 10505     15F0  083D               	movf	(main@intvl+1)^(0+256),w
 10506     15F1  3A80               	xorlw	128
 10507     15F2  0020               	movlb	0	; select bank0
 10508     15F3  0254               	subwf	??_main,w
 10509     15F4  1D03               	skipz
 10510     15F5  2DF9               	goto	u5545
 10511     15F6  0022               	movlb	2	; select bank2
 10512     15F7  083C               	movf	main@intvl^(0+256),w
 10513     15F8  023E               	subwf	main@j^(0+256),w
 10514     15F9                     u5545:
 10515     15F9  1C03               	skipc
 10516     15FA  2DFC               	goto	u5541
 10517     15FB  2DFD               	goto	u5540
 10518     15FC                     u5541:
 10519     15FC  2DE5               	goto	l190
 10520     15FD                     u5540:
 10521     15FD                     l4317:
 10522     15FD  3001               	movlw	1
 10523     15FE  0022               	movlb	2	; select bank2
 10524     15FF  07BA               	addwf	main@k^(0+256),f
 10525     1600  3000               	movlw	0
 10526     1601  3DBB               	addwfc	(main@k+1)^(0+256),f
 10527     1602                     l182:
 10528     1602  083B               	movf	(main@k+1)^(0+256),w
 10529     1603  3A80               	xorlw	128
 10530     1604  0020               	movlb	0	; select bank0
 10531     1605  00D4               	movwf	??_main
 10532     1606  0022               	movlb	2	; select bank2
 10533     1607  0839               	movf	(main@dist+1)^(0+256),w
 10534     1608  3A80               	xorlw	128
 10535     1609  0020               	movlb	0	; select bank0
 10536     160A  0254               	subwf	??_main,w
 10537     160B  1D03               	skipz
 10538     160C  2E10               	goto	u5555
 10539     160D  0022               	movlb	2	; select bank2
 10540     160E  0838               	movf	main@dist^(0+256),w
 10541     160F  023A               	subwf	main@k^(0+256),w
 10542     1610                     u5555:
 10543     1610  1C03               	skipc
 10544     1611  2E13               	goto	u5551
 10545     1612  2E14               	goto	u5550
 10546     1613                     u5551:
 10547     1613  2DA9               	goto	l183
 10548     1614                     u5550:
 10549     1614                     l4319:
 10550                           
 10551                           ;main.c: 377: };main.c: 378: };main.c: 379: };main.c: 382: printf("C\tRPS\r\n");
 10552     1614  304C               	movlw	low (STR_42| (0+32768))
 10553     1615  0020               	movlb	0	; select bank0
 10554     1616  00A0               	movwf	printf@f
 10555     1617  30A1               	movlw	high (STR_42| (0+32768))
 10556     1618  00A1               	movwf	printf@f+1
 10557     1619  3180  2035  3195   	fcall	_printf
 10558     161C                     L4:
 10559                           
 10560                           ;main.c: 383: break;
 10561     161C  3187  2F42         	goto	u6340
 10562     161E                     l4321:
 10563                           
 10564                           ;main.c: 386: ptr = strtok((0), "/");
 10565     161E  30EC               	movlw	low (STR_37| (0+32768))
 10566     161F  00A0               	movwf	strtok@s2
 10567     1620  30A1               	movlw	high (STR_37| (0+32768))
 10568     1621  00A1               	movwf	strtok@s2+1
 10569     1622  0103               	clrw
 10570     1623  319B  2375  3195   	fcall	_strtok
 10571     1626  0020               	movlb	0	; select bank0
 10572     1627  00EE               	movwf	main@ptr
 10573                           
 10574                           ;main.c: 387: ptr = strtok((0), "/");
 10575     1628  30EC               	movlw	low (STR_37| (0+32768))
 10576     1629  00A0               	movwf	strtok@s2
 10577     162A  30A1               	movlw	high (STR_37| (0+32768))
 10578     162B  00A1               	movwf	strtok@s2+1
 10579     162C  0103               	clrw
 10580     162D  319B  2375  3195   	fcall	_strtok
 10581     1630  0020               	movlb	0	; select bank0
 10582     1631  00EE               	movwf	main@ptr
 10583                           
 10584                           ;main.c: 388: ptr = strtok((0), "/");
 10585     1632  30EC               	movlw	low (STR_37| (0+32768))
 10586     1633  00A0               	movwf	strtok@s2
 10587     1634  30A1               	movlw	high (STR_37| (0+32768))
 10588     1635  00A1               	movwf	strtok@s2+1
 10589     1636  0103               	clrw
 10590     1637  319B  2375  3195   	fcall	_strtok
 10591     163A  0020               	movlb	0	; select bank0
 10592     163B  00EE               	movwf	main@ptr
 10593     163C                     l4323:
 10594                           
 10595                           ;main.c: 389: if(ptr != (0)) {
 10596     163C  086E               	movf	main@ptr,w
 10597     163D  1903               	btfsc	3,2
 10598     163E  2E40               	goto	u5561
 10599     163F  2E41               	goto	u5560
 10600     1640                     u5561:
 10601     1640  2E4A               	goto	l4327
 10602     1641                     u5560:
 10603     1641                     l4325:
 10604                           
 10605                           ;main.c: 390: set_spd = atoi(ptr);
 10606     1641  086E               	movf	main@ptr,w
 10607     1642  319C  24C7  3195   	fcall	_atoi
 10608     1645  0877               	movf	?_atoi+1,w
 10609     1646  0020               	movlb	0	; select bank0
 10610     1647  00DC               	movwf	main@set_spd+1
 10611     1648  0876               	movf	?_atoi,w
 10612     1649  00DB               	movwf	main@set_spd
 10613     164A                     l4327:
 10614                           
 10615                           ;main.c: 391: };main.c: 392: intvl = mx_spd / set_spd;
 10616     164A  085C               	movf	main@set_spd+1,w
 10617     164B  00F7               	movwf	___awdiv@divisor+1
 10618     164C  085B               	movf	main@set_spd,w
 10619     164D  00F6               	movwf	___awdiv@divisor
 10620     164E  085A               	movf	main@mx_spd+1,w
 10621     164F  00F9               	movwf	___awdiv@dividend+1
 10622     1650  0859               	movf	main@mx_spd,w
 10623     1651  00F8               	movwf	___awdiv@dividend
 10624     1652  319C  2467  3195   	fcall	___awdiv
 10625     1655  0877               	movf	?___awdiv+1,w
 10626     1656  0022               	movlb	2	; select bank2
 10627     1657  00BD               	movwf	(main@intvl+1)^(0+256)
 10628     1658  0876               	movf	?___awdiv,w
 10629     1659  00BC               	movwf	main@intvl^(0+256)
 10630     165A                     l4329:
 10631                           
 10632                           ;main.c: 393: if (intvl == 0){
 10633     165A  083C               	movf	main@intvl^(0+256),w
 10634     165B  043D               	iorwf	(main@intvl+1)^(0+256),w
 10635     165C  1D03               	btfss	3,2
 10636     165D  2E5F               	goto	u5571
 10637     165E  2E60               	goto	u5570
 10638     165F                     u5571:
 10639     165F  2E64               	goto	l4333
 10640     1660                     u5570:
 10641     1660                     l4331:
 10642                           
 10643                           ;main.c: 394: intvl = 1;
 10644     1660  3001               	movlw	1
 10645     1661  00BC               	movwf	main@intvl^(0+256)
 10646     1662  3000               	movlw	0
 10647     1663  00BD               	movwf	(main@intvl^(0+256)+1)
 10648     1664                     l4333:
 10649                           
 10650                           ;main.c: 395: };main.c: 397: write_data_eeprom(INTVL_ADR, intvl);
 10651     1664  0021               	movlb	1	; select bank1
 10652     1665  0857               	movf	(main@INTVL_ADR+3)^(0+128),w
 10653     1666  00F7               	movwf	write_data_eeprom@adr+3
 10654     1667  0856               	movf	(main@INTVL_ADR+2)^(0+128),w
 10655     1668  00F6               	movwf	write_data_eeprom@adr+2
 10656     1669  0855               	movf	(main@INTVL_ADR+1)^(0+128),w
 10657     166A  00F5               	movwf	write_data_eeprom@adr+1
 10658     166B  0854               	movf	main@INTVL_ADR^(0+128),w
 10659     166C  00F4               	movwf	write_data_eeprom@adr
 10660     166D  0022               	movlb	2	; select bank2
 10661     166E  083C               	movf	main@intvl^(0+256),w
 10662     166F  00F8               	movwf	write_data_eeprom@value
 10663     1670  083D               	movf	(main@intvl+1)^(0+256),w
 10664     1671  00F9               	movwf	write_data_eeprom@value+1
 10665     1672  0D89               	rlf	9,f
 10666     1673  3B89               	subwfb	9,f
 10667     1674  0989               	comf	9,f
 10668     1675  00FA               	movwf	write_data_eeprom@value+2
 10669     1676  00FB               	movwf	write_data_eeprom@value+3
 10670     1677  319B  232D  3195   	fcall	_write_data_eeprom
 10671     167A                     l4335:
 10672                           
 10673                           ;main.c: 398: printf("C\tWTB\t%d\r\n", intvl);
 10674     167A  3037               	movlw	low (STR_46| (0+32768))
 10675     167B  0020               	movlb	0	; select bank0
 10676     167C  00A0               	movwf	printf@f
 10677     167D  30A0               	movlw	high (STR_46| (0+32768))
 10678     167E  00A1               	movwf	printf@f+1
 10679     167F  0022               	movlb	2	; select bank2
 10680     1680  083D               	movf	(main@intvl+1)^(0+256),w
 10681     1681  0020               	movlb	0	; select bank0
 10682     1682  00A3               	movwf	?_printf+3
 10683     1683  0022               	movlb	2	; select bank2
 10684     1684  083C               	movf	main@intvl^(0+256),w
 10685     1685  0020               	movlb	0	; select bank0
 10686     1686  00A2               	movwf	?_printf+2
 10687     1687  3180  2035  3195   	fcall	_printf
 10688                           
 10689                           ;main.c: 400: break;
 10690     168A  2E1C               	goto	L4
 10691     168B                     l4337:
 10692                           
 10693                           ;main.c: 403: ptr = strtok((0), "/");
 10694     168B  30EC               	movlw	low (STR_37| (0+32768))
 10695     168C  00A0               	movwf	strtok@s2
 10696     168D  30A1               	movlw	high (STR_37| (0+32768))
 10697     168E  00A1               	movwf	strtok@s2+1
 10698     168F  0103               	clrw
 10699     1690  319B  2375  3195   	fcall	_strtok
 10700     1693  0020               	movlb	0	; select bank0
 10701     1694  00EE               	movwf	main@ptr
 10702     1695                     l4339:
 10703                           
 10704                           ;main.c: 404: if(ptr != (0)) {
 10705     1695  086E               	movf	main@ptr,w
 10706     1696  1903               	btfsc	3,2
 10707     1697  2E99               	goto	u5581
 10708     1698  2E9A               	goto	u5580
 10709     1699                     u5581:
 10710     1699  2EA3               	goto	l4343
 10711     169A                     u5580:
 10712     169A                     l4341:
 10713                           
 10714                           ;main.c: 405: nip = atoi(ptr);
 10715     169A  086E               	movf	main@ptr,w
 10716     169B  319C  24C7  3195   	fcall	_atoi
 10717     169E  0877               	movf	?_atoi+1,w
 10718     169F  0022               	movlb	2	; select bank2
 10719     16A0  00A1               	movwf	(main@nip+1)^(0+256)
 10720     16A1  0876               	movf	?_atoi,w
 10721     16A2  00A0               	movwf	main@nip^(0+256)
 10722     16A3                     l4343:
 10723                           
 10724                           ;main.c: 406: };main.c: 408: write_data_eeprom(NIP_ADR, nip);
 10725     16A3  0021               	movlb	1	; select bank1
 10726     16A4  085F               	movf	(main@NIP_ADR+3)^(0+128),w
 10727     16A5  00F7               	movwf	write_data_eeprom@adr+3
 10728     16A6  085E               	movf	(main@NIP_ADR+2)^(0+128),w
 10729     16A7  00F6               	movwf	write_data_eeprom@adr+2
 10730     16A8  085D               	movf	(main@NIP_ADR+1)^(0+128),w
 10731     16A9  00F5               	movwf	write_data_eeprom@adr+1
 10732     16AA  085C               	movf	main@NIP_ADR^(0+128),w
 10733     16AB  00F4               	movwf	write_data_eeprom@adr
 10734     16AC  0022               	movlb	2	; select bank2
 10735     16AD  0820               	movf	main@nip^(0+256),w
 10736     16AE  00F8               	movwf	write_data_eeprom@value
 10737     16AF  0821               	movf	(main@nip+1)^(0+256),w
 10738     16B0  00F9               	movwf	write_data_eeprom@value+1
 10739     16B1  0D89               	rlf	9,f
 10740     16B2  3B89               	subwfb	9,f
 10741     16B3  0989               	comf	9,f
 10742     16B4  00FA               	movwf	write_data_eeprom@value+2
 10743     16B5  00FB               	movwf	write_data_eeprom@value+3
 10744     16B6  319B  232D  3195   	fcall	_write_data_eeprom
 10745     16B9                     l4345:
 10746                           
 10747                           ;main.c: 409: printf("C\tWNI\t%d\r\n", nip);
 10748     16B9  304D               	movlw	low (STR_48| (0+32768))
 10749     16BA  0020               	movlb	0	; select bank0
 10750     16BB  00A0               	movwf	printf@f
 10751     16BC  30A0               	movlw	high (STR_48| (0+32768))
 10752     16BD  00A1               	movwf	printf@f+1
 10753     16BE  0022               	movlb	2	; select bank2
 10754     16BF  0821               	movf	(main@nip+1)^(0+256),w
 10755     16C0  0020               	movlb	0	; select bank0
 10756     16C1  00A3               	movwf	?_printf+3
 10757     16C2  0022               	movlb	2	; select bank2
 10758     16C3  0820               	movf	main@nip^(0+256),w
 10759     16C4  0020               	movlb	0	; select bank0
 10760     16C5  00A2               	movwf	?_printf+2
 10761     16C6  3180  2035  3195   	fcall	_printf
 10762                           
 10763                           ;main.c: 411: break;
 10764     16C9  2E1C               	goto	L4
 10765                           
 10766                           	psect	maintext_split_5
 10767     1357                     l4347:
 10768                           
 10769                           ;main.c: 414: ptr = strtok((0), "/");
 10770     1357  30EC               	movlw	low (STR_37| (0+32768))
 10771     1358  00A0               	movwf	strtok@s2
 10772     1359  30A1               	movlw	high (STR_37| (0+32768))
 10773     135A  00A1               	movwf	strtok@s2+1
 10774     135B  0103               	clrw
 10775     135C  319B  2375  3193   	fcall	_strtok
 10776     135F  0020               	movlb	0	; select bank0
 10777     1360  00EE               	movwf	main@ptr
 10778                           
 10779                           ;main.c: 415: ptr = strtok((0), "/");
 10780     1361  30EC               	movlw	low (STR_37| (0+32768))
 10781     1362  00A0               	movwf	strtok@s2
 10782     1363  30A1               	movlw	high (STR_37| (0+32768))
 10783     1364  00A1               	movwf	strtok@s2+1
 10784     1365  0103               	clrw
 10785     1366  319B  2375  3193   	fcall	_strtok
 10786     1369  0020               	movlb	0	; select bank0
 10787     136A  00EE               	movwf	main@ptr
 10788                           
 10789                           ;main.c: 416: ptr = strtok((0), "/");
 10790     136B  30EC               	movlw	low (STR_37| (0+32768))
 10791     136C  00A0               	movwf	strtok@s2
 10792     136D  30A1               	movlw	high (STR_37| (0+32768))
 10793     136E  00A1               	movwf	strtok@s2+1
 10794     136F  0103               	clrw
 10795     1370  319B  2375  3193   	fcall	_strtok
 10796     1373  0020               	movlb	0	; select bank0
 10797     1374  00EE               	movwf	main@ptr
 10798                           
 10799                           ;main.c: 417: ptr = strtok((0), "/");
 10800     1375  30EC               	movlw	low (STR_37| (0+32768))
 10801     1376  00A0               	movwf	strtok@s2
 10802     1377  30A1               	movlw	high (STR_37| (0+32768))
 10803     1378  00A1               	movwf	strtok@s2+1
 10804     1379  0103               	clrw
 10805     137A  319B  2375  3193   	fcall	_strtok
 10806     137D  0020               	movlb	0	; select bank0
 10807     137E  00EE               	movwf	main@ptr
 10808                           
 10809                           ;main.c: 418: ptr = strtok((0), "/");
 10810     137F  30EC               	movlw	low (STR_37| (0+32768))
 10811     1380  00A0               	movwf	strtok@s2
 10812     1381  30A1               	movlw	high (STR_37| (0+32768))
 10813     1382  00A1               	movwf	strtok@s2+1
 10814     1383  0103               	clrw
 10815     1384  319B  2375  3193   	fcall	_strtok
 10816     1387  0020               	movlb	0	; select bank0
 10817     1388  00EE               	movwf	main@ptr
 10818     1389                     l4349:
 10819                           
 10820                           ;main.c: 419: if(ptr != (0)) {
 10821     1389  086E               	movf	main@ptr,w
 10822     138A  1903               	btfsc	3,2
 10823     138B  2B8D               	goto	u5591
 10824     138C  2B8E               	goto	u5590
 10825     138D                     u5591:
 10826     138D  2B97               	goto	l4353
 10827     138E                     u5590:
 10828     138E                     l4351:
 10829                           
 10830                           ;main.c: 420: dist = atoi(ptr);
 10831     138E  086E               	movf	main@ptr,w
 10832     138F  319C  24C7  3193   	fcall	_atoi
 10833     1392  0877               	movf	?_atoi+1,w
 10834     1393  0022               	movlb	2	; select bank2
 10835     1394  00B9               	movwf	(main@dist+1)^(0+256)
 10836     1395  0876               	movf	?_atoi,w
 10837     1396  00B8               	movwf	main@dist^(0+256)
 10838     1397                     l4353:
 10839                           
 10840                           ;main.c: 421: };main.c: 423: if (dist > 0){
 10841     1397  0022               	movlb	2	; select bank2
 10842     1398  0839               	movf	(main@dist+1)^(0+256),w
 10843     1399  3A80               	xorlw	128
 10844     139A  0020               	movlb	0	; select bank0
 10845     139B  00D4               	movwf	??_main
 10846     139C  3080               	movlw	128
 10847     139D  0254               	subwf	??_main,w
 10848     139E  1D03               	skipz
 10849     139F  2BA3               	goto	u5605
 10850     13A0  3001               	movlw	1
 10851     13A1  0022               	movlb	2	; select bank2
 10852     13A2  0238               	subwf	main@dist^(0+256),w
 10853     13A3                     u5605:
 10854     13A3  1C03               	skipc
 10855     13A4  2BA6               	goto	u5601
 10856     13A5  2BA8               	goto	u5600
 10857     13A6                     u5601:
 10858     13A6  319E  2EF7         	goto	l4385
 10859     13A8                     u5600:
 10860     13A8                     l4355:
 10861                           
 10862                           ;main.c: 424: for(k = 0 ; k < dist ; k++){
 10863     13A8  0022               	movlb	2	; select bank2
 10864     13A9  01BA               	clrf	main@k^(0+256)
 10865     13AA  01BB               	clrf	(main@k+1)^(0+256)
 10866     13AB  2BF1               	goto	l202
 10867     13AC                     l203:
 10868                           
 10869                           ;main.c: 425: RA0 = 1;
 10870     13AC  0020               	movlb	0	; select bank0
 10871     13AD  140C               	bsf	12,0	;volatile
 10872     13AE                     l4357:
 10873                           
 10874                           ;main.c: 426: npos += 1;
 10875     13AE  3001               	movlw	1
 10876     13AF  0022               	movlb	2	; select bank2
 10877     13B0  07B6               	addwf	main@npos^(0+256),f
 10878     13B1  3000               	movlw	0
 10879     13B2  3DB7               	addwfc	(main@npos+1)^(0+256),f
 10880     13B3                     l4359:
 10881                           
 10882                           ;main.c: 427: for(j = 0 ; j < intvl ; j++){
 10883     13B3  01BE               	clrf	main@j^(0+256)
 10884     13B4  01BF               	clrf	(main@j+1)^(0+256)
 10885     13B5  2BBC               	goto	l204
 10886     13B6                     l205:
 10887                           
 10888                           ;main.c: 428: _delay((unsigned long)((1)*(4000000/4000000.0)));
 10889     13B6  0000               	nop
 10890     13B7                     l4361:
 10891     13B7  3001               	movlw	1
 10892     13B8  0022               	movlb	2	; select bank2
 10893     13B9  07BE               	addwf	main@j^(0+256),f
 10894     13BA  3000               	movlw	0
 10895     13BB  3DBF               	addwfc	(main@j+1)^(0+256),f
 10896     13BC                     l204:
 10897     13BC  083F               	movf	(main@j+1)^(0+256),w
 10898     13BD  3A80               	xorlw	128
 10899     13BE  0020               	movlb	0	; select bank0
 10900     13BF  00D4               	movwf	??_main
 10901     13C0  0022               	movlb	2	; select bank2
 10902     13C1  083D               	movf	(main@intvl+1)^(0+256),w
 10903     13C2  3A80               	xorlw	128
 10904     13C3  0020               	movlb	0	; select bank0
 10905     13C4  0254               	subwf	??_main,w
 10906     13C5  1D03               	skipz
 10907     13C6  2BCA               	goto	u5615
 10908     13C7  0022               	movlb	2	; select bank2
 10909     13C8  083C               	movf	main@intvl^(0+256),w
 10910     13C9  023E               	subwf	main@j^(0+256),w
 10911     13CA                     u5615:
 10912     13CA  1C03               	skipc
 10913     13CB  2BCD               	goto	u5611
 10914     13CC  2BCE               	goto	u5610
 10915     13CD                     u5611:
 10916     13CD  2BB6               	goto	l205
 10917     13CE                     u5610:
 10918     13CE                     l206:
 10919                           
 10920                           ;main.c: 429: };main.c: 430: RA0 = 0;
 10921     13CE  0020               	movlb	0	; select bank0
 10922     13CF  100C               	bcf	12,0	;volatile
 10923     13D0                     l4363:
 10924                           
 10925                           ;main.c: 431: for(j = 0 ; j < intvl ; j++){
 10926     13D0  0022               	movlb	2	; select bank2
 10927     13D1  01BE               	clrf	main@j^(0+256)
 10928     13D2  01BF               	clrf	(main@j+1)^(0+256)
 10929     13D3  2BDA               	goto	l207
 10930     13D4                     l208:
 10931                           
 10932                           ;main.c: 432: _delay((unsigned long)((1)*(4000000/4000000.0)));
 10933     13D4  0000               	nop
 10934     13D5                     l4365:
 10935     13D5  3001               	movlw	1
 10936     13D6  0022               	movlb	2	; select bank2
 10937     13D7  07BE               	addwf	main@j^(0+256),f
 10938     13D8  3000               	movlw	0
 10939     13D9  3DBF               	addwfc	(main@j+1)^(0+256),f
 10940     13DA                     l207:
 10941     13DA  083F               	movf	(main@j+1)^(0+256),w
 10942     13DB  3A80               	xorlw	128
 10943     13DC  0020               	movlb	0	; select bank0
 10944     13DD  00D4               	movwf	??_main
 10945     13DE  0022               	movlb	2	; select bank2
 10946     13DF  083D               	movf	(main@intvl+1)^(0+256),w
 10947     13E0  3A80               	xorlw	128
 10948     13E1  0020               	movlb	0	; select bank0
 10949     13E2  0254               	subwf	??_main,w
 10950     13E3  1D03               	skipz
 10951     13E4  2BE8               	goto	u5625
 10952     13E5  0022               	movlb	2	; select bank2
 10953     13E6  083C               	movf	main@intvl^(0+256),w
 10954     13E7  023E               	subwf	main@j^(0+256),w
 10955     13E8                     u5625:
 10956     13E8  1C03               	skipc
 10957     13E9  2BEB               	goto	u5621
 10958     13EA  2BEC               	goto	u5620
 10959     13EB                     u5621:
 10960     13EB  2BD4               	goto	l208
 10961     13EC                     u5620:
 10962     13EC                     l4367:
 10963     13EC  3001               	movlw	1
 10964     13ED  0022               	movlb	2	; select bank2
 10965     13EE  07BA               	addwf	main@k^(0+256),f
 10966     13EF  3000               	movlw	0
 10967     13F0  3DBB               	addwfc	(main@k+1)^(0+256),f
 10968     13F1                     l202:
 10969     13F1  083B               	movf	(main@k+1)^(0+256),w
 10970     13F2  3A80               	xorlw	128
 10971     13F3  0020               	movlb	0	; select bank0
 10972     13F4  00D4               	movwf	??_main
 10973     13F5  0022               	movlb	2	; select bank2
 10974     13F6  0839               	movf	(main@dist+1)^(0+256),w
 10975     13F7  3A80               	xorlw	128
 10976     13F8  0020               	movlb	0	; select bank0
 10977     13F9  0254               	subwf	??_main,w
 10978     13FA  1D03               	skipz
 10979     13FB  2BFF               	goto	u5635
 10980     13FC  0022               	movlb	2	; select bank2
 10981     13FD  0838               	movf	main@dist^(0+256),w
 10982     13FE  023A               	subwf	main@k^(0+256),w
 10983     13FF                     u5635:
 10984     13FF  1C03               	skipc
 10985     1400  2C02               	goto	u5631
 10986     1401  2C03               	goto	u5630
 10987     1402                     u5631:
 10988     1402  2BAC               	goto	l203
 10989     1403                     u5630:
 10990     1403                     l4369:
 10991                           
 10992                           ;main.c: 433: };main.c: 434: };main.c: 435: for(k = 0 ; k < dist ; k++){
 10993     1403  0022               	movlb	2	; select bank2
 10994     1404  01BA               	clrf	main@k^(0+256)
 10995     1405  01BB               	clrf	(main@k+1)^(0+256)
 10996     1406  2C60               	goto	l211
 10997     1407                     l212:
 10998                           
 10999                           ;main.c: 436: RA1 = 1;
 11000     1407  0020               	movlb	0	; select bank0
 11001     1408  148C               	bsf	12,1	;volatile
 11002     1409                     l4371:
 11003                           
 11004                           ;main.c: 437: if(npos > 1){
 11005     1409  0022               	movlb	2	; select bank2
 11006     140A  0837               	movf	(main@npos+1)^(0+256),w
 11007     140B  3A80               	xorlw	128
 11008     140C  0020               	movlb	0	; select bank0
 11009     140D  00D4               	movwf	??_main
 11010     140E  3080               	movlw	128
 11011     140F  0254               	subwf	??_main,w
 11012     1410  1D03               	skipz
 11013     1411  2C15               	goto	u5645
 11014     1412  3002               	movlw	2
 11015     1413  0022               	movlb	2	; select bank2
 11016     1414  0236               	subwf	main@npos^(0+256),w
 11017     1415                     u5645:
 11018     1415  1C03               	skipc
 11019     1416  2C18               	goto	u5641
 11020     1417  2C19               	goto	u5640
 11021     1418                     u5641:
 11022     1418  2C1F               	goto	l4375
 11023     1419                     u5640:
 11024     1419                     l4373:
 11025                           
 11026                           ;main.c: 438: npos -= 1;
 11027     1419  30FF               	movlw	255
 11028     141A  0022               	movlb	2	; select bank2
 11029     141B  07B6               	addwf	main@npos^(0+256),f
 11030     141C  30FF               	movlw	255
 11031     141D  3DB7               	addwfc	(main@npos+1)^(0+256),f
 11032                           
 11033                           ;main.c: 439: }else{
 11034     141E  2C22               	goto	l214
 11035     141F                     l4375:
 11036                           
 11037                           ;main.c: 440: npos = 0;
 11038     141F  0022               	movlb	2	; select bank2
 11039     1420  01B6               	clrf	main@npos^(0+256)
 11040     1421  01B7               	clrf	(main@npos+1)^(0+256)
 11041     1422                     l214:
 11042                           
 11043                           ;main.c: 441: };main.c: 442: for(j = 0 ; j < intvl ; j++){
 11044     1422  01BE               	clrf	main@j^(0+256)
 11045     1423  01BF               	clrf	(main@j+1)^(0+256)
 11046     1424  2C2B               	goto	l215
 11047     1425                     l216:
 11048                           
 11049                           ;main.c: 443: _delay((unsigned long)((1)*(4000000/4000000.0)));
 11050     1425  0000               	nop
 11051     1426                     l4377:
 11052     1426  3001               	movlw	1
 11053     1427  0022               	movlb	2	; select bank2
 11054     1428  07BE               	addwf	main@j^(0+256),f
 11055     1429  3000               	movlw	0
 11056     142A  3DBF               	addwfc	(main@j+1)^(0+256),f
 11057     142B                     l215:
 11058     142B  083F               	movf	(main@j+1)^(0+256),w
 11059     142C  3A80               	xorlw	128
 11060     142D  0020               	movlb	0	; select bank0
 11061     142E  00D4               	movwf	??_main
 11062     142F  0022               	movlb	2	; select bank2
 11063     1430  083D               	movf	(main@intvl+1)^(0+256),w
 11064     1431  3A80               	xorlw	128
 11065     1432  0020               	movlb	0	; select bank0
 11066     1433  0254               	subwf	??_main,w
 11067     1434  1D03               	skipz
 11068     1435  2C39               	goto	u5655
 11069     1436  0022               	movlb	2	; select bank2
 11070     1437  083C               	movf	main@intvl^(0+256),w
 11071     1438  023E               	subwf	main@j^(0+256),w
 11072     1439                     u5655:
 11073     1439  1C03               	skipc
 11074     143A  2C3C               	goto	u5651
 11075     143B  2C3D               	goto	u5650
 11076     143C                     u5651:
 11077     143C  2C25               	goto	l216
 11078     143D                     u5650:
 11079     143D                     l217:
 11080                           
 11081                           ;main.c: 444: };main.c: 445: RA1 = 0;
 11082     143D  0020               	movlb	0	; select bank0
 11083     143E  108C               	bcf	12,1	;volatile
 11084     143F                     l4379:
 11085                           
 11086                           ;main.c: 446: for(j = 0 ; j < intvl ; j++){
 11087     143F  0022               	movlb	2	; select bank2
 11088     1440  01BE               	clrf	main@j^(0+256)
 11089     1441  01BF               	clrf	(main@j+1)^(0+256)
 11090     1442  2C49               	goto	l218
 11091     1443                     l219:
 11092                           
 11093                           ;main.c: 447: _delay((unsigned long)((1)*(4000000/4000000.0)));
 11094     1443  0000               	nop
 11095     1444                     l4381:
 11096     1444  3001               	movlw	1
 11097     1445  0022               	movlb	2	; select bank2
 11098     1446  07BE               	addwf	main@j^(0+256),f
 11099     1447  3000               	movlw	0
 11100     1448  3DBF               	addwfc	(main@j+1)^(0+256),f
 11101     1449                     l218:
 11102     1449  083F               	movf	(main@j+1)^(0+256),w
 11103     144A  3A80               	xorlw	128
 11104     144B  0020               	movlb	0	; select bank0
 11105     144C  00D4               	movwf	??_main
 11106     144D  0022               	movlb	2	; select bank2
 11107     144E  083D               	movf	(main@intvl+1)^(0+256),w
 11108     144F  3A80               	xorlw	128
 11109     1450  0020               	movlb	0	; select bank0
 11110     1451  0254               	subwf	??_main,w
 11111     1452  1D03               	skipz
 11112     1453  2C57               	goto	u5665
 11113     1454  0022               	movlb	2	; select bank2
 11114     1455  083C               	movf	main@intvl^(0+256),w
 11115     1456  023E               	subwf	main@j^(0+256),w
 11116     1457                     u5665:
 11117     1457  1C03               	skipc
 11118     1458  2C5A               	goto	u5661
 11119     1459  2C5B               	goto	u5660
 11120     145A                     u5661:
 11121     145A  2C43               	goto	l219
 11122     145B                     u5660:
 11123     145B                     l4383:
 11124     145B  3001               	movlw	1
 11125     145C  0022               	movlb	2	; select bank2
 11126     145D  07BA               	addwf	main@k^(0+256),f
 11127     145E  3000               	movlw	0
 11128     145F  3DBB               	addwfc	(main@k+1)^(0+256),f
 11129     1460                     l211:
 11130     1460  083B               	movf	(main@k+1)^(0+256),w
 11131     1461  3A80               	xorlw	128
 11132     1462  0020               	movlb	0	; select bank0
 11133     1463  00D4               	movwf	??_main
 11134     1464  0022               	movlb	2	; select bank2
 11135     1465  0839               	movf	(main@dist+1)^(0+256),w
 11136     1466  3A80               	xorlw	128
 11137     1467  0020               	movlb	0	; select bank0
 11138     1468  0254               	subwf	??_main,w
 11139     1469  1D03               	skipz
 11140     146A  2C6E               	goto	u5675
 11141     146B  0022               	movlb	2	; select bank2
 11142     146C  0838               	movf	main@dist^(0+256),w
 11143     146D  023A               	subwf	main@k^(0+256),w
 11144     146E                     u5675:
 11145     146E  1C03               	skipc
 11146     146F  2C71               	goto	u5671
 11147     1470  2C72               	goto	u5670
 11148     1471                     u5671:
 11149     1471  2C07               	goto	l212
 11150     1472                     u5670:
 11151     1472  319F  2FD1         	goto	l4417
 11152                           
 11153                           	psect	maintext_split_6
 11154     1EF7                     l4385:
 11155                           
 11156                           ;main.c: 451: dist *= -1;
 11157     1EF7  30FF               	movlw	255
 11158     1EF8  00F0               	movwf	___wmul@multiplier
 11159     1EF9  30FF               	movlw	255
 11160     1EFA  00F1               	movwf	___wmul@multiplier+1
 11161     1EFB  0022               	movlb	2	; select bank2
 11162     1EFC  0839               	movf	(main@dist+1)^(0+256),w
 11163     1EFD  00F3               	movwf	___wmul@multiplicand+1
 11164     1EFE  0838               	movf	main@dist^(0+256),w
 11165     1EFF  00F2               	movwf	___wmul@multiplicand
 11166     1F00  319A  221B  319E   	fcall	___wmul
 11167     1F03  0871               	movf	?___wmul+1,w
 11168     1F04  0022               	movlb	2	; select bank2
 11169     1F05  00B9               	movwf	(main@dist+1)^(0+256)
 11170     1F06  0870               	movf	?___wmul,w
 11171     1F07  00B8               	movwf	main@dist^(0+256)
 11172     1F08                     l4387:
 11173                           
 11174                           ;main.c: 452: for(k = 0 ; k < dist ; k++){
 11175     1F08  01BA               	clrf	main@k^(0+256)
 11176     1F09  01BB               	clrf	(main@k+1)^(0+256)
 11177     1F0A  2F64               	goto	l223
 11178     1F0B                     l224:
 11179                           
 11180                           ;main.c: 453: RA1 = 1;
 11181     1F0B  0020               	movlb	0	; select bank0
 11182     1F0C  148C               	bsf	12,1	;volatile
 11183     1F0D                     l4389:
 11184                           
 11185                           ;main.c: 454: if(npos > 1){
 11186     1F0D  0022               	movlb	2	; select bank2
 11187     1F0E  0837               	movf	(main@npos+1)^(0+256),w
 11188     1F0F  3A80               	xorlw	128
 11189     1F10  0020               	movlb	0	; select bank0
 11190     1F11  00D4               	movwf	??_main
 11191     1F12  3080               	movlw	128
 11192     1F13  0254               	subwf	??_main,w
 11193     1F14  1D03               	skipz
 11194     1F15  2F19               	goto	u5685
 11195     1F16  3002               	movlw	2
 11196     1F17  0022               	movlb	2	; select bank2
 11197     1F18  0236               	subwf	main@npos^(0+256),w
 11198     1F19                     u5685:
 11199     1F19  1C03               	skipc
 11200     1F1A  2F1C               	goto	u5681
 11201     1F1B  2F1D               	goto	u5680
 11202     1F1C                     u5681:
 11203     1F1C  2F23               	goto	l4393
 11204     1F1D                     u5680:
 11205     1F1D                     l4391:
 11206                           
 11207                           ;main.c: 455: npos -= 1;
 11208     1F1D  30FF               	movlw	255
 11209     1F1E  0022               	movlb	2	; select bank2
 11210     1F1F  07B6               	addwf	main@npos^(0+256),f
 11211     1F20  30FF               	movlw	255
 11212     1F21  3DB7               	addwfc	(main@npos+1)^(0+256),f
 11213                           
 11214                           ;main.c: 456: }else{
 11215     1F22  2F26               	goto	l226
 11216     1F23                     l4393:
 11217                           
 11218                           ;main.c: 457: npos = 0;
 11219     1F23  0022               	movlb	2	; select bank2
 11220     1F24  01B6               	clrf	main@npos^(0+256)
 11221     1F25  01B7               	clrf	(main@npos+1)^(0+256)
 11222     1F26                     l226:
 11223                           
 11224                           ;main.c: 458: };main.c: 459: for(j = 0 ; j < intvl ; j++){
 11225     1F26  01BE               	clrf	main@j^(0+256)
 11226     1F27  01BF               	clrf	(main@j+1)^(0+256)
 11227     1F28  2F2F               	goto	l227
 11228     1F29                     l228:
 11229                           
 11230                           ;main.c: 460: _delay((unsigned long)((1)*(4000000/4000000.0)));
 11231     1F29  0000               	nop
 11232     1F2A                     l4395:
 11233     1F2A  3001               	movlw	1
 11234     1F2B  0022               	movlb	2	; select bank2
 11235     1F2C  07BE               	addwf	main@j^(0+256),f
 11236     1F2D  3000               	movlw	0
 11237     1F2E  3DBF               	addwfc	(main@j+1)^(0+256),f
 11238     1F2F                     l227:
 11239     1F2F  083F               	movf	(main@j+1)^(0+256),w
 11240     1F30  3A80               	xorlw	128
 11241     1F31  0020               	movlb	0	; select bank0
 11242     1F32  00D4               	movwf	??_main
 11243     1F33  0022               	movlb	2	; select bank2
 11244     1F34  083D               	movf	(main@intvl+1)^(0+256),w
 11245     1F35  3A80               	xorlw	128
 11246     1F36  0020               	movlb	0	; select bank0
 11247     1F37  0254               	subwf	??_main,w
 11248     1F38  1D03               	skipz
 11249     1F39  2F3D               	goto	u5695
 11250     1F3A  0022               	movlb	2	; select bank2
 11251     1F3B  083C               	movf	main@intvl^(0+256),w
 11252     1F3C  023E               	subwf	main@j^(0+256),w
 11253     1F3D                     u5695:
 11254     1F3D  1C03               	skipc
 11255     1F3E  2F40               	goto	u5691
 11256     1F3F  2F41               	goto	u5690
 11257     1F40                     u5691:
 11258     1F40  2F29               	goto	l228
 11259     1F41                     u5690:
 11260     1F41                     l229:
 11261                           
 11262                           ;main.c: 461: };main.c: 462: RA1 = 0;
 11263     1F41  0020               	movlb	0	; select bank0
 11264     1F42  108C               	bcf	12,1	;volatile
 11265     1F43                     l4397:
 11266                           
 11267                           ;main.c: 463: for(j = 0 ; j < intvl ; j++){
 11268     1F43  0022               	movlb	2	; select bank2
 11269     1F44  01BE               	clrf	main@j^(0+256)
 11270     1F45  01BF               	clrf	(main@j+1)^(0+256)
 11271     1F46  2F4D               	goto	l230
 11272     1F47                     l231:
 11273                           
 11274                           ;main.c: 464: _delay((unsigned long)((1)*(4000000/4000000.0)));
 11275     1F47  0000               	nop
 11276     1F48                     l4399:
 11277     1F48  3001               	movlw	1
 11278     1F49  0022               	movlb	2	; select bank2
 11279     1F4A  07BE               	addwf	main@j^(0+256),f
 11280     1F4B  3000               	movlw	0
 11281     1F4C  3DBF               	addwfc	(main@j+1)^(0+256),f
 11282     1F4D                     l230:
 11283     1F4D  083F               	movf	(main@j+1)^(0+256),w
 11284     1F4E  3A80               	xorlw	128
 11285     1F4F  0020               	movlb	0	; select bank0
 11286     1F50  00D4               	movwf	??_main
 11287     1F51  0022               	movlb	2	; select bank2
 11288     1F52  083D               	movf	(main@intvl+1)^(0+256),w
 11289     1F53  3A80               	xorlw	128
 11290     1F54  0020               	movlb	0	; select bank0
 11291     1F55  0254               	subwf	??_main,w
 11292     1F56  1D03               	skipz
 11293     1F57  2F5B               	goto	u5705
 11294     1F58  0022               	movlb	2	; select bank2
 11295     1F59  083C               	movf	main@intvl^(0+256),w
 11296     1F5A  023E               	subwf	main@j^(0+256),w
 11297     1F5B                     u5705:
 11298     1F5B  1C03               	skipc
 11299     1F5C  2F5E               	goto	u5701
 11300     1F5D  2F5F               	goto	u5700
 11301     1F5E                     u5701:
 11302     1F5E  2F47               	goto	l231
 11303     1F5F                     u5700:
 11304     1F5F                     l4401:
 11305     1F5F  3001               	movlw	1
 11306     1F60  0022               	movlb	2	; select bank2
 11307     1F61  07BA               	addwf	main@k^(0+256),f
 11308     1F62  3000               	movlw	0
 11309     1F63  3DBB               	addwfc	(main@k+1)^(0+256),f
 11310     1F64                     l223:
 11311     1F64  083B               	movf	(main@k+1)^(0+256),w
 11312     1F65  3A80               	xorlw	128
 11313     1F66  0020               	movlb	0	; select bank0
 11314     1F67  00D4               	movwf	??_main
 11315     1F68  0022               	movlb	2	; select bank2
 11316     1F69  0839               	movf	(main@dist+1)^(0+256),w
 11317     1F6A  3A80               	xorlw	128
 11318     1F6B  0020               	movlb	0	; select bank0
 11319     1F6C  0254               	subwf	??_main,w
 11320     1F6D  1D03               	skipz
 11321     1F6E  2F72               	goto	u5715
 11322     1F6F  0022               	movlb	2	; select bank2
 11323     1F70  0838               	movf	main@dist^(0+256),w
 11324     1F71  023A               	subwf	main@k^(0+256),w
 11325     1F72                     u5715:
 11326     1F72  1C03               	skipc
 11327     1F73  2F75               	goto	u5711
 11328     1F74  2F76               	goto	u5710
 11329     1F75                     u5711:
 11330     1F75  2F0B               	goto	l224
 11331     1F76                     u5710:
 11332     1F76                     l4403:
 11333                           
 11334                           ;main.c: 465: };main.c: 466: };main.c: 467: for(k = 0 ; k < dist ; k++){
 11335     1F76  0022               	movlb	2	; select bank2
 11336     1F77  01BA               	clrf	main@k^(0+256)
 11337     1F78  01BB               	clrf	(main@k+1)^(0+256)
 11338     1F79  2FBF               	goto	l234
 11339     1F7A                     l235:
 11340                           
 11341                           ;main.c: 468: RA0 = 1;
 11342     1F7A  0020               	movlb	0	; select bank0
 11343     1F7B  140C               	bsf	12,0	;volatile
 11344     1F7C                     l4405:
 11345                           
 11346                           ;main.c: 469: npos += 1;
 11347     1F7C  3001               	movlw	1
 11348     1F7D  0022               	movlb	2	; select bank2
 11349     1F7E  07B6               	addwf	main@npos^(0+256),f
 11350     1F7F  3000               	movlw	0
 11351     1F80  3DB7               	addwfc	(main@npos+1)^(0+256),f
 11352     1F81                     l4407:
 11353                           
 11354                           ;main.c: 470: for(j = 0 ; j < intvl ; j++){
 11355     1F81  01BE               	clrf	main@j^(0+256)
 11356     1F82  01BF               	clrf	(main@j+1)^(0+256)
 11357     1F83  2F8A               	goto	l236
 11358     1F84                     l237:
 11359                           
 11360                           ;main.c: 471: _delay((unsigned long)((1)*(4000000/4000000.0)));
 11361     1F84  0000               	nop
 11362     1F85                     l4409:
 11363     1F85  3001               	movlw	1
 11364     1F86  0022               	movlb	2	; select bank2
 11365     1F87  07BE               	addwf	main@j^(0+256),f
 11366     1F88  3000               	movlw	0
 11367     1F89  3DBF               	addwfc	(main@j+1)^(0+256),f
 11368     1F8A                     l236:
 11369     1F8A  083F               	movf	(main@j+1)^(0+256),w
 11370     1F8B  3A80               	xorlw	128
 11371     1F8C  0020               	movlb	0	; select bank0
 11372     1F8D  00D4               	movwf	??_main
 11373     1F8E  0022               	movlb	2	; select bank2
 11374     1F8F  083D               	movf	(main@intvl+1)^(0+256),w
 11375     1F90  3A80               	xorlw	128
 11376     1F91  0020               	movlb	0	; select bank0
 11377     1F92  0254               	subwf	??_main,w
 11378     1F93  1D03               	skipz
 11379     1F94  2F98               	goto	u5725
 11380     1F95  0022               	movlb	2	; select bank2
 11381     1F96  083C               	movf	main@intvl^(0+256),w
 11382     1F97  023E               	subwf	main@j^(0+256),w
 11383     1F98                     u5725:
 11384     1F98  1C03               	skipc
 11385     1F99  2F9B               	goto	u5721
 11386     1F9A  2F9C               	goto	u5720
 11387     1F9B                     u5721:
 11388     1F9B  2F84               	goto	l237
 11389     1F9C                     u5720:
 11390     1F9C                     l238:
 11391                           
 11392                           ;main.c: 472: };main.c: 473: RA0 = 0;
 11393     1F9C  0020               	movlb	0	; select bank0
 11394     1F9D  100C               	bcf	12,0	;volatile
 11395     1F9E                     l4411:
 11396                           
 11397                           ;main.c: 474: for(j = 0 ; j < intvl ; j++){
 11398     1F9E  0022               	movlb	2	; select bank2
 11399     1F9F  01BE               	clrf	main@j^(0+256)
 11400     1FA0  01BF               	clrf	(main@j+1)^(0+256)
 11401     1FA1  2FA8               	goto	l239
 11402     1FA2                     l240:
 11403                           
 11404                           ;main.c: 475: _delay((unsigned long)((1)*(4000000/4000000.0)));
 11405     1FA2  0000               	nop
 11406     1FA3                     l4413:
 11407     1FA3  3001               	movlw	1
 11408     1FA4  0022               	movlb	2	; select bank2
 11409     1FA5  07BE               	addwf	main@j^(0+256),f
 11410     1FA6  3000               	movlw	0
 11411     1FA7  3DBF               	addwfc	(main@j+1)^(0+256),f
 11412     1FA8                     l239:
 11413     1FA8  083F               	movf	(main@j+1)^(0+256),w
 11414     1FA9  3A80               	xorlw	128
 11415     1FAA  0020               	movlb	0	; select bank0
 11416     1FAB  00D4               	movwf	??_main
 11417     1FAC  0022               	movlb	2	; select bank2
 11418     1FAD  083D               	movf	(main@intvl+1)^(0+256),w
 11419     1FAE  3A80               	xorlw	128
 11420     1FAF  0020               	movlb	0	; select bank0
 11421     1FB0  0254               	subwf	??_main,w
 11422     1FB1  1D03               	skipz
 11423     1FB2  2FB6               	goto	u5735
 11424     1FB3  0022               	movlb	2	; select bank2
 11425     1FB4  083C               	movf	main@intvl^(0+256),w
 11426     1FB5  023E               	subwf	main@j^(0+256),w
 11427     1FB6                     u5735:
 11428     1FB6  1C03               	skipc
 11429     1FB7  2FB9               	goto	u5731
 11430     1FB8  2FBA               	goto	u5730
 11431     1FB9                     u5731:
 11432     1FB9  2FA2               	goto	l240
 11433     1FBA                     u5730:
 11434     1FBA                     l4415:
 11435     1FBA  3001               	movlw	1
 11436     1FBB  0022               	movlb	2	; select bank2
 11437     1FBC  07BA               	addwf	main@k^(0+256),f
 11438     1FBD  3000               	movlw	0
 11439     1FBE  3DBB               	addwfc	(main@k+1)^(0+256),f
 11440     1FBF                     l234:
 11441     1FBF  083B               	movf	(main@k+1)^(0+256),w
 11442     1FC0  3A80               	xorlw	128
 11443     1FC1  0020               	movlb	0	; select bank0
 11444     1FC2  00D4               	movwf	??_main
 11445     1FC3  0022               	movlb	2	; select bank2
 11446     1FC4  0839               	movf	(main@dist+1)^(0+256),w
 11447     1FC5  3A80               	xorlw	128
 11448     1FC6  0020               	movlb	0	; select bank0
 11449     1FC7  0254               	subwf	??_main,w
 11450     1FC8  1D03               	skipz
 11451     1FC9  2FCD               	goto	u5745
 11452     1FCA  0022               	movlb	2	; select bank2
 11453     1FCB  0838               	movf	main@dist^(0+256),w
 11454     1FCC  023A               	subwf	main@k^(0+256),w
 11455     1FCD                     u5745:
 11456     1FCD  1C03               	skipc
 11457     1FCE  2FD0               	goto	u5741
 11458     1FCF  2FD1               	goto	u5740
 11459     1FD0                     u5741:
 11460     1FD0  2F7A               	goto	l235
 11461     1FD1                     u5740:
 11462     1FD1                     l4417:
 11463                           
 11464                           ;main.c: 476: };main.c: 477: };main.c: 478: };main.c: 479: ndcnt += 1;
 11465     1FD1  3001               	movlw	1
 11466     1FD2  0022               	movlb	2	; select bank2
 11467     1FD3  07AC               	addwf	main@ndcnt^(0+256),f
 11468     1FD4  3000               	movlw	0
 11469     1FD5  3DAD               	addwfc	(main@ndcnt+1)^(0+256),f
 11470     1FD6  3000               	movlw	0
 11471     1FD7  3DAE               	addwfc	(main@ndcnt+2)^(0+256),f
 11472     1FD8  3000               	movlw	0
 11473     1FD9  3DAF               	addwfc	(main@ndcnt+3)^(0+256),f
 11474     1FDA                     l4419:
 11475                           
 11476                           ;main.c: 480: write_data_eeprom(NDCNT_ADR, ndcnt);
 11477     1FDA  0825               	movf	(main@NDCNT_ADR+3)^(0+256),w
 11478     1FDB  00F7               	movwf	write_data_eeprom@adr+3
 11479     1FDC  0824               	movf	(main@NDCNT_ADR+2)^(0+256),w
 11480     1FDD  00F6               	movwf	write_data_eeprom@adr+2
 11481     1FDE  0823               	movf	(main@NDCNT_ADR+1)^(0+256),w
 11482     1FDF  00F5               	movwf	write_data_eeprom@adr+1
 11483     1FE0  0822               	movf	main@NDCNT_ADR^(0+256),w
 11484     1FE1  00F4               	movwf	write_data_eeprom@adr
 11485     1FE2  082F               	movf	(main@ndcnt+3)^(0+256),w
 11486     1FE3  00FB               	movwf	write_data_eeprom@value+3
 11487     1FE4  082E               	movf	(main@ndcnt+2)^(0+256),w
 11488     1FE5  00FA               	movwf	write_data_eeprom@value+2
 11489     1FE6  082D               	movf	(main@ndcnt+1)^(0+256),w
 11490     1FE7  00F9               	movwf	write_data_eeprom@value+1
 11491     1FE8  082C               	movf	main@ndcnt^(0+256),w
 11492     1FE9  00F8               	movwf	write_data_eeprom@value
 11493     1FEA  319B  232D  319E   	fcall	_write_data_eeprom
 11494     1FED                     l4421:
 11495                           
 11496                           ;main.c: 482: printf("C\tOSC\r\n");
 11497     1FED  300C               	movlw	low (STR_54| (0+32768))
 11498     1FEE  0020               	movlb	0	; select bank0
 11499     1FEF  00A0               	movwf	printf@f
 11500     1FF0  30A1               	movlw	high (STR_54| (0+32768))
 11501     1FF1  00A1               	movwf	printf@f+1
 11502     1FF2  3180  2035  319E   	fcall	_printf
 11503                           
 11504                           ;main.c: 483: break;
 11505     1FF5  3187  2F42         	goto	u6340
 11506     1FF7                     l4423:
 11507                           
 11508                           ;main.c: 486: dist = 10000;
 11509     1FF7  3010               	movlw	16
 11510     1FF8  0022               	movlb	2	; select bank2
 11511     1FF9  00B8               	movwf	main@dist^(0+256)
 11512     1FFA  3027               	movlw	39
 11513     1FFB  00B9               	movwf	(main@dist^(0+256)+1)
 11514     1FFC                     l4425:
 11515                           
 11516                           ;main.c: 487: for(k = 0 ; k < dist ; k++){
 11517     1FFC  01BA               	clrf	main@k^(0+256)
 11518     1FFD  01BB               	clrf	(main@k+1)^(0+256)
 11519     1FFE  3197  2F13         	goto	l244
 11520                           
 11521                           	psect	maintext_split_7
 11522     16CA                     l245:
 11523                           
 11524                           ;main.c: 488: if(RA6 == 0){
 11525     16CA  0020               	movlb	0	; select bank0
 11526     16CB  1B0C               	btfsc	12,6	;volatile
 11527     16CC  2ECE               	goto	u5751
 11528     16CD  2ECF               	goto	u5750
 11529     16CE                     u5751:
 11530     16CE  2ED3               	goto	l246
 11531     16CF                     u5750:
 11532     16CF                     l4427:
 11533                           
 11534                           ;main.c: 489: npos = 0;
 11535     16CF  0022               	movlb	2	; select bank2
 11536     16D0  01B6               	clrf	main@npos^(0+256)
 11537     16D1  01B7               	clrf	(main@npos+1)^(0+256)
 11538                           
 11539                           ;main.c: 490: break;
 11540     16D2  2F25               	goto	l4439
 11541     16D3                     l246:
 11542                           
 11543                           ;main.c: 491: };main.c: 492: RA1 = 1;
 11544     16D3  148C               	bsf	12,1	;volatile
 11545     16D4                     l4429:
 11546                           
 11547                           ;main.c: 493: for(j = 0 ; j < intvl ; j++){
 11548     16D4  0022               	movlb	2	; select bank2
 11549     16D5  01BE               	clrf	main@j^(0+256)
 11550     16D6  01BF               	clrf	(main@j+1)^(0+256)
 11551     16D7  2EDE               	goto	l248
 11552     16D8                     l249:
 11553                           
 11554                           ;main.c: 494: _delay((unsigned long)((1)*(4000000/4000000.0)));
 11555     16D8  0000               	nop
 11556     16D9                     l4431:
 11557     16D9  3001               	movlw	1
 11558     16DA  0022               	movlb	2	; select bank2
 11559     16DB  07BE               	addwf	main@j^(0+256),f
 11560     16DC  3000               	movlw	0
 11561     16DD  3DBF               	addwfc	(main@j+1)^(0+256),f
 11562     16DE                     l248:
 11563     16DE  083F               	movf	(main@j+1)^(0+256),w
 11564     16DF  3A80               	xorlw	128
 11565     16E0  0020               	movlb	0	; select bank0
 11566     16E1  00D4               	movwf	??_main
 11567     16E2  0022               	movlb	2	; select bank2
 11568     16E3  083D               	movf	(main@intvl+1)^(0+256),w
 11569     16E4  3A80               	xorlw	128
 11570     16E5  0020               	movlb	0	; select bank0
 11571     16E6  0254               	subwf	??_main,w
 11572     16E7  1D03               	skipz
 11573     16E8  2EEC               	goto	u5765
 11574     16E9  0022               	movlb	2	; select bank2
 11575     16EA  083C               	movf	main@intvl^(0+256),w
 11576     16EB  023E               	subwf	main@j^(0+256),w
 11577     16EC                     u5765:
 11578     16EC  1C03               	skipc
 11579     16ED  2EEF               	goto	u5761
 11580     16EE  2EF0               	goto	u5760
 11581     16EF                     u5761:
 11582     16EF  2ED8               	goto	l249
 11583     16F0                     u5760:
 11584     16F0                     l250:
 11585                           
 11586                           ;main.c: 495: };main.c: 496: RA1 = 0;
 11587     16F0  0020               	movlb	0	; select bank0
 11588     16F1  108C               	bcf	12,1	;volatile
 11589     16F2                     l4433:
 11590                           
 11591                           ;main.c: 497: for(j = 0 ; j < intvl ; j++){
 11592     16F2  0022               	movlb	2	; select bank2
 11593     16F3  01BE               	clrf	main@j^(0+256)
 11594     16F4  01BF               	clrf	(main@j+1)^(0+256)
 11595     16F5  2EFC               	goto	l251
 11596     16F6                     l252:
 11597                           
 11598                           ;main.c: 498: _delay((unsigned long)((1)*(4000000/4000000.0)));
 11599     16F6  0000               	nop
 11600     16F7                     l4435:
 11601     16F7  3001               	movlw	1
 11602     16F8  0022               	movlb	2	; select bank2
 11603     16F9  07BE               	addwf	main@j^(0+256),f
 11604     16FA  3000               	movlw	0
 11605     16FB  3DBF               	addwfc	(main@j+1)^(0+256),f
 11606     16FC                     l251:
 11607     16FC  083F               	movf	(main@j+1)^(0+256),w
 11608     16FD  3A80               	xorlw	128
 11609     16FE  0020               	movlb	0	; select bank0
 11610     16FF  00D4               	movwf	??_main
 11611     1700  0022               	movlb	2	; select bank2
 11612     1701  083D               	movf	(main@intvl+1)^(0+256),w
 11613     1702  3A80               	xorlw	128
 11614     1703  0020               	movlb	0	; select bank0
 11615     1704  0254               	subwf	??_main,w
 11616     1705  1D03               	skipz
 11617     1706  2F0A               	goto	u5775
 11618     1707  0022               	movlb	2	; select bank2
 11619     1708  083C               	movf	main@intvl^(0+256),w
 11620     1709  023E               	subwf	main@j^(0+256),w
 11621     170A                     u5775:
 11622     170A  1C03               	skipc
 11623     170B  2F0D               	goto	u5771
 11624     170C  2F0E               	goto	u5770
 11625     170D                     u5771:
 11626     170D  2EF6               	goto	l252
 11627     170E                     u5770:
 11628     170E                     l4437:
 11629     170E  3001               	movlw	1
 11630     170F  0022               	movlb	2	; select bank2
 11631     1710  07BA               	addwf	main@k^(0+256),f
 11632     1711  3000               	movlw	0
 11633     1712  3DBB               	addwfc	(main@k+1)^(0+256),f
 11634     1713                     l244:
 11635     1713  083B               	movf	(main@k+1)^(0+256),w
 11636     1714  3A80               	xorlw	128
 11637     1715  0020               	movlb	0	; select bank0
 11638     1716  00D4               	movwf	??_main
 11639     1717  0022               	movlb	2	; select bank2
 11640     1718  0839               	movf	(main@dist+1)^(0+256),w
 11641     1719  3A80               	xorlw	128
 11642     171A  0020               	movlb	0	; select bank0
 11643     171B  0254               	subwf	??_main,w
 11644     171C  1D03               	skipz
 11645     171D  2F21               	goto	u5785
 11646     171E  0022               	movlb	2	; select bank2
 11647     171F  0838               	movf	main@dist^(0+256),w
 11648     1720  023A               	subwf	main@k^(0+256),w
 11649     1721                     u5785:
 11650     1721  1C03               	skipc
 11651     1722  2F24               	goto	u5781
 11652     1723  2F25               	goto	u5780
 11653     1724                     u5781:
 11654     1724  2ECA               	goto	l245
 11655     1725                     u5780:
 11656     1725                     l4439:
 11657                           
 11658                           ;main.c: 499: };main.c: 500: };main.c: 501: for(k = 0 ; k < nip ; k++){
 11659     1725  0022               	movlb	2	; select bank2
 11660     1726  01BA               	clrf	main@k^(0+256)
 11661     1727  01BB               	clrf	(main@k+1)^(0+256)
 11662     1728  2F6E               	goto	l254
 11663     1729                     l255:
 11664                           
 11665                           ;main.c: 502: RA0 = 1;
 11666     1729  0020               	movlb	0	; select bank0
 11667     172A  140C               	bsf	12,0	;volatile
 11668     172B                     l4441:
 11669                           
 11670                           ;main.c: 503: npos += 1;
 11671     172B  3001               	movlw	1
 11672     172C  0022               	movlb	2	; select bank2
 11673     172D  07B6               	addwf	main@npos^(0+256),f
 11674     172E  3000               	movlw	0
 11675     172F  3DB7               	addwfc	(main@npos+1)^(0+256),f
 11676     1730                     l4443:
 11677                           
 11678                           ;main.c: 504: for(j = 0 ; j < intvl ; j++){
 11679     1730  01BE               	clrf	main@j^(0+256)
 11680     1731  01BF               	clrf	(main@j+1)^(0+256)
 11681     1732  2F39               	goto	l256
 11682     1733                     l257:
 11683                           
 11684                           ;main.c: 505: _delay((unsigned long)((1)*(4000000/4000000.0)));
 11685     1733  0000               	nop
 11686     1734                     l4445:
 11687     1734  3001               	movlw	1
 11688     1735  0022               	movlb	2	; select bank2
 11689     1736  07BE               	addwf	main@j^(0+256),f
 11690     1737  3000               	movlw	0
 11691     1738  3DBF               	addwfc	(main@j+1)^(0+256),f
 11692     1739                     l256:
 11693     1739  083F               	movf	(main@j+1)^(0+256),w
 11694     173A  3A80               	xorlw	128
 11695     173B  0020               	movlb	0	; select bank0
 11696     173C  00D4               	movwf	??_main
 11697     173D  0022               	movlb	2	; select bank2
 11698     173E  083D               	movf	(main@intvl+1)^(0+256),w
 11699     173F  3A80               	xorlw	128
 11700     1740  0020               	movlb	0	; select bank0
 11701     1741  0254               	subwf	??_main,w
 11702     1742  1D03               	skipz
 11703     1743  2F47               	goto	u5795
 11704     1744  0022               	movlb	2	; select bank2
 11705     1745  083C               	movf	main@intvl^(0+256),w
 11706     1746  023E               	subwf	main@j^(0+256),w
 11707     1747                     u5795:
 11708     1747  1C03               	skipc
 11709     1748  2F4A               	goto	u5791
 11710     1749  2F4B               	goto	u5790
 11711     174A                     u5791:
 11712     174A  2F33               	goto	l257
 11713     174B                     u5790:
 11714     174B                     l258:
 11715                           
 11716                           ;main.c: 506: };main.c: 507: RA0 = 0;
 11717     174B  0020               	movlb	0	; select bank0
 11718     174C  100C               	bcf	12,0	;volatile
 11719     174D                     l4447:
 11720                           
 11721                           ;main.c: 508: for(j = 0 ; j < intvl ; j++){
 11722     174D  0022               	movlb	2	; select bank2
 11723     174E  01BE               	clrf	main@j^(0+256)
 11724     174F  01BF               	clrf	(main@j+1)^(0+256)
 11725     1750  2F57               	goto	l259
 11726     1751                     l260:
 11727                           
 11728                           ;main.c: 509: _delay((unsigned long)((1)*(4000000/4000000.0)));
 11729     1751  0000               	nop
 11730     1752                     l4449:
 11731     1752  3001               	movlw	1
 11732     1753  0022               	movlb	2	; select bank2
 11733     1754  07BE               	addwf	main@j^(0+256),f
 11734     1755  3000               	movlw	0
 11735     1756  3DBF               	addwfc	(main@j+1)^(0+256),f
 11736     1757                     l259:
 11737     1757  083F               	movf	(main@j+1)^(0+256),w
 11738     1758  3A80               	xorlw	128
 11739     1759  0020               	movlb	0	; select bank0
 11740     175A  00D4               	movwf	??_main
 11741     175B  0022               	movlb	2	; select bank2
 11742     175C  083D               	movf	(main@intvl+1)^(0+256),w
 11743     175D  3A80               	xorlw	128
 11744     175E  0020               	movlb	0	; select bank0
 11745     175F  0254               	subwf	??_main,w
 11746     1760  1D03               	skipz
 11747     1761  2F65               	goto	u5805
 11748     1762  0022               	movlb	2	; select bank2
 11749     1763  083C               	movf	main@intvl^(0+256),w
 11750     1764  023E               	subwf	main@j^(0+256),w
 11751     1765                     u5805:
 11752     1765  1C03               	skipc
 11753     1766  2F68               	goto	u5801
 11754     1767  2F69               	goto	u5800
 11755     1768                     u5801:
 11756     1768  2F51               	goto	l260
 11757     1769                     u5800:
 11758     1769                     l4451:
 11759     1769  3001               	movlw	1
 11760     176A  0022               	movlb	2	; select bank2
 11761     176B  07BA               	addwf	main@k^(0+256),f
 11762     176C  3000               	movlw	0
 11763     176D  3DBB               	addwfc	(main@k+1)^(0+256),f
 11764     176E                     l254:
 11765     176E  083B               	movf	(main@k+1)^(0+256),w
 11766     176F  3A80               	xorlw	128
 11767     1770  0020               	movlb	0	; select bank0
 11768     1771  00D4               	movwf	??_main
 11769     1772  0022               	movlb	2	; select bank2
 11770     1773  0821               	movf	(main@nip+1)^(0+256),w
 11771     1774  3A80               	xorlw	128
 11772     1775  0020               	movlb	0	; select bank0
 11773     1776  0254               	subwf	??_main,w
 11774     1777  1D03               	skipz
 11775     1778  2F7C               	goto	u5815
 11776     1779  0022               	movlb	2	; select bank2
 11777     177A  0820               	movf	main@nip^(0+256),w
 11778     177B  023A               	subwf	main@k^(0+256),w
 11779     177C                     u5815:
 11780     177C  1C03               	skipc
 11781     177D  2F7F               	goto	u5811
 11782     177E  2F80               	goto	u5810
 11783     177F                     u5811:
 11784     177F  2F29               	goto	l255
 11785     1780                     u5810:
 11786     1780                     l4453:
 11787                           
 11788                           ;main.c: 510: };main.c: 511: };main.c: 512: printf("C\tNOS\t%d\r\n", npos);
 11789     1780  3058               	movlw	low (STR_55| (0+32768))
 11790     1781  0020               	movlb	0	; select bank0
 11791     1782  00A0               	movwf	printf@f
 11792     1783  30A0               	movlw	high (STR_55| (0+32768))
 11793     1784  00A1               	movwf	printf@f+1
 11794     1785  0022               	movlb	2	; select bank2
 11795     1786  0837               	movf	(main@npos+1)^(0+256),w
 11796     1787  0020               	movlb	0	; select bank0
 11797     1788  00A3               	movwf	?_printf+3
 11798     1789  0022               	movlb	2	; select bank2
 11799     178A  0836               	movf	main@npos^(0+256),w
 11800     178B  0020               	movlb	0	; select bank0
 11801     178C  00A2               	movwf	?_printf+2
 11802     178D  3180  2035  3196   	fcall	_printf
 11803     1790                     L13:
 11804                           
 11805                           ;main.c: 513: break;
 11806     1790  3187  2F42         	goto	u6340
 11807     1792                     l4455:
 11808                           
 11809                           ;main.c: 516: dist = 10000;
 11810     1792  3010               	movlw	16
 11811     1793  0022               	movlb	2	; select bank2
 11812     1794  00B8               	movwf	main@dist^(0+256)
 11813     1795  3027               	movlw	39
 11814     1796  00B9               	movwf	(main@dist^(0+256)+1)
 11815     1797                     l4457:
 11816                           
 11817                           ;main.c: 517: for(k = 0 ; k < dist ; k++){
 11818     1797  01BA               	clrf	main@k^(0+256)
 11819     1798  01BB               	clrf	(main@k+1)^(0+256)
 11820     1799  2FE5               	goto	l264
 11821     179A                     l265:
 11822                           
 11823                           ;main.c: 518: RA0 = 1;
 11824     179A  0020               	movlb	0	; select bank0
 11825     179B  140C               	bsf	12,0	;volatile
 11826     179C                     l4459:
 11827                           
 11828                           ;main.c: 519: npos += 1;
 11829     179C  3001               	movlw	1
 11830     179D  0022               	movlb	2	; select bank2
 11831     179E  07B6               	addwf	main@npos^(0+256),f
 11832     179F  3000               	movlw	0
 11833     17A0  3DB7               	addwfc	(main@npos+1)^(0+256),f
 11834     17A1                     l4461:
 11835                           
 11836                           ;main.c: 520: for(j = 0 ; j < intvl ; j++){
 11837     17A1  01BE               	clrf	main@j^(0+256)
 11838     17A2  01BF               	clrf	(main@j+1)^(0+256)
 11839     17A3  2FAA               	goto	l266
 11840     17A4                     l267:
 11841                           
 11842                           ;main.c: 521: _delay((unsigned long)((1)*(4000000/4000000.0)));
 11843     17A4  0000               	nop
 11844     17A5                     l4463:
 11845     17A5  3001               	movlw	1
 11846     17A6  0022               	movlb	2	; select bank2
 11847     17A7  07BE               	addwf	main@j^(0+256),f
 11848     17A8  3000               	movlw	0
 11849     17A9  3DBF               	addwfc	(main@j+1)^(0+256),f
 11850     17AA                     l266:
 11851     17AA  083F               	movf	(main@j+1)^(0+256),w
 11852     17AB  3A80               	xorlw	128
 11853     17AC  0020               	movlb	0	; select bank0
 11854     17AD  00D4               	movwf	??_main
 11855     17AE  0022               	movlb	2	; select bank2
 11856     17AF  083D               	movf	(main@intvl+1)^(0+256),w
 11857     17B0  3A80               	xorlw	128
 11858     17B1  0020               	movlb	0	; select bank0
 11859     17B2  0254               	subwf	??_main,w
 11860     17B3  1D03               	skipz
 11861     17B4  2FB8               	goto	u5825
 11862     17B5  0022               	movlb	2	; select bank2
 11863     17B6  083C               	movf	main@intvl^(0+256),w
 11864     17B7  023E               	subwf	main@j^(0+256),w
 11865     17B8                     u5825:
 11866     17B8  1C03               	skipc
 11867     17B9  2FBB               	goto	u5821
 11868     17BA  2FBC               	goto	u5820
 11869     17BB                     u5821:
 11870     17BB  2FA4               	goto	l267
 11871     17BC                     u5820:
 11872     17BC                     l268:
 11873                           
 11874                           ;main.c: 522: };main.c: 523: RA0 = 0;
 11875     17BC  0020               	movlb	0	; select bank0
 11876     17BD  100C               	bcf	12,0	;volatile
 11877     17BE                     l4465:
 11878                           
 11879                           ;main.c: 524: for(j = 0 ; j < intvl ; j++){
 11880     17BE  0022               	movlb	2	; select bank2
 11881     17BF  01BE               	clrf	main@j^(0+256)
 11882     17C0  01BF               	clrf	(main@j+1)^(0+256)
 11883     17C1  2FC8               	goto	l269
 11884     17C2                     l270:
 11885                           
 11886                           ;main.c: 525: _delay((unsigned long)((1)*(4000000/4000000.0)));
 11887     17C2  0000               	nop
 11888     17C3                     l4467:
 11889     17C3  3001               	movlw	1
 11890     17C4  0022               	movlb	2	; select bank2
 11891     17C5  07BE               	addwf	main@j^(0+256),f
 11892     17C6  3000               	movlw	0
 11893     17C7  3DBF               	addwfc	(main@j+1)^(0+256),f
 11894     17C8                     l269:
 11895     17C8  083F               	movf	(main@j+1)^(0+256),w
 11896     17C9  3A80               	xorlw	128
 11897     17CA  0020               	movlb	0	; select bank0
 11898     17CB  00D4               	movwf	??_main
 11899     17CC  0022               	movlb	2	; select bank2
 11900     17CD  083D               	movf	(main@intvl+1)^(0+256),w
 11901     17CE  3A80               	xorlw	128
 11902     17CF  0020               	movlb	0	; select bank0
 11903     17D0  0254               	subwf	??_main,w
 11904     17D1  1D03               	skipz
 11905     17D2  2FD6               	goto	u5835
 11906     17D3  0022               	movlb	2	; select bank2
 11907     17D4  083C               	movf	main@intvl^(0+256),w
 11908     17D5  023E               	subwf	main@j^(0+256),w
 11909     17D6                     u5835:
 11910     17D6  1C03               	skipc
 11911     17D7  2FD9               	goto	u5831
 11912     17D8  2FDA               	goto	u5830
 11913     17D9                     u5831:
 11914     17D9  2FC2               	goto	l270
 11915     17DA                     u5830:
 11916     17DA                     l271:
 11917                           
 11918                           ;main.c: 526: };main.c: 528: if(RB0 == 0){
 11919     17DA  0020               	movlb	0	; select bank0
 11920     17DB  180D               	btfsc	13,0	;volatile
 11921     17DC  2FDE               	goto	u5841
 11922     17DD  2FDF               	goto	u5840
 11923     17DE                     u5841:
 11924     17DE  2FE0               	goto	l4471
 11925     17DF                     u5840:
 11926     17DF  2FF7               	goto	l4473
 11927     17E0                     l4471:
 11928     17E0  3001               	movlw	1
 11929     17E1  0022               	movlb	2	; select bank2
 11930     17E2  07BA               	addwf	main@k^(0+256),f
 11931     17E3  3000               	movlw	0
 11932     17E4  3DBB               	addwfc	(main@k+1)^(0+256),f
 11933     17E5                     l264:
 11934     17E5  083B               	movf	(main@k+1)^(0+256),w
 11935     17E6  3A80               	xorlw	128
 11936     17E7  0020               	movlb	0	; select bank0
 11937     17E8  00D4               	movwf	??_main
 11938     17E9  0022               	movlb	2	; select bank2
 11939     17EA  0839               	movf	(main@dist+1)^(0+256),w
 11940     17EB  3A80               	xorlw	128
 11941     17EC  0020               	movlb	0	; select bank0
 11942     17ED  0254               	subwf	??_main,w
 11943     17EE  1D03               	skipz
 11944     17EF  2FF3               	goto	u5855
 11945     17F0  0022               	movlb	2	; select bank2
 11946     17F1  0838               	movf	main@dist^(0+256),w
 11947     17F2  023A               	subwf	main@k^(0+256),w
 11948     17F3                     u5855:
 11949     17F3  1C03               	skipc
 11950     17F4  2FF6               	goto	u5851
 11951     17F5  2FF7               	goto	u5850
 11952     17F6                     u5851:
 11953     17F6  2F9A               	goto	l265
 11954     17F7                     u5850:
 11955     17F7                     l4473:
 11956                           
 11957                           ;main.c: 531: };main.c: 533: };main.c: 535: printf("C\tNTD\r\n");
 11958     17F7  3024               	movlw	low (STR_56| (0+32768))
 11959     17F8  0020               	movlb	0	; select bank0
 11960     17F9  00A0               	movwf	printf@f
 11961     17FA  30A1               	movlw	high (STR_56| (0+32768))
 11962     17FB  00A1               	movwf	printf@f+1
 11963     17FC  3180  2035  3196   	fcall	_printf
 11964                           
 11965                           ;main.c: 537: break;
 11966     17FF  2F90               	goto	L13
 11967                           
 11968                           	psect	maintext_split_8
 11969     1DEF                     l4475:
 11970                           
 11971                           ;main.c: 541: dist = 0;
 11972     1DEF  0022               	movlb	2	; select bank2
 11973     1DF0  01B8               	clrf	main@dist^(0+256)
 11974     1DF1  01B9               	clrf	(main@dist+1)^(0+256)
 11975                           
 11976                           ;main.c: 542: for(k = 0 ; k < 10000 ; k++){
 11977     1DF2  01BA               	clrf	main@k^(0+256)
 11978     1DF3  01BB               	clrf	(main@k+1)^(0+256)
 11979     1DF4                     l4477:
 11980     1DF4  083B               	movf	(main@k+1)^(0+256),w
 11981     1DF5  3A80               	xorlw	128
 11982     1DF6  0020               	movlb	0	; select bank0
 11983     1DF7  00D4               	movwf	??_main
 11984     1DF8  30A7               	movlw	167
 11985     1DF9  0254               	subwf	??_main,w
 11986     1DFA  1D03               	skipz
 11987     1DFB  2DFF               	goto	u5865
 11988     1DFC  3010               	movlw	16
 11989     1DFD  0022               	movlb	2	; select bank2
 11990     1DFE  023A               	subwf	main@k^(0+256),w
 11991     1DFF                     u5865:
 11992     1DFF  1C03               	skipc
 11993     1E00  2E02               	goto	u5861
 11994     1E01  2E03               	goto	u5860
 11995     1E02                     u5861:
 11996     1E02  2E04               	goto	l275
 11997     1E03                     u5860:
 11998     1E03  2E62               	goto	l4495
 11999     1E04                     l275:
 12000                           
 12001                           ;main.c: 543: RA0 = 1;
 12002     1E04  0020               	movlb	0	; select bank0
 12003     1E05  140C               	bsf	12,0	;volatile
 12004     1E06                     l4481:
 12005                           
 12006                           ;main.c: 544: npos += 1;
 12007     1E06  3001               	movlw	1
 12008     1E07  0022               	movlb	2	; select bank2
 12009     1E08  07B6               	addwf	main@npos^(0+256),f
 12010     1E09  3000               	movlw	0
 12011     1E0A  3DB7               	addwfc	(main@npos+1)^(0+256),f
 12012                           
 12013                           ;main.c: 545: dist += 1;
 12014     1E0B  3001               	movlw	1
 12015     1E0C  07B8               	addwf	main@dist^(0+256),f
 12016     1E0D  3000               	movlw	0
 12017     1E0E  3DB9               	addwfc	(main@dist+1)^(0+256),f
 12018     1E0F                     l4483:
 12019                           
 12020                           ;main.c: 546: for(j = 0 ; j < intvl ; j++){
 12021     1E0F  01BE               	clrf	main@j^(0+256)
 12022     1E10  01BF               	clrf	(main@j+1)^(0+256)
 12023     1E11  2E18               	goto	l277
 12024     1E12                     l278:
 12025                           
 12026                           ;main.c: 547: _delay((unsigned long)((1)*(4000000/4000000.0)));
 12027     1E12  0000               	nop
 12028     1E13                     l4485:
 12029     1E13  3001               	movlw	1
 12030     1E14  0022               	movlb	2	; select bank2
 12031     1E15  07BE               	addwf	main@j^(0+256),f
 12032     1E16  3000               	movlw	0
 12033     1E17  3DBF               	addwfc	(main@j+1)^(0+256),f
 12034     1E18                     l277:
 12035     1E18  083F               	movf	(main@j+1)^(0+256),w
 12036     1E19  3A80               	xorlw	128
 12037     1E1A  0020               	movlb	0	; select bank0
 12038     1E1B  00D4               	movwf	??_main
 12039     1E1C  0022               	movlb	2	; select bank2
 12040     1E1D  083D               	movf	(main@intvl+1)^(0+256),w
 12041     1E1E  3A80               	xorlw	128
 12042     1E1F  0020               	movlb	0	; select bank0
 12043     1E20  0254               	subwf	??_main,w
 12044     1E21  1D03               	skipz
 12045     1E22  2E26               	goto	u5875
 12046     1E23  0022               	movlb	2	; select bank2
 12047     1E24  083C               	movf	main@intvl^(0+256),w
 12048     1E25  023E               	subwf	main@j^(0+256),w
 12049     1E26                     u5875:
 12050     1E26  1C03               	skipc
 12051     1E27  2E29               	goto	u5871
 12052     1E28  2E2A               	goto	u5870
 12053     1E29                     u5871:
 12054     1E29  2E12               	goto	l278
 12055     1E2A                     u5870:
 12056     1E2A                     l279:
 12057                           
 12058                           ;main.c: 548: };main.c: 549: RA0 = 0;
 12059     1E2A  0020               	movlb	0	; select bank0
 12060     1E2B  100C               	bcf	12,0	;volatile
 12061     1E2C                     l4487:
 12062                           
 12063                           ;main.c: 550: for(j = 0 ; j < intvl ; j++){
 12064     1E2C  0022               	movlb	2	; select bank2
 12065     1E2D  01BE               	clrf	main@j^(0+256)
 12066     1E2E  01BF               	clrf	(main@j+1)^(0+256)
 12067     1E2F  2E36               	goto	l280
 12068     1E30                     l281:
 12069                           
 12070                           ;main.c: 551: _delay((unsigned long)((1)*(4000000/4000000.0)));
 12071     1E30  0000               	nop
 12072     1E31                     l4489:
 12073     1E31  3001               	movlw	1
 12074     1E32  0022               	movlb	2	; select bank2
 12075     1E33  07BE               	addwf	main@j^(0+256),f
 12076     1E34  3000               	movlw	0
 12077     1E35  3DBF               	addwfc	(main@j+1)^(0+256),f
 12078     1E36                     l280:
 12079     1E36  083F               	movf	(main@j+1)^(0+256),w
 12080     1E37  3A80               	xorlw	128
 12081     1E38  0020               	movlb	0	; select bank0
 12082     1E39  00D4               	movwf	??_main
 12083     1E3A  0022               	movlb	2	; select bank2
 12084     1E3B  083D               	movf	(main@intvl+1)^(0+256),w
 12085     1E3C  3A80               	xorlw	128
 12086     1E3D  0020               	movlb	0	; select bank0
 12087     1E3E  0254               	subwf	??_main,w
 12088     1E3F  1D03               	skipz
 12089     1E40  2E44               	goto	u5885
 12090     1E41  0022               	movlb	2	; select bank2
 12091     1E42  083C               	movf	main@intvl^(0+256),w
 12092     1E43  023E               	subwf	main@j^(0+256),w
 12093     1E44                     u5885:
 12094     1E44  1C03               	skipc
 12095     1E45  2E47               	goto	u5881
 12096     1E46  2E48               	goto	u5880
 12097     1E47                     u5881:
 12098     1E47  2E30               	goto	l281
 12099     1E48                     u5880:
 12100     1E48                     l282:
 12101                           
 12102                           ;main.c: 552: };main.c: 554: if(RB0 == 0){
 12103     1E48  0020               	movlb	0	; select bank0
 12104     1E49  180D               	btfsc	13,0	;volatile
 12105     1E4A  2E4C               	goto	u5891
 12106     1E4B  2E4D               	goto	u5890
 12107     1E4C                     u5891:
 12108     1E4C  2E4E               	goto	l4493
 12109     1E4D                     u5890:
 12110     1E4D  2E62               	goto	l4495
 12111     1E4E                     l4493:
 12112     1E4E  3001               	movlw	1
 12113     1E4F  0022               	movlb	2	; select bank2
 12114     1E50  07BA               	addwf	main@k^(0+256),f
 12115     1E51  3000               	movlw	0
 12116     1E52  3DBB               	addwfc	(main@k+1)^(0+256),f
 12117     1E53  083B               	movf	(main@k+1)^(0+256),w
 12118     1E54  3A80               	xorlw	128
 12119     1E55  0020               	movlb	0	; select bank0
 12120     1E56  00D4               	movwf	??_main
 12121     1E57  30A7               	movlw	167
 12122     1E58  0254               	subwf	??_main,w
 12123     1E59  1D03               	skipz
 12124     1E5A  2E5E               	goto	u5905
 12125     1E5B  3010               	movlw	16
 12126     1E5C  0022               	movlb	2	; select bank2
 12127     1E5D  023A               	subwf	main@k^(0+256),w
 12128     1E5E                     u5905:
 12129     1E5E  1C03               	skipc
 12130     1E5F  2E61               	goto	u5901
 12131     1E60  2E62               	goto	u5900
 12132     1E61                     u5901:
 12133     1E61  2E04               	goto	l275
 12134     1E62                     u5900:
 12135     1E62                     l4495:
 12136                           
 12137                           ;main.c: 557: };main.c: 559: };main.c: 561: for(k = 0 ; k < dist ; k++){
 12138     1E62  0022               	movlb	2	; select bank2
 12139     1E63  01BA               	clrf	main@k^(0+256)
 12140     1E64  01BB               	clrf	(main@k+1)^(0+256)
 12141     1E65  2EBF               	goto	l284
 12142     1E66                     l285:
 12143                           
 12144                           ;main.c: 562: RA1 = 1;
 12145     1E66  0020               	movlb	0	; select bank0
 12146     1E67  148C               	bsf	12,1	;volatile
 12147     1E68                     l4497:
 12148                           
 12149                           ;main.c: 563: if(npos > 1){
 12150     1E68  0022               	movlb	2	; select bank2
 12151     1E69  0837               	movf	(main@npos+1)^(0+256),w
 12152     1E6A  3A80               	xorlw	128
 12153     1E6B  0020               	movlb	0	; select bank0
 12154     1E6C  00D4               	movwf	??_main
 12155     1E6D  3080               	movlw	128
 12156     1E6E  0254               	subwf	??_main,w
 12157     1E6F  1D03               	skipz
 12158     1E70  2E74               	goto	u5915
 12159     1E71  3002               	movlw	2
 12160     1E72  0022               	movlb	2	; select bank2
 12161     1E73  0236               	subwf	main@npos^(0+256),w
 12162     1E74                     u5915:
 12163     1E74  1C03               	skipc
 12164     1E75  2E77               	goto	u5911
 12165     1E76  2E78               	goto	u5910
 12166     1E77                     u5911:
 12167     1E77  2E7E               	goto	l4501
 12168     1E78                     u5910:
 12169     1E78                     l4499:
 12170                           
 12171                           ;main.c: 564: npos -= 1;
 12172     1E78  30FF               	movlw	255
 12173     1E79  0022               	movlb	2	; select bank2
 12174     1E7A  07B6               	addwf	main@npos^(0+256),f
 12175     1E7B  30FF               	movlw	255
 12176     1E7C  3DB7               	addwfc	(main@npos+1)^(0+256),f
 12177                           
 12178                           ;main.c: 565: }else{
 12179     1E7D  2E81               	goto	l287
 12180     1E7E                     l4501:
 12181                           
 12182                           ;main.c: 566: npos = 0;
 12183     1E7E  0022               	movlb	2	; select bank2
 12184     1E7F  01B6               	clrf	main@npos^(0+256)
 12185     1E80  01B7               	clrf	(main@npos+1)^(0+256)
 12186     1E81                     l287:
 12187                           
 12188                           ;main.c: 567: };main.c: 568: for(j = 0 ; j < intvl ; j++){
 12189     1E81  01BE               	clrf	main@j^(0+256)
 12190     1E82  01BF               	clrf	(main@j+1)^(0+256)
 12191     1E83  2E8A               	goto	l288
 12192     1E84                     l289:
 12193                           
 12194                           ;main.c: 569: _delay((unsigned long)((1)*(4000000/4000000.0)));
 12195     1E84  0000               	nop
 12196     1E85                     l4503:
 12197     1E85  3001               	movlw	1
 12198     1E86  0022               	movlb	2	; select bank2
 12199     1E87  07BE               	addwf	main@j^(0+256),f
 12200     1E88  3000               	movlw	0
 12201     1E89  3DBF               	addwfc	(main@j+1)^(0+256),f
 12202     1E8A                     l288:
 12203     1E8A  083F               	movf	(main@j+1)^(0+256),w
 12204     1E8B  3A80               	xorlw	128
 12205     1E8C  0020               	movlb	0	; select bank0
 12206     1E8D  00D4               	movwf	??_main
 12207     1E8E  0022               	movlb	2	; select bank2
 12208     1E8F  083D               	movf	(main@intvl+1)^(0+256),w
 12209     1E90  3A80               	xorlw	128
 12210     1E91  0020               	movlb	0	; select bank0
 12211     1E92  0254               	subwf	??_main,w
 12212     1E93  1D03               	skipz
 12213     1E94  2E98               	goto	u5925
 12214     1E95  0022               	movlb	2	; select bank2
 12215     1E96  083C               	movf	main@intvl^(0+256),w
 12216     1E97  023E               	subwf	main@j^(0+256),w
 12217     1E98                     u5925:
 12218     1E98  1C03               	skipc
 12219     1E99  2E9B               	goto	u5921
 12220     1E9A  2E9C               	goto	u5920
 12221     1E9B                     u5921:
 12222     1E9B  2E84               	goto	l289
 12223     1E9C                     u5920:
 12224     1E9C                     l290:
 12225                           
 12226                           ;main.c: 570: };main.c: 571: RA1 = 0;
 12227     1E9C  0020               	movlb	0	; select bank0
 12228     1E9D  108C               	bcf	12,1	;volatile
 12229     1E9E                     l4505:
 12230                           
 12231                           ;main.c: 572: for(j = 0 ; j < intvl ; j++){
 12232     1E9E  0022               	movlb	2	; select bank2
 12233     1E9F  01BE               	clrf	main@j^(0+256)
 12234     1EA0  01BF               	clrf	(main@j+1)^(0+256)
 12235     1EA1  2EA8               	goto	l291
 12236     1EA2                     l292:
 12237                           
 12238                           ;main.c: 573: _delay((unsigned long)((1)*(4000000/4000000.0)));
 12239     1EA2  0000               	nop
 12240     1EA3                     l4507:
 12241     1EA3  3001               	movlw	1
 12242     1EA4  0022               	movlb	2	; select bank2
 12243     1EA5  07BE               	addwf	main@j^(0+256),f
 12244     1EA6  3000               	movlw	0
 12245     1EA7  3DBF               	addwfc	(main@j+1)^(0+256),f
 12246     1EA8                     l291:
 12247     1EA8  083F               	movf	(main@j+1)^(0+256),w
 12248     1EA9  3A80               	xorlw	128
 12249     1EAA  0020               	movlb	0	; select bank0
 12250     1EAB  00D4               	movwf	??_main
 12251     1EAC  0022               	movlb	2	; select bank2
 12252     1EAD  083D               	movf	(main@intvl+1)^(0+256),w
 12253     1EAE  3A80               	xorlw	128
 12254     1EAF  0020               	movlb	0	; select bank0
 12255     1EB0  0254               	subwf	??_main,w
 12256     1EB1  1D03               	skipz
 12257     1EB2  2EB6               	goto	u5935
 12258     1EB3  0022               	movlb	2	; select bank2
 12259     1EB4  083C               	movf	main@intvl^(0+256),w
 12260     1EB5  023E               	subwf	main@j^(0+256),w
 12261     1EB6                     u5935:
 12262     1EB6  1C03               	skipc
 12263     1EB7  2EB9               	goto	u5931
 12264     1EB8  2EBA               	goto	u5930
 12265     1EB9                     u5931:
 12266     1EB9  2EA2               	goto	l292
 12267     1EBA                     u5930:
 12268     1EBA                     l4509:
 12269     1EBA  3001               	movlw	1
 12270     1EBB  0022               	movlb	2	; select bank2
 12271     1EBC  07BA               	addwf	main@k^(0+256),f
 12272     1EBD  3000               	movlw	0
 12273     1EBE  3DBB               	addwfc	(main@k+1)^(0+256),f
 12274     1EBF                     l284:
 12275     1EBF  083B               	movf	(main@k+1)^(0+256),w
 12276     1EC0  3A80               	xorlw	128
 12277     1EC1  0020               	movlb	0	; select bank0
 12278     1EC2  00D4               	movwf	??_main
 12279     1EC3  0022               	movlb	2	; select bank2
 12280     1EC4  0839               	movf	(main@dist+1)^(0+256),w
 12281     1EC5  3A80               	xorlw	128
 12282     1EC6  0020               	movlb	0	; select bank0
 12283     1EC7  0254               	subwf	??_main,w
 12284     1EC8  1D03               	skipz
 12285     1EC9  2ECD               	goto	u5945
 12286     1ECA  0022               	movlb	2	; select bank2
 12287     1ECB  0838               	movf	main@dist^(0+256),w
 12288     1ECC  023A               	subwf	main@k^(0+256),w
 12289     1ECD                     u5945:
 12290     1ECD  1C03               	skipc
 12291     1ECE  2ED0               	goto	u5941
 12292     1ECF  2ED1               	goto	u5940
 12293     1ED0                     u5941:
 12294     1ED0  2E66               	goto	l285
 12295     1ED1                     u5940:
 12296     1ED1                     l4511:
 12297                           
 12298                           ;main.c: 574: };main.c: 575: };main.c: 576: ndcnt += 1;
 12299     1ED1  3001               	movlw	1
 12300     1ED2  0022               	movlb	2	; select bank2
 12301     1ED3  07AC               	addwf	main@ndcnt^(0+256),f
 12302     1ED4  3000               	movlw	0
 12303     1ED5  3DAD               	addwfc	(main@ndcnt+1)^(0+256),f
 12304     1ED6  3000               	movlw	0
 12305     1ED7  3DAE               	addwfc	(main@ndcnt+2)^(0+256),f
 12306     1ED8  3000               	movlw	0
 12307     1ED9  3DAF               	addwfc	(main@ndcnt+3)^(0+256),f
 12308     1EDA                     l4513:
 12309                           
 12310                           ;main.c: 577: write_data_eeprom(NDCNT_ADR, ndcnt);
 12311     1EDA  0825               	movf	(main@NDCNT_ADR+3)^(0+256),w
 12312     1EDB  00F7               	movwf	write_data_eeprom@adr+3
 12313     1EDC  0824               	movf	(main@NDCNT_ADR+2)^(0+256),w
 12314     1EDD  00F6               	movwf	write_data_eeprom@adr+2
 12315     1EDE  0823               	movf	(main@NDCNT_ADR+1)^(0+256),w
 12316     1EDF  00F5               	movwf	write_data_eeprom@adr+1
 12317     1EE0  0822               	movf	main@NDCNT_ADR^(0+256),w
 12318     1EE1  00F4               	movwf	write_data_eeprom@adr
 12319     1EE2  082F               	movf	(main@ndcnt+3)^(0+256),w
 12320     1EE3  00FB               	movwf	write_data_eeprom@value+3
 12321     1EE4  082E               	movf	(main@ndcnt+2)^(0+256),w
 12322     1EE5  00FA               	movwf	write_data_eeprom@value+2
 12323     1EE6  082D               	movf	(main@ndcnt+1)^(0+256),w
 12324     1EE7  00F9               	movwf	write_data_eeprom@value+1
 12325     1EE8  082C               	movf	main@ndcnt^(0+256),w
 12326     1EE9  00F8               	movwf	write_data_eeprom@value
 12327     1EEA  319B  232D  319D   	fcall	_write_data_eeprom
 12328     1EED                     l4515:
 12329                           
 12330                           ;main.c: 580: printf("C\tNDO\r\n");
 12331     1EED  3034               	movlw	low (STR_57| (0+32768))
 12332     1EEE  0020               	movlb	0	; select bank0
 12333     1EEF  00A0               	movwf	printf@f
 12334     1EF0  30A1               	movlw	high (STR_57| (0+32768))
 12335     1EF1  00A1               	movwf	printf@f+1
 12336     1EF2  3180  2035  319D   	fcall	_printf
 12337                           
 12338                           ;main.c: 581: break;
 12339     1EF5  3187  2F42         	goto	u6340
 12340                           
 12341                           	psect	maintext_split_9
 12342     1474                     l4517:
 12343                           
 12344                           ;main.c: 584: ptr = strtok((0), "/");
 12345     1474  30EC               	movlw	low (STR_37| (0+32768))
 12346     1475  00A0               	movwf	strtok@s2
 12347     1476  30A1               	movlw	high (STR_37| (0+32768))
 12348     1477  00A1               	movwf	strtok@s2+1
 12349     1478  0103               	clrw
 12350     1479  319B  2375  3194   	fcall	_strtok
 12351     147C  0020               	movlb	0	; select bank0
 12352     147D  00EE               	movwf	main@ptr
 12353     147E                     l4519:
 12354                           
 12355                           ;main.c: 585: if(ptr != (0)) {
 12356     147E  086E               	movf	main@ptr,w
 12357     147F  1903               	btfsc	3,2
 12358     1480  2C82               	goto	u5951
 12359     1481  2C83               	goto	u5950
 12360     1482                     u5951:
 12361     1482  2C8D               	goto	l4523
 12362     1483                     u5950:
 12363     1483                     l4521:
 12364                           
 12365                           ;main.c: 586: t_npd = atoi(ptr);
 12366     1483  086E               	movf	main@ptr,w
 12367     1484  319C  24C7  3194   	fcall	_atoi
 12368     1487  0877               	movf	?_atoi+1,w
 12369     1488  0020               	movlb	0	; select bank0
 12370     1489  00EC               	movwf	main@t_npd+1
 12371     148A  0876               	movf	?_atoi,w
 12372     148B  00EB               	movwf	main@t_npd
 12373                           
 12374                           ;main.c: 587: }else{
 12375     148C  2C95               	goto	l4525
 12376     148D                     l4523:
 12377                           
 12378                           ;main.c: 588: t_npd = npd;
 12379     148D  0022               	movlb	2	; select bank2
 12380     148E  0827               	movf	(main@npd+1)^(0+256),w
 12381     148F  0020               	movlb	0	; select bank0
 12382     1490  00EC               	movwf	main@t_npd+1
 12383     1491  0022               	movlb	2	; select bank2
 12384     1492  0826               	movf	main@npd^(0+256),w
 12385     1493  0020               	movlb	0	; select bank0
 12386     1494  00EB               	movwf	main@t_npd
 12387     1495                     l4525:
 12388                           
 12389                           ;main.c: 589: };main.c: 590: for(k = 0 ; k < 10000 ; k++){
 12390     1495  0022               	movlb	2	; select bank2
 12391     1496  01BA               	clrf	main@k^(0+256)
 12392     1497  01BB               	clrf	(main@k+1)^(0+256)
 12393     1498                     l4527:
 12394     1498  083B               	movf	(main@k+1)^(0+256),w
 12395     1499  3A80               	xorlw	128
 12396     149A  0020               	movlb	0	; select bank0
 12397     149B  00D4               	movwf	??_main
 12398     149C  30A7               	movlw	167
 12399     149D  0254               	subwf	??_main,w
 12400     149E  1D03               	skipz
 12401     149F  2CA3               	goto	u5965
 12402     14A0  3010               	movlw	16
 12403     14A1  0022               	movlb	2	; select bank2
 12404     14A2  023A               	subwf	main@k^(0+256),w
 12405     14A3                     u5965:
 12406     14A3  1C03               	skipc
 12407     14A4  2CA6               	goto	u5961
 12408     14A5  2CA7               	goto	u5960
 12409     14A6                     u5961:
 12410     14A6  2CA8               	goto	l298
 12411     14A7                     u5960:
 12412     14A7  2D02               	goto	l4545
 12413     14A8                     l298:
 12414                           
 12415                           ;main.c: 591: RA0 = 1;
 12416     14A8  0020               	movlb	0	; select bank0
 12417     14A9  140C               	bsf	12,0	;volatile
 12418     14AA                     l4531:
 12419                           
 12420                           ;main.c: 592: npos += 1;
 12421     14AA  3001               	movlw	1
 12422     14AB  0022               	movlb	2	; select bank2
 12423     14AC  07B6               	addwf	main@npos^(0+256),f
 12424     14AD  3000               	movlw	0
 12425     14AE  3DB7               	addwfc	(main@npos+1)^(0+256),f
 12426     14AF                     l4533:
 12427                           
 12428                           ;main.c: 593: for(j = 0 ; j < intvl ; j++){
 12429     14AF  01BE               	clrf	main@j^(0+256)
 12430     14B0  01BF               	clrf	(main@j+1)^(0+256)
 12431     14B1  2CB8               	goto	l300
 12432     14B2                     l301:
 12433                           
 12434                           ;main.c: 594: _delay((unsigned long)((1)*(4000000/4000000.0)));
 12435     14B2  0000               	nop
 12436     14B3                     l4535:
 12437     14B3  3001               	movlw	1
 12438     14B4  0022               	movlb	2	; select bank2
 12439     14B5  07BE               	addwf	main@j^(0+256),f
 12440     14B6  3000               	movlw	0
 12441     14B7  3DBF               	addwfc	(main@j+1)^(0+256),f
 12442     14B8                     l300:
 12443     14B8  083F               	movf	(main@j+1)^(0+256),w
 12444     14B9  3A80               	xorlw	128
 12445     14BA  0020               	movlb	0	; select bank0
 12446     14BB  00D4               	movwf	??_main
 12447     14BC  0022               	movlb	2	; select bank2
 12448     14BD  083D               	movf	(main@intvl+1)^(0+256),w
 12449     14BE  3A80               	xorlw	128
 12450     14BF  0020               	movlb	0	; select bank0
 12451     14C0  0254               	subwf	??_main,w
 12452     14C1  1D03               	skipz
 12453     14C2  2CC6               	goto	u5975
 12454     14C3  0022               	movlb	2	; select bank2
 12455     14C4  083C               	movf	main@intvl^(0+256),w
 12456     14C5  023E               	subwf	main@j^(0+256),w
 12457     14C6                     u5975:
 12458     14C6  1C03               	skipc
 12459     14C7  2CC9               	goto	u5971
 12460     14C8  2CCA               	goto	u5970
 12461     14C9                     u5971:
 12462     14C9  2CB2               	goto	l301
 12463     14CA                     u5970:
 12464     14CA                     l302:
 12465                           
 12466                           ;main.c: 595: };main.c: 596: RA0 = 0;
 12467     14CA  0020               	movlb	0	; select bank0
 12468     14CB  100C               	bcf	12,0	;volatile
 12469     14CC                     l4537:
 12470                           
 12471                           ;main.c: 597: for(j = 0 ; j < intvl ; j++){
 12472     14CC  0022               	movlb	2	; select bank2
 12473     14CD  01BE               	clrf	main@j^(0+256)
 12474     14CE  01BF               	clrf	(main@j+1)^(0+256)
 12475     14CF  2CD6               	goto	l303
 12476     14D0                     l304:
 12477                           
 12478                           ;main.c: 598: _delay((unsigned long)((1)*(4000000/4000000.0)));
 12479     14D0  0000               	nop
 12480     14D1                     l4539:
 12481     14D1  3001               	movlw	1
 12482     14D2  0022               	movlb	2	; select bank2
 12483     14D3  07BE               	addwf	main@j^(0+256),f
 12484     14D4  3000               	movlw	0
 12485     14D5  3DBF               	addwfc	(main@j+1)^(0+256),f
 12486     14D6                     l303:
 12487     14D6  083F               	movf	(main@j+1)^(0+256),w
 12488     14D7  3A80               	xorlw	128
 12489     14D8  0020               	movlb	0	; select bank0
 12490     14D9  00D4               	movwf	??_main
 12491     14DA  0022               	movlb	2	; select bank2
 12492     14DB  083D               	movf	(main@intvl+1)^(0+256),w
 12493     14DC  3A80               	xorlw	128
 12494     14DD  0020               	movlb	0	; select bank0
 12495     14DE  0254               	subwf	??_main,w
 12496     14DF  1D03               	skipz
 12497     14E0  2CE4               	goto	u5985
 12498     14E1  0022               	movlb	2	; select bank2
 12499     14E2  083C               	movf	main@intvl^(0+256),w
 12500     14E3  023E               	subwf	main@j^(0+256),w
 12501     14E4                     u5985:
 12502     14E4  1C03               	skipc
 12503     14E5  2CE7               	goto	u5981
 12504     14E6  2CE8               	goto	u5980
 12505     14E7                     u5981:
 12506     14E7  2CD0               	goto	l304
 12507     14E8                     u5980:
 12508     14E8                     l305:
 12509                           
 12510                           ;main.c: 599: };main.c: 601: if(RB0 == 0){
 12511     14E8  0020               	movlb	0	; select bank0
 12512     14E9  180D               	btfsc	13,0	;volatile
 12513     14EA  2CEC               	goto	u5991
 12514     14EB  2CED               	goto	u5990
 12515     14EC                     u5991:
 12516     14EC  2CEE               	goto	l4543
 12517     14ED                     u5990:
 12518     14ED  2D02               	goto	l4545
 12519     14EE                     l4543:
 12520     14EE  3001               	movlw	1
 12521     14EF  0022               	movlb	2	; select bank2
 12522     14F0  07BA               	addwf	main@k^(0+256),f
 12523     14F1  3000               	movlw	0
 12524     14F2  3DBB               	addwfc	(main@k+1)^(0+256),f
 12525     14F3  083B               	movf	(main@k+1)^(0+256),w
 12526     14F4  3A80               	xorlw	128
 12527     14F5  0020               	movlb	0	; select bank0
 12528     14F6  00D4               	movwf	??_main
 12529     14F7  30A7               	movlw	167
 12530     14F8  0254               	subwf	??_main,w
 12531     14F9  1D03               	skipz
 12532     14FA  2CFE               	goto	u6005
 12533     14FB  3010               	movlw	16
 12534     14FC  0022               	movlb	2	; select bank2
 12535     14FD  023A               	subwf	main@k^(0+256),w
 12536     14FE                     u6005:
 12537     14FE  1C03               	skipc
 12538     14FF  2D01               	goto	u6001
 12539     1500  2D02               	goto	u6000
 12540     1501                     u6001:
 12541     1501  2CA8               	goto	l298
 12542     1502                     u6000:
 12543     1502                     l4545:
 12544                           
 12545                           ;main.c: 604: };main.c: 605: };main.c: 607: for(k = 0 ; k < t_npd ; k++){
 12546     1502  0022               	movlb	2	; select bank2
 12547     1503  01BA               	clrf	main@k^(0+256)
 12548     1504  01BB               	clrf	(main@k+1)^(0+256)
 12549     1505  2D5F               	goto	l307
 12550     1506                     l308:
 12551                           
 12552                           ;main.c: 608: RA1 = 1;
 12553     1506  0020               	movlb	0	; select bank0
 12554     1507  148C               	bsf	12,1	;volatile
 12555     1508                     l4547:
 12556                           
 12557                           ;main.c: 609: if(npos > 1){
 12558     1508  0022               	movlb	2	; select bank2
 12559     1509  0837               	movf	(main@npos+1)^(0+256),w
 12560     150A  3A80               	xorlw	128
 12561     150B  0020               	movlb	0	; select bank0
 12562     150C  00D4               	movwf	??_main
 12563     150D  3080               	movlw	128
 12564     150E  0254               	subwf	??_main,w
 12565     150F  1D03               	skipz
 12566     1510  2D14               	goto	u6015
 12567     1511  3002               	movlw	2
 12568     1512  0022               	movlb	2	; select bank2
 12569     1513  0236               	subwf	main@npos^(0+256),w
 12570     1514                     u6015:
 12571     1514  1C03               	skipc
 12572     1515  2D17               	goto	u6011
 12573     1516  2D18               	goto	u6010
 12574     1517                     u6011:
 12575     1517  2D1E               	goto	l4551
 12576     1518                     u6010:
 12577     1518                     l4549:
 12578                           
 12579                           ;main.c: 610: npos -= 1;
 12580     1518  30FF               	movlw	255
 12581     1519  0022               	movlb	2	; select bank2
 12582     151A  07B6               	addwf	main@npos^(0+256),f
 12583     151B  30FF               	movlw	255
 12584     151C  3DB7               	addwfc	(main@npos+1)^(0+256),f
 12585                           
 12586                           ;main.c: 611: }else{
 12587     151D  2D21               	goto	l310
 12588     151E                     l4551:
 12589                           
 12590                           ;main.c: 612: npos = 0;
 12591     151E  0022               	movlb	2	; select bank2
 12592     151F  01B6               	clrf	main@npos^(0+256)
 12593     1520  01B7               	clrf	(main@npos+1)^(0+256)
 12594     1521                     l310:
 12595                           
 12596                           ;main.c: 613: };main.c: 614: for(j = 0 ; j < intvl ; j++){
 12597     1521  01BE               	clrf	main@j^(0+256)
 12598     1522  01BF               	clrf	(main@j+1)^(0+256)
 12599     1523  2D2A               	goto	l311
 12600     1524                     l312:
 12601                           
 12602                           ;main.c: 615: _delay((unsigned long)((1)*(4000000/4000000.0)));
 12603     1524  0000               	nop
 12604     1525                     l4553:
 12605     1525  3001               	movlw	1
 12606     1526  0022               	movlb	2	; select bank2
 12607     1527  07BE               	addwf	main@j^(0+256),f
 12608     1528  3000               	movlw	0
 12609     1529  3DBF               	addwfc	(main@j+1)^(0+256),f
 12610     152A                     l311:
 12611     152A  083F               	movf	(main@j+1)^(0+256),w
 12612     152B  3A80               	xorlw	128
 12613     152C  0020               	movlb	0	; select bank0
 12614     152D  00D4               	movwf	??_main
 12615     152E  0022               	movlb	2	; select bank2
 12616     152F  083D               	movf	(main@intvl+1)^(0+256),w
 12617     1530  3A80               	xorlw	128
 12618     1531  0020               	movlb	0	; select bank0
 12619     1532  0254               	subwf	??_main,w
 12620     1533  1D03               	skipz
 12621     1534  2D38               	goto	u6025
 12622     1535  0022               	movlb	2	; select bank2
 12623     1536  083C               	movf	main@intvl^(0+256),w
 12624     1537  023E               	subwf	main@j^(0+256),w
 12625     1538                     u6025:
 12626     1538  1C03               	skipc
 12627     1539  2D3B               	goto	u6021
 12628     153A  2D3C               	goto	u6020
 12629     153B                     u6021:
 12630     153B  2D24               	goto	l312
 12631     153C                     u6020:
 12632     153C                     l313:
 12633                           
 12634                           ;main.c: 616: };main.c: 617: RA1 = 0;
 12635     153C  0020               	movlb	0	; select bank0
 12636     153D  108C               	bcf	12,1	;volatile
 12637     153E                     l4555:
 12638                           
 12639                           ;main.c: 618: for(j = 0 ; j < intvl ; j++){
 12640     153E  0022               	movlb	2	; select bank2
 12641     153F  01BE               	clrf	main@j^(0+256)
 12642     1540  01BF               	clrf	(main@j+1)^(0+256)
 12643     1541  2D48               	goto	l314
 12644     1542                     l315:
 12645                           
 12646                           ;main.c: 619: _delay((unsigned long)((1)*(4000000/4000000.0)));
 12647     1542  0000               	nop
 12648     1543                     l4557:
 12649     1543  3001               	movlw	1
 12650     1544  0022               	movlb	2	; select bank2
 12651     1545  07BE               	addwf	main@j^(0+256),f
 12652     1546  3000               	movlw	0
 12653     1547  3DBF               	addwfc	(main@j+1)^(0+256),f
 12654     1548                     l314:
 12655     1548  083F               	movf	(main@j+1)^(0+256),w
 12656     1549  3A80               	xorlw	128
 12657     154A  0020               	movlb	0	; select bank0
 12658     154B  00D4               	movwf	??_main
 12659     154C  0022               	movlb	2	; select bank2
 12660     154D  083D               	movf	(main@intvl+1)^(0+256),w
 12661     154E  3A80               	xorlw	128
 12662     154F  0020               	movlb	0	; select bank0
 12663     1550  0254               	subwf	??_main,w
 12664     1551  1D03               	skipz
 12665     1552  2D56               	goto	u6035
 12666     1553  0022               	movlb	2	; select bank2
 12667     1554  083C               	movf	main@intvl^(0+256),w
 12668     1555  023E               	subwf	main@j^(0+256),w
 12669     1556                     u6035:
 12670     1556  1C03               	skipc
 12671     1557  2D59               	goto	u6031
 12672     1558  2D5A               	goto	u6030
 12673     1559                     u6031:
 12674     1559  2D42               	goto	l315
 12675     155A                     u6030:
 12676     155A                     l4559:
 12677     155A  3001               	movlw	1
 12678     155B  0022               	movlb	2	; select bank2
 12679     155C  07BA               	addwf	main@k^(0+256),f
 12680     155D  3000               	movlw	0
 12681     155E  3DBB               	addwfc	(main@k+1)^(0+256),f
 12682     155F                     l307:
 12683     155F  083B               	movf	(main@k+1)^(0+256),w
 12684     1560  3A80               	xorlw	128
 12685     1561  0020               	movlb	0	; select bank0
 12686     1562  00D4               	movwf	??_main
 12687     1563  086C               	movf	main@t_npd+1,w
 12688     1564  3A80               	xorlw	128
 12689     1565  0254               	subwf	??_main,w
 12690     1566  1D03               	skipz
 12691     1567  2D6B               	goto	u6045
 12692     1568  086B               	movf	main@t_npd,w
 12693     1569  0022               	movlb	2	; select bank2
 12694     156A  023A               	subwf	main@k^(0+256),w
 12695     156B                     u6045:
 12696     156B  1C03               	skipc
 12697     156C  2D6E               	goto	u6041
 12698     156D  2D6F               	goto	u6040
 12699     156E                     u6041:
 12700     156E  2D06               	goto	l308
 12701     156F                     u6040:
 12702     156F                     l4561:
 12703                           
 12704                           ;main.c: 620: };main.c: 621: };main.c: 624: ndcnt += 1;
 12705     156F  3001               	movlw	1
 12706     1570  0022               	movlb	2	; select bank2
 12707     1571  07AC               	addwf	main@ndcnt^(0+256),f
 12708     1572  3000               	movlw	0
 12709     1573  3DAD               	addwfc	(main@ndcnt+1)^(0+256),f
 12710     1574  3000               	movlw	0
 12711     1575  3DAE               	addwfc	(main@ndcnt+2)^(0+256),f
 12712     1576  3000               	movlw	0
 12713     1577  3DAF               	addwfc	(main@ndcnt+3)^(0+256),f
 12714     1578                     l4563:
 12715                           
 12716                           ;main.c: 625: write_data_eeprom(NDCNT_ADR, ndcnt);
 12717     1578  0825               	movf	(main@NDCNT_ADR+3)^(0+256),w
 12718     1579  00F7               	movwf	write_data_eeprom@adr+3
 12719     157A  0824               	movf	(main@NDCNT_ADR+2)^(0+256),w
 12720     157B  00F6               	movwf	write_data_eeprom@adr+2
 12721     157C  0823               	movf	(main@NDCNT_ADR+1)^(0+256),w
 12722     157D  00F5               	movwf	write_data_eeprom@adr+1
 12723     157E  0822               	movf	main@NDCNT_ADR^(0+256),w
 12724     157F  00F4               	movwf	write_data_eeprom@adr
 12725     1580  082F               	movf	(main@ndcnt+3)^(0+256),w
 12726     1581  00FB               	movwf	write_data_eeprom@value+3
 12727     1582  082E               	movf	(main@ndcnt+2)^(0+256),w
 12728     1583  00FA               	movwf	write_data_eeprom@value+2
 12729     1584  082D               	movf	(main@ndcnt+1)^(0+256),w
 12730     1585  00F9               	movwf	write_data_eeprom@value+1
 12731     1586  082C               	movf	main@ndcnt^(0+256),w
 12732     1587  00F8               	movwf	write_data_eeprom@value
 12733     1588  319B  232D  3194   	fcall	_write_data_eeprom
 12734     158B                     l4565:
 12735                           
 12736                           ;main.c: 627: printf("C\tNDD\r\n");
 12737     158B  3014               	movlw	low (STR_59| (0+32768))
 12738     158C  0020               	movlb	0	; select bank0
 12739     158D  00A0               	movwf	printf@f
 12740     158E  30A1               	movlw	high (STR_59| (0+32768))
 12741     158F  00A1               	movwf	printf@f+1
 12742     1590  3180  2035  3194   	fcall	_printf
 12743                           
 12744                           ;main.c: 628: break;
 12745     1593  3187  2F42         	goto	u6340
 12746                           
 12747                           	psect	maintext_split_10
 12748     0107                     l4567:
 12749                           
 12750                           ;main.c: 632: for(k = 0 ; k < nsp ; k++){
 12751     0107  0022               	movlb	2	; select bank2
 12752     0108  01BA               	clrf	main@k^(0+256)
 12753     0109  01BB               	clrf	(main@k+1)^(0+256)
 12754     010A  2950               	goto	l319
 12755     010B                     l320:
 12756                           
 12757                           ;main.c: 633: RA1 = 1;
 12758     010B  0020               	movlb	0	; select bank0
 12759     010C  148C               	bsf	12,1	;volatile
 12760     010D                     l4569:
 12761                           
 12762                           ;main.c: 634: npos += 1;
 12763     010D  3001               	movlw	1
 12764     010E  0022               	movlb	2	; select bank2
 12765     010F  07B6               	addwf	main@npos^(0+256),f
 12766     0110  3000               	movlw	0
 12767     0111  3DB7               	addwfc	(main@npos+1)^(0+256),f
 12768     0112                     l4571:
 12769                           
 12770                           ;main.c: 635: for(j = 0 ; j < intvl ; j++){
 12771     0112  01BE               	clrf	main@j^(0+256)
 12772     0113  01BF               	clrf	(main@j+1)^(0+256)
 12773     0114  291B               	goto	l321
 12774     0115                     l322:
 12775                           
 12776                           ;main.c: 636: _delay((unsigned long)((1)*(4000000/4000000.0)));
 12777     0115  0000               	nop
 12778     0116                     l4573:
 12779     0116  3001               	movlw	1
 12780     0117  0022               	movlb	2	; select bank2
 12781     0118  07BE               	addwf	main@j^(0+256),f
 12782     0119  3000               	movlw	0
 12783     011A  3DBF               	addwfc	(main@j+1)^(0+256),f
 12784     011B                     l321:
 12785     011B  083F               	movf	(main@j+1)^(0+256),w
 12786     011C  3A80               	xorlw	128
 12787     011D  0020               	movlb	0	; select bank0
 12788     011E  00D4               	movwf	??_main
 12789     011F  0022               	movlb	2	; select bank2
 12790     0120  083D               	movf	(main@intvl+1)^(0+256),w
 12791     0121  3A80               	xorlw	128
 12792     0122  0020               	movlb	0	; select bank0
 12793     0123  0254               	subwf	??_main,w
 12794     0124  1D03               	skipz
 12795     0125  2929               	goto	u6055
 12796     0126  0022               	movlb	2	; select bank2
 12797     0127  083C               	movf	main@intvl^(0+256),w
 12798     0128  023E               	subwf	main@j^(0+256),w
 12799     0129                     u6055:
 12800     0129  1C03               	skipc
 12801     012A  292C               	goto	u6051
 12802     012B  292D               	goto	u6050
 12803     012C                     u6051:
 12804     012C  2915               	goto	l322
 12805     012D                     u6050:
 12806     012D                     l323:
 12807                           
 12808                           ;main.c: 637: };main.c: 638: RA1 = 0;
 12809     012D  0020               	movlb	0	; select bank0
 12810     012E  108C               	bcf	12,1	;volatile
 12811     012F                     l4575:
 12812                           
 12813                           ;main.c: 639: for(j = 0 ; j < intvl ; j++){
 12814     012F  0022               	movlb	2	; select bank2
 12815     0130  01BE               	clrf	main@j^(0+256)
 12816     0131  01BF               	clrf	(main@j+1)^(0+256)
 12817     0132  2939               	goto	l324
 12818     0133                     l325:
 12819                           
 12820                           ;main.c: 640: _delay((unsigned long)((1)*(4000000/4000000.0)));
 12821     0133  0000               	nop
 12822     0134                     l4577:
 12823     0134  3001               	movlw	1
 12824     0135  0022               	movlb	2	; select bank2
 12825     0136  07BE               	addwf	main@j^(0+256),f
 12826     0137  3000               	movlw	0
 12827     0138  3DBF               	addwfc	(main@j+1)^(0+256),f
 12828     0139                     l324:
 12829     0139  083F               	movf	(main@j+1)^(0+256),w
 12830     013A  3A80               	xorlw	128
 12831     013B  0020               	movlb	0	; select bank0
 12832     013C  00D4               	movwf	??_main
 12833     013D  0022               	movlb	2	; select bank2
 12834     013E  083D               	movf	(main@intvl+1)^(0+256),w
 12835     013F  3A80               	xorlw	128
 12836     0140  0020               	movlb	0	; select bank0
 12837     0141  0254               	subwf	??_main,w
 12838     0142  1D03               	skipz
 12839     0143  2947               	goto	u6065
 12840     0144  0022               	movlb	2	; select bank2
 12841     0145  083C               	movf	main@intvl^(0+256),w
 12842     0146  023E               	subwf	main@j^(0+256),w
 12843     0147                     u6065:
 12844     0147  1C03               	skipc
 12845     0148  294A               	goto	u6061
 12846     0149  294B               	goto	u6060
 12847     014A                     u6061:
 12848     014A  2933               	goto	l325
 12849     014B                     u6060:
 12850     014B                     l4579:
 12851     014B  3001               	movlw	1
 12852     014C  0022               	movlb	2	; select bank2
 12853     014D  07BA               	addwf	main@k^(0+256),f
 12854     014E  3000               	movlw	0
 12855     014F  3DBB               	addwfc	(main@k+1)^(0+256),f
 12856     0150                     l319:
 12857     0150  083B               	movf	(main@k+1)^(0+256),w
 12858     0151  3A80               	xorlw	128
 12859     0152  0020               	movlb	0	; select bank0
 12860     0153  00D4               	movwf	??_main
 12861     0154  0862               	movf	main@nsp+1,w
 12862     0155  3A80               	xorlw	128
 12863     0156  0254               	subwf	??_main,w
 12864     0157  1D03               	skipz
 12865     0158  295C               	goto	u6075
 12866     0159  0861               	movf	main@nsp,w
 12867     015A  0022               	movlb	2	; select bank2
 12868     015B  023A               	subwf	main@k^(0+256),w
 12869     015C                     u6075:
 12870     015C  1C03               	skipc
 12871     015D  295F               	goto	u6071
 12872     015E  2960               	goto	u6070
 12873     015F                     u6071:
 12874     015F  290B               	goto	l320
 12875     0160                     u6070:
 12876     0160                     l4581:
 12877                           
 12878                           ;main.c: 641: };main.c: 642: };main.c: 645: printf("C\tNSD\r\n");
 12879     0160  301C               	movlw	low (STR_60| (0+32768))
 12880     0161  0020               	movlb	0	; select bank0
 12881     0162  00A0               	movwf	printf@f
 12882     0163  30A1               	movlw	high (STR_60| (0+32768))
 12883     0164  00A1               	movwf	printf@f+1
 12884     0165  3180  2035  3181   	fcall	_printf
 12885                           
 12886                           ;main.c: 646: break;
 12887     0168  2F42               	goto	u6340
 12888     0169                     l4583:
 12889                           
 12890                           ;main.c: 650: for(k = 0 ; k < npd ; k++){
 12891     0169  0022               	movlb	2	; select bank2
 12892     016A  01BA               	clrf	main@k^(0+256)
 12893     016B  01BB               	clrf	(main@k+1)^(0+256)
 12894     016C  29B1               	goto	l329
 12895     016D                     l330:
 12896                           
 12897                           ;main.c: 651: RA0 = 1;
 12898     016D  140C               	bsf	12,0	;volatile
 12899     016E                     l4585:
 12900                           
 12901                           ;main.c: 652: npos += 1;
 12902     016E  3001               	movlw	1
 12903     016F  0022               	movlb	2	; select bank2
 12904     0170  07B6               	addwf	main@npos^(0+256),f
 12905     0171  3000               	movlw	0
 12906     0172  3DB7               	addwfc	(main@npos+1)^(0+256),f
 12907     0173                     l4587:
 12908                           
 12909                           ;main.c: 653: for(j = 0 ; j < intvl ; j++){
 12910     0173  01BE               	clrf	main@j^(0+256)
 12911     0174  01BF               	clrf	(main@j+1)^(0+256)
 12912     0175  297C               	goto	l331
 12913     0176                     l332:
 12914                           
 12915                           ;main.c: 654: _delay((unsigned long)((1)*(4000000/4000000.0)));
 12916     0176  0000               	nop
 12917     0177                     l4589:
 12918     0177  3001               	movlw	1
 12919     0178  0022               	movlb	2	; select bank2
 12920     0179  07BE               	addwf	main@j^(0+256),f
 12921     017A  3000               	movlw	0
 12922     017B  3DBF               	addwfc	(main@j+1)^(0+256),f
 12923     017C                     l331:
 12924     017C  083F               	movf	(main@j+1)^(0+256),w
 12925     017D  3A80               	xorlw	128
 12926     017E  0020               	movlb	0	; select bank0
 12927     017F  00D4               	movwf	??_main
 12928     0180  0022               	movlb	2	; select bank2
 12929     0181  083D               	movf	(main@intvl+1)^(0+256),w
 12930     0182  3A80               	xorlw	128
 12931     0183  0020               	movlb	0	; select bank0
 12932     0184  0254               	subwf	??_main,w
 12933     0185  1D03               	skipz
 12934     0186  298A               	goto	u6085
 12935     0187  0022               	movlb	2	; select bank2
 12936     0188  083C               	movf	main@intvl^(0+256),w
 12937     0189  023E               	subwf	main@j^(0+256),w
 12938     018A                     u6085:
 12939     018A  1C03               	skipc
 12940     018B  298D               	goto	u6081
 12941     018C  298E               	goto	u6080
 12942     018D                     u6081:
 12943     018D  2976               	goto	l332
 12944     018E                     u6080:
 12945     018E                     l333:
 12946                           
 12947                           ;main.c: 655: };main.c: 656: RA0 = 0;
 12948     018E  0020               	movlb	0	; select bank0
 12949     018F  100C               	bcf	12,0	;volatile
 12950     0190                     l4591:
 12951                           
 12952                           ;main.c: 657: for(j = 0 ; j < intvl ; j++){
 12953     0190  0022               	movlb	2	; select bank2
 12954     0191  01BE               	clrf	main@j^(0+256)
 12955     0192  01BF               	clrf	(main@j+1)^(0+256)
 12956     0193  299A               	goto	l334
 12957     0194                     l335:
 12958                           
 12959                           ;main.c: 658: _delay((unsigned long)((1)*(4000000/4000000.0)));
 12960     0194  0000               	nop
 12961     0195                     l4593:
 12962     0195  3001               	movlw	1
 12963     0196  0022               	movlb	2	; select bank2
 12964     0197  07BE               	addwf	main@j^(0+256),f
 12965     0198  3000               	movlw	0
 12966     0199  3DBF               	addwfc	(main@j+1)^(0+256),f
 12967     019A                     l334:
 12968     019A  083F               	movf	(main@j+1)^(0+256),w
 12969     019B  3A80               	xorlw	128
 12970     019C  0020               	movlb	0	; select bank0
 12971     019D  00D4               	movwf	??_main
 12972     019E  0022               	movlb	2	; select bank2
 12973     019F  083D               	movf	(main@intvl+1)^(0+256),w
 12974     01A0  3A80               	xorlw	128
 12975     01A1  0020               	movlb	0	; select bank0
 12976     01A2  0254               	subwf	??_main,w
 12977     01A3  1D03               	skipz
 12978     01A4  29A8               	goto	u6095
 12979     01A5  0022               	movlb	2	; select bank2
 12980     01A6  083C               	movf	main@intvl^(0+256),w
 12981     01A7  023E               	subwf	main@j^(0+256),w
 12982     01A8                     u6095:
 12983     01A8  1C03               	skipc
 12984     01A9  29AB               	goto	u6091
 12985     01AA  29AC               	goto	u6090
 12986     01AB                     u6091:
 12987     01AB  2994               	goto	l335
 12988     01AC                     u6090:
 12989     01AC                     l4595:
 12990     01AC  3001               	movlw	1
 12991     01AD  0022               	movlb	2	; select bank2
 12992     01AE  07BA               	addwf	main@k^(0+256),f
 12993     01AF  3000               	movlw	0
 12994     01B0  3DBB               	addwfc	(main@k+1)^(0+256),f
 12995     01B1                     l329:
 12996     01B1  083A               	movf	main@k^(0+256),w
 12997     01B2  0020               	movlb	0	; select bank0
 12998     01B3  00D4               	movwf	??_main
 12999     01B4  0022               	movlb	2	; select bank2
 13000     01B5  083B               	movf	(main@k+1)^(0+256),w
 13001     01B6  0020               	movlb	0	; select bank0
 13002     01B7  00D5               	movwf	??_main+1
 13003     01B8  3000               	movlw	0
 13004     01B9  1BD5               	btfsc	??_main+1,7
 13005     01BA  30FF               	movlw	255
 13006     01BB  00D6               	movwf	??_main+2
 13007     01BC  00D7               	movwf	??_main+3
 13008     01BD  0857               	movf	??_main+3,w
 13009     01BE  3A80               	xorlw	128
 13010     01BF  00D8               	movwf	??_main+4
 13011     01C0  0022               	movlb	2	; select bank2
 13012     01C1  0829               	movf	(main@npd+3)^(0+256),w
 13013     01C2  3A80               	xorlw	128
 13014     01C3  0020               	movlb	0	; select bank0
 13015     01C4  0258               	subwf	??_main+4,w
 13016     01C5  1D03               	skipz
 13017     01C6  29D7               	goto	u6103
 13018     01C7  0022               	movlb	2	; select bank2
 13019     01C8  0828               	movf	(main@npd+2)^(0+256),w
 13020     01C9  0020               	movlb	0	; select bank0
 13021     01CA  0256               	subwf	??_main+2,w
 13022     01CB  1D03               	skipz
 13023     01CC  29D7               	goto	u6103
 13024     01CD  0022               	movlb	2	; select bank2
 13025     01CE  0827               	movf	(main@npd+1)^(0+256),w
 13026     01CF  0020               	movlb	0	; select bank0
 13027     01D0  0255               	subwf	??_main+1,w
 13028     01D1  1D03               	skipz
 13029     01D2  29D7               	goto	u6103
 13030     01D3  0022               	movlb	2	; select bank2
 13031     01D4  0826               	movf	main@npd^(0+256),w
 13032     01D5  0020               	movlb	0	; select bank0
 13033     01D6  0254               	subwf	??_main,w
 13034     01D7                     u6103:
 13035     01D7  1C03               	skipc
 13036     01D8  29DA               	goto	u6101
 13037     01D9  29DB               	goto	u6100
 13038     01DA                     u6101:
 13039     01DA  296D               	goto	l330
 13040     01DB                     u6100:
 13041     01DB                     l4597:
 13042                           
 13043                           ;main.c: 659: };main.c: 660: };main.c: 662: for(k = 0 ; k < npd ; k++){
 13044     01DB  0022               	movlb	2	; select bank2
 13045     01DC  01BA               	clrf	main@k^(0+256)
 13046     01DD  01BB               	clrf	(main@k+1)^(0+256)
 13047     01DE  2A37               	goto	l338
 13048     01DF                     l339:
 13049                           
 13050                           ;main.c: 663: RA1 = 1;
 13051     01DF  148C               	bsf	12,1	;volatile
 13052     01E0                     l4599:
 13053                           
 13054                           ;main.c: 664: if(npos > 1){
 13055     01E0  0022               	movlb	2	; select bank2
 13056     01E1  0837               	movf	(main@npos+1)^(0+256),w
 13057     01E2  3A80               	xorlw	128
 13058     01E3  0020               	movlb	0	; select bank0
 13059     01E4  00D4               	movwf	??_main
 13060     01E5  3080               	movlw	128
 13061     01E6  0254               	subwf	??_main,w
 13062     01E7  1D03               	skipz
 13063     01E8  29EC               	goto	u6115
 13064     01E9  3002               	movlw	2
 13065     01EA  0022               	movlb	2	; select bank2
 13066     01EB  0236               	subwf	main@npos^(0+256),w
 13067     01EC                     u6115:
 13068     01EC  1C03               	skipc
 13069     01ED  29EF               	goto	u6111
 13070     01EE  29F0               	goto	u6110
 13071     01EF                     u6111:
 13072     01EF  29F6               	goto	l4603
 13073     01F0                     u6110:
 13074     01F0                     l4601:
 13075                           
 13076                           ;main.c: 665: npos -= 1;
 13077     01F0  30FF               	movlw	255
 13078     01F1  0022               	movlb	2	; select bank2
 13079     01F2  07B6               	addwf	main@npos^(0+256),f
 13080     01F3  30FF               	movlw	255
 13081     01F4  3DB7               	addwfc	(main@npos+1)^(0+256),f
 13082                           
 13083                           ;main.c: 666: }else{
 13084     01F5  29F9               	goto	l341
 13085     01F6                     l4603:
 13086                           
 13087                           ;main.c: 667: npos = 0;
 13088     01F6  0022               	movlb	2	; select bank2
 13089     01F7  01B6               	clrf	main@npos^(0+256)
 13090     01F8  01B7               	clrf	(main@npos+1)^(0+256)
 13091     01F9                     l341:
 13092                           
 13093                           ;main.c: 668: };main.c: 669: for(j = 0 ; j < intvl ; j++){
 13094     01F9  01BE               	clrf	main@j^(0+256)
 13095     01FA  01BF               	clrf	(main@j+1)^(0+256)
 13096     01FB  2A02               	goto	l342
 13097     01FC                     l343:
 13098                           
 13099                           ;main.c: 670: _delay((unsigned long)((1)*(4000000/4000000.0)));
 13100     01FC  0000               	nop
 13101     01FD                     l4605:
 13102     01FD  3001               	movlw	1
 13103     01FE  0022               	movlb	2	; select bank2
 13104     01FF  07BE               	addwf	main@j^(0+256),f
 13105     0200  3000               	movlw	0
 13106     0201  3DBF               	addwfc	(main@j+1)^(0+256),f
 13107     0202                     l342:
 13108     0202  083F               	movf	(main@j+1)^(0+256),w
 13109     0203  3A80               	xorlw	128
 13110     0204  0020               	movlb	0	; select bank0
 13111     0205  00D4               	movwf	??_main
 13112     0206  0022               	movlb	2	; select bank2
 13113     0207  083D               	movf	(main@intvl+1)^(0+256),w
 13114     0208  3A80               	xorlw	128
 13115     0209  0020               	movlb	0	; select bank0
 13116     020A  0254               	subwf	??_main,w
 13117     020B  1D03               	skipz
 13118     020C  2A10               	goto	u6125
 13119     020D  0022               	movlb	2	; select bank2
 13120     020E  083C               	movf	main@intvl^(0+256),w
 13121     020F  023E               	subwf	main@j^(0+256),w
 13122     0210                     u6125:
 13123     0210  1C03               	skipc
 13124     0211  2A13               	goto	u6121
 13125     0212  2A14               	goto	u6120
 13126     0213                     u6121:
 13127     0213  29FC               	goto	l343
 13128     0214                     u6120:
 13129     0214                     l344:
 13130                           
 13131                           ;main.c: 671: };main.c: 672: RA1 = 0;
 13132     0214  0020               	movlb	0	; select bank0
 13133     0215  108C               	bcf	12,1	;volatile
 13134     0216                     l4607:
 13135                           
 13136                           ;main.c: 673: for(j = 0 ; j < intvl ; j++){
 13137     0216  0022               	movlb	2	; select bank2
 13138     0217  01BE               	clrf	main@j^(0+256)
 13139     0218  01BF               	clrf	(main@j+1)^(0+256)
 13140     0219  2A20               	goto	l345
 13141     021A                     l346:
 13142                           
 13143                           ;main.c: 674: _delay((unsigned long)((1)*(4000000/4000000.0)));
 13144     021A  0000               	nop
 13145     021B                     l4609:
 13146     021B  3001               	movlw	1
 13147     021C  0022               	movlb	2	; select bank2
 13148     021D  07BE               	addwf	main@j^(0+256),f
 13149     021E  3000               	movlw	0
 13150     021F  3DBF               	addwfc	(main@j+1)^(0+256),f
 13151     0220                     l345:
 13152     0220  083F               	movf	(main@j+1)^(0+256),w
 13153     0221  3A80               	xorlw	128
 13154     0222  0020               	movlb	0	; select bank0
 13155     0223  00D4               	movwf	??_main
 13156     0224  0022               	movlb	2	; select bank2
 13157     0225  083D               	movf	(main@intvl+1)^(0+256),w
 13158     0226  3A80               	xorlw	128
 13159     0227  0020               	movlb	0	; select bank0
 13160     0228  0254               	subwf	??_main,w
 13161     0229  1D03               	skipz
 13162     022A  2A2E               	goto	u6135
 13163     022B  0022               	movlb	2	; select bank2
 13164     022C  083C               	movf	main@intvl^(0+256),w
 13165     022D  023E               	subwf	main@j^(0+256),w
 13166     022E                     u6135:
 13167     022E  1C03               	skipc
 13168     022F  2A31               	goto	u6131
 13169     0230  2A32               	goto	u6130
 13170     0231                     u6131:
 13171     0231  2A1A               	goto	l346
 13172     0232                     u6130:
 13173     0232                     l4611:
 13174     0232  3001               	movlw	1
 13175     0233  0022               	movlb	2	; select bank2
 13176     0234  07BA               	addwf	main@k^(0+256),f
 13177     0235  3000               	movlw	0
 13178     0236  3DBB               	addwfc	(main@k+1)^(0+256),f
 13179     0237                     l338:
 13180     0237  083A               	movf	main@k^(0+256),w
 13181     0238  0020               	movlb	0	; select bank0
 13182     0239  00D4               	movwf	??_main
 13183     023A  0022               	movlb	2	; select bank2
 13184     023B  083B               	movf	(main@k+1)^(0+256),w
 13185     023C  0020               	movlb	0	; select bank0
 13186     023D  00D5               	movwf	??_main+1
 13187     023E  3000               	movlw	0
 13188     023F  1BD5               	btfsc	??_main+1,7
 13189     0240  30FF               	movlw	255
 13190     0241  00D6               	movwf	??_main+2
 13191     0242  00D7               	movwf	??_main+3
 13192     0243  0857               	movf	??_main+3,w
 13193     0244  3A80               	xorlw	128
 13194     0245  00D8               	movwf	??_main+4
 13195     0246  0022               	movlb	2	; select bank2
 13196     0247  0829               	movf	(main@npd+3)^(0+256),w
 13197     0248  3A80               	xorlw	128
 13198     0249  0020               	movlb	0	; select bank0
 13199     024A  0258               	subwf	??_main+4,w
 13200     024B  1D03               	skipz
 13201     024C  2A5D               	goto	u6143
 13202     024D  0022               	movlb	2	; select bank2
 13203     024E  0828               	movf	(main@npd+2)^(0+256),w
 13204     024F  0020               	movlb	0	; select bank0
 13205     0250  0256               	subwf	??_main+2,w
 13206     0251  1D03               	skipz
 13207     0252  2A5D               	goto	u6143
 13208     0253  0022               	movlb	2	; select bank2
 13209     0254  0827               	movf	(main@npd+1)^(0+256),w
 13210     0255  0020               	movlb	0	; select bank0
 13211     0256  0255               	subwf	??_main+1,w
 13212     0257  1D03               	skipz
 13213     0258  2A5D               	goto	u6143
 13214     0259  0022               	movlb	2	; select bank2
 13215     025A  0826               	movf	main@npd^(0+256),w
 13216     025B  0020               	movlb	0	; select bank0
 13217     025C  0254               	subwf	??_main,w
 13218     025D                     u6143:
 13219     025D  1C03               	skipc
 13220     025E  2A60               	goto	u6141
 13221     025F  2A61               	goto	u6140
 13222     0260                     u6141:
 13223     0260  29DF               	goto	l339
 13224     0261                     u6140:
 13225     0261                     l4613:
 13226                           
 13227                           ;main.c: 675: };main.c: 676: };main.c: 679: ndcnt += 1;
 13228     0261  3001               	movlw	1
 13229     0262  0022               	movlb	2	; select bank2
 13230     0263  07AC               	addwf	main@ndcnt^(0+256),f
 13231     0264  3000               	movlw	0
 13232     0265  3DAD               	addwfc	(main@ndcnt+1)^(0+256),f
 13233     0266  3000               	movlw	0
 13234     0267  3DAE               	addwfc	(main@ndcnt+2)^(0+256),f
 13235     0268  3000               	movlw	0
 13236     0269  3DAF               	addwfc	(main@ndcnt+3)^(0+256),f
 13237     026A                     l4615:
 13238                           
 13239                           ;main.c: 680: write_data_eeprom(NDCNT_ADR, ndcnt);
 13240     026A  0825               	movf	(main@NDCNT_ADR+3)^(0+256),w
 13241     026B  00F7               	movwf	write_data_eeprom@adr+3
 13242     026C  0824               	movf	(main@NDCNT_ADR+2)^(0+256),w
 13243     026D  00F6               	movwf	write_data_eeprom@adr+2
 13244     026E  0823               	movf	(main@NDCNT_ADR+1)^(0+256),w
 13245     026F  00F5               	movwf	write_data_eeprom@adr+1
 13246     0270  0822               	movf	main@NDCNT_ADR^(0+256),w
 13247     0271  00F4               	movwf	write_data_eeprom@adr
 13248     0272  082F               	movf	(main@ndcnt+3)^(0+256),w
 13249     0273  00FB               	movwf	write_data_eeprom@value+3
 13250     0274  082E               	movf	(main@ndcnt+2)^(0+256),w
 13251     0275  00FA               	movwf	write_data_eeprom@value+2
 13252     0276  082D               	movf	(main@ndcnt+1)^(0+256),w
 13253     0277  00F9               	movwf	write_data_eeprom@value+1
 13254     0278  082C               	movf	main@ndcnt^(0+256),w
 13255     0279  00F8               	movwf	write_data_eeprom@value
 13256     027A  319B  232D  3181   	fcall	_write_data_eeprom
 13257     027D                     l4617:
 13258                           
 13259                           ;main.c: 681: printf("C\tNSC\r\n");
 13260     027D  3004               	movlw	low (STR_61| (0+32768))
 13261     027E  0020               	movlb	0	; select bank0
 13262     027F  00A0               	movwf	printf@f
 13263     0280  30A1               	movlw	high (STR_61| (0+32768))
 13264     0281  00A1               	movwf	printf@f+1
 13265     0282  3180  2035  3181   	fcall	_printf
 13266                           
 13267                           ;main.c: 682: break;
 13268     0285  2F42               	goto	u6340
 13269     0286                     l4619:
 13270                           
 13271                           ;main.c: 685: ptr = strtok((0), "/");
 13272     0286  30EC               	movlw	low (STR_37| (0+32768))
 13273     0287  00A0               	movwf	strtok@s2
 13274     0288  30A1               	movlw	high (STR_37| (0+32768))
 13275     0289  00A1               	movwf	strtok@s2+1
 13276     028A  0103               	clrw
 13277     028B  319B  2375  3181   	fcall	_strtok
 13278     028E  0020               	movlb	0	; select bank0
 13279     028F  00EE               	movwf	main@ptr
 13280     0290                     l4621:
 13281                           
 13282                           ;main.c: 686: if(ptr != (0)) {
 13283     0290  086E               	movf	main@ptr,w
 13284     0291  1903               	btfsc	3,2
 13285     0292  2A94               	goto	u6151
 13286     0293  2A95               	goto	u6150
 13287     0294                     u6151:
 13288     0294  2AA3               	goto	l4625
 13289     0295                     u6150:
 13290     0295                     l4623:
 13291                           
 13292                           ;main.c: 687: npd = atoi(ptr);
 13293     0295  086E               	movf	main@ptr,w
 13294     0296  319C  24C7  3181   	fcall	_atoi
 13295     0299  0876               	movf	?_atoi,w
 13296     029A  0022               	movlb	2	; select bank2
 13297     029B  00A6               	movwf	main@npd^(0+256)
 13298     029C  0877               	movf	?_atoi+1,w
 13299     029D  00A7               	movwf	(main@npd+1)^(0+256)
 13300     029E  0D89               	rlf	9,f
 13301     029F  3B89               	subwfb	9,f
 13302     02A0  0989               	comf	9,f
 13303     02A1  00A8               	movwf	(main@npd+2)^(0+256)
 13304     02A2  00A9               	movwf	(main@npd+3)^(0+256)
 13305     02A3                     l4625:
 13306                           
 13307                           ;main.c: 688: };main.c: 689: write_data_eeprom(NPD_ADR, npd);
 13308     02A3  0021               	movlb	1	; select bank1
 13309     02A4  085B               	movf	(main@NPD_ADR+3)^(0+128),w
 13310     02A5  00F7               	movwf	write_data_eeprom@adr+3
 13311     02A6  085A               	movf	(main@NPD_ADR+2)^(0+128),w
 13312     02A7  00F6               	movwf	write_data_eeprom@adr+2
 13313     02A8  0859               	movf	(main@NPD_ADR+1)^(0+128),w
 13314     02A9  00F5               	movwf	write_data_eeprom@adr+1
 13315     02AA  0858               	movf	main@NPD_ADR^(0+128),w
 13316     02AB  00F4               	movwf	write_data_eeprom@adr
 13317     02AC  0022               	movlb	2	; select bank2
 13318     02AD  0829               	movf	(main@npd+3)^(0+256),w
 13319     02AE  00FB               	movwf	write_data_eeprom@value+3
 13320     02AF  0828               	movf	(main@npd+2)^(0+256),w
 13321     02B0  00FA               	movwf	write_data_eeprom@value+2
 13322     02B1  0827               	movf	(main@npd+1)^(0+256),w
 13323     02B2  00F9               	movwf	write_data_eeprom@value+1
 13324     02B3  0826               	movf	main@npd^(0+256),w
 13325     02B4  00F8               	movwf	write_data_eeprom@value
 13326     02B5  319B  232D  3181   	fcall	_write_data_eeprom
 13327     02B8                     l4627:
 13328                           
 13329                           ;main.c: 690: printf("C\tWPD\t%d\r\n", npd);
 13330     02B8  3042               	movlw	low (STR_63| (0+32768))
 13331     02B9  0020               	movlb	0	; select bank0
 13332     02BA  00A0               	movwf	printf@f
 13333     02BB  30A0               	movlw	high (STR_63| (0+32768))
 13334     02BC  00A1               	movwf	printf@f+1
 13335     02BD  0022               	movlb	2	; select bank2
 13336     02BE  0829               	movf	(main@npd+3)^(0+256),w
 13337     02BF  0020               	movlb	0	; select bank0
 13338     02C0  00A5               	movwf	?_printf+5
 13339     02C1  0022               	movlb	2	; select bank2
 13340     02C2  0828               	movf	(main@npd+2)^(0+256),w
 13341     02C3  0020               	movlb	0	; select bank0
 13342     02C4  00A4               	movwf	?_printf+4
 13343     02C5  0022               	movlb	2	; select bank2
 13344     02C6  0827               	movf	(main@npd+1)^(0+256),w
 13345     02C7  0020               	movlb	0	; select bank0
 13346     02C8  00A3               	movwf	?_printf+3
 13347     02C9  0022               	movlb	2	; select bank2
 13348     02CA  0826               	movf	main@npd^(0+256),w
 13349     02CB  0020               	movlb	0	; select bank0
 13350     02CC  00A2               	movwf	?_printf+2
 13351     02CD  3180  2035  3181   	fcall	_printf
 13352                           
 13353                           ;main.c: 691: break;
 13354     02D0  2F42               	goto	u6340
 13355     02D1                     l4629:
 13356                           
 13357                           ;main.c: 694: ptr = strtok((0), "/");
 13358     02D1  30EC               	movlw	low (STR_37| (0+32768))
 13359     02D2  00A0               	movwf	strtok@s2
 13360     02D3  30A1               	movlw	high (STR_37| (0+32768))
 13361     02D4  00A1               	movwf	strtok@s2+1
 13362     02D5  0103               	clrw
 13363     02D6  319B  2375  3181   	fcall	_strtok
 13364     02D9  0020               	movlb	0	; select bank0
 13365     02DA  00EE               	movwf	main@ptr
 13366     02DB                     l4631:
 13367                           
 13368                           ;main.c: 695: if(ptr != (0)) {
 13369     02DB  086E               	movf	main@ptr,w
 13370     02DC  1903               	btfsc	3,2
 13371     02DD  2ADF               	goto	u6161
 13372     02DE  2AE0               	goto	u6160
 13373     02DF                     u6161:
 13374     02DF  2AE9               	goto	l4635
 13375     02E0                     u6160:
 13376     02E0                     l4633:
 13377                           
 13378                           ;main.c: 696: nsp = atoi(ptr);
 13379     02E0  086E               	movf	main@ptr,w
 13380     02E1  319C  24C7  3181   	fcall	_atoi
 13381     02E4  0877               	movf	?_atoi+1,w
 13382     02E5  0020               	movlb	0	; select bank0
 13383     02E6  00E2               	movwf	main@nsp+1
 13384     02E7  0876               	movf	?_atoi,w
 13385     02E8  00E1               	movwf	main@nsp
 13386     02E9                     l4635:
 13387                           
 13388                           ;main.c: 697: };main.c: 698: printf("C\tNSP\r\n");
 13389     02E9  303C               	movlw	low (STR_65| (0+32768))
 13390     02EA  00A0               	movwf	printf@f
 13391     02EB  30A1               	movlw	high (STR_65| (0+32768))
 13392     02EC  00A1               	movwf	printf@f+1
 13393     02ED  3180  2035  3181   	fcall	_printf
 13394                           
 13395                           ;main.c: 699: break;
 13396     02F0  2F42               	goto	u6340
 13397     02F1                     l4637:
 13398                           
 13399                           ;main.c: 702: printf("C\tRNP/%d\r\n", npos);
 13400     02F1  30B0               	movlw	low (STR_66| (0+32768))
 13401     02F2  00A0               	movwf	printf@f
 13402     02F3  30A0               	movlw	high (STR_66| (0+32768))
 13403     02F4  00A1               	movwf	printf@f+1
 13404     02F5  0022               	movlb	2	; select bank2
 13405     02F6  0837               	movf	(main@npos+1)^(0+256),w
 13406     02F7  0020               	movlb	0	; select bank0
 13407     02F8  00A3               	movwf	?_printf+3
 13408     02F9  0022               	movlb	2	; select bank2
 13409     02FA  0836               	movf	main@npos^(0+256),w
 13410     02FB  0020               	movlb	0	; select bank0
 13411     02FC  00A2               	movwf	?_printf+2
 13412     02FD  3180  2035  3181   	fcall	_printf
 13413                           
 13414                           ;main.c: 703: break;
 13415     0300  2F42               	goto	u6340
 13416     0301                     l4639:
 13417                           
 13418                           ;main.c: 706: printf("C\tRNI/%d\r\n", nip);
 13419     0301  3084               	movlw	low (STR_67| (0+32768))
 13420     0302  00A0               	movwf	printf@f
 13421     0303  30A0               	movlw	high (STR_67| (0+32768))
 13422     0304  00A1               	movwf	printf@f+1
 13423     0305  0022               	movlb	2	; select bank2
 13424     0306  0821               	movf	(main@nip+1)^(0+256),w
 13425     0307  0020               	movlb	0	; select bank0
 13426     0308  00A3               	movwf	?_printf+3
 13427     0309  0022               	movlb	2	; select bank2
 13428     030A  0820               	movf	main@nip^(0+256),w
 13429     030B  0020               	movlb	0	; select bank0
 13430     030C  00A2               	movwf	?_printf+2
 13431     030D  3180  2035  3181   	fcall	_printf
 13432                           
 13433                           ;main.c: 707: break;
 13434     0310  2F42               	goto	u6340
 13435     0311                     l4641:
 13436                           
 13437                           ;main.c: 710: printf("C\tRPD/%d\r\n", npd);
 13438     0311  3079               	movlw	low (STR_68| (0+32768))
 13439     0312  00A0               	movwf	printf@f
 13440     0313  30A0               	movlw	high (STR_68| (0+32768))
 13441     0314  00A1               	movwf	printf@f+1
 13442     0315  0022               	movlb	2	; select bank2
 13443     0316  0829               	movf	(main@npd+3)^(0+256),w
 13444     0317  0020               	movlb	0	; select bank0
 13445     0318  00A5               	movwf	?_printf+5
 13446     0319  0022               	movlb	2	; select bank2
 13447     031A  0828               	movf	(main@npd+2)^(0+256),w
 13448     031B  0020               	movlb	0	; select bank0
 13449     031C  00A4               	movwf	?_printf+4
 13450     031D  0022               	movlb	2	; select bank2
 13451     031E  0827               	movf	(main@npd+1)^(0+256),w
 13452     031F  0020               	movlb	0	; select bank0
 13453     0320  00A3               	movwf	?_printf+3
 13454     0321  0022               	movlb	2	; select bank2
 13455     0322  0826               	movf	main@npd^(0+256),w
 13456     0323  0020               	movlb	0	; select bank0
 13457     0324  00A2               	movwf	?_printf+2
 13458     0325  3180  2035  3181   	fcall	_printf
 13459                           
 13460                           ;main.c: 711: break;
 13461     0328  2F42               	goto	u6340
 13462     0329                     l4643:
 13463                           
 13464                           ;main.c: 714: printf("C\tRLM/%d\r\n", RA6);
 13465     0329  308F               	movlw	low (STR_69| (0+32768))
 13466     032A  00A0               	movwf	printf@f
 13467     032B  30A0               	movlw	high (STR_69| (0+32768))
 13468     032C  00A1               	movwf	printf@f+1
 13469     032D  1003               	clrc
 13470     032E  1B0C               	btfsc	12,6	;volatile
 13471     032F  1403               	setc
 13472     0330  3000               	movlw	0
 13473     0331  3D09               	addwfc	9,w
 13474     0332  00D4               	movwf	??_main
 13475     0333  01D5               	clrf	??_main+1
 13476     0334  0854               	movf	??_main,w
 13477     0335  00A2               	movwf	?_printf+2
 13478     0336  0855               	movf	??_main+1,w
 13479     0337  00A3               	movwf	?_printf+3
 13480     0338  3180  2035  3181   	fcall	_printf
 13481                           
 13482                           ;main.c: 715: break;
 13483     033B  2F42               	goto	u6340
 13484     033C                     l4645:
 13485                           
 13486                           ;main.c: 718: npos = 0;
 13487     033C  0022               	movlb	2	; select bank2
 13488     033D  01B6               	clrf	main@npos^(0+256)
 13489     033E  01B7               	clrf	(main@npos+1)^(0+256)
 13490     033F                     l4647:
 13491                           
 13492                           ;main.c: 719: printf("C\tWRP3/0\r\n");
 13493     033F  302C               	movlw	low (STR_70| (0+32768))
 13494     0340  0020               	movlb	0	; select bank0
 13495     0341  00A0               	movwf	printf@f
 13496     0342  30A0               	movlw	high (STR_70| (0+32768))
 13497     0343  00A1               	movwf	printf@f+1
 13498     0344  3180  2035  3181   	fcall	_printf
 13499                           
 13500                           ;main.c: 720: break;
 13501     0347  2F42               	goto	u6340
 13502     0348                     l4649:
 13503                           
 13504                           ;main.c: 723: printf("C\tRDC/%d\r\n", ndcnt);
 13505     0348  3063               	movlw	low (STR_71| (0+32768))
 13506     0349  00A0               	movwf	printf@f
 13507     034A  30A0               	movlw	high (STR_71| (0+32768))
 13508     034B  00A1               	movwf	printf@f+1
 13509     034C  0022               	movlb	2	; select bank2
 13510     034D  082F               	movf	(main@ndcnt+3)^(0+256),w
 13511     034E  0020               	movlb	0	; select bank0
 13512     034F  00A5               	movwf	?_printf+5
 13513     0350  0022               	movlb	2	; select bank2
 13514     0351  082E               	movf	(main@ndcnt+2)^(0+256),w
 13515     0352  0020               	movlb	0	; select bank0
 13516     0353  00A4               	movwf	?_printf+4
 13517     0354  0022               	movlb	2	; select bank2
 13518     0355  082D               	movf	(main@ndcnt+1)^(0+256),w
 13519     0356  0020               	movlb	0	; select bank0
 13520     0357  00A3               	movwf	?_printf+3
 13521     0358  0022               	movlb	2	; select bank2
 13522     0359  082C               	movf	main@ndcnt^(0+256),w
 13523     035A  0020               	movlb	0	; select bank0
 13524     035B  00A2               	movwf	?_printf+2
 13525     035C  3180  2035  3181   	fcall	_printf
 13526                           
 13527                           ;main.c: 724: break;
 13528     035F  2F42               	goto	u6340
 13529     0360                     l4651:
 13530                           
 13531                           ;main.c: 727: ndcnt = 0;
 13532     0360  3000               	movlw	0
 13533     0361  0022               	movlb	2	; select bank2
 13534     0362  00AF               	movwf	(main@ndcnt+3)^(0+256)
 13535     0363  3000               	movlw	0
 13536     0364  00AE               	movwf	(main@ndcnt+2)^(0+256)
 13537     0365  3000               	movlw	0
 13538     0366  00AD               	movwf	(main@ndcnt+1)^(0+256)
 13539     0367  3000               	movlw	0
 13540     0368  00AC               	movwf	main@ndcnt^(0+256)
 13541     0369                     l4653:
 13542                           
 13543                           ;main.c: 728: write_data_eeprom(NDCNT_ADR, ndcnt);
 13544     0369  0825               	movf	(main@NDCNT_ADR+3)^(0+256),w
 13545     036A  00F7               	movwf	write_data_eeprom@adr+3
 13546     036B  0824               	movf	(main@NDCNT_ADR+2)^(0+256),w
 13547     036C  00F6               	movwf	write_data_eeprom@adr+2
 13548     036D  0823               	movf	(main@NDCNT_ADR+1)^(0+256),w
 13549     036E  00F5               	movwf	write_data_eeprom@adr+1
 13550     036F  0822               	movf	main@NDCNT_ADR^(0+256),w
 13551     0370  00F4               	movwf	write_data_eeprom@adr
 13552     0371  082F               	movf	(main@ndcnt+3)^(0+256),w
 13553     0372  00FB               	movwf	write_data_eeprom@value+3
 13554     0373  082E               	movf	(main@ndcnt+2)^(0+256),w
 13555     0374  00FA               	movwf	write_data_eeprom@value+2
 13556     0375  082D               	movf	(main@ndcnt+1)^(0+256),w
 13557     0376  00F9               	movwf	write_data_eeprom@value+1
 13558     0377  082C               	movf	main@ndcnt^(0+256),w
 13559     0378  00F8               	movwf	write_data_eeprom@value
 13560     0379  319B  232D  3181   	fcall	_write_data_eeprom
 13561     037C                     l4655:
 13562                           
 13563                           ;main.c: 729: printf("C\tWDC/%d\r\n", ndcnt);
 13564     037C  306E               	movlw	low (STR_72| (0+32768))
 13565     037D  0020               	movlb	0	; select bank0
 13566     037E  00A0               	movwf	printf@f
 13567     037F  30A0               	movlw	high (STR_72| (0+32768))
 13568     0380  00A1               	movwf	printf@f+1
 13569     0381  0022               	movlb	2	; select bank2
 13570     0382  082F               	movf	(main@ndcnt+3)^(0+256),w
 13571     0383  0020               	movlb	0	; select bank0
 13572     0384  00A5               	movwf	?_printf+5
 13573     0385  0022               	movlb	2	; select bank2
 13574     0386  082E               	movf	(main@ndcnt+2)^(0+256),w
 13575     0387  0020               	movlb	0	; select bank0
 13576     0388  00A4               	movwf	?_printf+4
 13577     0389  0022               	movlb	2	; select bank2
 13578     038A  082D               	movf	(main@ndcnt+1)^(0+256),w
 13579     038B  0020               	movlb	0	; select bank0
 13580     038C  00A3               	movwf	?_printf+3
 13581     038D  0022               	movlb	2	; select bank2
 13582     038E  082C               	movf	main@ndcnt^(0+256),w
 13583     038F  0020               	movlb	0	; select bank0
 13584     0390  00A2               	movwf	?_printf+2
 13585     0391  3180  2035  3181   	fcall	_printf
 13586                           
 13587                           ;main.c: 730: break;
 13588     0394  2F42               	goto	u6340
 13589     0395                     l4657:
 13590                           
 13591                           ;main.c: 733: DAC1CON1 = 0;
 13592     0395  0022               	movlb	2	; select bank2
 13593     0396  0199               	clrf	25	;volatile
 13594                           
 13595                           ;main.c: 734: break;
 13596     0397  2F42               	goto	u6340
 13597     0398                     l4659:
 13598                           
 13599                           ;main.c: 737: DAC1CON1 = 100;
 13600     0398  3064               	movlw	100
 13601     0399  0022               	movlb	2	; select bank2
 13602     039A  0099               	movwf	25	;volatile
 13603                           
 13604                           ;main.c: 738: break;
 13605     039B  2F42               	goto	u6340
 13606     039C                     l4661:
 13607                           
 13608                           ;main.c: 741: DAC1CON1 = 200;
 13609     039C  30C8               	movlw	200
 13610     039D  0022               	movlb	2	; select bank2
 13611     039E  0099               	movwf	25	;volatile
 13612                           
 13613                           ;main.c: 742: break;
 13614     039F  2F42               	goto	u6340
 13615     03A0                     l4663:
 13616                           
 13617                           ;main.c: 745: DAC1CON1 = 0;
 13618     03A0  0022               	movlb	2	; select bank2
 13619     03A1  0199               	clrf	25	;volatile
 13620     03A2                     l4665:
 13621                           
 13622                           ;main.c: 746: pzt_d = 0.0;
 13623     03A2  3000               	movlw	0
 13624     03A3  0021               	movlb	1	; select bank1
 13625     03A4  00E9               	movwf	(main@pzt_d+3)^(0+128)
 13626     03A5  3000               	movlw	0
 13627     03A6  00E8               	movwf	(main@pzt_d+2)^(0+128)
 13628     03A7  3000               	movlw	0
 13629     03A8  00E7               	movwf	(main@pzt_d+1)^(0+128)
 13630     03A9  3000               	movlw	0
 13631     03AA  00E6               	movwf	main@pzt_d^(0+128)
 13632     03AB                     l4667:
 13633                           
 13634                           ;main.c: 748: ptr = strtok((0), "/");
 13635     03AB  30EC               	movlw	low (STR_37| (0+32768))
 13636     03AC  0020               	movlb	0	; select bank0
 13637     03AD  00A0               	movwf	strtok@s2
 13638     03AE  30A1               	movlw	high (STR_37| (0+32768))
 13639     03AF  00A1               	movwf	strtok@s2+1
 13640     03B0  0103               	clrw
 13641     03B1  319B  2375  3181   	fcall	_strtok
 13642     03B4  0020               	movlb	0	; select bank0
 13643     03B5  00EE               	movwf	main@ptr
 13644     03B6                     l4669:
 13645                           
 13646                           ;main.c: 749: if(ptr != (0)) {
 13647     03B6  086E               	movf	main@ptr,w
 13648     03B7  1903               	btfsc	3,2
 13649     03B8  2BBA               	goto	u6171
 13650     03B9  2BBB               	goto	u6170
 13651     03BA                     u6171:
 13652     03BA  2BC4               	goto	l4673
 13653     03BB                     u6170:
 13654     03BB                     l4671:
 13655                           
 13656                           ;main.c: 750: pzt_l = atoi(ptr);
 13657     03BB  086E               	movf	main@ptr,w
 13658     03BC  319C  24C7  3181   	fcall	_atoi
 13659     03BF  0877               	movf	?_atoi+1,w
 13660     03C0  0021               	movlb	1	; select bank1
 13661     03C1  00EB               	movwf	(main@pzt_l+1)^(0+128)
 13662     03C2  0876               	movf	?_atoi,w
 13663     03C3  00EA               	movwf	main@pzt_l^(0+128)
 13664     03C4                     l4673:
 13665                           
 13666                           ;main.c: 751: };main.c: 752: ptr = strtok((0), "/");
 13667     03C4  30EC               	movlw	low (STR_37| (0+32768))
 13668     03C5  0020               	movlb	0	; select bank0
 13669     03C6  00A0               	movwf	strtok@s2
 13670     03C7  30A1               	movlw	high (STR_37| (0+32768))
 13671     03C8  00A1               	movwf	strtok@s2+1
 13672     03C9  0103               	clrw
 13673     03CA  319B  2375  3181   	fcall	_strtok
 13674     03CD  0020               	movlb	0	; select bank0
 13675     03CE  00EE               	movwf	main@ptr
 13676     03CF                     l4675:
 13677                           
 13678                           ;main.c: 753: if(ptr != (0)) {
 13679     03CF  086E               	movf	main@ptr,w
 13680     03D0  1903               	btfsc	3,2
 13681     03D1  2BD3               	goto	u6181
 13682     03D2  2BD4               	goto	u6180
 13683     03D3                     u6181:
 13684     03D3  2BDD               	goto	l4679
 13685     03D4                     u6180:
 13686     03D4                     l4677:
 13687                           
 13688                           ;main.c: 754: pzt_t = atoi(ptr);
 13689     03D4  086E               	movf	main@ptr,w
 13690     03D5  319C  24C7  3181   	fcall	_atoi
 13691     03D8  0877               	movf	?_atoi+1,w
 13692     03D9  0021               	movlb	1	; select bank1
 13693     03DA  00E1               	movwf	(main@pzt_t+1)^(0+128)
 13694     03DB  0876               	movf	?_atoi,w
 13695     03DC  00E0               	movwf	main@pzt_t^(0+128)
 13696     03DD                     l4679:
 13697                           
 13698                           ;main.c: 755: };main.c: 756: pzt_l_d = 2.55 * pzt_l / pzt_t;
 13699     03DD  0021               	movlb	1	; select bank1
 13700     03DE  0860               	movf	main@pzt_t^(0+128),w
 13701     03DF  00F0               	movwf	___xxtofl@val
 13702     03E0  0861               	movf	(main@pzt_t+1)^(0+128),w
 13703     03E1  00F1               	movwf	___xxtofl@val+1
 13704     03E2  0D89               	rlf	9,f
 13705     03E3  3B89               	subwfb	9,f
 13706     03E4  0989               	comf	9,f
 13707     03E5  00F2               	movwf	___xxtofl@val+2
 13708     03E6  00F3               	movwf	___xxtofl@val+3
 13709     03E7  3001               	movlw	1
 13710     03E8  319D  2545  3181   	fcall	___xxtofl
 13711     03EB  0873               	movf	?___xxtofl+3,w
 13712     03EC  0020               	movlb	0	; select bank0
 13713     03ED  00BD               	movwf	___fldiv@a+3
 13714     03EE  0872               	movf	?___xxtofl+2,w
 13715     03EF  00BC               	movwf	___fldiv@a+2
 13716     03F0  0871               	movf	?___xxtofl+1,w
 13717     03F1  00BB               	movwf	___fldiv@a+1
 13718     03F2  0870               	movf	?___xxtofl,w
 13719     03F3  00BA               	movwf	___fldiv@a
 13720     03F4  3040               	movlw	64
 13721     03F5  00A3               	movwf	___flmul@b+3
 13722     03F6  3023               	movlw	35
 13723     03F7  00A2               	movwf	___flmul@b+2
 13724     03F8  3033               	movlw	51
 13725     03F9  00A1               	movwf	___flmul@b+1
 13726     03FA  3033               	movlw	51
 13727     03FB  00A0               	movwf	___flmul@b
 13728     03FC  0021               	movlb	1	; select bank1
 13729     03FD  086A               	movf	main@pzt_l^(0+128),w
 13730     03FE  00F0               	movwf	___xxtofl@val
 13731     03FF  086B               	movf	(main@pzt_l+1)^(0+128),w
 13732     0400  00F1               	movwf	___xxtofl@val+1
 13733     0401  0D89               	rlf	9,f
 13734     0402  3B89               	subwfb	9,f
 13735     0403  0989               	comf	9,f
 13736     0404  00F2               	movwf	___xxtofl@val+2
 13737     0405  00F3               	movwf	___xxtofl@val+3
 13738     0406  3001               	movlw	1
 13739     0407  319D  2545  3181   	fcall	___xxtofl
 13740     040A  0873               	movf	?___xxtofl+3,w
 13741     040B  0020               	movlb	0	; select bank0
 13742     040C  00A7               	movwf	___flmul@a+3
 13743     040D  0872               	movf	?___xxtofl+2,w
 13744     040E  00A6               	movwf	___flmul@a+2
 13745     040F  0871               	movf	?___xxtofl+1,w
 13746     0410  00A5               	movwf	___flmul@a+1
 13747     0411  0870               	movf	?___xxtofl,w
 13748     0412  00A4               	movwf	___flmul@a
 13749     0413  318D  25C5  3181   	fcall	___flmul
 13750     0416  0020               	movlb	0	; select bank0
 13751     0417  0823               	movf	?___flmul+3,w
 13752     0418  00C1               	movwf	___fldiv@b+3
 13753     0419  0822               	movf	?___flmul+2,w
 13754     041A  00C0               	movwf	___fldiv@b+2
 13755     041B  0821               	movf	?___flmul+1,w
 13756     041C  00BF               	movwf	___fldiv@b+1
 13757     041D  0820               	movf	?___flmul,w
 13758     041E  00BE               	movwf	___fldiv@b
 13759     041F  318A  220F  3181   	fcall	___fldiv
 13760     0422  0020               	movlb	0	; select bank0
 13761     0423  083D               	movf	?___fldiv+3,w
 13762     0424  00E0               	movwf	main@pzt_l_d+3
 13763     0425  083C               	movf	?___fldiv+2,w
 13764     0426  00DF               	movwf	main@pzt_l_d+2
 13765     0427  083B               	movf	?___fldiv+1,w
 13766     0428  00DE               	movwf	main@pzt_l_d+1
 13767     0429  083A               	movf	?___fldiv,w
 13768     042A  00DD               	movwf	main@pzt_l_d
 13769     042B                     l4681:
 13770                           
 13771                           ;main.c: 758: for (int k = 0; k < pzt_t ; k++){
 13772     042B  01E5               	clrf	main@k_314
 13773     042C  01E6               	clrf	main@k_314+1
 13774     042D  2C6C               	goto	l366
 13775     042E                     l4683:
 13776                           
 13777                           ;main.c: 759: _delay((unsigned long)((100)*(4000000/4000000.0))) ;
 13778     042E  3021               	movlw	33
 13779     042F                     u6357:
 13780     042F  0B89               	decfsz	9,f
 13781     0430  2C2F               	goto	u6357
 13782     0431  0000               	nop
 13783     0432                     l4685:
 13784                           
 13785                           ;main.c: 760: DAC1CON1 = (int)pzt_d;
 13786     0432  0021               	movlb	1	; select bank1
 13787     0433  0869               	movf	(main@pzt_d+3)^(0+128),w
 13788     0434  0020               	movlb	0	; select bank0
 13789     0435  00BD               	movwf	___fltol@f1+3
 13790     0436  0021               	movlb	1	; select bank1
 13791     0437  0868               	movf	(main@pzt_d+2)^(0+128),w
 13792     0438  0020               	movlb	0	; select bank0
 13793     0439  00BC               	movwf	___fltol@f1+2
 13794     043A  0021               	movlb	1	; select bank1
 13795     043B  0867               	movf	(main@pzt_d+1)^(0+128),w
 13796     043C  0020               	movlb	0	; select bank0
 13797     043D  00BB               	movwf	___fltol@f1+1
 13798     043E  0021               	movlb	1	; select bank1
 13799     043F  0866               	movf	main@pzt_d^(0+128),w
 13800     0440  0020               	movlb	0	; select bank0
 13801     0441  00BA               	movwf	___fltol@f1
 13802     0442  3188  200C  3181   	fcall	___fltol
 13803     0445  0020               	movlb	0	; select bank0
 13804     0446  083A               	movf	?___fltol,w
 13805     0447  0022               	movlb	2	; select bank2
 13806     0448  0099               	movwf	25	;volatile
 13807     0449                     l4687:
 13808                           
 13809                           ;main.c: 761: pzt_d = pzt_d + pzt_l_d;
 13810     0449  0020               	movlb	0	; select bank0
 13811     044A  0860               	movf	main@pzt_l_d+3,w
 13812     044B  00F3               	movwf	___fladd@b+3
 13813     044C  085F               	movf	main@pzt_l_d+2,w
 13814     044D  00F2               	movwf	___fladd@b+2
 13815     044E  085E               	movf	main@pzt_l_d+1,w
 13816     044F  00F1               	movwf	___fladd@b+1
 13817     0450  085D               	movf	main@pzt_l_d,w
 13818     0451  00F0               	movwf	___fladd@b
 13819     0452  0021               	movlb	1	; select bank1
 13820     0453  0869               	movf	(main@pzt_d+3)^(0+128),w
 13821     0454  00F7               	movwf	___fladd@a+3
 13822     0455  0868               	movf	(main@pzt_d+2)^(0+128),w
 13823     0456  00F6               	movwf	___fladd@a+2
 13824     0457  0867               	movf	(main@pzt_d+1)^(0+128),w
 13825     0458  00F5               	movwf	___fladd@a+1
 13826     0459  0866               	movf	main@pzt_d^(0+128),w
 13827     045A  00F4               	movwf	___fladd@a
 13828     045B  318B  23B9  3181   	fcall	___fladd
 13829     045E  0873               	movf	?___fladd+3,w
 13830     045F  0021               	movlb	1	; select bank1
 13831     0460  00E9               	movwf	(main@pzt_d+3)^(0+128)
 13832     0461  0872               	movf	?___fladd+2,w
 13833     0462  00E8               	movwf	(main@pzt_d+2)^(0+128)
 13834     0463  0871               	movf	?___fladd+1,w
 13835     0464  00E7               	movwf	(main@pzt_d+1)^(0+128)
 13836     0465  0870               	movf	?___fladd,w
 13837     0466  00E6               	movwf	main@pzt_d^(0+128)
 13838     0467  3001               	movlw	1
 13839     0468  0020               	movlb	0	; select bank0
 13840     0469  07E5               	addwf	main@k_314,f
 13841     046A  3000               	movlw	0
 13842     046B  3DE6               	addwfc	main@k_314+1,f
 13843     046C                     l366:
 13844     046C  0866               	movf	main@k_314+1,w
 13845     046D  3A80               	xorlw	128
 13846     046E  00D4               	movwf	??_main
 13847     046F  0021               	movlb	1	; select bank1
 13848     0470  0861               	movf	(main@pzt_t+1)^(0+128),w
 13849     0471  3A80               	xorlw	128
 13850     0472  0020               	movlb	0	; select bank0
 13851     0473  0254               	subwf	??_main,w
 13852     0474  1D03               	skipz
 13853     0475  2C7A               	goto	u6195
 13854     0476  0021               	movlb	1	; select bank1
 13855     0477  0860               	movf	main@pzt_t^(0+128),w
 13856     0478  0020               	movlb	0	; select bank0
 13857     0479  0265               	subwf	main@k_314,w
 13858     047A                     u6195:
 13859     047A  1C03               	skipc
 13860     047B  2C7D               	goto	u6191
 13861     047C  2C7E               	goto	u6190
 13862     047D                     u6191:
 13863     047D  2C2E               	goto	l4683
 13864     047E                     u6190:
 13865     047E                     l4689:
 13866                           
 13867                           ;main.c: 762: };main.c: 763: DAC1CON1 = 0;
 13868     047E  0022               	movlb	2	; select bank2
 13869     047F  0199               	clrf	25	;volatile
 13870     0480                     l4691:
 13871                           
 13872                           ;main.c: 764: printf("C\tPMV\r\n");
 13873     0480  3054               	movlw	low (STR_75| (0+32768))
 13874     0481  0020               	movlb	0	; select bank0
 13875     0482  00A0               	movwf	printf@f
 13876     0483  30A1               	movlw	high (STR_75| (0+32768))
 13877     0484  00A1               	movwf	printf@f+1
 13878     0485  3180  2035  3181   	fcall	_printf
 13879                           
 13880                           ;main.c: 766: break;
 13881     0488  2F42               	goto	u6340
 13882     0489                     l4693:
 13883                           
 13884                           ;main.c: 770: ptr = strtok((0), "/");
 13885     0489  30EC               	movlw	low (STR_37| (0+32768))
 13886     048A  00A0               	movwf	strtok@s2
 13887     048B  30A1               	movlw	high (STR_37| (0+32768))
 13888     048C  00A1               	movwf	strtok@s2+1
 13889     048D  0103               	clrw
 13890     048E  319B  2375  3181   	fcall	_strtok
 13891     0491  0020               	movlb	0	; select bank0
 13892     0492  00EE               	movwf	main@ptr
 13893     0493                     l4695:
 13894                           
 13895                           ;main.c: 771: if(ptr != (0)) {
 13896     0493  086E               	movf	main@ptr,w
 13897     0494  1903               	btfsc	3,2
 13898     0495  2C97               	goto	u6201
 13899     0496  2C98               	goto	u6200
 13900     0497                     u6201:
 13901     0497  2CA1               	goto	l4699
 13902     0498                     u6200:
 13903     0498                     l4697:
 13904                           
 13905                           ;main.c: 772: pzt_l = atoi(ptr);
 13906     0498  086E               	movf	main@ptr,w
 13907     0499  319C  24C7  3181   	fcall	_atoi
 13908     049C  0877               	movf	?_atoi+1,w
 13909     049D  0021               	movlb	1	; select bank1
 13910     049E  00EB               	movwf	(main@pzt_l+1)^(0+128)
 13911     049F  0876               	movf	?_atoi,w
 13912     04A0  00EA               	movwf	main@pzt_l^(0+128)
 13913     04A1                     l4699:
 13914                           
 13915                           ;main.c: 773: };main.c: 774: c_pzt = (int)(2.55 * pzt_l);
 13916     04A1  0021               	movlb	1	; select bank1
 13917     04A2  086A               	movf	main@pzt_l^(0+128),w
 13918     04A3  00F0               	movwf	___xxtofl@val
 13919     04A4  086B               	movf	(main@pzt_l+1)^(0+128),w
 13920     04A5  00F1               	movwf	___xxtofl@val+1
 13921     04A6  0D89               	rlf	9,f
 13922     04A7  3B89               	subwfb	9,f
 13923     04A8  0989               	comf	9,f
 13924     04A9  00F2               	movwf	___xxtofl@val+2
 13925     04AA  00F3               	movwf	___xxtofl@val+3
 13926     04AB  3001               	movlw	1
 13927     04AC  319D  2545  3181   	fcall	___xxtofl
 13928     04AF  0873               	movf	?___xxtofl+3,w
 13929     04B0  0020               	movlb	0	; select bank0
 13930     04B1  00A7               	movwf	___flmul@a+3
 13931     04B2  0872               	movf	?___xxtofl+2,w
 13932     04B3  00A6               	movwf	___flmul@a+2
 13933     04B4  0871               	movf	?___xxtofl+1,w
 13934     04B5  00A5               	movwf	___flmul@a+1
 13935     04B6  0870               	movf	?___xxtofl,w
 13936     04B7  00A4               	movwf	___flmul@a
 13937     04B8  3040               	movlw	64
 13938     04B9  00A3               	movwf	___flmul@b+3
 13939     04BA  3023               	movlw	35
 13940     04BB  00A2               	movwf	___flmul@b+2
 13941     04BC  3033               	movlw	51
 13942     04BD  00A1               	movwf	___flmul@b+1
 13943     04BE  3033               	movlw	51
 13944     04BF  00A0               	movwf	___flmul@b
 13945     04C0  318D  25C5  3181   	fcall	___flmul
 13946     04C3  0020               	movlb	0	; select bank0
 13947     04C4  0823               	movf	?___flmul+3,w
 13948     04C5  00BD               	movwf	___fltol@f1+3
 13949     04C6  0822               	movf	?___flmul+2,w
 13950     04C7  00BC               	movwf	___fltol@f1+2
 13951     04C8  0821               	movf	?___flmul+1,w
 13952     04C9  00BB               	movwf	___fltol@f1+1
 13953     04CA  0820               	movf	?___flmul,w
 13954     04CB  00BA               	movwf	___fltol@f1
 13955     04CC  3188  200C  3181   	fcall	___fltol
 13956     04CF  0020               	movlb	0	; select bank0
 13957     04D0  083B               	movf	?___fltol+1,w
 13958     04D1  0022               	movlb	2	; select bank2
 13959     04D2  00AB               	movwf	(main@c_pzt+1)^(0+256)
 13960     04D3  0020               	movlb	0	; select bank0
 13961     04D4  083A               	movf	?___fltol,w
 13962     04D5  0022               	movlb	2	; select bank2
 13963     04D6  00AA               	movwf	main@c_pzt^(0+256)
 13964     04D7                     l4701:
 13965                           
 13966                           ;main.c: 775: DAC1CON1 = c_pzt;
 13967     04D7  082A               	movf	main@c_pzt^(0+256),w
 13968     04D8  0099               	movwf	25	;volatile
 13969     04D9                     l4703:
 13970                           
 13971                           ;main.c: 776: printf("C\tPMA\r\n");
 13972     04D9  30FC               	movlw	low (STR_77| (0+32768))
 13973     04DA  0020               	movlb	0	; select bank0
 13974     04DB  00A0               	movwf	printf@f
 13975     04DC  30A0               	movlw	high (STR_77| (0+32768))
 13976     04DD  00A1               	movwf	printf@f+1
 13977     04DE  3180  2035  3181   	fcall	_printf
 13978                           
 13979                           ;main.c: 778: break;
 13980     04E1  2F42               	goto	u6340
 13981     04E2                     l4705:
 13982                           
 13983                           ;main.c: 782: ptr = strtok((0), "/");
 13984     04E2  30EC               	movlw	low (STR_37| (0+32768))
 13985     04E3  00A0               	movwf	strtok@s2
 13986     04E4  30A1               	movlw	high (STR_37| (0+32768))
 13987     04E5  00A1               	movwf	strtok@s2+1
 13988     04E6  0103               	clrw
 13989     04E7  319B  2375  3181   	fcall	_strtok
 13990     04EA  0020               	movlb	0	; select bank0
 13991     04EB  00EE               	movwf	main@ptr
 13992     04EC                     l4707:
 13993                           
 13994                           ;main.c: 783: if(ptr != (0)) {
 13995     04EC  086E               	movf	main@ptr,w
 13996     04ED  1903               	btfsc	3,2
 13997     04EE  2CF0               	goto	u6211
 13998     04EF  2CF1               	goto	u6210
 13999     04F0                     u6211:
 14000     04F0  2CFA               	goto	l4711
 14001     04F1                     u6210:
 14002     04F1                     l4709:
 14003                           
 14004                           ;main.c: 784: pzt_l = atoi(ptr);
 14005     04F1  086E               	movf	main@ptr,w
 14006     04F2  319C  24C7  3181   	fcall	_atoi
 14007     04F5  0877               	movf	?_atoi+1,w
 14008     04F6  0021               	movlb	1	; select bank1
 14009     04F7  00EB               	movwf	(main@pzt_l+1)^(0+128)
 14010     04F8  0876               	movf	?_atoi,w
 14011     04F9  00EA               	movwf	main@pzt_l^(0+128)
 14012     04FA                     l4711:
 14013                           
 14014                           ;main.c: 785: };main.c: 786: c_pzt = c_pzt + (int)(2.55 * pzt_l);
 14015     04FA  0021               	movlb	1	; select bank1
 14016     04FB  086A               	movf	main@pzt_l^(0+128),w
 14017     04FC  00F0               	movwf	___xxtofl@val
 14018     04FD  086B               	movf	(main@pzt_l+1)^(0+128),w
 14019     04FE  00F1               	movwf	___xxtofl@val+1
 14020     04FF  0D89               	rlf	9,f
 14021     0500  3B89               	subwfb	9,f
 14022     0501  0989               	comf	9,f
 14023     0502  00F2               	movwf	___xxtofl@val+2
 14024     0503  00F3               	movwf	___xxtofl@val+3
 14025     0504  3001               	movlw	1
 14026     0505  319D  2545  3181   	fcall	___xxtofl
 14027     0508  0873               	movf	?___xxtofl+3,w
 14028     0509  0020               	movlb	0	; select bank0
 14029     050A  00A7               	movwf	___flmul@a+3
 14030     050B  0872               	movf	?___xxtofl+2,w
 14031     050C  00A6               	movwf	___flmul@a+2
 14032     050D  0871               	movf	?___xxtofl+1,w
 14033     050E  00A5               	movwf	___flmul@a+1
 14034     050F  0870               	movf	?___xxtofl,w
 14035     0510  00A4               	movwf	___flmul@a
 14036     0511  3040               	movlw	64
 14037     0512  00A3               	movwf	___flmul@b+3
 14038     0513  3023               	movlw	35
 14039     0514  00A2               	movwf	___flmul@b+2
 14040     0515  3033               	movlw	51
 14041     0516  00A1               	movwf	___flmul@b+1
 14042     0517  3033               	movlw	51
 14043     0518  00A0               	movwf	___flmul@b
 14044     0519  318D  25C5  3181   	fcall	___flmul
 14045     051C  0020               	movlb	0	; select bank0
 14046     051D  0823               	movf	?___flmul+3,w
 14047     051E  00BD               	movwf	___fltol@f1+3
 14048     051F  0822               	movf	?___flmul+2,w
 14049     0520  00BC               	movwf	___fltol@f1+2
 14050     0521  0821               	movf	?___flmul+1,w
 14051     0522  00BB               	movwf	___fltol@f1+1
 14052     0523  0820               	movf	?___flmul,w
 14053     0524  00BA               	movwf	___fltol@f1
 14054     0525  3188  200C  3181   	fcall	___fltol
 14055     0528  0022               	movlb	2	; select bank2
 14056     0529  082A               	movf	main@c_pzt^(0+256),w
 14057     052A  0020               	movlb	0	; select bank0
 14058     052B  073A               	addwf	?___fltol,w
 14059     052C  0022               	movlb	2	; select bank2
 14060     052D  00AA               	movwf	main@c_pzt^(0+256)
 14061     052E  082B               	movf	(main@c_pzt+1)^(0+256),w
 14062     052F  0020               	movlb	0	; select bank0
 14063     0530  3D3B               	addwfc	?___fltol+1,w
 14064     0531  0022               	movlb	2	; select bank2
 14065     0532  00AB               	movwf	(main@c_pzt+1)^(0+256)
 14066     0533                     l4713:
 14067                           
 14068                           ;main.c: 787: if(c_pzt < 0){
 14069     0533  1FAB               	btfss	(main@c_pzt+1)^(0+256),7
 14070     0534  2D36               	goto	u6221
 14071     0535  2D37               	goto	u6220
 14072     0536                     u6221:
 14073     0536  2D39               	goto	l4717
 14074     0537                     u6220:
 14075     0537                     l4715:
 14076                           
 14077                           ;main.c: 788: c_pzt = 0;
 14078     0537  01AA               	clrf	main@c_pzt^(0+256)
 14079     0538  01AB               	clrf	(main@c_pzt+1)^(0+256)
 14080     0539                     l4717:
 14081                           
 14082                           ;main.c: 789: };main.c: 790: if(c_pzt > 255){
 14083     0539  082B               	movf	(main@c_pzt+1)^(0+256),w
 14084     053A  3A80               	xorlw	128
 14085     053B  0020               	movlb	0	; select bank0
 14086     053C  00D4               	movwf	??_main
 14087     053D  3081               	movlw	129
 14088     053E  0254               	subwf	??_main,w
 14089     053F  1D03               	skipz
 14090     0540  2D44               	goto	u6235
 14091     0541  3000               	movlw	0
 14092     0542  0022               	movlb	2	; select bank2
 14093     0543  022A               	subwf	main@c_pzt^(0+256),w
 14094     0544                     u6235:
 14095     0544  1C03               	skipc
 14096     0545  2D47               	goto	u6231
 14097     0546  2D48               	goto	u6230
 14098     0547                     u6231:
 14099     0547  2D4D               	goto	l374
 14100     0548                     u6230:
 14101     0548                     l4719:
 14102                           
 14103                           ;main.c: 791: c_pzt = 255;
 14104     0548  30FF               	movlw	255
 14105     0549  0022               	movlb	2	; select bank2
 14106     054A  00AA               	movwf	main@c_pzt^(0+256)
 14107     054B  3000               	movlw	0
 14108     054C  00AB               	movwf	(main@c_pzt^(0+256)+1)
 14109     054D                     l374:
 14110                           
 14111                           ;main.c: 792: };main.c: 794: DAC1CON1 = c_pzt;
 14112     054D  0022               	movlb	2	; select bank2
 14113     054E  082A               	movf	main@c_pzt^(0+256),w
 14114     054F  0099               	movwf	25	;volatile
 14115     0550                     l4721:
 14116                           
 14117                           ;main.c: 795: printf("C\tPMR\r\n");
 14118     0550  3044               	movlw	low (STR_79| (0+32768))
 14119     0551  0020               	movlb	0	; select bank0
 14120     0552  00A0               	movwf	printf@f
 14121     0553  30A1               	movlw	high (STR_79| (0+32768))
 14122     0554  00A1               	movwf	printf@f+1
 14123     0555  3180  2035  3181   	fcall	_printf
 14124                           
 14125                           ;main.c: 797: break;
 14126     0558  2F42               	goto	u6340
 14127     0559                     l4723:
 14128                           
 14129                           ;main.c: 800: printf("C\tRPP/%d\r\n", c_pzt);
 14130     0559  30BB               	movlw	low (STR_80| (0+32768))
 14131     055A  00A0               	movwf	printf@f
 14132     055B  30A0               	movlw	high (STR_80| (0+32768))
 14133     055C  00A1               	movwf	printf@f+1
 14134     055D  0022               	movlb	2	; select bank2
 14135     055E  082B               	movf	(main@c_pzt+1)^(0+256),w
 14136     055F  0020               	movlb	0	; select bank0
 14137     0560  00A3               	movwf	?_printf+3
 14138     0561  0022               	movlb	2	; select bank2
 14139     0562  082A               	movf	main@c_pzt^(0+256),w
 14140     0563  0020               	movlb	0	; select bank0
 14141     0564  00A2               	movwf	?_printf+2
 14142     0565  3180  2035  3181   	fcall	_printf
 14143                           
 14144                           ;main.c: 802: break;
 14145     0568  2F42               	goto	u6340
 14146     0569                     l4725:
 14147                           
 14148                           ;main.c: 805: ptr = strtok((0), "/");
 14149     0569  30EC               	movlw	low (STR_37| (0+32768))
 14150     056A  00A0               	movwf	strtok@s2
 14151     056B  30A1               	movlw	high (STR_37| (0+32768))
 14152     056C  00A1               	movwf	strtok@s2+1
 14153     056D  0103               	clrw
 14154     056E  319B  2375  3181   	fcall	_strtok
 14155     0571  0020               	movlb	0	; select bank0
 14156     0572  00EE               	movwf	main@ptr
 14157     0573                     l4727:
 14158                           
 14159                           ;main.c: 806: if(ptr != (0)) {
 14160     0573  086E               	movf	main@ptr,w
 14161     0574  1903               	btfsc	3,2
 14162     0575  2D77               	goto	u6241
 14163     0576  2D78               	goto	u6240
 14164     0577                     u6241:
 14165     0577  2D81               	goto	l4731
 14166     0578                     u6240:
 14167     0578                     l4729:
 14168                           
 14169                           ;main.c: 807: lp = atoi(ptr);
 14170     0578  086E               	movf	main@ptr,w
 14171     0579  319C  24C7  3181   	fcall	_atoi
 14172     057C  0877               	movf	?_atoi+1,w
 14173     057D  0022               	movlb	2	; select bank2
 14174     057E  00B1               	movwf	(main@lp+1)^(0+256)
 14175     057F  0876               	movf	?_atoi,w
 14176     0580  00B0               	movwf	main@lp^(0+256)
 14177     0581                     l4731:
 14178                           
 14179                           ;main.c: 808: };main.c: 809: if(lp > 100){
 14180     0581  0022               	movlb	2	; select bank2
 14181     0582  0831               	movf	(main@lp+1)^(0+256),w
 14182     0583  3A80               	xorlw	128
 14183     0584  0020               	movlb	0	; select bank0
 14184     0585  00D4               	movwf	??_main
 14185     0586  3080               	movlw	128
 14186     0587  0254               	subwf	??_main,w
 14187     0588  1D03               	skipz
 14188     0589  2D8D               	goto	u6255
 14189     058A  3065               	movlw	101
 14190     058B  0022               	movlb	2	; select bank2
 14191     058C  0230               	subwf	main@lp^(0+256),w
 14192     058D                     u6255:
 14193     058D  1C03               	skipc
 14194     058E  2D90               	goto	u6251
 14195     058F  2D91               	goto	u6250
 14196     0590                     u6251:
 14197     0590  2D97               	goto	l378
 14198     0591                     u6250:
 14199     0591                     l4733:
 14200                           
 14201                           ;main.c: 810: lp = 100;
 14202     0591  3064               	movlw	100
 14203     0592  0022               	movlb	2	; select bank2
 14204     0593  00B0               	movwf	main@lp^(0+256)
 14205     0594  3000               	movlw	0
 14206     0595  00B1               	movwf	(main@lp^(0+256)+1)
 14207                           
 14208                           ;main.c: 811: }else if(lp < 0){
 14209     0596  2D9E               	goto	l4737
 14210     0597                     l378:
 14211     0597  0022               	movlb	2	; select bank2
 14212     0598  1FB1               	btfss	(main@lp+1)^(0+256),7
 14213     0599  2D9B               	goto	u6261
 14214     059A  2D9C               	goto	u6260
 14215     059B                     u6261:
 14216     059B  2D9E               	goto	l4737
 14217     059C                     u6260:
 14218     059C                     l4735:
 14219                           
 14220                           ;main.c: 812: lp = 0;
 14221     059C  01B0               	clrf	main@lp^(0+256)
 14222     059D  01B1               	clrf	(main@lp+1)^(0+256)
 14223     059E                     l4737:
 14224                           
 14225                           ;main.c: 813: };main.c: 814: write_data_eeprom(LP_ADR, lp);
 14226     059E  0021               	movlb	1	; select bank1
 14227     059F  084B               	movf	(main@LP_ADR+3)^(0+128),w
 14228     05A0  00F7               	movwf	write_data_eeprom@adr+3
 14229     05A1  084A               	movf	(main@LP_ADR+2)^(0+128),w
 14230     05A2  00F6               	movwf	write_data_eeprom@adr+2
 14231     05A3  0849               	movf	(main@LP_ADR+1)^(0+128),w
 14232     05A4  00F5               	movwf	write_data_eeprom@adr+1
 14233     05A5  0848               	movf	main@LP_ADR^(0+128),w
 14234     05A6  00F4               	movwf	write_data_eeprom@adr
 14235     05A7  0022               	movlb	2	; select bank2
 14236     05A8  0830               	movf	main@lp^(0+256),w
 14237     05A9  00F8               	movwf	write_data_eeprom@value
 14238     05AA  0831               	movf	(main@lp+1)^(0+256),w
 14239     05AB  00F9               	movwf	write_data_eeprom@value+1
 14240     05AC  0D89               	rlf	9,f
 14241     05AD  3B89               	subwfb	9,f
 14242     05AE  0989               	comf	9,f
 14243     05AF  00FA               	movwf	write_data_eeprom@value+2
 14244     05B0  00FB               	movwf	write_data_eeprom@value+3
 14245     05B1  319B  232D  3181   	fcall	_write_data_eeprom
 14246     05B4                     l4739:
 14247                           
 14248                           ;main.c: 815: DAC1CON1 = (int)(lp * 255 / 100);
 14249     05B4  3064               	movlw	100
 14250     05B5  00F6               	movwf	___awdiv@divisor
 14251     05B6  3000               	movlw	0
 14252     05B7  00F7               	movwf	___awdiv@divisor+1
 14253     05B8  0022               	movlb	2	; select bank2
 14254     05B9  0831               	movf	(main@lp+1)^(0+256),w
 14255     05BA  00F1               	movwf	___wmul@multiplier+1
 14256     05BB  0830               	movf	main@lp^(0+256),w
 14257     05BC  00F0               	movwf	___wmul@multiplier
 14258     05BD  30FF               	movlw	255
 14259     05BE  00F2               	movwf	___wmul@multiplicand
 14260     05BF  3000               	movlw	0
 14261     05C0  00F3               	movwf	___wmul@multiplicand+1
 14262     05C1  319A  221B  3181   	fcall	___wmul
 14263     05C4  0871               	movf	?___wmul+1,w
 14264     05C5  00F9               	movwf	___awdiv@dividend+1
 14265     05C6  0870               	movf	?___wmul,w
 14266     05C7  00F8               	movwf	___awdiv@dividend
 14267     05C8  319C  2467  3181   	fcall	___awdiv
 14268     05CB  0876               	movf	?___awdiv,w
 14269     05CC  0022               	movlb	2	; select bank2
 14270     05CD  0099               	movwf	25	;volatile
 14271     05CE                     l4741:
 14272                           
 14273                           ;main.c: 817: printf("C\tWLP/%d\r\n", lp);
 14274     05CE  30A5               	movlw	low (STR_82| (0+32768))
 14275     05CF  0020               	movlb	0	; select bank0
 14276     05D0  00A0               	movwf	printf@f
 14277     05D1  30A0               	movlw	high (STR_82| (0+32768))
 14278     05D2  00A1               	movwf	printf@f+1
 14279     05D3  0022               	movlb	2	; select bank2
 14280     05D4  0831               	movf	(main@lp+1)^(0+256),w
 14281     05D5  0020               	movlb	0	; select bank0
 14282     05D6  00A3               	movwf	?_printf+3
 14283     05D7  0022               	movlb	2	; select bank2
 14284     05D8  0830               	movf	main@lp^(0+256),w
 14285     05D9  0020               	movlb	0	; select bank0
 14286     05DA  00A2               	movwf	?_printf+2
 14287     05DB  3180  2035  3181   	fcall	_printf
 14288                           
 14289                           ;main.c: 818: break;
 14290     05DE  2F42               	goto	u6340
 14291     05DF                     l4743:
 14292                           
 14293                           ;main.c: 821: ptr = strtok((0), "/");
 14294     05DF  30EC               	movlw	low (STR_37| (0+32768))
 14295     05E0  00A0               	movwf	strtok@s2
 14296     05E1  30A1               	movlw	high (STR_37| (0+32768))
 14297     05E2  00A1               	movwf	strtok@s2+1
 14298     05E3  0103               	clrw
 14299     05E4  319B  2375  3181   	fcall	_strtok
 14300     05E7  0020               	movlb	0	; select bank0
 14301     05E8  00EE               	movwf	main@ptr
 14302     05E9                     l4745:
 14303                           
 14304                           ;main.c: 822: if(ptr != (0)) {
 14305     05E9  086E               	movf	main@ptr,w
 14306     05EA  1903               	btfsc	3,2
 14307     05EB  2DED               	goto	u6271
 14308     05EC  2DEE               	goto	u6270
 14309     05ED                     u6271:
 14310     05ED  2DF7               	goto	l4749
 14311     05EE                     u6270:
 14312     05EE                     l4747:
 14313                           
 14314                           ;main.c: 823: lw = atoi(ptr);
 14315     05EE  086E               	movf	main@ptr,w
 14316     05EF  319C  24C7  3181   	fcall	_atoi
 14317     05F2  0877               	movf	?_atoi+1,w
 14318     05F3  0021               	movlb	1	; select bank1
 14319     05F4  00ED               	movwf	(main@lw+1)^(0+128)
 14320     05F5  0876               	movf	?_atoi,w
 14321     05F6  00EC               	movwf	main@lw^(0+128)
 14322     05F7                     l4749:
 14323                           
 14324                           ;main.c: 824: };main.c: 825: write_data_eeprom(LW_ADR, lw);
 14325     05F7  0021               	movlb	1	; select bank1
 14326     05F8  084F               	movf	(main@LW_ADR+3)^(0+128),w
 14327     05F9  00F7               	movwf	write_data_eeprom@adr+3
 14328     05FA  084E               	movf	(main@LW_ADR+2)^(0+128),w
 14329     05FB  00F6               	movwf	write_data_eeprom@adr+2
 14330     05FC  084D               	movf	(main@LW_ADR+1)^(0+128),w
 14331     05FD  00F5               	movwf	write_data_eeprom@adr+1
 14332     05FE  084C               	movf	main@LW_ADR^(0+128),w
 14333     05FF  00F4               	movwf	write_data_eeprom@adr
 14334     0600  086C               	movf	main@lw^(0+128),w
 14335     0601  00F8               	movwf	write_data_eeprom@value
 14336     0602  086D               	movf	(main@lw+1)^(0+128),w
 14337     0603  00F9               	movwf	write_data_eeprom@value+1
 14338     0604  0D89               	rlf	9,f
 14339     0605  3B89               	subwfb	9,f
 14340     0606  0989               	comf	9,f
 14341     0607  00FA               	movwf	write_data_eeprom@value+2
 14342     0608  00FB               	movwf	write_data_eeprom@value+3
 14343     0609  319B  232D  3181   	fcall	_write_data_eeprom
 14344     060C                     l4751:
 14345                           
 14346                           ;main.c: 826: printf("C\tWLW/%d\r\n", lw);
 14347     060C  30E7               	movlw	low (STR_84| (0+32768))
 14348     060D  0020               	movlb	0	; select bank0
 14349     060E  00A0               	movwf	printf@f
 14350     060F  30A0               	movlw	high (STR_84| (0+32768))
 14351     0610  00A1               	movwf	printf@f+1
 14352     0611  0021               	movlb	1	; select bank1
 14353     0612  086D               	movf	(main@lw+1)^(0+128),w
 14354     0613  0020               	movlb	0	; select bank0
 14355     0614  00A3               	movwf	?_printf+3
 14356     0615  0021               	movlb	1	; select bank1
 14357     0616  086C               	movf	main@lw^(0+128),w
 14358     0617  0020               	movlb	0	; select bank0
 14359     0618  00A2               	movwf	?_printf+2
 14360     0619  3180  2035  3181   	fcall	_printf
 14361                           
 14362                           ;main.c: 827: break;
 14363     061C  2F42               	goto	u6340
 14364     061D                     l4753:
 14365                           
 14366                           ;main.c: 830: ptr = strtok((0), "/");
 14367     061D  30EC               	movlw	low (STR_37| (0+32768))
 14368     061E  00A0               	movwf	strtok@s2
 14369     061F  30A1               	movlw	high (STR_37| (0+32768))
 14370     0620  00A1               	movwf	strtok@s2+1
 14371     0621  0103               	clrw
 14372     0622  319B  2375  3181   	fcall	_strtok
 14373     0625  0020               	movlb	0	; select bank0
 14374     0626  00EE               	movwf	main@ptr
 14375     0627                     l4755:
 14376                           
 14377                           ;main.c: 831: if(ptr != (0)) {
 14378     0627  086E               	movf	main@ptr,w
 14379     0628  1903               	btfsc	3,2
 14380     0629  2E2B               	goto	u6281
 14381     062A  2E2C               	goto	u6280
 14382     062B                     u6281:
 14383     062B  2E35               	goto	l4759
 14384     062C                     u6280:
 14385     062C                     l4757:
 14386                           
 14387                           ;main.c: 832: lt = atoi(ptr);
 14388     062C  086E               	movf	main@ptr,w
 14389     062D  319C  24C7  3181   	fcall	_atoi
 14390     0630  0877               	movf	?_atoi+1,w
 14391     0631  0021               	movlb	1	; select bank1
 14392     0632  00EF               	movwf	(main@lt+1)^(0+128)
 14393     0633  0876               	movf	?_atoi,w
 14394     0634  00EE               	movwf	main@lt^(0+128)
 14395     0635                     l4759:
 14396                           
 14397                           ;main.c: 833: };main.c: 834: write_data_eeprom(LT_ADR, lt);
 14398     0635  0021               	movlb	1	; select bank1
 14399     0636  0853               	movf	(main@LT_ADR+3)^(0+128),w
 14400     0637  00F7               	movwf	write_data_eeprom@adr+3
 14401     0638  0852               	movf	(main@LT_ADR+2)^(0+128),w
 14402     0639  00F6               	movwf	write_data_eeprom@adr+2
 14403     063A  0851               	movf	(main@LT_ADR+1)^(0+128),w
 14404     063B  00F5               	movwf	write_data_eeprom@adr+1
 14405     063C  0850               	movf	main@LT_ADR^(0+128),w
 14406     063D  00F4               	movwf	write_data_eeprom@adr
 14407     063E  086E               	movf	main@lt^(0+128),w
 14408     063F  00F8               	movwf	write_data_eeprom@value
 14409     0640  086F               	movf	(main@lt+1)^(0+128),w
 14410     0641  00F9               	movwf	write_data_eeprom@value+1
 14411     0642  0D89               	rlf	9,f
 14412     0643  3B89               	subwfb	9,f
 14413     0644  0989               	comf	9,f
 14414     0645  00FA               	movwf	write_data_eeprom@value+2
 14415     0646  00FB               	movwf	write_data_eeprom@value+3
 14416     0647  319B  232D  3181   	fcall	_write_data_eeprom
 14417     064A                     l4761:
 14418                           
 14419                           ;main.c: 835: printf("C\tWLT/%d\r\n", lt);
 14420     064A  30D1               	movlw	low (STR_86| (0+32768))
 14421     064B  0020               	movlb	0	; select bank0
 14422     064C  00A0               	movwf	printf@f
 14423     064D  30A0               	movlw	high (STR_86| (0+32768))
 14424     064E  00A1               	movwf	printf@f+1
 14425     064F  0021               	movlb	1	; select bank1
 14426     0650  086F               	movf	(main@lt+1)^(0+128),w
 14427     0651  0020               	movlb	0	; select bank0
 14428     0652  00A3               	movwf	?_printf+3
 14429     0653  0021               	movlb	1	; select bank1
 14430     0654  086E               	movf	main@lt^(0+128),w
 14431     0655  0020               	movlb	0	; select bank0
 14432     0656  00A2               	movwf	?_printf+2
 14433     0657  3180  2035  3181   	fcall	_printf
 14434                           
 14435                           ;main.c: 836: break;
 14436     065A  2F42               	goto	u6340
 14437     065B                     l4763:
 14438                           
 14439                           ;main.c: 839: printf("C\tRLP/%d\r\n", lp);
 14440     065B  309A               	movlw	low (STR_87| (0+32768))
 14441     065C  00A0               	movwf	printf@f
 14442     065D  30A0               	movlw	high (STR_87| (0+32768))
 14443     065E  00A1               	movwf	printf@f+1
 14444     065F  0022               	movlb	2	; select bank2
 14445     0660  0831               	movf	(main@lp+1)^(0+256),w
 14446     0661  0020               	movlb	0	; select bank0
 14447     0662  00A3               	movwf	?_printf+3
 14448     0663  0022               	movlb	2	; select bank2
 14449     0664  0830               	movf	main@lp^(0+256),w
 14450     0665  0020               	movlb	0	; select bank0
 14451     0666  00A2               	movwf	?_printf+2
 14452     0667  3180  2035  3181   	fcall	_printf
 14453                           
 14454                           ;main.c: 840: break;
 14455     066A  2F42               	goto	u6340
 14456     066B                     l4765:
 14457                           
 14458                           ;main.c: 843: printf("C\tRLW/%d\r\n", lw);
 14459     066B  30DC               	movlw	low (STR_88| (0+32768))
 14460     066C  00A0               	movwf	printf@f
 14461     066D  30A0               	movlw	high (STR_88| (0+32768))
 14462     066E  00A1               	movwf	printf@f+1
 14463     066F  0021               	movlb	1	; select bank1
 14464     0670  086D               	movf	(main@lw+1)^(0+128),w
 14465     0671  0020               	movlb	0	; select bank0
 14466     0672  00A3               	movwf	?_printf+3
 14467     0673  0021               	movlb	1	; select bank1
 14468     0674  086C               	movf	main@lw^(0+128),w
 14469     0675  0020               	movlb	0	; select bank0
 14470     0676  00A2               	movwf	?_printf+2
 14471     0677  3180  2035  3181   	fcall	_printf
 14472                           
 14473                           ;main.c: 844: break;
 14474     067A  2F42               	goto	u6340
 14475     067B                     l4767:
 14476                           
 14477                           ;main.c: 847: printf("C\tRLT/%d\r\n", lt);
 14478     067B  30C6               	movlw	low (STR_89| (0+32768))
 14479     067C  00A0               	movwf	printf@f
 14480     067D  30A0               	movlw	high (STR_89| (0+32768))
 14481     067E  00A1               	movwf	printf@f+1
 14482     067F  0021               	movlb	1	; select bank1
 14483     0680  086F               	movf	(main@lt+1)^(0+128),w
 14484     0681  0020               	movlb	0	; select bank0
 14485     0682  00A3               	movwf	?_printf+3
 14486     0683  0021               	movlb	1	; select bank1
 14487     0684  086E               	movf	main@lt^(0+128),w
 14488     0685  0020               	movlb	0	; select bank0
 14489     0686  00A2               	movwf	?_printf+2
 14490     0687  3180  2035  3181   	fcall	_printf
 14491                           
 14492                           ;main.c: 848: break;
 14493     068A  2F42               	goto	u6340
 14494     068B                     l4769:
 14495                           
 14496                           ;main.c: 851: _delay((unsigned long)((200)*(4000000/4000.0))) ;
 14497     068B  3002               	movlw	2
 14498     068C  0020               	movlb	0	; select bank0
 14499     068D  00D5               	movwf	??_main+1
 14500     068E  3004               	movlw	4
 14501     068F  00D4               	movwf	??_main
 14502     0690  30BA               	movlw	186
 14503     0691                     u6367:
 14504     0691  0B89               	decfsz	9,f
 14505     0692  2E91               	goto	u6367
 14506     0693  0BD4               	decfsz	??_main,f
 14507     0694  2E91               	goto	u6367
 14508     0695  0BD5               	decfsz	??_main+1,f
 14509     0696  2E91               	goto	u6367
 14510     0697  0000               	nop
 14511     0698                     l4771:
 14512                           
 14513                           ;main.c: 852: DAC1CON1 = (int)(lp * 255 / 100);
 14514     0698  3064               	movlw	100
 14515     0699  00F6               	movwf	___awdiv@divisor
 14516     069A  3000               	movlw	0
 14517     069B  00F7               	movwf	___awdiv@divisor+1
 14518     069C  0022               	movlb	2	; select bank2
 14519     069D  0831               	movf	(main@lp+1)^(0+256),w
 14520     069E  00F1               	movwf	___wmul@multiplier+1
 14521     069F  0830               	movf	main@lp^(0+256),w
 14522     06A0  00F0               	movwf	___wmul@multiplier
 14523     06A1  30FF               	movlw	255
 14524     06A2  00F2               	movwf	___wmul@multiplicand
 14525     06A3  3000               	movlw	0
 14526     06A4  00F3               	movwf	___wmul@multiplicand+1
 14527     06A5  319A  221B  3181   	fcall	___wmul
 14528     06A8  0871               	movf	?___wmul+1,w
 14529     06A9  00F9               	movwf	___awdiv@dividend+1
 14530     06AA  0870               	movf	?___wmul,w
 14531     06AB  00F8               	movwf	___awdiv@dividend
 14532     06AC  319C  2467  3181   	fcall	___awdiv
 14533     06AF  0876               	movf	?___awdiv,w
 14534     06B0  0022               	movlb	2	; select bank2
 14535     06B1  0099               	movwf	25	;volatile
 14536     06B2                     l4773:
 14537                           
 14538                           ;main.c: 853: for (int j = 0; j < 1000 ; j++){
 14539     06B2  0021               	movlb	1	; select bank1
 14540     06B3  01E2               	clrf	main@j_330^(0+128)
 14541     06B4  01E3               	clrf	(main@j_330+1)^(0+128)
 14542     06B5                     l4775:
 14543     06B5  0863               	movf	(main@j_330+1)^(0+128),w
 14544     06B6  3A80               	xorlw	128
 14545     06B7  0020               	movlb	0	; select bank0
 14546     06B8  00D4               	movwf	??_main
 14547     06B9  3083               	movlw	131
 14548     06BA  0254               	subwf	??_main,w
 14549     06BB  1D03               	skipz
 14550     06BC  2EC0               	goto	u6295
 14551     06BD  30E8               	movlw	232
 14552     06BE  0021               	movlb	1	; select bank1
 14553     06BF  0262               	subwf	main@j_330^(0+128),w
 14554     06C0                     u6295:
 14555     06C0  1C03               	skipc
 14556     06C1  2EC3               	goto	u6291
 14557     06C2  2EC4               	goto	u6290
 14558     06C3                     u6291:
 14559     06C3  2EC5               	goto	l389
 14560     06C4                     u6290:
 14561     06C4  2F25               	goto	l4791
 14562     06C5                     l389:
 14563                           
 14564                           ;main.c: 854: RA3 = 1;
 14565     06C5  0020               	movlb	0	; select bank0
 14566     06C6  158C               	bsf	12,3	;volatile
 14567     06C7                     l4779:
 14568                           
 14569                           ;main.c: 855: for (int k = 0; k < lw ; k++){
 14570     06C7  01E7               	clrf	main@k_331
 14571     06C8  01E8               	clrf	main@k_331+1
 14572     06C9  2ED2               	goto	l391
 14573     06CA                     l4781:
 14574                           
 14575                           ;main.c: 856: _delay((unsigned long)((60)*(4000000/4000000.0))) ;
 14576     06CA  3014               	movlw	20
 14577     06CB                     u6377:
 14578     06CB  0B89               	decfsz	9,f
 14579     06CC  2ECB               	goto	u6377
 14580     06CD  3001               	movlw	1
 14581     06CE  0020               	movlb	0	; select bank0
 14582     06CF  07E7               	addwf	main@k_331,f
 14583     06D0  3000               	movlw	0
 14584     06D1  3DE8               	addwfc	main@k_331+1,f
 14585     06D2                     l391:
 14586     06D2  0868               	movf	main@k_331+1,w
 14587     06D3  3A80               	xorlw	128
 14588     06D4  00D4               	movwf	??_main
 14589     06D5  0021               	movlb	1	; select bank1
 14590     06D6  086D               	movf	(main@lw+1)^(0+128),w
 14591     06D7  3A80               	xorlw	128
 14592     06D8  0020               	movlb	0	; select bank0
 14593     06D9  0254               	subwf	??_main,w
 14594     06DA  1D03               	skipz
 14595     06DB  2EE0               	goto	u6305
 14596     06DC  0021               	movlb	1	; select bank1
 14597     06DD  086C               	movf	main@lw^(0+128),w
 14598     06DE  0020               	movlb	0	; select bank0
 14599     06DF  0267               	subwf	main@k_331,w
 14600     06E0                     u6305:
 14601     06E0  1C03               	skipc
 14602     06E1  2EE3               	goto	u6301
 14603     06E2  2EE4               	goto	u6300
 14604     06E3                     u6301:
 14605     06E3  2ECA               	goto	l4781
 14606     06E4                     u6300:
 14607     06E4                     l393:
 14608                           
 14609                           ;main.c: 857: };main.c: 858: RA3 = 0;
 14610     06E4  0020               	movlb	0	; select bank0
 14611     06E5  118C               	bcf	12,3	;volatile
 14612     06E6                     l4783:
 14613                           
 14614                           ;main.c: 859: for (int k = 0; k < lt ; k++){
 14615     06E6  01E9               	clrf	main@k_332
 14616     06E7  01EA               	clrf	main@k_332+1
 14617     06E8  2EF2               	goto	l394
 14618     06E9                     l4785:
 14619                           
 14620                           ;main.c: 860: _delay((unsigned long)((1)*(4000000/4000.0))) ;
 14621     06E9  30C8               	movlw	200
 14622     06EA                     u6387:
 14623     06EA  3200               	nop2
 14624     06EB  0B89               	decfsz	9,f
 14625     06EC  2EEA               	goto	u6387
 14626     06ED  3001               	movlw	1
 14627     06EE  0020               	movlb	0	; select bank0
 14628     06EF  07E9               	addwf	main@k_332,f
 14629     06F0  3000               	movlw	0
 14630     06F1  3DEA               	addwfc	main@k_332+1,f
 14631     06F2                     l394:
 14632     06F2  086A               	movf	main@k_332+1,w
 14633     06F3  3A80               	xorlw	128
 14634     06F4  00D4               	movwf	??_main
 14635     06F5  0021               	movlb	1	; select bank1
 14636     06F6  086F               	movf	(main@lt+1)^(0+128),w
 14637     06F7  3A80               	xorlw	128
 14638     06F8  0020               	movlb	0	; select bank0
 14639     06F9  0254               	subwf	??_main,w
 14640     06FA  1D03               	skipz
 14641     06FB  2F00               	goto	u6315
 14642     06FC  0021               	movlb	1	; select bank1
 14643     06FD  086E               	movf	main@lt^(0+128),w
 14644     06FE  0020               	movlb	0	; select bank0
 14645     06FF  0269               	subwf	main@k_332,w
 14646     0700                     u6315:
 14647     0700  1C03               	skipc
 14648     0701  2F03               	goto	u6311
 14649     0702  2F04               	goto	u6310
 14650     0703                     u6311:
 14651     0703  2EE9               	goto	l4785
 14652     0704                     u6310:
 14653     0704                     l396:
 14654                           
 14655                           ;main.c: 861: };main.c: 862: if(RB4 == 1){
 14656     0704  0020               	movlb	0	; select bank0
 14657     0705  1E0D               	btfss	13,4	;volatile
 14658     0706  2F08               	goto	u6321
 14659     0707  2F09               	goto	u6320
 14660     0708                     u6321:
 14661     0708  2F11               	goto	l4789
 14662     0709                     u6320:
 14663     0709                     l4787:
 14664                           
 14665                           ;main.c: 863: printf("C\tLPF\r\n");
 14666     0709  302C               	movlw	low (STR_90| (0+32768))
 14667     070A  00A0               	movwf	printf@f
 14668     070B  30A1               	movlw	high (STR_90| (0+32768))
 14669     070C  00A1               	movwf	printf@f+1
 14670     070D  3180  2035  3181   	fcall	_printf
 14671                           
 14672                           ;main.c: 864: break;
 14673     0710  2F25               	goto	l4791
 14674     0711                     l4789:
 14675     0711  3001               	movlw	1
 14676     0712  0021               	movlb	1	; select bank1
 14677     0713  07E2               	addwf	main@j_330^(0+128),f
 14678     0714  3000               	movlw	0
 14679     0715  3DE3               	addwfc	(main@j_330+1)^(0+128),f
 14680     0716  0863               	movf	(main@j_330+1)^(0+128),w
 14681     0717  3A80               	xorlw	128
 14682     0718  0020               	movlb	0	; select bank0
 14683     0719  00D4               	movwf	??_main
 14684     071A  3083               	movlw	131
 14685     071B  0254               	subwf	??_main,w
 14686     071C  1D03               	skipz
 14687     071D  2F21               	goto	u6335
 14688     071E  30E8               	movlw	232
 14689     071F  0021               	movlb	1	; select bank1
 14690     0720  0262               	subwf	main@j_330^(0+128),w
 14691     0721                     u6335:
 14692     0721  1C03               	skipc
 14693     0722  2F24               	goto	u6331
 14694     0723  2F25               	goto	u6330
 14695     0724                     u6331:
 14696     0724  2EC5               	goto	l389
 14697     0725                     u6330:
 14698     0725                     l4791:
 14699                           
 14700                           ;main.c: 865: };main.c: 867: };main.c: 869: printf("C\tLPF\r\n");
 14701     0725  302C               	movlw	low (STR_90| (0+32768))
 14702     0726  0020               	movlb	0	; select bank0
 14703     0727  00A0               	movwf	printf@f
 14704     0728  30A1               	movlw	high (STR_90| (0+32768))
 14705     0729  00A1               	movwf	printf@f+1
 14706     072A  3180  2035  3181   	fcall	_printf
 14707                           
 14708                           ;main.c: 871: break;
 14709     072D  2F42               	goto	u6340
 14710     072E                     l4793:
 14711                           
 14712                           ;main.c: 874: val = 0;
 14713     072E  01E3               	clrf	main@val
 14714     072F  01E4               	clrf	main@val+1
 14715                           
 14716                           ;main.c: 875: for (int k = 0; k < 10 ; k++){
 14717     0730  0021               	movlb	1	; select bank1
 14718     0731  01E4               	clrf	main@k_335^(0+128)
 14719     0732  01E5               	clrf	(main@k_335+1)^(0+128)
 14720     0733                     l4795:
 14721     0733  0865               	movf	(main@k_335+1)^(0+128),w
 14722     0734  3A80               	xorlw	128
 14723     0735  0020               	movlb	0	; select bank0
 14724     0736  00D4               	movwf	??_main
 14725     0737  3080               	movlw	128
 14726     0738  0254               	subwf	??_main,w
 14727     0739  1D03               	skipz
 14728     073A  2F3E               	goto	u6345
 14729     073B  300A               	movlw	10
 14730     073C  0021               	movlb	1	; select bank1
 14731     073D  0264               	subwf	main@k_335^(0+128),w
 14732     073E                     u6345:
 14733     073E  1C03               	skipc
 14734     073F  2F41               	goto	u6341
 14735     0740  2F42               	goto	u6340
 14736     0741                     u6341:
 14737     0741  2F44               	goto	l4799
 14738     0742                     u6340:
 14739     0742  3189  29CF         	goto	l4099
 14740     0744                     l4799:
 14741                           
 14742                           ;main.c: 876: val = AD_convert(1);
 14743     0744  3001               	movlw	1
 14744     0745  3199  21D3  3181   	fcall	_AD_convert
 14745     0748  0871               	movf	?_AD_convert+1,w
 14746     0749  0020               	movlb	0	; select bank0
 14747     074A  00E4               	movwf	main@val+1
 14748     074B  0870               	movf	?_AD_convert,w
 14749     074C  00E3               	movwf	main@val
 14750     074D                     l4801:
 14751                           
 14752                           ;main.c: 877: printf("C\tAIN = %u\n", val);
 14753     074D  3020               	movlw	low (STR_92| (0+32768))
 14754     074E  00A0               	movwf	printf@f
 14755     074F  30A0               	movlw	high (STR_92| (0+32768))
 14756     0750  00A1               	movwf	printf@f+1
 14757     0751  0864               	movf	main@val+1,w
 14758     0752  00A3               	movwf	?_printf+3
 14759     0753  0863               	movf	main@val,w
 14760     0754  00A2               	movwf	?_printf+2
 14761     0755  3180  2035  3181   	fcall	_printf
 14762     0758                     l4803:
 14763                           
 14764                           ;main.c: 878: _delay((unsigned long)((500)*(4000000/4000.0))) ;
 14765     0758  3003               	movlw	3
 14766     0759  0020               	movlb	0	; select bank0
 14767     075A  00D5               	movwf	??_main+1
 14768     075B  308A               	movlw	138
 14769     075C  00D4               	movwf	??_main
 14770     075D  3055               	movlw	85
 14771     075E                     u6397:
 14772     075E  0B89               	decfsz	9,f
 14773     075F  2F5E               	goto	u6397
 14774     0760  0BD4               	decfsz	??_main,f
 14775     0761  2F5E               	goto	u6397
 14776     0762  0BD5               	decfsz	??_main+1,f
 14777     0763  2F5E               	goto	u6397
 14778     0764  3200               	nop2
 14779     0765                     l4805:
 14780     0765  3001               	movlw	1
 14781     0766  0021               	movlb	1	; select bank1
 14782     0767  07E4               	addwf	main@k_335^(0+128),f
 14783     0768  3000               	movlw	0
 14784     0769  3DE5               	addwfc	(main@k_335+1)^(0+128),f
 14785     076A  2F33               	goto	l4795
 14786     076B                     l4809:
 14787                           
 14788                           ;main.c: 883: printf("C\tREADY\r\n");
 14789     076B  30F2               	movlw	low (STR_93| (0+32768))
 14790     076C  00A0               	movwf	printf@f
 14791     076D  30A0               	movlw	high (STR_93| (0+32768))
 14792     076E  00A1               	movwf	printf@f+1
 14793     076F  3180  2035  3181   	fcall	_printf
 14794                           
 14795                           ;main.c: 884: break;
 14796     0772  2F42               	goto	u6340
 14797     0773                     l4811:
 14798                           
 14799                           ;main.c: 887: printf("C\tFS-CONT VERSION 0\r\n");
 14800     0773  300A               	movlw	low (STR_94| (0+32768))
 14801     0774  00A0               	movwf	printf@f
 14802     0775  30A0               	movlw	high (STR_94| (0+32768))
 14803     0776  00A1               	movwf	printf@f+1
 14804     0777  3180  2035  3181   	fcall	_printf
 14805                           
 14806                           ;main.c: 888: break;
 14807     077A  2F42               	goto	u6340
 14808     077B                     l4815:
 14809     077B  086D               	movf	main@cmd,w
 14810                           
 14811                           ; Switch size 1, requested type "simple"
 14812                           ; Number of cases is 36, Range of values is 0 to 35
 14813                           ; switch strategies available:
 14814                           ; Name         Instructions Cycles
 14815                           ; direct_byte           78     6 (fixed)
 14816                           ; simple_byte          109    55 (average)
 14817                           ; jumptable            260     6 (fixed)
 14818                           ;	Chosen strategy is simple_byte
 14819     077C  3A00               	xorlw	0	; case 0
 14820     077D  1903               	skipnz
 14821     077E  2FEB               	goto	L3
 14822     077F  3A01               	xorlw	1	; case 1
 14823     0780  1903               	skipnz
 14824     0781  2FEF               	goto	L8
 14825     0782  3A03               	xorlw	3	; case 2
 14826     0783  1903               	skipnz
 14827     0784  2FED               	goto	L6
 14828     0785  3A01               	xorlw	1	; case 3
 14829     0786  1903               	skipnz
 14830     0787  2A86               	goto	l4619
 14831     0788  3A07               	xorlw	7	; case 4
 14832     0789  1903               	skipnz
 14833     078A  2FF1               	goto	L10
 14834     078B  3A01               	xorlw	1	; case 5
 14835     078C  1903               	skipnz
 14836     078D  2FF3               	goto	L12
 14837     078E  3A03               	xorlw	3	; case 6
 14838     078F  1903               	skipnz
 14839     0790  2FF5               	goto	L15
 14840     0791  3A01               	xorlw	1	; case 7
 14841     0792  1903               	skipnz
 14842     0793  2FF7               	goto	L17
 14843     0794  3A0F               	xorlw	15	; case 8
 14844     0795  1903               	skipnz
 14845     0796  2FF9               	goto	L19
 14846     0797  3A01               	xorlw	1	; case 9
 14847     0798  1903               	skipnz
 14848     0799  2AD1               	goto	l4629
 14849     079A  3A03               	xorlw	3	; case 10
 14850     079B  1903               	skipnz
 14851     079C  2907               	goto	l4567
 14852     079D  3A01               	xorlw	1	; case 11
 14853     079E  1903               	skipnz
 14854     079F  2969               	goto	l4583
 14855     07A0  3A07               	xorlw	7	; case 12
 14856     07A1  1903               	skipnz
 14857     07A2  2AF1               	goto	l4637
 14858     07A3  3A01               	xorlw	1	; case 13
 14859     07A4  1903               	skipnz
 14860     07A5  2B01               	goto	l4639
 14861     07A6  3A03               	xorlw	3	; case 14
 14862     07A7  1903               	skipnz
 14863     07A8  2B11               	goto	l4641
 14864     07A9  3A01               	xorlw	1	; case 15
 14865     07AA  1903               	skipnz
 14866     07AB  2B29               	goto	l4643
 14867     07AC  3A1F               	xorlw	31	; case 16
 14868     07AD  1903               	skipnz
 14869     07AE  2B3C               	goto	l4645
 14870     07AF  3A01               	xorlw	1	; case 17
 14871     07B0  1903               	skipnz
 14872     07B1  2B48               	goto	l4649
 14873     07B2  3A03               	xorlw	3	; case 18
 14874     07B3  1903               	skipnz
 14875     07B4  2B60               	goto	l4651
 14876     07B5  3A01               	xorlw	1	; case 19
 14877     07B6  1903               	skipnz
 14878     07B7  2F73               	goto	l4811
 14879     07B8  3A07               	xorlw	7	; case 20
 14880     07B9  1903               	skipnz
 14881     07BA  2F6B               	goto	l4809
 14882     07BB  3A01               	xorlw	1	; case 21
 14883     07BC  1903               	skipnz
 14884     07BD  2B95               	goto	l4657
 14885     07BE  3A03               	xorlw	3	; case 22
 14886     07BF  1903               	skipnz
 14887     07C0  2B98               	goto	l4659
 14888     07C1  3A01               	xorlw	1	; case 23
 14889     07C2  1903               	skipnz
 14890     07C3  2B9C               	goto	l4661
 14891     07C4  3A0F               	xorlw	15	; case 24
 14892     07C5  1903               	skipnz
 14893     07C6  2BA0               	goto	l4663
 14894     07C7  3A01               	xorlw	1	; case 25
 14895     07C8  1903               	skipnz
 14896     07C9  2C89               	goto	l4693
 14897     07CA  3A03               	xorlw	3	; case 26
 14898     07CB  1903               	skipnz
 14899     07CC  2CE2               	goto	l4705
 14900     07CD  3A01               	xorlw	1	; case 27
 14901     07CE  1903               	skipnz
 14902     07CF  2D59               	goto	l4723
 14903     07D0  3A07               	xorlw	7	; case 28
 14904     07D1  1903               	skipnz
 14905     07D2  2D69               	goto	l4725
 14906     07D3  3A01               	xorlw	1	; case 29
 14907     07D4  1903               	skipnz
 14908     07D5  2DDF               	goto	l4743
 14909     07D6  3A03               	xorlw	3	; case 30
 14910     07D7  1903               	skipnz
 14911     07D8  2E1D               	goto	l4753
 14912     07D9  3A01               	xorlw	1	; case 31
 14913     07DA  1903               	skipnz
 14914     07DB  2E5B               	goto	l4763
 14915     07DC  3A3F               	xorlw	63	; case 32
 14916     07DD  1903               	skipnz
 14917     07DE  2E6B               	goto	l4765
 14918     07DF  3A01               	xorlw	1	; case 33
 14919     07E0  1903               	skipnz
 14920     07E1  2E7B               	goto	l4767
 14921     07E2  3A03               	xorlw	3	; case 34
 14922     07E3  1903               	skipnz
 14923     07E4  2E8B               	goto	l4769
 14924     07E5  3A01               	xorlw	1	; case 35
 14925     07E6  1903               	skipnz
 14926     07E7  2F2E               	goto	l4793
 14927     07E8  2F42               	goto	u6340
 14928     07E9  3180  2802         	ljmp	start
 14929     07EB                     L3:
 14930     07EB                     __end_of_main:
 14931     07EB  3190  2892         	ljmp	l4279
 14932     07ED                     L6:
 14933     07ED                     L5:
 14934     07ED  3196  2E8B         	ljmp	l4337
 14935     07EF                     L8:
 14936     07EF                     L7:
 14937     07EF  3196  2E1E         	ljmp	l4321
 14938     07F1                     L10:
 14939     07F1                     L9:
 14940     07F1  3193  2B57         	ljmp	l4347
 14941     07F3                     L12:
 14942     07F3                     L11:
 14943     07F3  319F  2FF7         	ljmp	l4423
 14944     07F5                     L15:
 14945     07F5                     L14:
 14946     07F5  3197  2F92         	ljmp	l4455
 14947     07F7                     L17:
 14948     07F7                     L16:
 14949     07F7  319D  2DEF         	ljmp	l4475
 14950     07F9                     L19:
 14951     07F9                     L18:
 14952     07F9  3194  2C74         	ljmp	l4517

Data Sizes:
    Strings     484
    Constant    10
    Data        0
    BSS         1
    Persistent  32
    Stack       0

Auto Spaces:
    Space          Size  Autos    Used
    COMMON           14     14      14
    BANK0            80     79      80
    BANK1            80     80      80
    BANK2            80     32      32
    BANK3            80      0       0
    BANK4            80      0       0
    BANK5            80      0       0
    BANK6            80      0       0
    BANK7            80      0       0
    BANK8            80      0       0
    BANK9            80      0       0
    BANK10           80      0       0
    BANK11           80      0       0
    BANK12           80      0       0
    BANK13           80      0       0
    BANK14           80      0       0
    BANK15           80      0       0
    BANK16           80      0       0
    BANK17           80      0       0
    BANK18           80      0       0
    BANK19           80      0       0
    BANK20           80      0       0
    BANK21           80      0       0
    BANK22           80      0       0
    BANK23           80      0       0
    BANK24           80      0       0
    BANK25           32      0       0

Pointer List with Targets:

    strspn@s2	PTR const unsigned char  size(2) Largest target is 2
		 -> STR_85(CODE[2]), STR_83(CODE[2]), STR_81(CODE[2]), STR_78(CODE[2]), 
		 -> STR_76(CODE[2]), STR_74(CODE[2]), STR_73(CODE[2]), STR_64(CODE[2]), 
		 -> STR_62(CODE[2]), STR_58(CODE[2]), STR_53(CODE[2]), STR_52(CODE[2]), 
		 -> STR_51(CODE[2]), STR_50(CODE[2]), STR_49(CODE[2]), STR_47(CODE[2]), 
		 -> STR_45(CODE[2]), STR_44(CODE[2]), STR_43(CODE[2]), STR_41(CODE[2]), 
		 -> STR_40(CODE[2]), STR_39(CODE[2]), STR_38(CODE[2]), STR_37(CODE[2]), 

    strspn@s1	PTR const unsigned char  size(1) Largest target is 40
		 -> NULL(NULL[0]), main@tmp(BANK1[40]), 

    strchr@ptr	PTR const unsigned char  size(2) Largest target is 2
		 -> STR_85(CODE[2]), STR_83(CODE[2]), STR_81(CODE[2]), STR_78(CODE[2]), 
		 -> STR_76(CODE[2]), STR_74(CODE[2]), STR_73(CODE[2]), STR_64(CODE[2]), 
		 -> STR_62(CODE[2]), STR_58(CODE[2]), STR_53(CODE[2]), STR_52(CODE[2]), 
		 -> STR_51(CODE[2]), STR_50(CODE[2]), STR_49(CODE[2]), STR_47(CODE[2]), 
		 -> STR_45(CODE[2]), STR_44(CODE[2]), STR_43(CODE[2]), STR_41(CODE[2]), 
		 -> STR_40(CODE[2]), STR_39(CODE[2]), STR_38(CODE[2]), STR_37(CODE[2]), 

    sp__strchr	PTR unsigned char  size(2) Largest target is 2
		 -> STR_85(CODE[2]), STR_83(CODE[2]), STR_81(CODE[2]), STR_78(CODE[2]), 
		 -> STR_76(CODE[2]), STR_74(CODE[2]), STR_73(CODE[2]), STR_64(CODE[2]), 
		 -> STR_62(CODE[2]), STR_58(CODE[2]), STR_53(CODE[2]), STR_52(CODE[2]), 
		 -> STR_51(CODE[2]), STR_50(CODE[2]), STR_49(CODE[2]), STR_47(CODE[2]), 
		 -> STR_45(CODE[2]), STR_44(CODE[2]), STR_43(CODE[2]), STR_41(CODE[2]), 
		 -> STR_40(CODE[2]), STR_39(CODE[2]), STR_38(CODE[2]), NULL(NULL[0]), 
		 -> STR_37(CODE[2]), 

    strcspn@s2	PTR const unsigned char  size(2) Largest target is 2
		 -> STR_85(CODE[2]), STR_83(CODE[2]), STR_81(CODE[2]), STR_78(CODE[2]), 
		 -> STR_76(CODE[2]), STR_74(CODE[2]), STR_73(CODE[2]), STR_64(CODE[2]), 
		 -> STR_62(CODE[2]), STR_58(CODE[2]), STR_53(CODE[2]), STR_52(CODE[2]), 
		 -> STR_51(CODE[2]), STR_50(CODE[2]), STR_49(CODE[2]), STR_47(CODE[2]), 
		 -> STR_45(CODE[2]), STR_44(CODE[2]), STR_43(CODE[2]), STR_41(CODE[2]), 
		 -> STR_40(CODE[2]), STR_39(CODE[2]), STR_38(CODE[2]), STR_37(CODE[2]), 

    strcspn@s1	PTR const unsigned char  size(1) Largest target is 40
		 -> NULL(NULL[0]), main@tmp(BANK1[40]), 

    strtok@s2	PTR const unsigned char  size(2) Largest target is 2
		 -> STR_85(CODE[2]), STR_83(CODE[2]), STR_81(CODE[2]), STR_78(CODE[2]), 
		 -> STR_76(CODE[2]), STR_74(CODE[2]), STR_73(CODE[2]), STR_64(CODE[2]), 
		 -> STR_62(CODE[2]), STR_58(CODE[2]), STR_53(CODE[2]), STR_52(CODE[2]), 
		 -> STR_51(CODE[2]), STR_50(CODE[2]), STR_49(CODE[2]), STR_47(CODE[2]), 
		 -> STR_45(CODE[2]), STR_44(CODE[2]), STR_43(CODE[2]), STR_41(CODE[2]), 
		 -> STR_40(CODE[2]), STR_39(CODE[2]), STR_38(CODE[2]), STR_37(CODE[2]), 

    strtok@sp	PTR unsigned char  size(1) Largest target is 40
		 -> NULL(NULL[0]), main@tmp(BANK1[40]), 

    strtok@s1	PTR unsigned char  size(1) Largest target is 40
		 -> NULL(NULL[0]), main@tmp(BANK1[40]), 

    strcmp@s2	PTR const unsigned char  size(2) Largest target is 4
		 -> STR_36(CODE[4]), STR_35(CODE[4]), STR_34(CODE[4]), STR_33(CODE[4]), 
		 -> STR_32(CODE[4]), STR_31(CODE[4]), STR_30(CODE[4]), STR_29(CODE[4]), 
		 -> STR_28(CODE[4]), STR_27(CODE[4]), STR_26(CODE[4]), STR_25(CODE[4]), 
		 -> STR_24(CODE[4]), STR_23(CODE[4]), STR_22(CODE[4]), STR_21(CODE[4]), 
		 -> STR_20(CODE[4]), STR_19(CODE[4]), STR_18(CODE[4]), STR_17(CODE[4]), 
		 -> STR_16(CODE[4]), STR_15(CODE[4]), STR_14(CODE[4]), STR_13(CODE[4]), 
		 -> STR_12(CODE[4]), STR_11(CODE[4]), STR_10(CODE[4]), STR_9(CODE[4]), 
		 -> STR_8(CODE[4]), STR_7(CODE[4]), STR_6(CODE[4]), STR_5(CODE[4]), 
		 -> STR_4(CODE[4]), STR_3(CODE[4]), STR_2(CODE[4]), STR_1(CODE[4]), 

    strcmp@s1	PTR const unsigned char  size(1) Largest target is 4
		 -> main@rcmd(BANK2[4]), 

    cgets@s	PTR unsigned char  size(1) Largest target is 40
		 -> main@tmp(BANK1[40]), 

    cgets@s1	PTR unsigned char  size(1) Largest target is 40
		 -> main@tmp(BANK1[40]), 

    sp__cgets	PTR unsigned char  size(1) Largest target is 40
		 -> main@tmp(BANK1[40]), 

    gets@s	PTR unsigned char  size(1) Largest target is 40
		 -> main@tmp(BANK1[40]), 

    atoi@s	PTR const unsigned char  size(1) Largest target is 40
		 -> NULL(NULL[0]), main@tmp(BANK1[40]), 

    printf@f	PTR const unsigned char  size(2) Largest target is 22
		 -> STR_94(CODE[22]), STR_93(CODE[10]), STR_92(CODE[12]), STR_91(CODE[8]), 
		 -> STR_90(CODE[8]), STR_89(CODE[11]), STR_88(CODE[11]), STR_87(CODE[11]), 
		 -> STR_86(CODE[11]), STR_84(CODE[11]), STR_82(CODE[11]), STR_80(CODE[11]), 
		 -> STR_79(CODE[8]), STR_77(CODE[8]), STR_75(CODE[8]), STR_72(CODE[11]), 
		 -> STR_71(CODE[11]), STR_70(CODE[11]), STR_69(CODE[11]), STR_68(CODE[11]), 
		 -> STR_67(CODE[11]), STR_66(CODE[11]), STR_65(CODE[8]), STR_63(CODE[11]), 
		 -> STR_61(CODE[8]), STR_60(CODE[8]), STR_59(CODE[8]), STR_57(CODE[8]), 
		 -> STR_56(CODE[8]), STR_55(CODE[11]), STR_54(CODE[8]), STR_48(CODE[11]), 
		 -> STR_46(CODE[11]), STR_42(CODE[8]), 

    printf@ap	PTR void [1] size(1) Largest target is 2
		 -> ?_printf(BANK0[2]), 

    sp__strtok	PTR unsigned char  size(1) Largest target is 40
		 -> NULL(NULL[0]), main@tmp(BANK1[40]), 

    main@ptr	PTR unsigned char  size(1) Largest target is 40
		 -> NULL(NULL[0]), main@tmp(BANK1[40]), 

    sp__gets	PTR unsigned char  size(1) Largest target is 40
		 -> main@tmp(BANK1[40]), 


Critical Paths under _main in COMMON

    _main->___xxtofl
    _write_data_eeprom->_eeprom_write
    _strtok->_strcspn
    _strtok->_strspn
    _strspn->_strchr
    _strcspn->_strchr
    _read_data_eeprom->_eeprom_read
    _printf->___lwmod
    ___lwmod->___lwdiv
    _gets->_cgets
    _cgets->_getche
    _getche->_putch
    _atoi->___wmul
    ___fltol->___xxtofl
    ___flmul->___xxtofl
    ___fldiv->___xxtofl
    ___awdiv->___wmul

Critical Paths under _main in BANK0

    _main->___fldiv
    ___fltol->___flmul
    ___fldiv->___flmul

Critical Paths under _main in BANK1

    None.

Critical Paths under _main in BANK2

    None.

Critical Paths under _main in BANK3

    None.

Critical Paths under _main in BANK4

    None.

Critical Paths under _main in BANK5

    None.

Critical Paths under _main in BANK6

    None.

Critical Paths under _main in BANK7

    None.

Critical Paths under _main in BANK8

    None.

Critical Paths under _main in BANK9

    None.

Critical Paths under _main in BANK10

    None.

Critical Paths under _main in BANK11

    None.

Critical Paths under _main in BANK12

    None.

Critical Paths under _main in BANK13

    None.

Critical Paths under _main in BANK14

    None.

Critical Paths under _main in BANK15

    None.

Critical Paths under _main in BANK16

    None.

Critical Paths under _main in BANK17

    None.

Critical Paths under _main in BANK18

    None.

Critical Paths under _main in BANK19

    None.

Critical Paths under _main in BANK20

    None.

Critical Paths under _main in BANK21

    None.

Critical Paths under _main in BANK22

    None.

Critical Paths under _main in BANK23

    None.

Critical Paths under _main in BANK24

    None.

Critical Paths under _main in BANK25

    None.

Call Graph Tables:

 ---------------------------------------------------------------------------------
 (Depth) Function   	        Calls       Base Space   Used Autos Params    Refs
 ---------------------------------------------------------------------------------
 (0) _main                                               143   143      0   31855
                                             52 BANK0     27    27      0
                                              0 BANK1     80    80      0
                                              0 BANK2     32    32      0
                         _AD_convert
                            ___awdiv
                            ___fladd
                            ___fldiv
                            ___flmul
                            ___fltol
                             ___wmul
                           ___xxtofl
                               _atoi
                               _gets
                           _initUART
                             _printf
                   _read_data_eeprom
                             _strcmp
                             _strtok
                  _write_data_eeprom
 ---------------------------------------------------------------------------------
 (1) _write_data_eeprom                                   17     9      8    2025
                                              4 COMMON     8     0      8
                                              0 BANK0      9     9      0
                       _eeprom_write
 ---------------------------------------------------------------------------------
 (2) _eeprom_write                                         4     3      1     196
                                              0 COMMON     4     3      1
 ---------------------------------------------------------------------------------
 (1) _strtok                                               5     3      2    4000
                                              0 BANK0      5     3      2
                            _strcspn
                             _strspn
 ---------------------------------------------------------------------------------
 (2) _strspn                                               7     5      2     592
                                              7 COMMON     7     5      2
                             _strchr
 ---------------------------------------------------------------------------------
 (2) _strcspn                                              7     5      2     592
                                              7 COMMON     7     5      2
                             _strchr
 ---------------------------------------------------------------------------------
 (3) _strchr                                               7     3      4     392
                                              0 COMMON     7     3      4
 ---------------------------------------------------------------------------------
 (1) _strcmp                                               5     3      2    4015
                                              0 COMMON     5     3      2
 ---------------------------------------------------------------------------------
 (1) _read_data_eeprom                                    20    16      4     690
                                              4 COMMON     8     4      4
                                              0 BANK0     12    12      0
                        _eeprom_read
 ---------------------------------------------------------------------------------
 (2) _eeprom_read                                          4     4      0      22
                                              0 COMMON     4     4      0
 ---------------------------------------------------------------------------------
 (1) _printf                                              24    18      6    3664
                                              0 BANK0     16    10      6
                            ___lwdiv
                            ___lwmod
                              _putch
 ---------------------------------------------------------------------------------
 (2) ___lwmod                                              6     2      4     311
                                              8 COMMON     6     2      4
                            ___lwdiv (ARG)
 ---------------------------------------------------------------------------------
 (2) ___lwdiv                                              8     4      4     314
                                              0 COMMON     8     4      4
 ---------------------------------------------------------------------------------
 (1) _initUART                                             0     0      0       0
 ---------------------------------------------------------------------------------
 (1) _gets                                                 1     1      0     380
                                             10 COMMON     1     1      0
                              _cgets
 ---------------------------------------------------------------------------------
 (2) _cgets                                                8     6      2     325
                                              2 COMMON     8     6      2
                             _getche
                              _putch
 ---------------------------------------------------------------------------------
 (3) _getche                                               1     1      0      67
                                              1 COMMON     1     1      0
                              _getch
                              _putch
 ---------------------------------------------------------------------------------
 (2) _putch                                                1     1      0      22
                                              0 COMMON     1     1      0
 ---------------------------------------------------------------------------------
 (4) _getch                                                0     0      0       0
 ---------------------------------------------------------------------------------
 (1) _atoi                                                10     8      2    1762
                                              6 COMMON     6     4      2
                                              0 BANK0      4     4      0
                             ___wmul
                            _isdigit
 ---------------------------------------------------------------------------------
 (2) _isdigit                                              2     2      0      68
                                              0 COMMON     2     2      0
 ---------------------------------------------------------------------------------
 (2) ___wmul                                               6     2      4    1004
                                              0 COMMON     6     2      4
 ---------------------------------------------------------------------------------
 (1) ___xxtofl                                            14    10      4     626
                                              0 COMMON    14    10      4
 ---------------------------------------------------------------------------------
 (1) ___fltol                                             10     6      4     457
                                             26 BANK0     10     6      4
                            ___flmul (ARG)
                           ___xxtofl (ARG)
 ---------------------------------------------------------------------------------
 (1) ___flmul                                             26    18      8    2721
                                              0 BANK0     26    18      8
                          __Umul8_16
                           ___xxtofl (ARG)
 ---------------------------------------------------------------------------------
 (2) __Umul8_16                                            9     7      2     799
                                              0 COMMON     9     7      2
 ---------------------------------------------------------------------------------
 (1) ___fldiv                                             26    18      8    1273
                                             26 BANK0     26    18      8
                            ___flmul (ARG)
                           ___xxtofl (ARG)
 ---------------------------------------------------------------------------------
 (1) ___fladd                                             20    12      8    2262
                                              0 COMMON    12     4      8
                                              0 BANK0      8     8      0
 ---------------------------------------------------------------------------------
 (1) ___awdiv                                              9     5      4     908
                                              6 COMMON     5     1      4
                                              0 BANK0      4     4      0
                             ___wmul (ARG)
 ---------------------------------------------------------------------------------
 (1) _AD_convert                                           3     1      2       0
                                              0 COMMON     2     0      2
 ---------------------------------------------------------------------------------
 Estimated maximum stack depth 4
 ---------------------------------------------------------------------------------

 Call Graph Graphs:

 _main (ROOT)
   _AD_convert
   ___awdiv
     ___wmul (ARG)
   ___fladd
   ___fldiv
     ___flmul (ARG)
       __Umul8_16
       ___xxtofl (ARG)
     ___xxtofl (ARG)
   ___flmul
   ___fltol
     ___flmul (ARG)
     ___xxtofl (ARG)
   ___wmul
   ___xxtofl
   _atoi
     ___wmul
     _isdigit
   _gets
     _cgets
       _getche
         _getch
         _putch
       _putch
   _initUART
   _printf
     ___lwdiv
     ___lwmod
       ___lwdiv (ARG)
     _putch
   _read_data_eeprom
     _eeprom_read
   _strcmp
   _strtok
     _strcspn
       _strchr
     _strspn
       _strchr
   _write_data_eeprom
     _eeprom_write

 Address spaces:
Name               Size   Autos  Total    Cost      Usage
BIGRAM             7F0      0       0       0        0.0%
EEDATA             100      0       0       0        0.0%
NULL                 0      0       0       0        0.0%
CODE                 0      0       0       0        0.0%
BITCOMMON            E      0       0       1        0.0%
BITSFR0              0      0       0       1        0.0%
SFR0                 0      0       0       1        0.0%
COMMON               E      E       E       2      100.0%
BITSFR1              0      0       0       2        0.0%
SFR1                 0      0       0       2        0.0%
BITSFR2              0      0       0       3        0.0%
SFR2                 0      0       0       3        0.0%
STACK                0      0       0       3        0.0%
BITBANK0            50      0       0       4        0.0%
BITSFR3              0      0       0       4        0.0%
SFR3                 0      0       0       4        0.0%
BANK0               50     4F      50       5      100.0%
BITSFR4              0      0       0       5        0.0%
SFR4                 0      0       0       5        0.0%
BITBANK1            50      0       0       6        0.0%
BITSFR5              0      0       0       6        0.0%
SFR5                 0      0       0       6        0.0%
BANK1               50     50      50       7      100.0%
BITSFR6              0      0       0       7        0.0%
SFR6                 0      0       0       7        0.0%
BITBANK2            50      0       0       8        0.0%
BITSFR7              0      0       0       8        0.0%
SFR7                 0      0       0       8        0.0%
BANK2               50     20      20       9       40.0%
BITSFR8              0      0       0       9        0.0%
SFR8                 0      0       0       9        0.0%
BITBANK3            50      0       0      10        0.0%
BITSFR9              0      0       0      10        0.0%
SFR9                 0      0       0      10        0.0%
BANK3               50      0       0      11        0.0%
BITSFR10             0      0       0      11        0.0%
SFR10                0      0       0      11        0.0%
BITBANK4            50      0       0      12        0.0%
BITSFR11             0      0       0      12        0.0%
SFR11                0      0       0      12        0.0%
BANK4               50      0       0      13        0.0%
BITSFR12             0      0       0      13        0.0%
SFR12                0      0       0      13        0.0%
BITSFR13             0      0       0      14        0.0%
SFR13                0      0       0      14        0.0%
ABS                  0      0      CE      14        0.0%
BITBANK5            50      0       0      15        0.0%
BITSFR14             0      0       0      15        0.0%
SFR14                0      0       0      15        0.0%
BANK5               50      0       0      16        0.0%
BITSFR15             0      0       0      16        0.0%
SFR15                0      0       0      16        0.0%
BITBANK6            50      0       0      17        0.0%
BITSFR16             0      0       0      17        0.0%
SFR16                0      0       0      17        0.0%
BANK6               50      0       0      18        0.0%
BITSFR17             0      0       0      18        0.0%
SFR17                0      0       0      18        0.0%
BITBANK7            50      0       0      19        0.0%
BITSFR18             0      0       0      19        0.0%
SFR18                0      0       0      19        0.0%
BANK7               50      0       0      20        0.0%
BITSFR19             0      0       0      20        0.0%
SFR19                0      0       0      20        0.0%
BITBANK8            50      0       0      21        0.0%
BITSFR20             0      0       0      21        0.0%
SFR20                0      0       0      21        0.0%
BANK8               50      0       0      22        0.0%
BITSFR21             0      0       0      22        0.0%
SFR21                0      0       0      22        0.0%
BITBANK9            50      0       0      23        0.0%
BITSFR22             0      0       0      23        0.0%
SFR22                0      0       0      23        0.0%
BANK9               50      0       0      24        0.0%
BITSFR23             0      0       0      24        0.0%
SFR23                0      0       0      24        0.0%
BITBANK10           50      0       0      25        0.0%
BITSFR24             0      0       0      25        0.0%
SFR24                0      0       0      25        0.0%
BANK10              50      0       0      26        0.0%
BITSFR25             0      0       0      26        0.0%
SFR25                0      0       0      26        0.0%
BITBANK11           50      0       0      27        0.0%
BITSFR26             0      0       0      27        0.0%
SFR26                0      0       0      27        0.0%
BITSFR27             0      0       0      28        0.0%
SFR27                0      0       0      28        0.0%
DATA                 0      0      CE      28        0.0%
BANK11              50      0       0      29        0.0%
BITSFR28             0      0       0      29        0.0%
SFR28                0      0       0      29        0.0%
BITBANK12           50      0       0      30        0.0%
BITSFR29             0      0       0      30        0.0%
SFR29                0      0       0      30        0.0%
BANK12              50      0       0      31        0.0%
BITSFR30             0      0       0      31        0.0%
SFR30                0      0       0      31        0.0%
BITBANK13           50      0       0      32        0.0%
BITSFR31             0      0       0      32        0.0%
SFR31                0      0       0      32        0.0%
BANK13              50      0       0      33        0.0%
BITBANK14           50      0       0      34        0.0%
BANK14              50      0       0      35        0.0%
BITBANK15           50      0       0      36        0.0%
BANK15              50      0       0      37        0.0%
BITBANK16           50      0       0      38        0.0%
BANK16              50      0       0      39        0.0%
BITBANK17           50      0       0      40        0.0%
BANK17              50      0       0      41        0.0%
BITBANK18           50      0       0      42        0.0%
BANK18              50      0       0      43        0.0%
BITBANK19           50      0       0      44        0.0%
BANK19              50      0       0      45        0.0%
BITBANK20           50      0       0      46        0.0%
BANK20              50      0       0      47        0.0%
BITBANK21           50      0       0      48        0.0%
BANK21              50      0       0      49        0.0%
BITBANK22           50      0       0      50        0.0%
BANK22              50      0       0      51        0.0%
BITBANK23           50      0       0      52        0.0%
BANK23              50      0       0      53        0.0%
BITBANK24           50      0       0      54        0.0%
BANK24              50      0       0      55        0.0%
BITBANK25           20      0       0      56        0.0%
BANK25              20      0       0      57        0.0%


Microchip Technology PIC Macro Assembler V2.41 build 20230208172133 
Symbol Table                                                                                   Sun Jul 14 11:00:00 2024

                ?_AD_convert 0070                 ___fldiv@aexp 0053                 ___fldiv@bexp 0052  
      pnum$maintext_split_10 0078                 ___fldiv@sign 004B                           l82 1C0F  
                         l85 19DF                           l79 1B74                           l88 19E7  
               ___awdiv@sign 0021          ___wmul@multiplicand 0072          __Umul8_16@word_mpld 0076  
                        l202 13F1                          l211 1460                          l203 13AC  
                        l300 14B8                          l212 1407                          l204 13BC  
                        l301 14B2                          l205 13B6                          l310 1521  
                        l302 14CA                          l230 1F4D                          l214 1422  
                        l206 13CE                          l311 152A                          l303 14D6  
                        l231 1F47                          l223 1F64                          l215 142B  
                        l207 13DA                          l320 010B                          l312 1524  
                        l304 14D0                          l240 1FA2                          l224 1F0B  
                        l216 1425                          l208 13D4                          l321 011B  
                        l313 153C                          l305 14E8                          l217 143D  
                        l330 016D                          l322 0115                          l314 1548  
                        l250 16F0                          l234 1FBF                          l226 1F26  
                        l218 1449                          l162 1085                          l331 017C  
                        l323 012D                          l315 1542                          l307 155F  
                        l251 16FC                          l235 1F7A                          l227 1F2F  
                        l219 1443                          l332 0176                          l324 0139  
                        l308 1506                          l260 1751                          l252 16F6  
                        l244 1713                          l236 1F8A                          l228 1F29  
                        l172 1122                          l341 01F9                          l333 018E  
                        l325 0133                          l245 16CA                          l237 1F84  
                        l229 1F41                          l173 10DD                          l342 0202  
                        l334 019A                          l270 17C2                          l254 176E  
                        l246 16D3                          l238 1F9C                          l190 15E5  
                        l182 1602                          l174 10ED                          l423 19B6  
                        l343 01FC                          l335 0194                          l319 0150  
                        l271 17DA                          l255 1729                          l239 1FA8  
                        l183 15A9                          l175 10E7                          l432 19A7  
                        l344 0214                          l280 1E36                          l264 17E5  
                        l256 1739                          l248 16DE                          l176 10FF  
                        l345 0220                          l329 01B1                          l281 1E30  
                        l265 179A                          l257 1733                          l249 16D8  
                        l185 15C4                          l177 110B                          l426 19B8  
                        l346 021A                          l338 0237                          l290 1E9C  
                        l282 1E48                          l266 17AA                          l258 174B  
                        l186 15CD                          l178 1105                          l435 19AE  
                        l339 01DF                          l291 1EA8                          l275 1E04  
                        l267 17A4                          l259 1757                          l187 15C7  
                        l292 1EA2                          l284 1EBF                          l268 17BC  
                        l188 15DF                          l429 19C0                          l621 1A8C  
                        l285 1E66                          l277 1E18                          l269 17C8  
                        l189 15EB                          l438 080B                          l614 1A64  
                        l374 054D                          l366 046C                          l278 1E12  
                        l615 1A64                          l391 06D2                          l287 1E81  
                        l279 1E2A                          l640 0062                          l288 1E8A  
                        l393 06E4                          l289 1E84                          l642 0046  
                        l618 1A7D                          l394 06F2                          l378 0597  
                        l298 14A8                          l811 1CC6                          l660 1A39  
                        l396 0704                          l389 06C5                          l654 0106  
                        l658 1A25                          l930 1B2C                          l851 0867  
                        l595 19E9                          l844 087C                          l940 1AF0  
                        l597 19FC                          l854 087C                          l951 0C0E  
                        l955 0C8C                          l972 0D1E                          l964 0DC4  
                        l957 0C6A                          l982 0D62                          l976 0D40  
                        l993 0DBD                          l985 0D9A                          l994 0DC4  
                        _RA0 0060                          _RA1 0061                          _RB0 0068  
                        _RA3 0063                          _RB1 0069                          _RB2 006A  
                        _RB3 006B                          _RB4 006C                          _RA6 0066  
                        _RB5 006D                          _RA7 0067                          wreg 0009  
               ___flmul@aexp 0032                 ___flmul@bexp 0033                 ___flmul@sign 002D  
               ___flmul@temp 0038                 ___flmul@prod 0034                 ___fltol@exp1 0043  
                       l1031 0BB1                         l1023 0B3E                         l1007 0A60  
                       l1104 1DBA                         l1009 0BB8                         l1105 1DC6  
                       l1121 1D44                         l1028 0B8A                         l1029 0BA4  
                       l1053 0F7F                         l1126 19A6                         l1047 0FFF  
                       l1151 19D2                         l1144 1C66                         l1066 1016  
                       l1170 1BC0                         l1059 0FF3                         l1091 1D67  
                       l1068 1026                         l1093 1DEE                         l3101 1A1D  
                       l3103 1A21                         l1159 1A62                         l1183 1ABC  
                       l4001 1DE1                         l1097 1DA0                         l3105 1A2A  
                       l3201 1C34                         l3121 1B01                         l3113 1AF1  
                       l1186 19FD                         l4003 1DE5                         l3107 1A2F  
                       l3051 19A7                         l3211 1C46                         l3203 1C3B  
                       l3131 1B1D                         l3123 1B05                         l3115 1AF3  
                       l4011 0880                         l1188 1A1A                         l4005 1DE6  
                       l3109 1A35                         l3053 19AC                         l3061 080A  
                       l3205 1C3F                         l3133 1B22                         l3125 1B09  
                       l3117 1AF9                         l3141 1AC3                         l3221 0006  
                       l4101 09D2                         l4021 088D                         l4013 0883  
                       l3047 19B8                         l3215 1C4A                         l3127 1B18  
                       l3119 1AFC                         l3135 1B28                         l3151 1ADD  
                       l3143 1AC6                         l3071 1A18                         l1199 0034  
                       l3223 0009                         l3311 1B9D                         l3303 1B85  
                       l4111 09DD                         l4103 09D5                         l4031 08A0  
                       l4023 088F                         l4015 0885                         l3161 1005  
                       l3049 19BD                         l3057 0802                         l3209 1C41  
                       l3129 1B1C                         l3153 1AE1                         l3145 1ACB  
                       l3401 00BB                         l3065 19FD                         l3241 1AB8  
                       l3233 1A8E                         l3225 0011                         l3321 1BBF  
                       l3313 1BAD                         l3305 1B92                         l3081 1A78  
                       l4201 125D                         l4121 09EB                         l4113 09DF  
                       l4105 09D7                         l4041 08B7                         l4033 08A2  
                       l4025 0891                         l4017 0888                         l4009 087D  
                       l3411 1C67                         l3171 1022                         l3163 1007  
                       l3331 1CD7                         l3059 0806                         l3155 1AE6  
                       l3147 1ACF                         l3139 1ABD                         l3403 00BF  
                       l3067 1A07                         l3235 1A91                         l3227 0019  
                       l3315 1BB5                         l3307 1B9A                         l3091 1A86  
                       l3083 1A7C                         l3075 1A69                         l3251 1B59  
                       l4211 128F                         l4203 126B                         l4131 09FE  
                       l4123 09EE                         l4115 09E1                         l4107 09D9  
                       l4051 08E0                         l4043 08BF                         l4035 08A3  
                       l4027 0894                         l4019 088B                         l3421 1C78  
                       l3413 1C69                         l3501 0BC8                         l3165 100E  
                       l3181 19CF                         l3341 1CFE                         l3333 1CE0  
                       l3325 1CC9                         l3149 1AD3                         l3157 1AEC  
                       l3405 00E5                         l3261 1C07                         l3069 1A08  
                       l3237 1A99                         l3229 0030                         l3317 1BB9  
                       l3093 1A8B                         l3085 1A80                         l3077 1A72  
                       l3253 1B6D                         l3245 1B2D                         l4301 1595  
                       l4221 12B7                         l4213 1293                         l4205 126F  
                       l4141 114C                         l4133 09FF                         l4125 09F2  
                       l4117 09E2                         l4109 09DA                         l4061 08F3  
                       l4053 08E4                         l4045 08C7                         l4037 08A6  
                       l4029 0897                         l3271 19E3                         l3431 1C8C  
                       l3423 1C7D                         l3415 1C6D                         l3511 0BE0  
                       l3503 0BCD                         l3167 1012                         l3183 19D1  
                       l3175 19C2                         l3351 1D34                         l3343 1D03  
                       l3335 1CE3                         l3327 1CCA                         l3407 00E9  
                       l3095 19EF                         l3255 1BC1                         l3239 1AA1  
                       l3319 1BBE                         l3087 1A84                         l3079 1A76  
                       l3247 1B3A                         l4311 15C8                         l4303 15A6  
                       l4231 12E9                         l4223 12C5                         l4215 12A1  
                       l4207 127D                         l4151 117E                         l4143 115A  
                       l4135 1136                         l4127 09F6                         l4119 09E7  
                       l4071 090C                         l4063 08FC                         l4055 08E6  
                       l4047 08CF                         l4039 08AF                         l3265 19D3  
                       l3441 1CAC                         l3433 1C91                         l3425 1C81  
                       l3417 1C72                         l3601 0CAE                         l3521 0BF0  
                       l3513 0BE3                         l3505 0BD5                         l3169 101D  
                       l3177 19C3                         l3337 1CEC                         l3329 1CCE  
                       l3193 1C1B                         l3361 0039                         l3409 00F3  
                       l3257 1BE4                         l3281 1A3B                         l3089 1A85  
                       l3249 1B40                         l4401 1F5F                         l4321 161E  
                       l4313 15E1                         l4305 15AB                         l4241 1311  
                       l4233 12ED                         l4225 12C9                         l4217 12A5  
                       l4209 1281                         l4161 11A6                         l4153 1182  
                       l4145 115E                         l4137 113A                         l4129 09FA  
                       l4081 092D                         l4073 0914                         l4065 0901  
                       l4057 08EA                         l4049 08D7                         l3267 19D9  
                       l3451 1CC2                         l3443 1CAD                         l3435 1C95  
                       l3427 1C83                         l3419 1C74                         l3611 0CC2  
                       l3603 0CB2                         l3531 0C04                         l3523 0BF1  
                       l3515 0BE9                         l3507 0BD6                         l3099 1A1B  
                       l3179 19C9                         l3355 1D40                         l3347 1D23  
                       l3339 1CF5                         l3195 1C23                         l3187 1C11  
                       l3275 19AF                         l3371 0066                         l3363 003F  
                       l3259 1BFB                         l3283 1A3C                         l4411 1F9E  
                       l4403 1F76                         l4331 1660                         l4323 163C  
                       l4315 15E6                         l4307 15BB                         l4251 1343  
                       l4243 131F                         l4235 12FB                         l4227 12D7  
                       l4219 12B3                         l4171 11D8                         l4163 11B4  
                       l4155 1190                         l4147 116C                         l4139 1148  
                       l4091 097F                         l4083 097A                         l4075 0917  
                       l4067 0905                         l4059 08EE                         l3269 19DD  
                       l3445 1CB2                         l3437 1C99                         l3429 1C89  
                       l3621 0D0D                         l3605 0CB4                         l3613 0CC7  
                       l3541 0C1F                         l3525 0BF6                         l3533 0C06  
                       l3517 0BEA                         l3509 0BD8                         l3701 0A2D  
                       l3461 081F                         l3349 1D2E                         l3197 1C26  
                       l3189 1C14                         l3277 19A2                         l3373 006D  
                       l3381 007F                         l3365 0044                         l3285 1A44  
                       l3293 1B77                         l4501 1E7E                         l4421 1FED  
                       l4413 1FA3                         l4405 1F7C                         l4341 169A  
                       l4333 1664                         l4325 1641                         l4317 15FD  
                       l4309 15C1                         l4261 103D                         l4253 1347  
                       l4245 1323                         l4237 12FF                         l4229 12DB  
                       l4181 1200                         l4173 11DC                         l4165 11B8  
                       l4157 1194                         l4149 1170                         l4093 0980  
                       l4085 097C                         l4077 0920                         l4069 0908  
                       l3439 1CA8                         l3447 1CB8                         l3631 0D34  
                       l3615 0CDE                         l3623 0D16                         l3607 0CB8  
                       l3551 0C29                         l3543 0C21                         l3535 0C14  
                       l3527 0BFB                         l3519 0BEC                         l3711 0A42  
                       l3703 0A2F                         l3471 083F                         l3463 0830  
                       l3455 080C                         l3199 1C32                         l3391 008C  
                       l3383 0086                         l3375 0071                         l3359 0035  
                       l3287 1A54                         l3295 1B7C                         l4511 1ED1  
                       l4503 1E85                         l4431 16D9                         l4423 1FF7  
                       l4415 1FBA                         l4407 1F81                         l4351 138E  
                       l4343 16A3                         l4335 167A                         l4327 164A  
                       l4319 1614                         l4271 106F                         l4263 104B  
                       l4255 1027                         l4247 1331                         l4239 130D  
                       l4191 1232                         l4183 120E                         l4175 11EA  
                       l4167 11C6                         l4159 11A2                         l4095 0981  
                       l4087 097D                         l4079 0925                         l3449 1CBD  
                       l3641 0D49                         l3633 0D3B                         l3625 0D26  
                       l3617 0D02                         l3609 0CB9                         l3561 0C33  
                       l3553 0C2B                         l3545 0C23                         l3537 0C18  
                       l3529 0C03                         l3801 0B54                         l3721 0A56  
                       l3713 0A43                         l3705 0A37                         l3465 0831  
                       l3457 0816                         l3377 0075                         l3385 008A  
                       l3369 0048                         l3289 1A5D                         l3297 1B7E  
                       l4601 01F0                         l4521 1483                         l4513 1EDA  
                       l4505 1E9E                         l4441 172B                         l4433 16F2  
                       l4425 1FFC                         l4409 1F85                         l4417 1FD1  
                       l4361 13B7                         l4353 1397                         l4345 16B9  
                       l4337 168B                         l4329 165A                         l4281 10BA  
                       l4273 1073                         l4265 104F                         l4257 102B  
                       l4249 1335                         l4193 1236                         l4185 1212  
                       l4177 11EE                         l4169 11CA                         l4097 0982  
                       l4089 097E                         l3651 0D59                         l3643 0D4E  
                       l3635 0D3F                         l3627 0D2B                         l3619 0D08  
                       l3571 0C3C                         l3563 0C35                         l3555 0C2D  
                       l3547 0C25                         l3539 0C1D                         l3491 0BB9  
                       l3811 0B9B                         l3803 0B6C                         l3715 0A48  
                       l3723 0A58                         l3707 0A3C                         l3467 0839  
                       l3395 00A7                         l3379 0079                         l3299 1B83  
                       l4611 0232                         l4603 01F6                         l4531 14AA  
                       l4523 148D                         l4515 1EED                         l4507 1EA3  
                       l4451 1769                         l4443 1730                         l4435 16F7  
                       l4427 16CF                         l4419 1FDA                         l4371 1409  
                       l4363 13D0                         l4355 13A8                         l4347 1357  
                       l4339 1695                         l4291 10E4                         l4283 10BF  
                       l4275 1081                         l4267 105D                         l4259 1039  
                       l4195 1246                         l4187 1220                         l4179 11FC  
                       l4099 09CF                         l3661 0D74                         l3653 0D5F  
                       l3637 0D44                         l3645 0D50                         l3581 0C78  
                       l3573 0C54                         l3565 0C37                         l3557 0C2F  
                       l3549 0C27                         l3493 0BBC                         l3813 0BA3  
                       l3805 0B70                         l3741 0A9F                         l3725 0A68  
                       l3733 0A81                         l3717 0A4D                         l3709 0A3E  
                       l3901 0EF7                         l3485 085E                         l3477 0847  
                       l3469 083B                         l3397 00B1                         l4701 04D7  
                       l4621 0290                         l4613 0261                         l4605 01FD  
                       l4533 14AF                         l4525 1495                         l4517 1474  
                       l4509 1EBA                         l4461 17A1                         l4453 1780  
                       l4445 1734                         l4437 170E                         l4429 16D4  
                       l4381 1444                         l4373 1419                         l4365 13D5  
                       l4357 13AE                         l4349 1389                         l4293 10E8  
                       l4285 10C8                         l4269 1061                         l4197 124B  
                       l4189 1224                         l4277 1085                         l3671 0DAC  
                       l3663 0D78                         l3639 0D47                         l3647 0D54  
                       l3591 0C95                         l3583 0C79                         l3575 0C6E  
                       l3567 0C39                         l3559 0C31                         l3495 0BBE  
                       l3815 0BA7                         l3807 0B7D                         l3751 0ABE  
                       l3743 0AA7                         l3735 0A86                         l3727 0A74  
                       l3719 0A55                         l3911 0F48                         l3903 0F09  
                       l3831 0DCF                         l3487 086C                         l3479 0857  
                       l3399 00B7                         l4711 04FA                         l4703 04D9  
                       l4631 02DB                         l4623 0295                         l4615 026A  
                       l4607 0216                         l4551 151E                         l4543 14EE  
                       l4535 14B3                         l4527 1498                         l4519 147E  
                       l4471 17E0                         l4463 17A5                         l4455 1792  
                       l4447 174D                         l4439 1725                         l4391 1F1D  
                       l4383 145B                         l4375 141F                         l4367 13EC  
                       l4359 13B3                         l4295 1101                         l4287 10D9  
                       l4279 1092                         l4199 1259                         l3681 0DBF  
                       l3673 0DB1                         l3665 0D96                         l3657 0D67  
                       l3649 0D55                         l3585 0C82                         l3577 0C72  
                       l3569 0C3B                         l3497 0BC2                         l3817 0BAB  
                       l3809 0B98                         l3761 0AEA                         l3753 0ACC  
                       l3745 0AAF                         l3729 0A78                         l3913 0F4F  
                       l3921 0F5F                         l3905 0F1E                         l3841 0DE4  
                       l3833 0DD0                         l3825 0DC5                         l3489 0871  
                       l4801 074D                         l4721 0550                         l4713 0533  
                       l4705 04E2                         l4641 0311                         l4633 02E0  
                       l4625 02A3                         l4617 027D                         l4609 021B  
                       l4561 156F                         l4553 1525                         l4537 14CC  
                       l4545 1502                         l4481 1E06                         l4473 17F7  
                       l4465 17BE                         l4457 1797                         l4449 1752  
                       l4393 1F23                         l4377 1426                         l4369 1403  
                       l4385 1EF7                         l4297 1106                         l4289 10DF  
                       l3683 0DC3                         l3675 0DB2                         l3667 0D9F  
                       l3659 0D6C                         l3595 0C9E                         l3579 0C74  
                       l3587 0C86                         l3499 0BC3                         l3819 0BAD  
                       l3771 0B05                         l3763 0AEB                         l3755 0AD0  
                       l3747 0AB7                         l3739 0A8F                         l3691 0A19  
                       l3923 0F63                         l3915 0F53                         l3907 0F35  
                       l3851 0DF8                         l3843 0DEC                         l3835 0DD5  
                       l3827 0DC9                         l4811 0773                         l4803 0758  
                       l4731 0581                         l4723 0559                         l4715 0537  
                       l4707 04EC                         l4651 0360                         l4643 0329  
                       l4635 02E9                         l4627 02B8                         l4619 0286  
                       l4571 0112                         l4563 1578                         l4555 153E  
                       l4547 1508                         l4539 14D1                         l4483 1E0F  
                       l4475 1DEF                         l4467 17C3                         l4459 179C  
                       l4395 1F2A                         l4387 1F08                         l4379 143F  
                       l4299 111D                         l3677 0DB6                         l3669 0DA4  
                       l3597 0CA6                         l3589 0C90                         l3781 0B1A  
                       l3773 0B07                         l3765 0AF3                         l3757 0AD1  
                       l3749 0AB9                         l3693 0A1A                         l3685 0A0F  
                       l3941 0FAD                         l3933 0F84                         l3925 0F64  
                       l3917 0F54                         l3909 0F3C                         l3861 0E14  
                       l3853 0DFD                         l3845 0DF1                         l3837 0DDA  
                       l3829 0DCB                         l4805 0765                         l4741 05CE  
                       l4733 0591                         l4725 0569                         l4717 0539  
                       l4709 04F1                         l4661 039C                         l4653 0369  
                       l4645 033C                         l4637 02F1                         l4629 02D1  
                       l4581 0160                         l4573 0116                         l4565 158B  
                       l4557 1543                         l4549 1518                         l4493 1E4E  
                       l4485 1E13                         l4477 1DF4                         l4397 1F43  
                       l4389 1F0D                         l3679 0DB8                         l3599 0CAA  
                       l3791 0B3B                         l3775 0B0E                         l3783 0B1E  
                       l3759 0AD8                         l3767 0AF7                         l3695 0A1F  
                       l3687 0A13                         l3951 0FDF                         l3935 0F89  
                       l3943 0FB1                         l3927 0F68                         l3919 0F5B  
                       l3871 0E32                         l3863 0E19                         l3855 0E02  
                       l3847 0DF3                         l3839 0DE2                         l4751 060C  
                       l4743 05DF                         l4735 059C                         l4727 0573  
                       l4719 0548                         l4671 03BB                         l4663 03A0  
                       l4655 037C                         l4647 033F                         l4639 0301  
                       l4591 0190                         l4583 0169                         l4575 012F  
                       l4567 0107                         l4559 155A                         l4487 1E2C  
                       l4495 1E62                         l4399 1F48                         l4815 077B  
                       l3785 0B22                         l3777 0B12                         l3769 0AFD  
                       l3697 0A24                         l3689 0A15                         l3961 0FF7  
                       l3953 0FE1                         l3945 0FBE                         l3937 0F91  
                       l3929 0F7C                         l3881 0E89                         l3873 0E3F  
                       l3865 0E1E                         l3857 0E0A                         l3849 0DF7  
                       l4809 076B                         l4761 064A                         l4753 061D  
                       l4745 05E9                         l4737 059E                         l4729 0578  
                       l4681 042B                         l4673 03C4                         l4665 03A2  
                       l4657 0395                         l4649 0348                         l4593 0195  
                       l4585 016E                         l4577 0134                         l4569 010D  
                       l4497 1E68                         l4489 1E31                         l3795 0B43  
                       l3787 0B23                         l3779 0B13                         l3699 0A2C  
                       l3955 0FEC                         l3947 0FC8                         l3939 0F95  
                       l3891 0EBA                         l3883 0E96                         l3875 0E57  
                       l3859 0E0C                         l3971 1D5F                         l4771 0698  
                       l4763 065B                         l4755 0627                         l4747 05EE  
                       l4739 05B4                         l4691 0480                         l4683 042E  
                       l4675 03CF                         l4667 03AB                         l4659 0398  
                       l4595 01AC                         l4587 0173                         l4579 014B  
                       l4499 1E78                         l3797 0B48                         l3789 0B27  
                       l3957 0FF0                         l3949 0FD6                         l3893 0EC1  
                       l3885 0E9D                         l3877 0E64                         l3869 0E27  
                       l3981 1D86                         l3973 1D6F                         l3965 1D46  
                       l4837 1C58                         l4781 06CA                         l4773 06B2  
                       l4765 066B                         l4757 062C                         l4749 05F7  
                       l4693 0489                         l4685 0432                         l4677 03D4  
                       l4669 03B6                         l4597 01DB                         l4589 0177  
                       l3799 0B50                         l3959 0FF1                         l3895 0ED3  
                       l3887 0EA8                         l3879 0E7C                         l3991 1DB0  
                       l3983 1D8D                         l3967 1D4B                         l4783 06E6  
                       l4791 0725                         l4775 06B5                         l4767 067B  
                       l4759 0635                         l4695 0493                         l4687 0449  
                       l4679 03DD                         l4599 01E0                         l3897 0EDA  
                       l3889 0EAF                         l3993 1DB4                         l3985 1D91  
                       l3977 1D78                         l3969 1D4F                         l4793 072E  
                       l4785 06E9                         l4769 068B                         l4697 0498  
                       l4689 047E                         l3899 0EEC                         l3995 1DBE  
                       l3987 1D99                         l3979 1D7B                         l4795 0733  
                       l4787 0709                         l4779 06C7                         l4699 04A1  
                       l3997 1DC8                         l3989 1DA7                         l4789 0711  
                       l3999 1DDC                         l4799 0744                         STR_1 21D0  
                       STR_2 216C                         STR_3 219C                         STR_4 2188  
                       STR_5 217C                         STR_6 21CC                         STR_7 2190  
                       STR_8 21A8                         STR_9 2180                         u4000 0BE9  
                       u3200 1A07                         u4001 0BE8                         u3201 1A06  
                       u4010 0BF0                         u3210 1A18                         u4011 0BEF  
                       u3211 1A17                         u4100 0C78                         u4020 0BF6  
                       u3300 1AF9                         u3220 1A69                         u4101 0C77  
                       u4021 0BF5                         u3301 1AF8                         u3221 1A68  
                       u4030 0BFB                         u3230 1A7C                         u4031 0BFA  
                       u3231 1A7B                         u4200 0D0D                         u4120 0C8C  
                       u4040 0C14                         u3320 1B09                         u3400 1ADD  
                       u3240 1A8B                         u4201 0D0C                         u4121 0C8B  
                       u4041 0C13                         u3321 1B08                         u3401 1ADC  
                       u3241 1A8A                         u4210 0D26                         u4130 0C90  
                       u4050 0C18                         u5010 1DA6                         u3250 19EF  
                       u4211 0D25                         u4131 0C8F                         u4115 0C7C  
                       u4051 0C17                         u5011 1DA5                         u3315 1AFD  
                       u3251 19EE                         u4300 0D66                         u4220 0D2B  
                       u4140 0C95                         u4060 0C54                         u3260 1A21  
                       u3180 19BD                         u3340 1B18                         u3420 1AEC  
                       u3500 0019                         u5100 09EB                         u4301 0D65  
                       u4221 0D2A                         u4141 0C94                         u4061 0C53  
                       u5005 1D9A                         u3261 1A20                         u3181 19BC  
                       u3341 1B17                         u3421 1AEB                         u3405 1AD9  
                       u3501 0018                         u5101 09EA                         u4310 0D6C  
                       u4150 0CAA                         u4070 0C5D                         u3430 1012  
                       u5030 1DB4                         u3190 19AC                         u3510 0030  
                       u5110 1136                         u4311 0D6B                         u4151 0CA9  
                       u4071 0C5B                         u3431 1011                         u5031 1DB3  
                       u3191 19AB                         u3335 1B0A                         u3415 1AE2  
                       u3511 002F                         u5111 0A0D                         _PIE1 0091  
                       u4320 0D78                         u4240 0D3F                         u4160 0CAE  
                       u4080 0C5E                         u4400 0A19                         u5040 1DBA  
                       u3360 1B28                         u3520 1AA1                         u3600 1B83  
                       u6000 1502                         u5200 11D8                         u5120 1148  
                       u4321 0D77                         u4241 0D3E                         u4161 0CAD  
                       u4065 0C50                         u4401 0A18                         u5041 1DB9  
                       u5025 1DAA                         u3361 1B27                         u3345 1B14  
                       u3521 1AA0                         u3601 1B82                         u6001 1501  
                       u5201 11D7                         u5121 1147                         u4330 0D87  
                       u4250 0D44                         u4170 0CB8                         u4090 0C6E  
                       u4410 0A1F                         u3450 1022                         u5050 1DBE  
                       u3290 1A35                         u3370 1AC3                         u3530 1AB8  
                       u3610 1B9A                         u6010 1518                         u5210 11EA  
                       u5130 115A                         u4251 0D43                         u4235 0D35  
                       u4171 0CB7                         u4091 0C6D                         u4411 0A1E  
                       u3451 1021                         u5051 1DBD                         u3291 1A34  
                       u3275 1A26                         u3355 1B1E                         u3371 1AC2  
                       u3531 1AB7                         u3611 1B99                         u6011 1517  
                       u5211 11E9                         u5131 1159                         u4340 0D96  
                       u4260 0D4E                         u4420 0A24                         u5060 1DD2  
                       u3460 19C9                         u3700 0066                         u3620 1BB5  
                       u3540 1B4F                         u6100 01DB                         u6020 153C  
                       u5300 128F                         u5220 11FC                         u5140 116C  
                       u4341 0D95                         u4261 0D4D                         u4421 0A23  
                       u3445 1017                         u3285 1A2B                         u3461 19C8  
                       u3701 0065                         u3621 1BB4                         u6101 01DA  
                       u6021 153B                         u6005 14FE                         u5301 128E  
                       u5221 11FB                         u5141 116B                         u4350 0D9F  
                       u4270 0D54                         u4190 0CDE                         u4510 0AD0  
                       u4430 0A42                         u5070 1DE1                         u3470 19CF  
                       u3630 1CD7                         u3390 1AD3                         u3710 0075  
                       u3550 1BF1                         u6110 01F0                         u6030 155A  
                       u5310 12A1                         u5230 120E                         u5150 117E  
                       u4351 0D9E                         u4335 0D83                         u4271 0D53  
                       u4191 0CDD                         u4511 0ACF                         u4431 0A41  
                       u5071 1DE0                         u3471 19CE                         u3631 1CD6  
                       u3391 1AD2                         u3711 0074                         u6111 01EF  
                       u6103 01D7                         u6031 1559                         u6015 1514  
                       u5311 12A0                         u5231 120D                         u5151 117D  
                       u3560 19E3                         u4360 0DA4                         u4280 0D59  
                       u4600 0B27                         u4440 0A48                         u5080 1DE5  
                       u3640 1CE0                         u3480 1C1A                         u3720 00A6  
                       u6200 0498                         u6120 0214                         u6040 156F  
                       u5400 1343                         u5320 12B3                         u5240 1220  
                       u5160 1190                         u3561 19E2                         u4361 0DA3  
                       u4281 0D58                         u4193 0CDA                         u4185 0CBC  
                       u4601 0B26                         u4505 0AC6                         u4441 0A47  
                       u5081 1DE4                         u5065 1DCE                         u3641 1CDF  
                       u3481 1C19                         u3385 1AC7                         u3721 00A5  
                       u3545 1B4B                         u6201 0497                         u6121 0213  
                       u6041 156E                         u6025 1538                         u5401 1342  
                       u5321 12B2                         u5241 121F                         u5161 118F  
                       u3810 1C99                         u4370 0DB1                         u4290 0D5F  
                       u4610 0B3B                         u4530 0AEA                         u4450 0A4D  
                       u3650 1CEC                         u3490 1C3A                         u3730 00B1  
                       u3570 1A54                         u6210 04F1                         u6130 0232  
                       u6050 012D                         u5410 1027                         u5330 12C5  
                       u5250 1232                         u5170 11A2                         u5090 09E7  
                       u3811 1C98                         u4371 0DB0                         u4291 0D5E  
                       u4611 0B3A                         u4531 0AE9                         u4451 0A4C  
                       u3651 1CEB                         u3491 1C39                         u3731 00B0  
                       u3555 1BED                         u3571 1A53                         u6211 04F0  
                       u6131 0231                         u6115 01EC                         u6051 012C  
                       u6035 1556                         u5411 1355                         u5331 12C4  
                       u5251 1231                         u5171 11A1                         u5091 09E6  
                       u4380 0DB6                         u4620 0B42                         u4540 0AFD  
                       u4460 0A68                         u4700 0DD5                         u3900 0846  
                       u3660 1CFE                         u3740 00B7                         u3580 1A5D  
                       u6300 06E4                         u6220 0537                         u6140 0261  
                       u6060 014B                         u5500 111D                         u5420 1039  
                       u5340 12D7                         u5260 1246                         u5180 11B4  
                       u3805 1C8D                         u4381 0DB5                         u4621 0B41  
                       u4541 0AFC                         u4525 0AD2                         u4461 0A67  
                       u4701 0DD4                         u3901 0845                         u3661 1CFD  
                       u3741 00B6                         u3725 00A2                         u3581 1A5C  
                       u6301 06E3                         u6221 0536                         u6141 0260  
                       u6125 0210                         u6061 014A                         u6045 156B  
                       u5501 111C                         u5421 1038                         u5341 12D6  
                       u5261 1244                         u5181 11B3                         u3830 1CA8  
                       u4390 0DC3                         u4630 0B48                         u4550 0B05  
                       u4470 0A86                         u4710 0DDA                         u3670 1D2E  
                       u3750 00F3                         u3590 1B7C                         u6310 0704  
                       u6230 0548                         u6150 0295                         u6070 0160  
                       u5510 1134                         u5430 104B                         u5350 12E9  
                       u5270 1259                         u5190 11C6                         u3831 1CA7  
                       u4391 0DC2                         u4631 0B47                         u4551 0B04  
                       u4535 0AE6                         u4471 0A85                         u4711 0DD9  
                       u3671 1D2D                         u3751 00F2                         u3591 1B7B  
                       u6311 0703                         u6231 0547                         u6151 0294  
                       u6143 025D                         u6135 022E                         u6071 015F  
                       u6055 0129                         u5511 1133                         u5431 104A  
                       u5351 12E8                         u5271 1258                         u5191 11C5  
                       u4640 0B54                         u4480 0ABE                         u4800 0F2B  
                       u4720 0DF7                         u3920 0856                         u3680 1D34  
                       u3760 0106                         u6320 0709                         u6240 0578  
                       u6160 02E0                         u6080 018E                         u5600 13A8  
                       u5520 15BB                         u5440 105D                         u5360 12FB  
                       u5280 126B                         u3825 1C9A                         u4641 0B53  
                       u4481 0ABD                         u4721 0DF6                         u3921 0855  
                       u3681 1D33                         u3761 0105                         u6321 0708  
                       u6305 06E0                         u6241 0577                         u6161 02DF  
                       u6081 018D                         u6065 0147                         u5601 13A6  
                       u5521 15BA                         u5505 1119                         u5441 105C  
                       u5361 12FA                         u5281 126A                         u3850 1CB8  
                       u3770 1C6D                         u4650 0B62                         u4570 0B12  
                       u4730 0DFD                         u3930 085D                         u3690 003F  
                       u6330 0725                         u6250 0591                         u6170 03BB  
                       u6090 01AC                         u5610 13CE                         u5530 15DF  
                       u5450 106F                         u5370 130D                         u5290 127D  
                       u3851 1CB7                         u3835 1CA4                         u3771 1C6C  
                       u4571 0B11                         u4731 0DFC                         u3931 085C  
                       u3915 0848                         u3691 003E                         u6331 0724  
                       u6315 0700                         u6251 0590                         u6235 0544  
                       u6171 03BA                         u6091 01AB                         u6075 015C  
                       u5611 13CD                         u5531 15DE                         u5515 1130  
                       u5451 106E                         u5371 130C                         u5291 127C  
                       u3860 1CBD                         u3780 1C78                         u4660 0B7D  
                       u4900 0F95                         u4740 0E02                         u6340 0742  
                       u6260 059C                         u6180 03D4                         u5700 1F5F  
                       u5620 13EC                         u5540 15FD                         u5460 1081  
                       u5380 131F                         _RCIF 008D                         u3861 1CBC  
                       u3845 1CAE                         u3781 1C77                         u4661 0B7C  
                       u4565 0B08                         u4901 0F94                         u4805 0F27  
                       u4741 0E01                         u6341 0741                         u6261 059B  
                       u6181 03D3                         u6085 018A                         u5701 1F5E  
                       u5621 13EB                         u5605 13A3                         u5541 15FC  
                       u5525 15B7                         u5461 1080                         u5381 131E  
                       u3790 1C89                         u4670 0B98                         u4590 0B22  
                       u4910 0FA3                         u4830 0F53                         u4750 0E19  
                       u3950 086C                         u3870 0816                         u6270 05EE  
                       u6190 047E                         u5710 1F76                         u5630 1403  
                       u5550 1614                         u5470 10BF                         u5390 1331  
                       u6407 19DA                         u3791 1C88                         u4671 0B97  
                       u4655 0B5E                         u4591 0B21                         u4495 0ABF  
                       u4831 0F52                         u4815 0F36                         u4751 0E18  
                       u3951 086B                         u3871 0815                         u6335 0721  
                       u6271 05ED                         u6255 058D                         u6191 047D  
                       u6095 01A8                         u5711 1F75                         u5631 1402  
                       u5615 13CA                         u5551 1613                         u5535 15DB  
                       u5471 10BE                         u5391 1330                         u4680 0BAB  
                       u4920 0FBE                         u4760 0E1E                         u3960 0871  
                       u3880 082C                         u6280 062C                         u5800 1769  
                       u5720 1F9C                         u5640 1419                         u5560 1641  
                       u5480 10D9                         u4681 0BAA                         u4665 0B79  
                       u4585 0B14                         u4921 0FBD                         u4825 0F49  
                       u4761 0E1D                         u3961 0870                         u3945 085F  
                       u6345 073E                         u6281 062B                         u5801 1768  
                       u5721 1F9B                         u5705 1F5B                         u5641 1418  
                       u5625 13E8                         u5561 1640                         u5545 15F9  
                       u5481 10D7                         u3970 0BC2                         u4930 0FD6  
                       u4850 0F63                         u4690 0DCF                         u3890 083F  
                       u6290 06C4                         u5810 1780                         u5730 1FBA  
                       u5650 143D                         u5570 1660                         u5490 10FF  
                       u3971 0BC1                         u4675 0B94                         u4931 0FD5  
                       u4915 0F9F                         u4851 0F62                         u4691 0DCE  
                       u3891 083E                         u6291 06C3                         u6195 047A  
                       u5811 177F                         u5731 1FB9                         u5715 1F72  
                       u5651 143C                         u5635 13FF                         u5571 165F  
                       u5555 1610                         u5491 10FE                         u3980 0BC8  
                       u4940 0FF0                         u4860 0F68                         u5900 1E62  
                       u5820 17BC                         u5740 1FD1                         u5660 145B  
                       u5580 169A                         u3981 0BC7                         u4941 0FEF  
                       u4925 0FBA                         u4861 0F67                         u4845 0F55  
                       u3885 0828                         u6357 042F                         u5901 1E61  
                       u5821 17BB                         u5805 1765                         u5741 1FD0  
                       u5725 1F98                         u5661 145A                         u5645 1415  
                       u5581 1699                         u5485 10D4                         u3990 0BCD  
                       u4870 0F7C                         u4790 0F14                         u4950 1D4B  
                       u5910 1E78                         u5830 17DA                         u5750 16CF  
                       u5670 1472                         u5590 138E                         u3991 0BCC  
                       u4935 0FD2                         u4871 0F7B                         u4775 0E97  
                       u4951 1D4A                         u6295 06C0                         u6367 0691  
                       u5911 1E77                         u5831 17D9                         u5815 177C  
                       u5751 16CE                         u5735 1FB6                         u5671 1471  
                       u5655 1439                         u5591 138D                         u5495 10FB  
                       u4880 0F83                         u4960 1D4F                         u5920 1E9C  
                       u5840 17DF                         u5760 16F0                         u5680 1F1D  
                       u4881 0F82                         u4785 0EC2                         u4961 1D4E  
                       u6377 06CB                         u5921 1E9B                         u5905 1E5E  
                       u5841 17DE                         u5825 17B8                         u5761 16EF  
                       u5745 1FCD                         u5681 1F1C                         u5665 1457  
                       u4890 0F89                         u4970 1D6F                         u5930 1EBA  
                       u5850 17F7                         u5770 170E                         u5690 1F41  
                       u4891 0F88                         u4795 0F10                         u4971 1D6E  
                       u6387 06EA                         u5931 1EB9                         u5915 1E74  
                       u5851 17F6                         u5835 17D6                         u5771 170D  
                       u5691 1F40                         u5675 146E                         u5940 1ED1  
                       u5860 1E03                         u5780 1725                         u6397 075E  
                       u5941 1ED0                         u5925 1E98                         u5861 1E02  
                       u5781 1724                         u5765 16EC                         u5685 1F19  
                       u4990 1D8C                         u5950 1483                         u5870 1E2A  
                       u5790 174B                         u4991 1D8B                         u5951 1482  
                       u5935 1EB6                         u5871 1E29                         u5855 17F3  
                       u5791 174A                         u5775 170A                         u5695 1F3D  
                       u5960 14A7                         u5880 1E48                         u4985 1D80  
                       u5961 14A6                         u5945 1ECD                         u5881 1E47  
                       u5865 1DFF                         u5785 1721                         u5970 14CA  
                       u5890 1E4D                         u5971 14C9                         u5891 1E4C  
                       u5875 1E26                         u5795 1747                         u5980 14E8  
                       u5981 14E7                         u5965 14A3                         u5885 1E44  
                       u5990 14ED                         u5991 14EC                         u5975 14C6  
                       u5985 14E4                         _TXIF 008C                         _WPUB 020D  
             ??_eeprom_write 0071                         _atoi 1CC7                         _gets 19A1  
                       _main 087D                         fsr0h 0005                         fsr1h 0007  
                       indf0 0000                         fsr0l 0004                  main@set_spd 005B  
                       indf1 0001                         fsr1l 0006                         btemp 007E  
                       start 0002                  main@pzt_l_d 005D              ___fldiv@new_exp 004C  
          ?_read_data_eeprom 0074           ??_read_data_eeprom 0078                ___fltol@sign1 0042  
                      ?_atoi 0076                        ?_gets 0070              __end_of___fladd 0DC5  
                      ?_main 0070              __end_of___fldiv 0BB9              __end_of___awdiv 1CC7  
                      _EEADR 0191                        STR_10 2178                        STR_11 21BC  
                      STR_20 21A0                        STR_12 2170                        STR_13 2174  
                      STR_21 215C                        STR_30 21DC                        STR_14 21C4  
                      STR_22 2160                        STR_15 21D4                        STR_31 21AC  
                      STR_23 2164                        STR_40 21EC                        STR_32 21E4  
                      STR_24 21E0                        STR_16 21C0                        STR_41 21EC  
                      STR_33 21D8                        STR_17 21B4                        STR_25 2168  
                      STR_50 21EC                        STR_26 21C8                        STR_18 2198  
                      STR_34 2194                        STR_42 214C                        STR_51 21EC  
                      STR_43 21EC                        STR_27 21B8                        STR_35 21A4  
                      STR_19 2184                        STR_52 21EC                        STR_44 21EC  
                      STR_28 21B0                        STR_36 218C                        STR_60 211C  
                      STR_53 21EC                        STR_45 21EC                        STR_37 21EC  
                      STR_29 21E8                        STR_61 2104                        STR_62 21EC  
                      STR_38 21EC                        STR_54 210C                        STR_46 2037  
                      STR_70 202C                        STR_47 21EC                        STR_39 21EC  
                      STR_71 2063                        STR_55 2058                        STR_63 2042  
                      STR_64 21EC                        STR_56 2124                        STR_80 20BB  
                      STR_72 206E                        STR_48 204D                        STR_81 21EC  
                      STR_73 21EC                        STR_49 21EC                        STR_65 213C  
                      STR_57 2134                        STR_74 21EC                        STR_58 21EC  
                      STR_90 212C                        STR_66 20B0                        STR_82 20A5  
                      STR_91 212C                        STR_83 21EC                        STR_75 2154  
                      STR_59 2114                        STR_67 2084                        STR_76 21EC  
                      STR_84 20E7                        STR_68 2079                        STR_92 2020  
                      STR_85 21EC                        STR_77 20FC                        STR_93 20F2  
                      STR_69 208F                        STR_78 21EC                        STR_86 20D1  
                      STR_94 200A                        STR_79 2144                        STR_87 209A  
                      STR_88 20DC              __end_of___flmul 1000                        STR_89 20C6  
            __end_of___fltol 087D              ___awdiv@divisor 0076              __end_of___lwdiv 1B2D  
            __end_of___lwmod 1AF1              ___awdiv@counter 0020                        _RCREG 0199  
                      _RCSTA 019D                        _SPBRG 019B                        _PORTA 000C  
                      _PORTB 000D                        _TRISA 008C                        _TRISB 008D  
                      _TXREG 019A                        _TXSTA 019E                        _cgets 1C10  
                      _getch 19A7              __end_of_dpowers 200A              __end_of_isdigit 19D3  
                      atoi@a 0021                        atoi@s 0023                        _putch 19B7  
                      gets@s 007A                        main@j 013E                        main@k 013A  
                      status 0003                        wtemp0 007E              __end_of_strcspn 1ABD  
          _write_data_eeprom 1B2D              __initialization 07FB                 __end_of_atoi 1D45  
               __end_of_gets 19A7                 __end_of_main 07EB           ?_write_data_eeprom 0074  
                     ??_atoi 0078                       ??_gets 007A                       ??_main 0054  
        ??_write_data_eeprom 0020                       ?_cgets 0072                       ?_getch 0070  
                     _ADCON0 009D                       _ADCON1 009E                       _ADRESH 009C  
                     _ADRESL 009B                       _EEDATA 0193                       _EECON1 0195  
                     _EECON2 0196             ___awdiv@dividend 0078                       ?_putch 0070  
                     _ANSELB 018D                       _FVRCON 0117                       _OSCCON 0099  
           __end_of___xxtofl 1DEF    __end_of_write_data_eeprom 1B75                    ??___fladd 0020  
                     ___wmul 1A1B                    ??___fldiv 0042                    ??___awdiv 007A  
                  ??___flmul 0028                    ??___fltol 003E             __end_of_initUART 19B7  
                  ??___lwdiv 0074                    ??___lwmod 007C                       _getche 0802  
                     cgets@c 0076                       cgets@s 0078             ___awdiv@quotient 0022  
       __end_of_eeprom_write 1A8D                       _printf 0035                       main@lp 0130  
                     main@lt 00EE                       main@lw 00EC                       _strchr 19FD  
                     _strcmp 1A3A                       _strtok 1B75                       _strspn 0005  
                  ??_isdigit 0070                    ??_strcspn 0079                 ___xxtofl@arg 007A  
               ___xxtofl@exp 0079                 ___xxtofl@val 0070      __end_of__initialization 07FD  
            eeprom_read@addr 0073                   ___fltol@f1 003A                 ??_AD_convert 0072  
             __pcstackCOMMON 0070                __end_of_cgets 1C67                __end_of_getch 19AF  
              __end_of_putch 19C1            eeprom_write@value 0070                      ??_cgets 0074  
                    ??_getch 0070                      ??_putch 0070           __end_of_AD_convert 19E8  
                 __pbssBANK0 006F            __end_of__Umul8_16 1027                   __pmaintext 087D  
                    ?___wmul 0070                      ?_getche 0070                      _APFCON1 011D  
                    ?_printf 0020                      ?_strchr 0070                      ?_strcmp 0070  
                    ?_strtok 0020                      ?_strspn 0077                    ?___xxtofl 0070  
                  ?_initUART 0070          read_data_eeprom@adr 0074                      ___fladd 0BB9  
                    ___fldiv 0A0F                      ___awdiv 1C67                      ___flmul 0DC5  
                    ___fltol 080C                      ___lwdiv 1AF1                      ___lwmod 1ABD  
                    __ptext1 1B2D                      __ptext2 1A63                      __ptext3 1B75  
                    __ptext4 0005                      __ptext5 1A8D                      __ptext6 19FD  
                    __ptext7 1A3A                      __ptext8 1BC1                      __ptext9 19E8  
                    _dpowers 2000                      _isdigit 19C1                   ??___xxtofl 0074  
                    cgets@s1 0079                      getche@c 0071                      main@cmd 006D  
                    main@nip 0120                      main@npd 0126                      main@val 0063  
                    main@nsp 0061                      main@ptr 006E                      main@tmp 00A0  
                    _strcspn 1A8D         end_of_initialization 07FD                   ??_initUART 0070  
               _eeprom_write 1A63                      printf@c 002F                      printf@f 0020  
                    psplit$0 4F006F                      psplit$1 6F0070                      psplit$2 700071  
                    psplit$3 710072                      psplit$4 720073                      psplit$5 730074  
                    psplit$6 740075                      psplit$7 750076                      psplit$8 760077  
                    psplit$9 770078                      strcmp@r 0073                      strspn@i 007B  
read_data_eeprom@set_value_h 0028  read_data_eeprom@set_value_l 0020                  ___fladd@grs 007B  
                 main@LP_ADR 00C8                   main@LT_ADR 00D0                   main@LW_ADR 00CC  
              ___xxtofl@sign 0078                  ___fldiv@grs 004E                  ___fldiv@rem 0047  
       pnum$maintext_split_1 006F         pnum$maintext_split_2 0070         pnum$maintext_split_3 0071  
       pnum$maintext_split_4 0072         pnum$maintext_split_5 0073         pnum$maintext_split_6 0074  
       pnum$maintext_split_7 0075         pnum$maintext_split_8 0076         pnum$maintext_split_9 0077  
                ___flmul@grs 002E                ??_eeprom_read 0070                   main@mx_spd 0059  
             __end_of___wmul 1A3A               __end_of_getche 080C               __end_of_printf 0107  
             __end_of_strchr 1A1B               __end_of_strcmp 1A63               __end_of_strtok 1BC1  
             __end_of_strspn 0035          start_initialization 07FB             _read_data_eeprom 1BC1  
                   ??___wmul 0074          __end_of_eeprom_read 19FD                    __Umul8_16 1004  
                   ??_getche 0071                     ??_printf 0026                     ??_strchr 0074  
                   ??_strcmp 0072                     ??_strtok 0022                     ??_strspn 0079  
                  ___fladd@a 0074                    ___fladd@b 0070                    ___fldiv@a 003A  
                  ___fldiv@b 003E                    ___flmul@a 0024                    ___flmul@b 0020  
                  ___latbits 0003                __pcstackBANK0 0020                __pcstackBANK1 00A0  
              __pcstackBANK2 0120             eeprom_write@addr 0073             ___lwdiv@dividend 0072  
                   ?___fladd 0070                     ?___fldiv 003A                     ?___awdiv 0076  
                   ?___flmul 0020                     ?___fltol 003A                   ?__Umul8_16 0070  
                   ?___lwdiv 0070                     ?___lwmod 0078                     _DAC1CON0 0118  
                   _DAC1CON1 0119                     ?_isdigit 0070             ___lwdiv@quotient 0075  
       write_data_eeprom@adr 0074                     ?_strcspn 0077               ___wmul@product 0074  
                _eeprom_read 19E8                   _ADCON0bits 009D                    main@j_330 00E2  
                  main@k_314 0065                    main@k_331 0067                    main@k_332 0069  
          ___wmul@multiplier 0070                    main@k_335 00E4                   printf@flag 002C  
                  main@c_pzt 012A                   printf@prec 002A                    main@ndcnt 012C  
                  main@intvl 013C                    main@t_npd 006B                    main@pzt_d 00E6  
                  main@pzt_l 00EA                    main@pzt_t 00E0            AD_convert@channel 0070  
                 _EECON1bits 0195     __end_of_read_data_eeprom 1C10                  ??__Umul8_16 0072  
               pnum$maintext 004F                  _isdigit$940 0070       write_data_eeprom@value 0078  
  read_data_eeprom@set_value 0024                     ___xxtofl 1D45              ___lwdiv@divisor 0070  
            ___lwdiv@counter 0077                     __ptext10 0035                     __ptext11 1ABD  
                   __ptext20 19C1                     __ptext12 1AF1                     __ptext21 1A1B  
                   __ptext13 19AF                     __ptext22 1D45                     __ptext14 19A1  
                   __ptext23 080C                     __ptext15 1C10                     __ptext24 0DC5  
                   __ptext16 0802                     __ptext25 1004                     __ptext17 19B7  
                   __ptext26 0A0F                     __ptext18 19A7                     __ptext27 0BB9  
                   __ptext19 1CC7                     __ptext28 1C67                     __ptext29 19D3  
                   _initUART 19AF                   _AD_convert 19D3                     atoi@sign 0020  
                  printf@val 002D                     main@dist 0138                     main@rcmd 0132  
                   main@npos 0136                    putch@byte 0070                   _INTCONbits 000B  
             __pstringtext10 2079               __pstringtext11 2084               __pstringtext20 20E7  
             __pstringtext12 208F               __pstringtext21 20F2               __pstringtext13 209A  
             __pstringtext30 213C               __pstringtext22 20FC               __pstringtext14 20A5  
             __pstringtext31 2144               __pstringtext23 2104               __pstringtext15 20B0  
             __pstringtext40 2174               __pstringtext32 214C               __pstringtext24 210C  
             __pstringtext16 20BB               __pstringtext41 2178               __pstringtext33 2154  
             __pstringtext25 2114               __pstringtext17 20C6               __pstringtext50 219C  
             __pstringtext42 217C               __pstringtext34 215C               __pstringtext26 211C  
             __pstringtext18 20D1               __pstringtext51 21A0               __pstringtext43 2180  
             __pstringtext35 2160               __pstringtext27 2124               __pstringtext19 20DC  
             __pstringtext60 21C4               __pstringtext52 21A4               __pstringtext44 2184  
             __pstringtext36 2164               __pstringtext28 212C               __pstringtext61 21C8  
             __pstringtext53 21A8               __pstringtext45 2188               __pstringtext37 2168  
             __pstringtext29 2134               __pstringtext70 21EC               __pstringtext62 21CC  
             __pstringtext54 21AC               __pstringtext46 218C               __pstringtext38 216C  
             __pstringtext71 0000               __pstringtext63 21D0               __pstringtext55 21B0  
             __pstringtext47 2190               __pstringtext39 2170               __pstringtext64 21D4  
             __pstringtext56 21B4               __pstringtext48 2194               __pstringtext65 21D8  
             __pstringtext57 21B8               __pstringtext49 2198               __pstringtext66 21DC  
             __pstringtext58 21BC               __pstringtext67 21E0               __pstringtext59 21C0  
             __pstringtext68 21E4               __pstringtext69 21E8                     isdigit@c 0071  
                  strchr@chr 0072                main@NDCNT_ADR 0122             ___lwmod@dividend 007A  
                  strchr@ptr 0070                    strcspn@s1 007D                    strcspn@s2 0077  
              main@INTVL_ADR 00D4                     printf@ap 002B                __pstringtext1 2000  
              __pstringtext2 2020                __pstringtext3 202C                __pstringtext4 2037  
              __pstringtext5 2042                __pstringtext6 204D                __pstringtext7 2058  
              __pstringtext8 2063                __pstringtext9 206E       __Umul8_16@multiplicand 0070  
                 _OPTION_REG 0095                     strcmp@s1 0074                     strcmp@s2 0070  
            ___lwmod@divisor 0078              ___lwmod@counter 007D                     strcspn@i 007B  
                   strtok@s1 0024                     strtok@s2 0020                     strspn@s1 007D  
                   strspn@s2 0077                     strtok@sp 006F                ___fladd@signs 0078  
 write_data_eeprom@set_value 0025                ?_eeprom_write 0070                 ___fladd@aexp 0079  
               ___fladd@bexp 007A                  main@NIP_ADR 00DC                   _STATUSbits 0003  
                main@NPD_ADR 00D8         __Umul8_16@multiplier 0078                 ?_eeprom_read 0070  
          __Umul8_16@product 0074  
