Microchip MPLAB XC8 Compiler V2.41

Linker command line:

-W-3 \
  --edf=C:\Program Files\Microchip\xc8\v2.41\pic\dat\20230208172133_en.msgs \
  -cn -h+dist/default/production\m-ctrl.X.production.sym \
  --cmf=dist/default/production\m-ctrl.X.production.cmf -z -Q16F648A \
  -oC:\Users\user\AppData\Local\Temp\xcAs30g.\driver_tmp_3.o \
  --defsym=__MPLAB_BUILD=1 --fixupoverflow=error \
  -Mdist/default/production/m-ctrl.X.production.map \
  --md=C:\Users\user\AppData\Local\Temp\xcAs30g.\driver_tmp_0.dat -E1 \
  -ver=XC8 Compiler --acfsm=1493 -ACODE=00h-07FFhx2 -ASTRCODE=00h-0FFFh \
  -ASTRING=00h-0FFhx16 -ACONST=00h-0FFhx16 -AENTRY=00h-0FFhx16 \
  -ACOMMON=070h-07Fh -ABANK0=020h-06Fh -ABANK1=0A0h-0EFh \
  -ABANK2=0120h-016Fh -ARAM=020h-06Fh,0A0h-0EFh,0120h-016Fh \
  -AABS1=020h-07Fh,0A0h-0EFh,0120h-016Fh -ASFR0=00h-01Fh -ASFR1=080h-09Fh \
  -ASFR2=0100h-011Fh -ASFR3=0180h-01EFh -ACONFIG=02007h-02007h -DCONFIG=2 \
  -AIDLOC=02000h-02003h -DIDLOC=2 -AEEDATA=00h-0FFh/02100h \
  -peeprom_data=EEDATA -DEEDATA=2 -DCODE=2 -DSTRCODE=2 -DSTRING=2 -DCONST=2 \
  -DENTRY=2 -preset_vec=00h,intentry,init,end_init -ppowerup=CODE \
  -pcinit=CODE -pfunctab=ENTRY -k \
  C:\Users\user\AppData\Local\Temp\xcAs30g.\driver_tmp_19.o \
  dist/default/production\m-ctrl.X.production.o 

Object code version is 3.11

Machine type is 16F648A



                Name                               Link     Load   Length Selector   Space Scale
C:\Users\user\AppData\Local\Temp\xcAs30g.\driver_tmp_19.o
                end_init                              0        0        2        0       0
                config                             2007     2007        1        0       4
                idloc                              2000     2000        4        0       5
dist/default/production\m-ctrl.X.production.o
                cinit                               7FA      7FA        6      FF4       0
                config                             2007     2007        1        0       4
                idloc                              2000     2000        4        0       5
                text18                              2B6      2B6       25      56C       0
                text17                              26F      26F       12      4DE       0
                text16                              450      450       77      8A0       0
                text15                              23E      23E        8      47C       0
                text14                              246      246        A      48C       0
                text13                              250      250        A      4A0       0
                text12                              3F9      3F9       57      7F2       0
                text11                              238      238        6      470       0
                text10                              264      264        B      4C8       0
                text9                               36F      36F       44      6DE       0
                text8                               335      335       3A      66A       0
                text7                               4C7      4C7       EC      98E       0
                text6                               281      281       19      502       0
                text5                               25A      25A        A      4B4       0
                text4                               29A      29A       1C      534       0
                text3                               2DB      2DB       2D      5B6       0
                text2                               308      308       2D      610       0
                text1                               3B3      3B3       46      766       0
                maintext                            5B3      5B3      247      B66       0
                cstackBANK0                          20       20       2B       20       1
                cstackCOMMON                         70       70        E       70       1
                bssBANK0                             4B       4B        1       20       1
                strings                               2        2       79        4       0

TOTAL           Name                               Link     Load   Length     Space
        CLASS   CODE           
                end_init                              0        0        2         0
                cinit                               7FA      7FA        6         0
                text18                              2B6      2B6       25         0
                text17                              26F      26F       12         0
                text16                              450      450       77         0
                text15                              23E      23E        8         0
                text14                              246      246        A         0
                text13                              250      250        A         0
                text12                              3F9      3F9       57         0
                text11                              238      238        6         0
                text10                              264      264        B         0
                text9                               36F      36F       44         0
                text8                               335      335       3A         0
                text7                               4C7      4C7       EC         0
                text6                               281      281       19         0
                text5                               25A      25A        A         0
                text4                               29A      29A       1C         0
                text3                               2DB      2DB       2D         0
                text2                               308      308       2D         0
                text1                               3B3      3B3       46         0
                maintext                            5B3      5B3      247         0

        CLASS   STRCODE        

        CLASS   STRING         
                strings                               2        2       79         0

        CLASS   CONST          

        CLASS   ENTRY          

        CLASS   COMMON         
                cstackCOMMON                         70       70        E         1

        CLASS   BANK0          
                cstackBANK0                          20       20       2B         1
                bssBANK0                             4B       4B        1         1

        CLASS   BANK1          

        CLASS   BANK2          

        CLASS   RAM            

        CLASS   ABS1           
                abs_s1                               7E       7E        2         1

        CLASS   SFR0           

        CLASS   SFR1           

        CLASS   SFR2           

        CLASS   SFR3           

        CLASS   CONFIG         
                config                             2007     2007        1         4

        CLASS   IDLOC          
                idloc                              2000     2000        4         5

        CLASS   EEDATA         

        CLASS   BANK3          

        CLASS   STACK          



SEGMENTS        Name                           Load    Length   Top    Selector   Space  Class     Delta

                reset_vec                      000000  000002  000002         0       0  CODE        2
                strings                        000002  000079  00007B         4       0  STRING      2
                cstackBANK0                    000020  00002C  00004C        20       1  BANK0       1
                cstackCOMMON                   000070  00000E  00007E        70       1  COMMON      1
                text11                         000238  000006  00023E       470       0  CODE        2
                text15                         00023E  000008  000246       47C       0  CODE        2
                text14                         000246  00000A  000250       48C       0  CODE        2
                text13                         000250  00000A  00025A       4A0       0  CODE        2
                text5                          00025A  00000A  000264       4B4       0  CODE        2
                text10                         000264  00000B  00026F       4C8       0  CODE        2
                text17                         00026F  000012  000281       4DE       0  CODE        2
                text6                          000281  000019  00029A       502       0  CODE        2
                text4                          00029A  00001C  0002B6       534       0  CODE        2
                text18                         0002B6  000025  0002DB       56C       0  CODE        2
                text3                          0002DB  00002D  000308       5B6       0  CODE        2
                text2                          000308  00002D  000335       610       0  CODE        2
                text8                          000335  00003A  00036F       66A       0  CODE        2
                text9                          00036F  000044  0003B3       6DE       0  CODE        2
                text1                          0003B3  000046  0003F9       766       0  CODE        2
                text12                         0003F9  000057  000450       7F2       0  CODE        2
                text16                         000450  000077  0004C7       8A0       0  CODE        2
                text7                          0004C7  0000EC  0005B3       98E       0  CODE        2
                maintext                       0005B3  000247  0007FA       B66       0  CODE        2
                cinit                          0007FA  000006  000800       FF4       0  CODE        2


UNUSED ADDRESS RANGES

        Name                Unused          Largest block    Delta
        BANK0            004C-006F             24           1
        BANK1            00A0-00EF             50           1
        BANK2            0120-016F             50           1
        CODE             007B-0237            1BD           2
                         0800-0FFF            800
        CONST            007B-0237            100           2
                         0800-0FFF            100
        EEDATA           2100-21FF            100           2
        ENTRY            007B-0237            100           2
                         0800-0FFF            100
        RAM              004C-006F             24           1
                         00A0-00EF             50
                         0120-016F             50
        SFR0             0000-001F             20           1
        SFR1             0080-009F             20           1
        SFR2             0100-011F             20           1
        SFR3             0180-01EF             70           1
        STRCODE          007B-0237            1BD           2
                         0800-0FFF            800
        STRING           007B-0237            100           2
                         0800-0FFF            100

                                  Symbol Table

?___lwdiv                cstackCOMMON 0070
?___lwmod                cstackCOMMON 0077
?___wmul                 cstackCOMMON 0070
?_atoi                   cstackCOMMON 0076
?_printf                 cstackCOMMON 007C
?_strcspn                cstackCOMMON 0073
?_strspn                 cstackCOMMON 0073
_CMCON                   (abs)        001F
_PORTA                   (abs)        0005
_PORTB                   (abs)        0006
_RB4                     (abs)        0034
_RB5                     (abs)        0035
_RB6                     (abs)        0036
_RB7                     (abs)        0037
_RCIF                    (abs)        0065
_RCREG                   (abs)        001A
_RCSTA                   (abs)        0018
_SPBRG                   (abs)        0099
_TRISA                   (abs)        0085
_TRISB                   (abs)        0086
_TXIF                    (abs)        0064
_TXREG                   (abs)        0019
_TXSTA                   (abs)        0098
__H__absolute__          __absolute__ 0000
__Habs1                  abs1         0000
__Hbank0                 bank0        0000
__Hbank1                 bank1        0000
__Hbank2                 bank2        0000
__Hbank3                 bank3        0000
__HbssBANK0              bssBANK0     0000
__Hcinit                 cinit        0800
__Hclrtext               clrtext      0000
__Hcode                  code         0000
__Hcommon                common       0000
__Hconfig                config       2008
__HcstackBANK0           cstackBANK0  0000
__HcstackCOMMON          cstackCOMMON 0000
__Heeprom_data           eeprom_data  0000
__Hend_init              end_init     0002
__Hfunctab               functab      0000
__Hidloc                 idloc        2004
__Hinit                  init         0000
__Hintentry              intentry     0000
__Hmaintext              maintext     0000
__Hpowerup               powerup      0000
__Hram                   ram          0000
__Hreset_vec             reset_vec    0000
__Hsfr0                  sfr0         0000
__Hsfr1                  sfr1         0000
__Hsfr2                  sfr2         0000
__Hsfr3                  sfr3         0000
__Hspace_0               (abs)        0800
__Hspace_1               (abs)        007E
__Hspace_2               (abs)        0000
__Hspace_3               (abs)        0000
__Hspace_4               (abs)        400F
__Hstack                 stack        0000
__Hstrings               strings      0000
__Htext                  text         0000
__L__absolute__          __absolute__ 0000
__Labs1                  abs1         0000
__Lbank0                 bank0        0000
__Lbank1                 bank1        0000
__Lbank2                 bank2        0000
__Lbank3                 bank3        0000
__LbssBANK0              bssBANK0     0000
__Lcinit                 cinit        07FA
__Lclrtext               clrtext      0000
__Lcode                  code         0000
__Lcommon                common       0000
__Lconfig                config       0000
__LcstackBANK0           cstackBANK0  0000
__LcstackCOMMON          cstackCOMMON 0000
__Leeprom_data           eeprom_data  0000
__Lend_init              end_init     0000
__Lfunctab               functab      0000
__Lidloc                 idloc        0000
__Linit                  init         0000
__Lintentry              intentry     0000
__Lmaintext              maintext     0000
__Lpowerup               powerup      0000
__Lram                   ram          0000
__Lreset_vec             reset_vec    0000
__Lsfr0                  sfr0         0000
__Lsfr1                  sfr1         0000
__Lsfr2                  sfr2         0000
__Lsfr3                  sfr3         0000
__Lspace_0               (abs)        0000
__Lspace_1               (abs)        0000
__Lspace_2               (abs)        0000
__Lspace_3               (abs)        0000
__Lspace_4               (abs)        0000
__Lstack                 stack        0000
__Lstrings               strings      0000
__Ltext                  text         0000
__S0                     (abs)        0800
__S1                     (abs)        007E
__S3                     (abs)        0000
___int_sp                stack        0000
___latbits               (abs)        0001
___lwdiv                 text9        036F
___lwdiv@counter         cstackCOMMON 0076
___lwdiv@dividend        cstackCOMMON 0072
___lwdiv@divisor         cstackCOMMON 0070
___lwdiv@quotient        cstackCOMMON 0074
___lwmod                 text8        0335
___lwmod@counter         cstackCOMMON 007B
___lwmod@dividend        cstackCOMMON 0079
___lwmod@divisor         cstackCOMMON 0077
___sp                    stack        0000
___stackhi               (abs)        0000
___stacklo               (abs)        0000
___wmul                  text18       02B6
___wmul@multiplicand     cstackCOMMON 0072
___wmul@multiplier       cstackCOMMON 0070
___wmul@product          cstackCOMMON 0074
__end_of___lwdiv         text9        03B3
__end_of___lwmod         text8        036F
__end_of___wmul          text18       02DB
__end_of__initialization cinit        07FD
__end_of__stringtab      strings      0012
__end_of_atoi            text16       04C7
__end_of_cgets           text12       0450
__end_of_cputs           text6        029A
__end_of_dpowers         strings      001C
__end_of_getch           text15       0246
__end_of_getche          text13       025A
__end_of_gets            text11       023E
__end_of_initUART        text10       026F
__end_of_isdigit         text17       0281
__end_of_main            maintext     07FA
__end_of_printf          text7        05B3
__end_of_putch           text14       0250
__end_of_puts            text5        0264
__end_of_strchr          text4        02B6
__end_of_strcspn         text3        0308
__end_of_strspn          text2        0335
__end_of_strtok          text1        03F9
__initialization         cinit        07FA
__pbssBANK0              bssBANK0     004B
__pcstackBANK0           cstackBANK0  0020
__pcstackCOMMON          cstackCOMMON 0070
__pmaintext              maintext     05B3
__pstrings               strings      0002
__ptext1                 text1        03B3
__ptext10                text10       0264
__ptext11                text11       0238
__ptext12                text12       03F9
__ptext13                text13       0250
__ptext14                text14       0246
__ptext15                text15       023E
__ptext16                text16       0450
__ptext17                text17       026F
__ptext18                text18       02B6
__ptext2                 text2        0308
__ptext3                 text3        02DB
__ptext4                 text4        029A
__ptext5                 text5        025A
__ptext6                 text6        0281
__ptext7                 text7        04C7
__ptext8                 text8        0335
__ptext9                 text9        036F
__stringbase             strings      0011
__stringtab              strings      0002
_atoi                    text16       0450
_cgets                   text12       03F9
_cputs                   text6        0281
_dpowers                 strings      0012
_getch                   text15       023E
_getche                  text13       0250
_gets                    text11       0238
_initUART                text10       0264
_isdigit                 text17       026F
_isdigit$592             cstackCOMMON 0070
_main                    maintext     05B3
_printf                  text7        04C7
_putch                   text14       0246
_puts                    text5        025A
_strchr                  text4        029A
_strcspn                 text3        02DB
_strspn                  text2        0308
_strtok                  text1        03B3
atoi@a                   cstackCOMMON 007B
atoi@s                   cstackCOMMON 007D
atoi@sign                cstackCOMMON 007A
btemp                    (abs)        007E
cgets@c                  cstackCOMMON 0074
cgets@s                  cstackCOMMON 0076
cgets@s1                 cstackCOMMON 0077
cputs@s                  cstackCOMMON 0071
end_of_initialization    cinit        07FD
getche@c                 cstackCOMMON 0071
gets@s                   cstackCOMMON 0078
intlevel0                functab      0000
intlevel1                functab      0000
intlevel2                functab      0000
intlevel3                functab      0000
intlevel4                functab      0000
intlevel5                functab      0000
isdigit@c                cstackCOMMON 0071
main@cnt                 cstackBANK0  0044
main@intvl               cstackBANK0  0047
main@j                   cstackBANK0  0049
main@k                   cstackBANK0  0042
main@ptr                 cstackBANK0  0046
main@tmp                 cstackBANK0  002E
printf@ap                cstackBANK0  0025
printf@c                 cstackBANK0  002B
printf@cp                cstackBANK0  0026
printf@f                 cstackBANK0  002A
printf@flag              cstackBANK0  0023
printf@prec              cstackBANK0  0024
printf@val               cstackBANK0  0028
putch@byte               cstackCOMMON 0070
puts@s                   cstackCOMMON 0072
reset_vec                reset_vec    0000
start                    init         0000
start_initialization     cinit        07FA
strchr@chr               cstackCOMMON 0070
strchr@ptr               cstackCOMMON 0072
strcspn@i                cstackCOMMON 0077
strcspn@s1               cstackCOMMON 0079
strcspn@s2               cstackCOMMON 0073
strspn@i                 cstackCOMMON 0077
strspn@s1                cstackCOMMON 0079
strspn@s2                cstackCOMMON 0073
strtok@s1                cstackCOMMON 007B
strtok@s2                cstackCOMMON 007A
strtok@sp                bssBANK0     004B
wtemp0                   (abs)        007E


MODULE INFORMATION

Module		Function		Class		Link	Load	Size
C:\Program Files\Microchip\xc8\v2.41\pic\sources\c90\common\cgets.c
		_cgets         		CODE           	03F9	0000	87

C:\Program Files\Microchip\xc8\v2.41\pic\sources\c90\common\cgets.c estimated size: 87

uart.c
		_putch         		CODE           	0246	0000	10
		_initUART      		CODE           	0264	0000	11
		_getche        		CODE           	0250	0000	10
		_getch         		CODE           	023E	0000	8

uart.c estimated size: 39

C:\Program Files\Microchip\xc8\v2.41\pic\sources\c90\common\Umul16.c
		___wmul        		CODE           	02B6	0000	37

C:\Program Files\Microchip\xc8\v2.41\pic\sources\c90\common\Umul16.c estimated size: 37

C:\Program Files\Microchip\xc8\v2.41\pic\sources\c90\common\lwdiv.c
		___lwdiv       		CODE           	036F	0000	68

C:\Program Files\Microchip\xc8\v2.41\pic\sources\c90\common\lwdiv.c estimated size: 68

C:\Program Files\Microchip\xc8\v2.41\pic\sources\c90\common\strtok.c
		_strtok        		CODE           	03B3	0000	70

C:\Program Files\Microchip\xc8\v2.41\pic\sources\c90\common\strtok.c estimated size: 70

C:\Program Files\Microchip\xc8\v2.41\pic\sources\c90\common\isdigit.c
		_isdigit       		CODE           	026F	0000	18

C:\Program Files\Microchip\xc8\v2.41\pic\sources\c90\common\isdigit.c estimated size: 18

C:\Program Files\Microchip\xc8\v2.41\pic\sources\c90\common\atoi.c
		_atoi          		CODE           	0450	0000	119

C:\Program Files\Microchip\xc8\v2.41\pic\sources\c90\common\atoi.c estimated size: 119

C:\Program Files\Microchip\xc8\v2.41\pic\sources\c90\common\strcspn.c
		_strcspn       		CODE           	02DB	0000	45

C:\Program Files\Microchip\xc8\v2.41\pic\sources\c90\common\strcspn.c estimated size: 45

C:\Program Files\Microchip\xc8\v2.41\pic\sources\c90\common\puts.c
		_puts          		CODE           	025A	0000	10

C:\Program Files\Microchip\xc8\v2.41\pic\sources\c90\common\puts.c estimated size: 10

shared
		__stringtab    		STRING         	0002	0000	16
		_dpowers       		STRING         	0012	0000	10
		__initialization		CODE           	07FA	0000	3

shared estimated size: 29

C:\Program Files\Microchip\xc8\v2.41\pic\sources\c90\common\strchr.c
		_strchr        		CODE           	029A	0000	28

C:\Program Files\Microchip\xc8\v2.41\pic\sources\c90\common\strchr.c estimated size: 28

C:\Program Files\Microchip\xc8\v2.41\pic\sources\c90\common\gets.c
		_gets          		CODE           	0238	0000	6

C:\Program Files\Microchip\xc8\v2.41\pic\sources\c90\common\gets.c estimated size: 6

C:\Program Files\Microchip\xc8\v2.41\pic\sources\c90\common\cputs.c
		_cputs         		CODE           	0281	0000	25

C:\Program Files\Microchip\xc8\v2.41\pic\sources\c90\common\cputs.c estimated size: 25

C:\Program Files\Microchip\xc8\v2.41\pic\sources\c90\common\doprnt.c
		_printf        		CODE           	04C7	0000	236

C:\Program Files\Microchip\xc8\v2.41\pic\sources\c90\common\doprnt.c estimated size: 236

C:\Program Files\Microchip\xc8\v2.41\pic\sources\c90\common\lwmod.c
		___lwmod       		CODE           	0335	0000	58

C:\Program Files\Microchip\xc8\v2.41\pic\sources\c90\common\lwmod.c estimated size: 58

main.c
		_main          		CODE           	05B3	0000	583

main.c estimated size: 583

C:\Program Files\Microchip\xc8\v2.41\pic\sources\c90\common\strspn.c
		_strspn        		CODE           	0308	0000	45

C:\Program Files\Microchip\xc8\v2.41\pic\sources\c90\common\strspn.c estimated size: 45

