

Microchip MPLAB XC8 Assembler V2.41 build 20230208172133 
                                                                                               Thu Oct 26 20:32:02 2023

Microchip MPLAB XC8 C Compiler v2.41 (Free license) build 20230208172133 Og1 
     1                           	processor	16F648A
     2                           	pagewidth 120
     3                           	opt	flic
     4                           	psect	strings,global,class=STRING,delta=2,noexec
     5                           	psect	cinit,global,class=CODE,merge=1,delta=2
     6                           	psect	bssBANK0,global,class=BANK0,space=1,delta=1,noexec
     7                           	psect	cstackCOMMON,global,class=COMMON,space=1,delta=1,noexec
     8                           	psect	cstackBANK0,global,class=BANK0,space=1,delta=1,noexec
     9                           	psect	maintext,global,class=CODE,split=1,delta=2
    10                           	psect	text1,local,class=CODE,merge=1,delta=2,group=3
    11                           	psect	text2,local,class=CODE,merge=1,delta=2,group=3
    12                           	psect	text3,local,class=CODE,merge=1,delta=2,group=3
    13                           	psect	text4,local,class=CODE,merge=1,delta=2,group=3
    14                           	psect	text5,local,class=CODE,merge=1,delta=2,group=3
    15                           	psect	text6,local,class=CODE,merge=1,delta=2,group=1
    16                           	psect	text7,local,class=CODE,merge=1,delta=2
    17                           	psect	text8,local,class=CODE,merge=1,delta=2
    18                           	psect	text9,local,class=CODE,merge=1,delta=2,group=3
    19                           	psect	text10,local,class=CODE,merge=1,delta=2,group=3
    20                           	psect	text11,local,class=CODE,merge=1,delta=2,group=2
    21                           	psect	text12,local,class=CODE,merge=1,delta=2,group=2
    22                           	psect	idloc,global,abs,ovrld,class=IDLOC,space=5,delta=2,noexec
    23                           	psect	config,global,abs,ovrld,class=CONFIG,space=4,delta=2,noexec
    24                           	dabs	1,0x7E,2
    25     0000                     
    26                           ; Generated 09/02/2023 GMT
    27                           ; 
    28                           ; Copyright © 2023, Microchip Technology Inc. and its subsidiaries ("Microchip")
    29                           ; All rights reserved.
    30                           ; 
    31                           ; This software is developed by Microchip Technology Inc. and its subsidiaries ("Microch
      +                          ip").
    32                           ; 
    33                           ; Redistribution and use in source and binary forms, with or without modification, are
    34                           ; permitted provided that the following conditions are met:
    35                           ; 
    36                           ;     1. Redistributions of source code must retain the above copyright notice, this lis
      +                          t of
    37                           ;        conditions and the following disclaimer.
    38                           ; 
    39                           ;     2. Redistributions in binary form must reproduce the above copyright notice, this 
      +                          list
    40                           ;        of conditions and the following disclaimer in the documentation and/or other
    41                           ;        materials provided with the distribution. Publication is not required when
    42                           ;        this file is used in an embedded application.
    43                           ; 
    44                           ;     3. Microchip's name may not be used to endorse or promote products derived from th
      +                          is
    45                           ;        software without specific prior written permission.
    46                           ; 
    47                           ; THIS SOFTWARE IS PROVIDED BY MICROCHIP "AS IS" AND ANY EXPRESS OR IMPLIED WARRANTIES,
    48                           ; INCLUDING, BUT NOT LIMITED TO, THE IMPLIED WARRANTIES OF MERCHANTABILITY AND FITNESS F
      +                          OR
    49                           ; PURPOSE ARE DISCLAIMED.  IN NO EVENT SHALL MICROCHIP BE LIABLE FOR ANY DIRECT, INDIREC
      +                          T,
    50                           ; INCIDENTAL, SPECIAL, EXEMPLARY, OR CONSEQUENTIAL DAMAGES (INCLUDING BUT NOT LIMITED TO
    51                           ; PROCUREMENT OF SUBSTITUTE GOODS OR SERVICES; LOSS OF USE, DATA OR PROFITS; OR BUSINESS
    52                           ; INTERRUPTION) HOWSOEVER CAUSED AND ON ANY THEORY OF LIABILITY, WHETHER IN CONTRACT, ST
      +                          RICT
    53                           ; LIABILITY, OR TORT (INCLUDING NEGLIGENCE OR OTHERWISE) ARISING IN ANY WAY OUT OF THE U
      +                          SE OF
    54                           ; THIS SOFTWARE, EVEN IF ADVISED OF THE POSSIBILITY OF SUCH DAMAGE.
    55                           ; 
    56                           ; 
    57                           ; Code-generator required, PIC16F648A Definitions
    58                           ; 
    59                           ; SFR Addresses
    60     0000                     	;# 
    61     0001                     	;# 
    62     0002                     	;# 
    63     0003                     	;# 
    64     0004                     	;# 
    65     0005                     	;# 
    66     0006                     	;# 
    67     000A                     	;# 
    68     000B                     	;# 
    69     000C                     	;# 
    70     000E                     	;# 
    71     000E                     	;# 
    72     000F                     	;# 
    73     0010                     	;# 
    74     0011                     	;# 
    75     0012                     	;# 
    76     0015                     	;# 
    77     0015                     	;# 
    78     0016                     	;# 
    79     0017                     	;# 
    80     0018                     	;# 
    81     0019                     	;# 
    82     001A                     	;# 
    83     001F                     	;# 
    84     0081                     	;# 
    85     0085                     	;# 
    86     0086                     	;# 
    87     008C                     	;# 
    88     008E                     	;# 
    89     0092                     	;# 
    90     0098                     	;# 
    91     0099                     	;# 
    92     009A                     	;# 
    93     009B                     	;# 
    94     009C                     	;# 
    95     009D                     	;# 
    96     009F                     	;# 
    97     0000                     	;# 
    98     0001                     	;# 
    99     0002                     	;# 
   100     0003                     	;# 
   101     0004                     	;# 
   102     0005                     	;# 
   103     0006                     	;# 
   104     000A                     	;# 
   105     000B                     	;# 
   106     000C                     	;# 
   107     000E                     	;# 
   108     000E                     	;# 
   109     000F                     	;# 
   110     0010                     	;# 
   111     0011                     	;# 
   112     0012                     	;# 
   113     0015                     	;# 
   114     0015                     	;# 
   115     0016                     	;# 
   116     0017                     	;# 
   117     0018                     	;# 
   118     0019                     	;# 
   119     001A                     	;# 
   120     001F                     	;# 
   121     0081                     	;# 
   122     0085                     	;# 
   123     0086                     	;# 
   124     008C                     	;# 
   125     008E                     	;# 
   126     0092                     	;# 
   127     0098                     	;# 
   128     0099                     	;# 
   129     009A                     	;# 
   130     009B                     	;# 
   131     009C                     	;# 
   132     009D                     	;# 
   133     009F                     	;# 
   134     0000                     	;# 
   135     0001                     	;# 
   136     0002                     	;# 
   137     0003                     	;# 
   138     0004                     	;# 
   139     0005                     	;# 
   140     0006                     	;# 
   141     000A                     	;# 
   142     000B                     	;# 
   143     000C                     	;# 
   144     000E                     	;# 
   145     000E                     	;# 
   146     000F                     	;# 
   147     0010                     	;# 
   148     0011                     	;# 
   149     0012                     	;# 
   150     0015                     	;# 
   151     0015                     	;# 
   152     0016                     	;# 
   153     0017                     	;# 
   154     0018                     	;# 
   155     0019                     	;# 
   156     001A                     	;# 
   157     001F                     	;# 
   158     0081                     	;# 
   159     0085                     	;# 
   160     0086                     	;# 
   161     008C                     	;# 
   162     008E                     	;# 
   163     0092                     	;# 
   164     0098                     	;# 
   165     0099                     	;# 
   166     009A                     	;# 
   167     009B                     	;# 
   168     009C                     	;# 
   169     009D                     	;# 
   170     009F                     	;# 
   171     001A                     _RCREG	set	26
   172     0019                     _TXREG	set	25
   173     0018                     _RCSTA	set	24
   174     001F                     _CMCON	set	31
   175     0006                     _PORTB	set	6
   176     0005                     _PORTA	set	5
   177     0065                     _RCIF	set	101
   178     0064                     _TXIF	set	100
   179     0030                     _RB0	set	48
   180     0029                     _RA1	set	41
   181     0028                     _RA0	set	40
   182     0034                     _RB4	set	52
   183     0035                     _RB5	set	53
   184     0036                     _RB6	set	54
   185     0098                     _TXSTA	set	152
   186     0099                     _SPBRG	set	153
   187     0086                     _TRISB	set	134
   188     0085                     _TRISA	set	133
   189                           
   190                           	psect	strings
   191     0002                     __pstrings:
   192     0002                     stringtab:
   193     0002                     __stringtab:
   194     0002                     stringcode:	
   195                           ;	String table - string pointers are 1 byte each
   196                           
   197     0002                     stringdir:
   198     0002  3000               	movlw	high stringdir
   199     0003  008A               	movwf	10
   200     0004  0804               	movf	4,w
   201     0005  0A84               	incf	4,f
   202     0006  0782               	addwf	2,f
   203     0007                     __stringbase:
   204     0007  3400               	retlw	0
   205     0008                     __end_of__stringtab:
   206     0008                     STR_38:
   207     0008  3443               	retlw	67	;'C'
   208     0009  3409               	retlw	9
   209     000A  3456               	retlw	86	;'V'
   210     000B  3445               	retlw	69	;'E'
   211     000C  3452               	retlw	82	;'R'
   212     000D  3453               	retlw	83	;'S'
   213     000E  3449               	retlw	73	;'I'
   214     000F  344F               	retlw	79	;'O'
   215     0010  344E               	retlw	78	;'N'
   216     0011  3420               	retlw	32	;' '
   217     0012  3432               	retlw	50	;'2'
   218     0013  340D               	retlw	13
   219     0014  340A               	retlw	10
   220     0015  3400               	retlw	0
   221     0016                     STR_37:
   222     0016  3443               	retlw	67	;'C'
   223     0017  3409               	retlw	9
   224     0018  3452               	retlw	82	;'R'
   225     0019  3445               	retlw	69	;'E'
   226     001A  3441               	retlw	65	;'A'
   227     001B  3444               	retlw	68	;'D'
   228     001C  3459               	retlw	89	;'Y'
   229     001D  340D               	retlw	13
   230     001E  340A               	retlw	10
   231     001F  3400               	retlw	0
   232     0020                     STR_21:
   233     0020  3443               	retlw	67	;'C'
   234     0021  3409               	retlw	9
   235     0022  3457               	retlw	87	;'W'
   236     0023  3454               	retlw	84	;'T'
   237     0024  3442               	retlw	66	;'B'
   238     0025  340D               	retlw	13
   239     0026  340A               	retlw	10
   240     0027  3400               	retlw	0
   241     0028                     STR_27:
   242     0028  3443               	retlw	67	;'C'
   243     0029  3409               	retlw	9
   244     002A  344F               	retlw	79	;'O'
   245     002B  3453               	retlw	83	;'S'
   246     002C  3443               	retlw	67	;'C'
   247     002D  340D               	retlw	13
   248     002E  340A               	retlw	10
   249     002F  3400               	retlw	0
   250     0030                     STR_31:
   251     0030  3443               	retlw	67	;'C'
   252     0031  3409               	retlw	9
   253     0032  344E               	retlw	78	;'N'
   254     0033  3444               	retlw	68	;'D'
   255     0034  3444               	retlw	68	;'D'
   256     0035  340D               	retlw	13
   257     0036  340A               	retlw	10
   258     0037  3400               	retlw	0
   259     0038                     STR_34:
   260     0038  3443               	retlw	67	;'C'
   261     0039  3409               	retlw	9
   262     003A  344E               	retlw	78	;'N'
   263     003B  3450               	retlw	80	;'P'
   264     003C  3444               	retlw	68	;'D'
   265     003D  340D               	retlw	13
   266     003E  340A               	retlw	10
   267     003F  3400               	retlw	0
   268     0040                     STR_32:
   269     0040  3443               	retlw	67	;'C'
   270     0041  3409               	retlw	9
   271     0042  344E               	retlw	78	;'N'
   272     0043  3453               	retlw	83	;'S'
   273     0044  3444               	retlw	68	;'D'
   274     0045  340D               	retlw	13
   275     0046  340A               	retlw	10
   276     0047  3400               	retlw	0
   277     0048                     STR_28:
   278     0048  3443               	retlw	67	;'C'
   279     0049  3409               	retlw	9
   280     004A  344E               	retlw	78	;'N'
   281     004B  3454               	retlw	84	;'T'
   282     004C  3444               	retlw	68	;'D'
   283     004D  340D               	retlw	13
   284     004E  340A               	retlw	10
   285     004F  3400               	retlw	0
   286     0050                     STR_30:
   287     0050  3443               	retlw	67	;'C'
   288     0051  3409               	retlw	9
   289     0052  344E               	retlw	78	;'N'
   290     0053  3444               	retlw	68	;'D'
   291     0054  344F               	retlw	79	;'O'
   292     0055  340D               	retlw	13
   293     0056  340A               	retlw	10
   294     0057  3400               	retlw	0
   295     0058                     STR_36:
   296     0058  3443               	retlw	67	;'C'
   297     0059  3409               	retlw	9
   298     005A  344E               	retlw	78	;'N'
   299     005B  3453               	retlw	83	;'S'
   300     005C  3450               	retlw	80	;'P'
   301     005D  340D               	retlw	13
   302     005E  340A               	retlw	10
   303     005F  3400               	retlw	0
   304     0060                     STR_17:
   305     0060  3443               	retlw	67	;'C'
   306     0061  3409               	retlw	9
   307     0062  3452               	retlw	82	;'R'
   308     0063  3450               	retlw	80	;'P'
   309     0064  3453               	retlw	83	;'S'
   310     0065  340D               	retlw	13
   311     0066  340A               	retlw	10
   312     0067  3400               	retlw	0
   313     0068                     STR_2:
   314     0068  3457               	retlw	87	;'W'
   315     0069  3454               	retlw	84	;'T'
   316     006A  3442               	retlw	66	;'B'
   317     006B  3400               	retlw	0
   318     006C                     STR_3:
   319     006C  344F               	retlw	79	;'O'
   320     006D  3453               	retlw	83	;'S'
   321     006E  3443               	retlw	67	;'C'
   322     006F  3400               	retlw	0
   323     0070                     STR_6:
   324     0070  344E               	retlw	78	;'N'
   325     0071  3444               	retlw	68	;'D'
   326     0072  3444               	retlw	68	;'D'
   327     0073  3400               	retlw	0
   328     0074                     STR_9:
   329     0074  344E               	retlw	78	;'N'
   330     0075  3450               	retlw	80	;'P'
   331     0076  3444               	retlw	68	;'D'
   332     0077  3400               	retlw	0
   333     0078                     STR_11:
   334     0078  344E               	retlw	78	;'N'
   335     0079  3453               	retlw	83	;'S'
   336     007A  3444               	retlw	68	;'D'
   337     007B  3400               	retlw	0
   338     007C                     STR_4:
   339     007C  344E               	retlw	78	;'N'
   340     007D  3454               	retlw	84	;'T'
   341     007E  3444               	retlw	68	;'D'
   342     007F  3400               	retlw	0
   343     0080                     STR_5:
   344     0080  344E               	retlw	78	;'N'
   345     0081  3444               	retlw	68	;'D'
   346     0082  344F               	retlw	79	;'O'
   347     0083  3400               	retlw	0
   348     0084                     STR_10:
   349     0084  344E               	retlw	78	;'N'
   350     0085  3453               	retlw	83	;'S'
   351     0086  3450               	retlw	80	;'P'
   352     0087  3400               	retlw	0
   353     0088                     STR_7:
   354     0088  3456               	retlw	86	;'V'
   355     0089  3445               	retlw	69	;'E'
   356     008A  3452               	retlw	82	;'R'
   357     008B  3400               	retlw	0
   358     008C                     STR_1:
   359     008C  3452               	retlw	82	;'R'
   360     008D  3450               	retlw	80	;'P'
   361     008E  3453               	retlw	83	;'S'
   362     008F  3400               	retlw	0
   363     0090                     STR_8:
   364     0090  3453               	retlw	83	;'S'
   365     0091  3454               	retlw	84	;'T'
   366     0092  3453               	retlw	83	;'S'
   367     0093  3400               	retlw	0
   368     0094                     STR_12:
   369     0094  342F               	retlw	47	;'/'
   370     0095  3400               	retlw	0
   371     0094                     
   372                           	psect	cinit
   373     07FA                     start_initialization:	
   374                           ; #config settings
   375                           
   376     07FA                     __initialization:
   377                           
   378                           ; Clear objects allocated to BANK0
   379     07FA  1283               	bcf	3,5	;RP0=0, select bank0
   380     07FB  1303               	bcf	3,6	;RP1=0, select bank0
   381     07FC  01DF               	clrf	__pbssBANK0& (0+127)
   382     07FD                     end_of_initialization:	
   383                           ;End of C runtime variable initialization code
   384                           
   385     07FD                     __end_of__initialization:
   386     07FD  0183               	clrf	3
   387     07FE  118A  2947         	ljmp	_main	;jump to C main() function
   388                           
   389                           	psect	bssBANK0
   390     005F                     __pbssBANK0:
   391     005F                     strtok@sp:
   392     005F                     	ds	1
   393                           
   394                           	psect	cstackCOMMON
   395     0070                     __pcstackCOMMON:
   396     0070                     ?_isdigit:
   397     0070                     ?_initUART:	
   398                           ; 1 bit 
   399                           
   400     0070                     ??_initUART:	
   401                           ; 1 bytes @ 0x0
   402                           
   403     0070                     ??_isdigit:	
   404                           ; 1 bytes @ 0x0
   405                           
   406     0070                     ?_strchr:	
   407                           ; 1 bytes @ 0x0
   408                           
   409     0070                     ?_main:	
   410                           ; 1 bytes @ 0x0
   411                           
   412     0070                     ?_putch:	
   413                           ; 1 bytes @ 0x0
   414                           
   415     0070                     ??_putch:	
   416                           ; 1 bytes @ 0x0
   417                           
   418     0070                     ?_strcmp:	
   419                           ; 1 bytes @ 0x0
   420                           
   421     0070                     ?_printf:	
   422                           ; 2 bytes @ 0x0
   423                           
   424     0070                     ?___wmul:	
   425                           ; 2 bytes @ 0x0
   426                           
   427     0070                     ?___awdiv:	
   428                           ; 2 bytes @ 0x0
   429                           
   430     0070                     putch@byte:	
   431                           ; 2 bytes @ 0x0
   432                           
   433     0070                     _isdigit$617:	
   434                           ; 1 bytes @ 0x0
   435                           
   436     0070                     strcmp@s2:	
   437                           ; 1 bytes @ 0x0
   438                           
   439     0070                     ___wmul@multiplier:	
   440                           ; 1 bytes @ 0x0
   441                           
   442     0070                     ___awdiv@divisor:	
   443                           ; 2 bytes @ 0x0
   444                           
   445     0070                     strchr@chr:	
   446                           ; 2 bytes @ 0x0
   447                           
   448                           
   449                           ; 2 bytes @ 0x0
   450     0070                     	ds	1
   451     0071                     ??_printf:
   452     0071                     printf@ap:	
   453                           ; 1 bytes @ 0x1
   454                           
   455     0071                     isdigit@c:	
   456                           ; 1 bytes @ 0x1
   457                           
   458                           
   459                           ; 1 bytes @ 0x1
   460     0071                     	ds	1
   461     0072                     ??_strcmp:
   462     0072                     ??_strchr:	
   463                           ; 1 bytes @ 0x2
   464                           
   465     0072                     printf@c:	
   466                           ; 1 bytes @ 0x2
   467                           
   468     0072                     strchr@ptr:	
   469                           ; 1 bytes @ 0x2
   470                           
   471     0072                     ___wmul@multiplicand:	
   472                           ; 1 bytes @ 0x2
   473                           
   474     0072                     ___awdiv@dividend:	
   475                           ; 2 bytes @ 0x2
   476                           
   477                           
   478                           ; 2 bytes @ 0x2
   479     0072                     	ds	1
   480     0073                     ?_strspn:
   481     0073                     ?_strcspn:	
   482                           ; 2 bytes @ 0x3
   483                           
   484     0073                     printf@f:	
   485                           ; 2 bytes @ 0x3
   486                           
   487     0073                     strcspn@s2:	
   488                           ; 1 bytes @ 0x3
   489                           
   490     0073                     strspn@s2:	
   491                           ; 1 bytes @ 0x3
   492                           
   493                           
   494                           ; 1 bytes @ 0x3
   495     0073                     	ds	1
   496     0074                     ??___wmul:
   497     0074                     ??___awdiv:	
   498                           ; 1 bytes @ 0x4
   499                           
   500     0074                     ___awdiv@counter:	
   501                           ; 1 bytes @ 0x4
   502                           
   503     0074                     strcmp@r:	
   504                           ; 1 bytes @ 0x4
   505                           
   506     0074                     ___wmul@product:	
   507                           ; 1 bytes @ 0x4
   508                           
   509                           
   510                           ; 2 bytes @ 0x4
   511     0074                     	ds	1
   512     0075                     ??_strspn:
   513     0075                     ??_strcspn:	
   514                           ; 1 bytes @ 0x5
   515                           
   516     0075                     ___awdiv@sign:	
   517                           ; 1 bytes @ 0x5
   518                           
   519     0075                     strcmp@s1:	
   520                           ; 1 bytes @ 0x5
   521                           
   522                           
   523                           ; 1 bytes @ 0x5
   524     0075                     	ds	1
   525     0076                     ?_atoi:
   526     0076                     ___awdiv@quotient:	
   527                           ; 2 bytes @ 0x6
   528                           
   529                           
   530                           ; 2 bytes @ 0x6
   531     0076                     	ds	1
   532     0077                     strcspn@i:
   533     0077                     strspn@i:	
   534                           ; 2 bytes @ 0x7
   535                           
   536                           
   537                           ; 2 bytes @ 0x7
   538     0077                     	ds	1
   539     0078                     ??_atoi:
   540                           
   541                           ; 1 bytes @ 0x8
   542     0078                     	ds	1
   543     0079                     strcspn@s1:
   544     0079                     strspn@s1:	
   545                           ; 1 bytes @ 0x9
   546                           
   547                           
   548                           ; 1 bytes @ 0x9
   549     0079                     	ds	1
   550     007A                     ?_strtok:
   551     007A                     atoi@sign:	
   552                           ; 1 bytes @ 0xA
   553                           
   554     007A                     strtok@s2:	
   555                           ; 1 bytes @ 0xA
   556                           
   557                           
   558                           ; 1 bytes @ 0xA
   559     007A                     	ds	1
   560     007B                     ??_strtok:
   561     007B                     strtok@s1:	
   562                           ; 1 bytes @ 0xB
   563                           
   564     007B                     atoi@a:	
   565                           ; 1 bytes @ 0xB
   566                           
   567                           
   568                           ; 2 bytes @ 0xB
   569     007B                     	ds	2
   570     007D                     atoi@s:
   571                           
   572                           ; 1 bytes @ 0xD
   573     007D                     	ds	1
   574                           
   575                           	psect	cstackBANK0
   576     0020                     __pcstackBANK0:
   577     0020                     ??_main:
   578                           
   579                           ; 1 bytes @ 0x0
   580     0020                     	ds	1
   581     0021                     main@tmp:
   582                           
   583                           ; 40 bytes @ 0x1
   584     0021                     	ds	40
   585     0049                     main@mx_spd:
   586                           
   587                           ; 2 bytes @ 0x29
   588     0049                     	ds	2
   589     004B                     main@set_spd:
   590                           
   591                           ; 2 bytes @ 0x2B
   592     004B                     	ds	2
   593     004D                     main@npd:
   594                           
   595                           ; 2 bytes @ 0x2D
   596     004D                     	ds	2
   597     004F                     main@nsp:
   598                           
   599                           ; 2 bytes @ 0x2F
   600     004F                     	ds	2
   601     0051                     main@cmd:
   602                           
   603                           ; 1 bytes @ 0x31
   604     0051                     	ds	1
   605     0052                     main@rcmd:
   606                           
   607                           ; 4 bytes @ 0x32
   608     0052                     	ds	4
   609     0056                     main@dist:
   610                           
   611                           ; 2 bytes @ 0x36
   612     0056                     	ds	2
   613     0058                     main@ptr:
   614                           
   615                           ; 1 bytes @ 0x38
   616     0058                     	ds	1
   617     0059                     main@k:
   618                           
   619                           ; 2 bytes @ 0x39
   620     0059                     	ds	2
   621     005B                     main@intvl:
   622                           
   623                           ; 2 bytes @ 0x3B
   624     005B                     	ds	2
   625     005D                     main@j:
   626                           
   627                           ; 2 bytes @ 0x3D
   628     005D                     	ds	2
   629                           
   630                           	psect	maintext
   631     0147                     __pmaintext:	
   632 ;;
   633 ;;Main: autosize = 0, tempsize = 1, incstack = 0, save=0
   634 ;;
   635 ;; *************** function _main *****************
   636 ;; Defined at:
   637 ;;		line 58 in file "main.c"
   638 ;; Parameters:    Size  Location     Type
   639 ;;		None
   640 ;; Auto vars:     Size  Location     Type
   641 ;;  tmp            40    1[BANK0 ] unsigned char [40]
   642 ;;  rcmd            4   50[BANK0 ] unsigned char [4]
   643 ;;  ln              4    0        unsigned char [4]
   644 ;;  j               2   61[BANK0 ] int 
   645 ;;  intvl           2   59[BANK0 ] int 
   646 ;;  k               2   57[BANK0 ] int 
   647 ;;  dist            2   54[BANK0 ] int 
   648 ;;  nsp             2   47[BANK0 ] int 
   649 ;;  npd             2   45[BANK0 ] int 
   650 ;;  set_spd         2   43[BANK0 ] int 
   651 ;;  mx_spd          2   41[BANK0 ] int 
   652 ;;  cnt             2    0        int 
   653 ;;  ptr             1   56[BANK0 ] PTR unsigned char 
   654 ;;		 -> NULL(0), main@tmp(40), 
   655 ;;  cmd             1   49[BANK0 ] enum E765
   656 ;; Return value:  Size  Location     Type
   657 ;;                  1    wreg      void 
   658 ;; Registers used:
   659 ;;		wreg, fsr0l, fsr0h, status,2, status,0, btemp+1, pclath, cstack
   660 ;; Tracked objects:
   661 ;;		On entry : B00/0
   662 ;;		On exit  : 0/0
   663 ;;		Unchanged: 0/0
   664 ;; Data sizes:     COMMON   BANK0   BANK1   BANK2
   665 ;;      Params:         0       0       0       0
   666 ;;      Locals:         0      62       0       0
   667 ;;      Temps:          0       1       0       0
   668 ;;      Totals:         0      63       0       0
   669 ;;Total ram usage:       63 bytes
   670 ;; Hardware stack levels required when called: 4
   671 ;; This function calls:
   672 ;;		___awdiv
   673 ;;		___wmul
   674 ;;		_atoi
   675 ;;		_initUART
   676 ;;		_printf
   677 ;;		_strcmp
   678 ;;		_strtok
   679 ;; This function is called by:
   680 ;;		Startup code after reset
   681 ;; This function uses a non-reentrant model
   682 ;;
   683                           
   684     0147                     _main:	
   685                           ;psect for function _main
   686                           
   687     0147                     l1656:	
   688                           ;incstack = 0
   689                           ; Regs used in _main: [wreg-fsr0h+status,2+status,0+btemp+1+pclath+cstack]
   690                           
   691                           
   692                           ;main.c: 60: PORTA = 0x00;
   693     0147  1283               	bcf	3,5	;RP0=0, select bank0
   694     0148  1303               	bcf	3,6	;RP1=0, select bank0
   695     0149  0185               	clrf	5	;volatile
   696                           
   697                           ;main.c: 61: PORTB = 0x00;
   698     014A  0186               	clrf	6	;volatile
   699                           
   700                           ;main.c: 62: TRISA = 0b00000000;
   701     014B  1683               	bsf	3,5	;RP0=1, select bank1
   702     014C  1303               	bcf	3,6	;RP1=0, select bank1
   703     014D  0185               	clrf	5	;volatile
   704     014E                     l1658:
   705                           
   706                           ;main.c: 63: TRISB = 0b11110011;
   707     014E  30F3               	movlw	243
   708     014F  0086               	movwf	6	;volatile
   709     0150                     l1660:
   710                           
   711                           ;main.c: 64: CMCON = 0b00000111;
   712     0150  3007               	movlw	7
   713     0151  1283               	bcf	3,5	;RP0=0, select bank0
   714     0152  1303               	bcf	3,6	;RP1=0, select bank0
   715     0153  009F               	movwf	31	;volatile
   716     0154                     l1662:
   717                           
   718                           ;main.c: 66: initUART();
   719     0154  118A  2098  118A   	fcall	_initUART
   720     0157                     l1664:
   721     0157                     l1666:
   722     0157                     l1668:
   723     0157                     l1670:
   724                           
   725                           ;main.c: 72: int dist = 10;
   726     0157  300A               	movlw	10
   727     0158  1283               	bcf	3,5	;RP0=0, select bank0
   728     0159  1303               	bcf	3,6	;RP1=0, select bank0
   729     015A  00D6               	movwf	main@dist
   730     015B  3000               	movlw	0
   731     015C  00D7               	movwf	main@dist+1
   732     015D                     l1672:
   733                           
   734                           ;main.c: 73: int intvl = 20;
   735     015D  3014               	movlw	20
   736     015E  00DB               	movwf	main@intvl
   737     015F  3000               	movlw	0
   738     0160  00DC               	movwf	main@intvl+1
   739     0161                     l1674:
   740                           
   741                           ;main.c: 74: char rcmd[4];;main.c: 75: int mx_spd = 20250;
   742     0161  301A               	movlw	26
   743     0162  00C9               	movwf	main@mx_spd
   744     0163  304F               	movlw	79
   745     0164  00CA               	movwf	main@mx_spd+1
   746     0165                     l1676:
   747                           
   748                           ;main.c: 76: int set_spd;;main.c: 77: int npd = 2500;
   749     0165  30C4               	movlw	196
   750     0166  00CD               	movwf	main@npd
   751     0167  3009               	movlw	9
   752     0168  00CE               	movwf	main@npd+1
   753     0169                     l1678:
   754                           
   755                           ;main.c: 78: int nsp = 1000;
   756     0169  30E8               	movlw	232
   757     016A  00CF               	movwf	main@nsp
   758     016B  3003               	movlw	3
   759     016C  00D0               	movwf	main@nsp+1
   760     016D                     l1680:
   761                           
   762                           ;main.c: 79: char ln[4];;main.c: 81: char *ptr;;main.c: 83: enum command cmd;;main.c: 85
      +                          : RB6 = 1;
   763     016D  1706               	bsf	6,6	;volatile
   764     016E                     l1682:
   765                           
   766                           ;main.c: 86: RB5 = 1;
   767     016E  1686               	bsf	6,5	;volatile
   768     016F                     l1684:
   769                           
   770                           ;main.c: 87: RB4 = 1;
   771     016F  1606               	bsf	6,4	;volatile
   772     0170                     l1686:
   773                           
   774                           ;main.c: 92: cmd = NON;
   775     0170  300B               	movlw	11
   776     0171  1283               	bcf	3,5	;RP0=0, select bank0
   777     0172  1303               	bcf	3,6	;RP1=0, select bank0
   778     0173  00D1               	movwf	main@cmd
   779     0174                     l1688:
   780                           
   781                           ;main.c: 94: rcmd[0] = 'Q';
   782     0174  3051               	movlw	81
   783     0175  00D2               	movwf	main@rcmd
   784     0176                     l1690:
   785                           
   786                           ;main.c: 95: rcmd[1] = 'Q';
   787     0176  3051               	movlw	81
   788     0177  00D3               	movwf	main@rcmd+1
   789     0178                     l1692:
   790                           
   791                           ;main.c: 96: rcmd[2] = 'Q';
   792     0178  3051               	movlw	81
   793     0179  00D4               	movwf	main@rcmd+2
   794     017A                     l1694:
   795                           
   796                           ;main.c: 97: rcmd[3] = '\0';
   797     017A  01D5               	clrf	main@rcmd+3
   798     017B                     l1696:
   799                           
   800                           ;main.c: 99: tmp[0] = 'Q';
   801     017B  3051               	movlw	81
   802     017C  00A1               	movwf	main@tmp
   803     017D                     l1698:
   804                           
   805                           ;main.c: 100: tmp[1] = 'Q';
   806     017D  3051               	movlw	81
   807     017E  00A2               	movwf	main@tmp+1
   808     017F                     l1700:
   809                           
   810                           ;main.c: 101: tmp[2] = 'Q';
   811     017F  3051               	movlw	81
   812     0180  00A3               	movwf	main@tmp+2
   813     0181                     l1702:
   814                           
   815                           ;main.c: 102: tmp[3] = '\0';
   816     0181  01A4               	clrf	main@tmp+3
   817     0182                     l1704:
   818                           
   819                           ;main.c: 104: if(RB6 == 0){
   820     0182  1B06               	btfsc	6,6	;volatile
   821     0183  2985               	goto	u1361
   822     0184  2986               	goto	u1360
   823     0185                     u1361:
   824     0185  2989               	goto	l40
   825     0186                     u1360:
   826     0186                     l1706:
   827                           
   828                           ;main.c: 105: cmd = NTD;
   829     0186  3003               	movlw	3
   830     0187  00D1               	movwf	main@cmd
   831                           
   832                           ;main.c: 106: }else if(RB5 == 0){
   833     0188  2996               	goto	l41
   834     0189                     l40:
   835     0189  1A86               	btfsc	6,5	;volatile
   836     018A  298C               	goto	u1371
   837     018B  298D               	goto	u1370
   838     018C                     u1371:
   839     018C  2990               	goto	l42
   840     018D                     u1370:
   841     018D                     l1708:
   842                           
   843                           ;main.c: 107: cmd = NSD;
   844     018D  3008               	movlw	8
   845     018E  00D1               	movwf	main@cmd
   846                           
   847                           ;main.c: 108: }else if(RB4 == 0){
   848     018F  2996               	goto	l41
   849     0190                     l42:
   850     0190  1A06               	btfsc	6,4	;volatile
   851     0191  2993               	goto	u1381
   852     0192  2994               	goto	u1380
   853     0193                     u1381:
   854     0193  2996               	goto	l41
   855     0194                     u1380:
   856     0194                     l1710:
   857                           
   858                           ;main.c: 109: cmd = NDD;
   859     0194  3005               	movlw	5
   860     0195  00D1               	movwf	main@cmd
   861     0196                     l41:
   862                           
   863                           ;main.c: 110: };main.c: 115: rcmd[0] = tmp[1];
   864     0196  0822               	movf	main@tmp+1,w
   865     0197  00D2               	movwf	main@rcmd
   866                           
   867                           ;main.c: 116: rcmd[1] = tmp[2];
   868     0198  0823               	movf	main@tmp+2,w
   869     0199  00D3               	movwf	main@rcmd+1
   870                           
   871                           ;main.c: 117: rcmd[2] = tmp[3];
   872     019A  0824               	movf	main@tmp+3,w
   873     019B  00D4               	movwf	main@rcmd+2
   874     019C                     l1712:
   875                           
   876                           ;main.c: 118: rcmd[3] = '\0';
   877     019C  01D5               	clrf	main@rcmd+3
   878     019D                     l1714:
   879                           
   880                           ;main.c: 121: if(strcmp(rcmd,"RPS") == 0) {
   881     019D  3085               	movlw	(low ((STR_1-__stringbase)| (0+32768)))& (0+255)
   882     019E  00F0               	movwf	strcmp@s2
   883     019F  3052               	movlw	(low (main@rcmd| 0))& (0+255)
   884     01A0  158A  26FC  118A   	fcall	_strcmp
   885     01A3  0870               	movf	?_strcmp,w
   886     01A4  0471               	iorwf	?_strcmp+1,w
   887     01A5  1D03               	btfss	3,2
   888     01A6  29A8               	goto	u1391
   889     01A7  29A9               	goto	u1390
   890     01A8                     u1391:
   891     01A8  29AD               	goto	l1718
   892     01A9                     u1390:
   893     01A9                     l1716:
   894                           
   895                           ;main.c: 122: cmd = RPS;
   896     01A9  1283               	bcf	3,5	;RP0=0, select bank0
   897     01AA  1303               	bcf	3,6	;RP1=0, select bank0
   898     01AB  01D1               	clrf	main@cmd
   899                           
   900                           ;main.c: 123: }else if(strcmp(rcmd,"WTB") == 0){
   901     01AC  2A57               	goto	l1758
   902     01AD                     l1718:
   903     01AD  3061               	movlw	(low ((STR_2-__stringbase)| (0+32768)))& (0+255)
   904     01AE  00F0               	movwf	strcmp@s2
   905     01AF  3052               	movlw	(low (main@rcmd| 0))& (0+255)
   906     01B0  158A  26FC  118A   	fcall	_strcmp
   907     01B3  0870               	movf	?_strcmp,w
   908     01B4  0471               	iorwf	?_strcmp+1,w
   909     01B5  1D03               	btfss	3,2
   910     01B6  29B8               	goto	u1401
   911     01B7  29B9               	goto	u1400
   912     01B8                     u1401:
   913     01B8  29BE               	goto	l1722
   914     01B9                     u1400:
   915     01B9                     l1720:
   916                           
   917                           ;main.c: 124: cmd = WTB;
   918     01B9  1283               	bcf	3,5	;RP0=0, select bank0
   919     01BA  1303               	bcf	3,6	;RP1=0, select bank0
   920     01BB  01D1               	clrf	main@cmd
   921     01BC  0AD1               	incf	main@cmd,f
   922                           
   923                           ;main.c: 125: }else if(strcmp(rcmd,"OSC") == 0){
   924     01BD  2A57               	goto	l1758
   925     01BE                     l1722:
   926     01BE  3065               	movlw	(low ((STR_3-__stringbase)| (0+32768)))& (0+255)
   927     01BF  00F0               	movwf	strcmp@s2
   928     01C0  3052               	movlw	(low (main@rcmd| 0))& (0+255)
   929     01C1  158A  26FC  118A   	fcall	_strcmp
   930     01C4  0870               	movf	?_strcmp,w
   931     01C5  0471               	iorwf	?_strcmp+1,w
   932     01C6  1D03               	btfss	3,2
   933     01C7  29C9               	goto	u1411
   934     01C8  29CA               	goto	u1410
   935     01C9                     u1411:
   936     01C9  29CF               	goto	l1726
   937     01CA                     u1410:
   938     01CA                     l1724:
   939                           
   940                           ;main.c: 126: cmd = OSC;
   941     01CA  3002               	movlw	2
   942     01CB  1283               	bcf	3,5	;RP0=0, select bank0
   943     01CC  1303               	bcf	3,6	;RP1=0, select bank0
   944     01CD  00D1               	movwf	main@cmd
   945                           
   946                           ;main.c: 127: }else if(strcmp(rcmd,"NTD") == 0){
   947     01CE  2A57               	goto	l1758
   948     01CF                     l1726:
   949     01CF  3075               	movlw	(low ((STR_4-__stringbase)| (0+32768)))& (0+255)
   950     01D0  00F0               	movwf	strcmp@s2
   951     01D1  3052               	movlw	(low (main@rcmd| 0))& (0+255)
   952     01D2  158A  26FC  118A   	fcall	_strcmp
   953     01D5  0870               	movf	?_strcmp,w
   954     01D6  0471               	iorwf	?_strcmp+1,w
   955     01D7  1D03               	btfss	3,2
   956     01D8  29DA               	goto	u1421
   957     01D9  29DB               	goto	u1420
   958     01DA                     u1421:
   959     01DA  29E0               	goto	l1730
   960     01DB                     u1420:
   961     01DB                     l1728:
   962                           
   963                           ;main.c: 128: cmd = NTD;
   964     01DB  3003               	movlw	3
   965     01DC  1283               	bcf	3,5	;RP0=0, select bank0
   966     01DD  1303               	bcf	3,6	;RP1=0, select bank0
   967     01DE  00D1               	movwf	main@cmd
   968                           
   969                           ;main.c: 129: }else if(strcmp(rcmd,"NDO") == 0){
   970     01DF  2A57               	goto	l1758
   971     01E0                     l1730:
   972     01E0  3079               	movlw	(low ((STR_5-__stringbase)| (0+32768)))& (0+255)
   973     01E1  00F0               	movwf	strcmp@s2
   974     01E2  3052               	movlw	(low (main@rcmd| 0))& (0+255)
   975     01E3  158A  26FC  118A   	fcall	_strcmp
   976     01E6  0870               	movf	?_strcmp,w
   977     01E7  0471               	iorwf	?_strcmp+1,w
   978     01E8  1D03               	btfss	3,2
   979     01E9  29EB               	goto	u1431
   980     01EA  29EC               	goto	u1430
   981     01EB                     u1431:
   982     01EB  29F1               	goto	l1734
   983     01EC                     u1430:
   984     01EC                     l1732:
   985                           
   986                           ;main.c: 130: cmd = NDO;
   987     01EC  3004               	movlw	4
   988     01ED  1283               	bcf	3,5	;RP0=0, select bank0
   989     01EE  1303               	bcf	3,6	;RP1=0, select bank0
   990     01EF  00D1               	movwf	main@cmd
   991                           
   992                           ;main.c: 131: }else if(strcmp(rcmd,"NDD") == 0){
   993     01F0  2A57               	goto	l1758
   994     01F1                     l1734:
   995     01F1  3069               	movlw	(low ((STR_6-__stringbase)| (0+32768)))& (0+255)
   996     01F2  00F0               	movwf	strcmp@s2
   997     01F3  3052               	movlw	(low (main@rcmd| 0))& (0+255)
   998     01F4  158A  26FC  118A   	fcall	_strcmp
   999     01F7  0870               	movf	?_strcmp,w
  1000     01F8  0471               	iorwf	?_strcmp+1,w
  1001     01F9  1D03               	btfss	3,2
  1002     01FA  29FC               	goto	u1441
  1003     01FB  29FD               	goto	u1440
  1004     01FC                     u1441:
  1005     01FC  2A02               	goto	l1738
  1006     01FD                     u1440:
  1007     01FD                     l1736:
  1008                           
  1009                           ;main.c: 132: cmd = NDD;
  1010     01FD  3005               	movlw	5
  1011     01FE  1283               	bcf	3,5	;RP0=0, select bank0
  1012     01FF  1303               	bcf	3,6	;RP1=0, select bank0
  1013     0200  00D1               	movwf	main@cmd
  1014                           
  1015                           ;main.c: 133: }else if(strcmp(rcmd,"VER") == 0){
  1016     0201  2A57               	goto	l1758
  1017     0202                     l1738:
  1018     0202  3081               	movlw	(low ((STR_7-__stringbase)| (0+32768)))& (0+255)
  1019     0203  00F0               	movwf	strcmp@s2
  1020     0204  3052               	movlw	(low (main@rcmd| 0))& (0+255)
  1021     0205  158A  26FC  118A   	fcall	_strcmp
  1022     0208  0870               	movf	?_strcmp,w
  1023     0209  0471               	iorwf	?_strcmp+1,w
  1024     020A  1D03               	btfss	3,2
  1025     020B  2A0D               	goto	u1451
  1026     020C  2A0E               	goto	u1450
  1027     020D                     u1451:
  1028     020D  2A13               	goto	l1742
  1029     020E                     u1450:
  1030     020E                     l1740:
  1031                           
  1032                           ;main.c: 134: cmd = VER;
  1033     020E  3009               	movlw	9
  1034     020F  1283               	bcf	3,5	;RP0=0, select bank0
  1035     0210  1303               	bcf	3,6	;RP1=0, select bank0
  1036     0211  00D1               	movwf	main@cmd
  1037                           
  1038                           ;main.c: 135: }else if(strcmp(rcmd,"STS") == 0){
  1039     0212  2A57               	goto	l1758
  1040     0213                     l1742:
  1041     0213  3089               	movlw	(low ((STR_8-__stringbase)| (0+32768)))& (0+255)
  1042     0214  00F0               	movwf	strcmp@s2
  1043     0215  3052               	movlw	(low (main@rcmd| 0))& (0+255)
  1044     0216  158A  26FC  118A   	fcall	_strcmp
  1045     0219  0870               	movf	?_strcmp,w
  1046     021A  0471               	iorwf	?_strcmp+1,w
  1047     021B  1D03               	btfss	3,2
  1048     021C  2A1E               	goto	u1461
  1049     021D  2A1F               	goto	u1460
  1050     021E                     u1461:
  1051     021E  2A24               	goto	l1746
  1052     021F                     u1460:
  1053     021F                     l1744:
  1054                           
  1055                           ;main.c: 136: cmd = STS;
  1056     021F  300A               	movlw	10
  1057     0220  1283               	bcf	3,5	;RP0=0, select bank0
  1058     0221  1303               	bcf	3,6	;RP1=0, select bank0
  1059     0222  00D1               	movwf	main@cmd
  1060                           
  1061                           ;main.c: 137: }else if(strcmp(rcmd,"NPD") == 0){
  1062     0223  2A57               	goto	l1758
  1063     0224                     l1746:
  1064     0224  306D               	movlw	(low ((STR_9-__stringbase)| (0+32768)))& (0+255)
  1065     0225  00F0               	movwf	strcmp@s2
  1066     0226  3052               	movlw	(low (main@rcmd| 0))& (0+255)
  1067     0227  158A  26FC  118A   	fcall	_strcmp
  1068     022A  0870               	movf	?_strcmp,w
  1069     022B  0471               	iorwf	?_strcmp+1,w
  1070     022C  1D03               	btfss	3,2
  1071     022D  2A2F               	goto	u1471
  1072     022E  2A30               	goto	u1470
  1073     022F                     u1471:
  1074     022F  2A35               	goto	l1750
  1075     0230                     u1470:
  1076     0230                     l1748:
  1077                           
  1078                           ;main.c: 138: cmd = NPD;
  1079     0230  3006               	movlw	6
  1080     0231  1283               	bcf	3,5	;RP0=0, select bank0
  1081     0232  1303               	bcf	3,6	;RP1=0, select bank0
  1082     0233  00D1               	movwf	main@cmd
  1083                           
  1084                           ;main.c: 139: }else if(strcmp(rcmd,"NSP") == 0){
  1085     0234  2A57               	goto	l1758
  1086     0235                     l1750:
  1087     0235  307D               	movlw	(low ((STR_10-__stringbase)| (0+32768)))& (0+255)
  1088     0236  00F0               	movwf	strcmp@s2
  1089     0237  3052               	movlw	(low (main@rcmd| 0))& (0+255)
  1090     0238  158A  26FC  118A   	fcall	_strcmp
  1091     023B  0870               	movf	?_strcmp,w
  1092     023C  0471               	iorwf	?_strcmp+1,w
  1093     023D  1D03               	btfss	3,2
  1094     023E  2A40               	goto	u1481
  1095     023F  2A41               	goto	u1480
  1096     0240                     u1481:
  1097     0240  2A46               	goto	l1754
  1098     0241                     u1480:
  1099     0241                     l1752:
  1100                           
  1101                           ;main.c: 140: cmd = NSP;
  1102     0241  3007               	movlw	7
  1103     0242  1283               	bcf	3,5	;RP0=0, select bank0
  1104     0243  1303               	bcf	3,6	;RP1=0, select bank0
  1105     0244  00D1               	movwf	main@cmd
  1106                           
  1107                           ;main.c: 141: }else if(strcmp(rcmd,"NSD") == 0){
  1108     0245  2A57               	goto	l1758
  1109     0246                     l1754:
  1110     0246  3071               	movlw	(low ((STR_11-__stringbase)| (0+32768)))& (0+255)
  1111     0247  00F0               	movwf	strcmp@s2
  1112     0248  3052               	movlw	(low (main@rcmd| 0))& (0+255)
  1113     0249  158A  26FC  118A   	fcall	_strcmp
  1114     024C  0870               	movf	?_strcmp,w
  1115     024D  0471               	iorwf	?_strcmp+1,w
  1116     024E  1D03               	btfss	3,2
  1117     024F  2A51               	goto	u1491
  1118     0250  2A52               	goto	u1490
  1119     0251                     u1491:
  1120     0251  2A57               	goto	l60
  1121     0252                     u1490:
  1122     0252                     l1756:
  1123                           
  1124                           ;main.c: 142: cmd = NSD;
  1125     0252  3008               	movlw	8
  1126     0253  1283               	bcf	3,5	;RP0=0, select bank0
  1127     0254  1303               	bcf	3,6	;RP1=0, select bank0
  1128     0255  00D1               	movwf	main@cmd
  1129     0256  2A57               	goto	l1758
  1130     0257                     l60:
  1131     0257                     l1758:
  1132                           
  1133                           ;main.c: 143: };main.c: 144: ptr = strtok(tmp, "/");
  1134     0257  308D               	movlw	(low ((STR_12-__stringbase)| (0+32768)))& (0+255)
  1135     0258  00FA               	movwf	strtok@s2
  1136     0259  3021               	movlw	(low (main@tmp| 0))& (0+255)
  1137     025A  158A  2753  118A   	fcall	_strtok
  1138     025D  1283               	bcf	3,5	;RP0=0, select bank0
  1139     025E  1303               	bcf	3,6	;RP1=0, select bank0
  1140     025F  00D8               	movwf	main@ptr
  1141                           
  1142                           ;main.c: 147: switch(cmd){
  1143     0260  2FD5               	goto	l1998
  1144     0261                     l1760:
  1145                           
  1146                           ;main.c: 150: ptr = strtok((0), "/");
  1147     0261  308D               	movlw	(low ((STR_12-__stringbase)| (0+32768)))& (0+255)
  1148     0262  00FA               	movwf	strtok@s2
  1149     0263  3000               	movlw	0
  1150     0264  158A  2753  118A   	fcall	_strtok
  1151     0267  1283               	bcf	3,5	;RP0=0, select bank0
  1152     0268  1303               	bcf	3,6	;RP1=0, select bank0
  1153     0269  00D8               	movwf	main@ptr
  1154                           
  1155                           ;main.c: 151: ptr = strtok((0), "/");
  1156     026A  308D               	movlw	(low ((STR_12-__stringbase)| (0+32768)))& (0+255)
  1157     026B  00FA               	movwf	strtok@s2
  1158     026C  3000               	movlw	0
  1159     026D  158A  2753  118A   	fcall	_strtok
  1160     0270  1283               	bcf	3,5	;RP0=0, select bank0
  1161     0271  1303               	bcf	3,6	;RP1=0, select bank0
  1162     0272  00D8               	movwf	main@ptr
  1163                           
  1164                           ;main.c: 152: ptr = strtok((0), "/");
  1165     0273  308D               	movlw	(low ((STR_12-__stringbase)| (0+32768)))& (0+255)
  1166     0274  00FA               	movwf	strtok@s2
  1167     0275  3000               	movlw	0
  1168     0276  158A  2753  118A   	fcall	_strtok
  1169     0279  1283               	bcf	3,5	;RP0=0, select bank0
  1170     027A  1303               	bcf	3,6	;RP1=0, select bank0
  1171     027B  00D8               	movwf	main@ptr
  1172                           
  1173                           ;main.c: 153: ptr = strtok((0), "/");
  1174     027C  308D               	movlw	(low ((STR_12-__stringbase)| (0+32768)))& (0+255)
  1175     027D  00FA               	movwf	strtok@s2
  1176     027E  3000               	movlw	0
  1177     027F  158A  2753  118A   	fcall	_strtok
  1178     0282  1283               	bcf	3,5	;RP0=0, select bank0
  1179     0283  1303               	bcf	3,6	;RP1=0, select bank0
  1180     0284  00D8               	movwf	main@ptr
  1181     0285                     l1762:
  1182                           
  1183                           ;main.c: 154: if(ptr != (0)) {
  1184     0285  0858               	movf	main@ptr,w
  1185     0286  1903               	btfsc	3,2
  1186     0287  2A89               	goto	u1501
  1187     0288  2A8A               	goto	u1500
  1188     0289                     u1501:
  1189     0289  2A94               	goto	l1766
  1190     028A                     u1500:
  1191     028A                     l1764:
  1192                           
  1193                           ;main.c: 155: dist = atoi(ptr);
  1194     028A  0858               	movf	main@ptr,w
  1195     028B  118A  20D0  118A   	fcall	_atoi
  1196     028E  0877               	movf	?_atoi+1,w
  1197     028F  1283               	bcf	3,5	;RP0=0, select bank0
  1198     0290  1303               	bcf	3,6	;RP1=0, select bank0
  1199     0291  00D7               	movwf	main@dist+1
  1200     0292  0876               	movf	?_atoi,w
  1201     0293  00D6               	movwf	main@dist
  1202     0294                     l1766:
  1203                           
  1204                           ;main.c: 156: };main.c: 158: if (dist > 0){
  1205     0294  0857               	movf	main@dist+1,w
  1206     0295  3A80               	xorlw	128
  1207     0296  00FF               	movwf	btemp+1
  1208     0297  3080               	movlw	128
  1209     0298  027F               	subwf	btemp+1,w
  1210     0299  1D03               	skipz
  1211     029A  2A9D               	goto	u1515
  1212     029B  3001               	movlw	1
  1213     029C  0256               	subwf	main@dist,w
  1214     029D                     u1515:
  1215     029D  1C03               	skipc
  1216     029E  2AA0               	goto	u1511
  1217     029F  2AA1               	goto	u1510
  1218     02A0                     u1511:
  1219     02A0  2AF7               	goto	l1780
  1220     02A1                     u1510:
  1221     02A1                     l1768:
  1222                           
  1223                           ;main.c: 159: for(k = 0 ; k < dist ; k++){
  1224     02A1  1283               	bcf	3,5	;RP0=0, select bank0
  1225     02A2  1303               	bcf	3,6	;RP1=0, select bank0
  1226     02A3  01D9               	clrf	main@k
  1227     02A4  01DA               	clrf	main@k+1
  1228     02A5  2AE8               	goto	l70
  1229     02A6                     l71:
  1230                           
  1231                           ;main.c: 160: RA0 = 1;
  1232     02A6  1283               	bcf	3,5	;RP0=0, select bank0
  1233     02A7  1303               	bcf	3,6	;RP1=0, select bank0
  1234     02A8  1405               	bsf	5,0	;volatile
  1235     02A9                     l1770:
  1236                           
  1237                           ;main.c: 161: for(j = 0 ; j < intvl ; j++){
  1238     02A9  01DD               	clrf	main@j
  1239     02AA  01DE               	clrf	main@j+1
  1240     02AB  2AB5               	goto	l72
  1241     02AC                     l73:
  1242                           
  1243                           ;main.c: 162: _delay((unsigned long)((1)*(4000000/4000000.0)));
  1244     02AC  0000               	nop
  1245     02AD                     l1772:
  1246     02AD  3001               	movlw	1
  1247     02AE  1283               	bcf	3,5	;RP0=0, select bank0
  1248     02AF  1303               	bcf	3,6	;RP1=0, select bank0
  1249     02B0  07DD               	addwf	main@j,f
  1250     02B1  1803               	skipnc
  1251     02B2  0ADE               	incf	main@j+1,f
  1252     02B3  3000               	movlw	0
  1253     02B4  07DE               	addwf	main@j+1,f
  1254     02B5                     l72:
  1255     02B5  085E               	movf	main@j+1,w
  1256     02B6  3A80               	xorlw	128
  1257     02B7  00A0               	movwf	??_main
  1258     02B8  085C               	movf	main@intvl+1,w
  1259     02B9  3A80               	xorlw	128
  1260     02BA  0220               	subwf	??_main,w
  1261     02BB  1D03               	skipz
  1262     02BC  2ABF               	goto	u1525
  1263     02BD  085B               	movf	main@intvl,w
  1264     02BE  025D               	subwf	main@j,w
  1265     02BF                     u1525:
  1266     02BF  1C03               	skipc
  1267     02C0  2AC2               	goto	u1521
  1268     02C1  2AC3               	goto	u1520
  1269     02C2                     u1521:
  1270     02C2  2AAC               	goto	l73
  1271     02C3                     u1520:
  1272     02C3                     l74:
  1273                           
  1274                           ;main.c: 163: };main.c: 164: RA0 = 0;
  1275     02C3  1283               	bcf	3,5	;RP0=0, select bank0
  1276     02C4  1303               	bcf	3,6	;RP1=0, select bank0
  1277     02C5  1005               	bcf	5,0	;volatile
  1278     02C6                     l1774:
  1279                           
  1280                           ;main.c: 165: for(j = 0 ; j < intvl ; j++){
  1281     02C6  01DD               	clrf	main@j
  1282     02C7  01DE               	clrf	main@j+1
  1283     02C8  2AD2               	goto	l75
  1284     02C9                     l76:
  1285                           
  1286                           ;main.c: 166: _delay((unsigned long)((1)*(4000000/4000000.0)));
  1287     02C9  0000               	nop
  1288     02CA                     l1776:
  1289     02CA  3001               	movlw	1
  1290     02CB  1283               	bcf	3,5	;RP0=0, select bank0
  1291     02CC  1303               	bcf	3,6	;RP1=0, select bank0
  1292     02CD  07DD               	addwf	main@j,f
  1293     02CE  1803               	skipnc
  1294     02CF  0ADE               	incf	main@j+1,f
  1295     02D0  3000               	movlw	0
  1296     02D1  07DE               	addwf	main@j+1,f
  1297     02D2                     l75:
  1298     02D2  085E               	movf	main@j+1,w
  1299     02D3  3A80               	xorlw	128
  1300     02D4  00A0               	movwf	??_main
  1301     02D5  085C               	movf	main@intvl+1,w
  1302     02D6  3A80               	xorlw	128
  1303     02D7  0220               	subwf	??_main,w
  1304     02D8  1D03               	skipz
  1305     02D9  2ADC               	goto	u1535
  1306     02DA  085B               	movf	main@intvl,w
  1307     02DB  025D               	subwf	main@j,w
  1308     02DC                     u1535:
  1309     02DC  1C03               	skipc
  1310     02DD  2ADF               	goto	u1531
  1311     02DE  2AE0               	goto	u1530
  1312     02DF                     u1531:
  1313     02DF  2AC9               	goto	l76
  1314     02E0                     u1530:
  1315     02E0                     l1778:
  1316     02E0  3001               	movlw	1
  1317     02E1  1283               	bcf	3,5	;RP0=0, select bank0
  1318     02E2  1303               	bcf	3,6	;RP1=0, select bank0
  1319     02E3  07D9               	addwf	main@k,f
  1320     02E4  1803               	skipnc
  1321     02E5  0ADA               	incf	main@k+1,f
  1322     02E6  3000               	movlw	0
  1323     02E7  07DA               	addwf	main@k+1,f
  1324     02E8                     l70:
  1325     02E8  085A               	movf	main@k+1,w
  1326     02E9  3A80               	xorlw	128
  1327     02EA  00A0               	movwf	??_main
  1328     02EB  0857               	movf	main@dist+1,w
  1329     02EC  3A80               	xorlw	128
  1330     02ED  0220               	subwf	??_main,w
  1331     02EE  1D03               	skipz
  1332     02EF  2AF2               	goto	u1545
  1333     02F0  0856               	movf	main@dist,w
  1334     02F1  0259               	subwf	main@k,w
  1335     02F2                     u1545:
  1336     02F2  1C03               	skipc
  1337     02F3  2AF5               	goto	u1541
  1338     02F4  2AF6               	goto	u1540
  1339     02F5                     u1541:
  1340     02F5  2AA6               	goto	l71
  1341     02F6                     u1540:
  1342     02F6  2B5D               	goto	l1794
  1343     02F7                     l1780:
  1344                           
  1345                           ;main.c: 170: dist *= -1;
  1346     02F7  30FF               	movlw	255
  1347     02F8  00F0               	movwf	___wmul@multiplier
  1348     02F9  30FF               	movlw	255
  1349     02FA  00F1               	movwf	___wmul@multiplier+1
  1350     02FB  1283               	bcf	3,5	;RP0=0, select bank0
  1351     02FC  1303               	bcf	3,6	;RP1=0, select bank0
  1352     02FD  0857               	movf	main@dist+1,w
  1353     02FE  00F3               	movwf	___wmul@multiplicand+1
  1354     02FF  0856               	movf	main@dist,w
  1355     0300  00F2               	movwf	___wmul@multiplicand
  1356     0301  158A  26D7  118A   	fcall	___wmul
  1357     0304  0871               	movf	?___wmul+1,w
  1358     0305  1283               	bcf	3,5	;RP0=0, select bank0
  1359     0306  1303               	bcf	3,6	;RP1=0, select bank0
  1360     0307  00D7               	movwf	main@dist+1
  1361     0308  0870               	movf	?___wmul,w
  1362     0309  00D6               	movwf	main@dist
  1363     030A                     l1782:
  1364                           
  1365                           ;main.c: 171: for(k = 0 ; k < dist ; k++){
  1366     030A  01D9               	clrf	main@k
  1367     030B  01DA               	clrf	main@k+1
  1368     030C  2B4F               	goto	l80
  1369     030D                     l81:
  1370                           
  1371                           ;main.c: 172: RA1 = 1;
  1372     030D  1283               	bcf	3,5	;RP0=0, select bank0
  1373     030E  1303               	bcf	3,6	;RP1=0, select bank0
  1374     030F  1485               	bsf	5,1	;volatile
  1375     0310                     l1784:
  1376                           
  1377                           ;main.c: 173: for(j = 0 ; j < intvl ; j++){
  1378     0310  01DD               	clrf	main@j
  1379     0311  01DE               	clrf	main@j+1
  1380     0312  2B1C               	goto	l82
  1381     0313                     l83:
  1382                           
  1383                           ;main.c: 174: _delay((unsigned long)((1)*(4000000/4000000.0)));
  1384     0313  0000               	nop
  1385     0314                     l1786:
  1386     0314  3001               	movlw	1
  1387     0315  1283               	bcf	3,5	;RP0=0, select bank0
  1388     0316  1303               	bcf	3,6	;RP1=0, select bank0
  1389     0317  07DD               	addwf	main@j,f
  1390     0318  1803               	skipnc
  1391     0319  0ADE               	incf	main@j+1,f
  1392     031A  3000               	movlw	0
  1393     031B  07DE               	addwf	main@j+1,f
  1394     031C                     l82:
  1395     031C  085E               	movf	main@j+1,w
  1396     031D  3A80               	xorlw	128
  1397     031E  00A0               	movwf	??_main
  1398     031F  085C               	movf	main@intvl+1,w
  1399     0320  3A80               	xorlw	128
  1400     0321  0220               	subwf	??_main,w
  1401     0322  1D03               	skipz
  1402     0323  2B26               	goto	u1555
  1403     0324  085B               	movf	main@intvl,w
  1404     0325  025D               	subwf	main@j,w
  1405     0326                     u1555:
  1406     0326  1C03               	skipc
  1407     0327  2B29               	goto	u1551
  1408     0328  2B2A               	goto	u1550
  1409     0329                     u1551:
  1410     0329  2B13               	goto	l83
  1411     032A                     u1550:
  1412     032A                     l84:
  1413                           
  1414                           ;main.c: 175: };main.c: 176: RA1 = 0;
  1415     032A  1283               	bcf	3,5	;RP0=0, select bank0
  1416     032B  1303               	bcf	3,6	;RP1=0, select bank0
  1417     032C  1085               	bcf	5,1	;volatile
  1418     032D                     l1788:
  1419                           
  1420                           ;main.c: 177: for(j = 0 ; j < intvl ; j++){
  1421     032D  01DD               	clrf	main@j
  1422     032E  01DE               	clrf	main@j+1
  1423     032F  2B39               	goto	l85
  1424     0330                     l86:
  1425                           
  1426                           ;main.c: 178: _delay((unsigned long)((1)*(4000000/4000000.0)));
  1427     0330  0000               	nop
  1428     0331                     l1790:
  1429     0331  3001               	movlw	1
  1430     0332  1283               	bcf	3,5	;RP0=0, select bank0
  1431     0333  1303               	bcf	3,6	;RP1=0, select bank0
  1432     0334  07DD               	addwf	main@j,f
  1433     0335  1803               	skipnc
  1434     0336  0ADE               	incf	main@j+1,f
  1435     0337  3000               	movlw	0
  1436     0338  07DE               	addwf	main@j+1,f
  1437     0339                     l85:
  1438     0339  085E               	movf	main@j+1,w
  1439     033A  3A80               	xorlw	128
  1440     033B  00A0               	movwf	??_main
  1441     033C  085C               	movf	main@intvl+1,w
  1442     033D  3A80               	xorlw	128
  1443     033E  0220               	subwf	??_main,w
  1444     033F  1D03               	skipz
  1445     0340  2B43               	goto	u1565
  1446     0341  085B               	movf	main@intvl,w
  1447     0342  025D               	subwf	main@j,w
  1448     0343                     u1565:
  1449     0343  1C03               	skipc
  1450     0344  2B46               	goto	u1561
  1451     0345  2B47               	goto	u1560
  1452     0346                     u1561:
  1453     0346  2B30               	goto	l86
  1454     0347                     u1560:
  1455     0347                     l1792:
  1456     0347  3001               	movlw	1
  1457     0348  1283               	bcf	3,5	;RP0=0, select bank0
  1458     0349  1303               	bcf	3,6	;RP1=0, select bank0
  1459     034A  07D9               	addwf	main@k,f
  1460     034B  1803               	skipnc
  1461     034C  0ADA               	incf	main@k+1,f
  1462     034D  3000               	movlw	0
  1463     034E  07DA               	addwf	main@k+1,f
  1464     034F                     l80:
  1465     034F  085A               	movf	main@k+1,w
  1466     0350  3A80               	xorlw	128
  1467     0351  00A0               	movwf	??_main
  1468     0352  0857               	movf	main@dist+1,w
  1469     0353  3A80               	xorlw	128
  1470     0354  0220               	subwf	??_main,w
  1471     0355  1D03               	skipz
  1472     0356  2B59               	goto	u1575
  1473     0357  0856               	movf	main@dist,w
  1474     0358  0259               	subwf	main@k,w
  1475     0359                     u1575:
  1476     0359  1C03               	skipc
  1477     035A  2B5C               	goto	u1571
  1478     035B  2B5D               	goto	u1570
  1479     035C                     u1571:
  1480     035C  2B0D               	goto	l81
  1481     035D                     u1570:
  1482     035D                     l1794:
  1483                           
  1484                           ;main.c: 179: };main.c: 180: };main.c: 181: };main.c: 184: printf("C\tRPS\r\n");
  1485     035D  3059               	movlw	(low ((STR_17-__stringbase)| (0+32768)))& (0+255)
  1486     035E  158A  26A4  118A   	fcall	_printf
  1487                           
  1488                           ;main.c: 185: break;
  1489     0361  2970               	goto	l1686
  1490     0362                     l1796:
  1491                           
  1492                           ;main.c: 188: ptr = strtok((0), "/");
  1493     0362  308D               	movlw	(low ((STR_12-__stringbase)| (0+32768)))& (0+255)
  1494     0363  00FA               	movwf	strtok@s2
  1495     0364  3000               	movlw	0
  1496     0365  158A  2753  118A   	fcall	_strtok
  1497     0368  1283               	bcf	3,5	;RP0=0, select bank0
  1498     0369  1303               	bcf	3,6	;RP1=0, select bank0
  1499     036A  00D8               	movwf	main@ptr
  1500                           
  1501                           ;main.c: 189: ptr = strtok((0), "/");
  1502     036B  308D               	movlw	(low ((STR_12-__stringbase)| (0+32768)))& (0+255)
  1503     036C  00FA               	movwf	strtok@s2
  1504     036D  3000               	movlw	0
  1505     036E  158A  2753  118A   	fcall	_strtok
  1506     0371  1283               	bcf	3,5	;RP0=0, select bank0
  1507     0372  1303               	bcf	3,6	;RP1=0, select bank0
  1508     0373  00D8               	movwf	main@ptr
  1509                           
  1510                           ;main.c: 190: ptr = strtok((0), "/");
  1511     0374  308D               	movlw	(low ((STR_12-__stringbase)| (0+32768)))& (0+255)
  1512     0375  00FA               	movwf	strtok@s2
  1513     0376  3000               	movlw	0
  1514     0377  158A  2753  118A   	fcall	_strtok
  1515     037A  1283               	bcf	3,5	;RP0=0, select bank0
  1516     037B  1303               	bcf	3,6	;RP1=0, select bank0
  1517     037C  00D8               	movwf	main@ptr
  1518     037D                     l1798:
  1519                           
  1520                           ;main.c: 191: if(ptr != (0)) {
  1521     037D  0858               	movf	main@ptr,w
  1522     037E  1903               	btfsc	3,2
  1523     037F  2B81               	goto	u1581
  1524     0380  2B82               	goto	u1580
  1525     0381                     u1581:
  1526     0381  2B8C               	goto	l1802
  1527     0382                     u1580:
  1528     0382                     l1800:
  1529                           
  1530                           ;main.c: 192: set_spd = atoi(ptr);
  1531     0382  0858               	movf	main@ptr,w
  1532     0383  118A  20D0  118A   	fcall	_atoi
  1533     0386  0877               	movf	?_atoi+1,w
  1534     0387  1283               	bcf	3,5	;RP0=0, select bank0
  1535     0388  1303               	bcf	3,6	;RP1=0, select bank0
  1536     0389  00CC               	movwf	main@set_spd+1
  1537     038A  0876               	movf	?_atoi,w
  1538     038B  00CB               	movwf	main@set_spd
  1539     038C                     l1802:
  1540                           
  1541                           ;main.c: 193: };main.c: 194: intvl = mx_spd / set_spd;
  1542     038C  084C               	movf	main@set_spd+1,w
  1543     038D  00F1               	movwf	___awdiv@divisor+1
  1544     038E  084B               	movf	main@set_spd,w
  1545     038F  00F0               	movwf	___awdiv@divisor
  1546     0390  084A               	movf	main@mx_spd+1,w
  1547     0391  00F3               	movwf	___awdiv@dividend+1
  1548     0392  0849               	movf	main@mx_spd,w
  1549     0393  00F2               	movwf	___awdiv@dividend
  1550     0394  158A  2799  118A   	fcall	___awdiv
  1551     0397  0871               	movf	?___awdiv+1,w
  1552     0398  1283               	bcf	3,5	;RP0=0, select bank0
  1553     0399  1303               	bcf	3,6	;RP1=0, select bank0
  1554     039A  00DC               	movwf	main@intvl+1
  1555     039B  0870               	movf	?___awdiv,w
  1556     039C  00DB               	movwf	main@intvl
  1557     039D                     l1804:
  1558                           
  1559                           ;main.c: 195: if (intvl == 0){
  1560     039D  085B               	movf	main@intvl,w
  1561     039E  045C               	iorwf	main@intvl+1,w
  1562     039F  1D03               	btfss	3,2
  1563     03A0  2BA2               	goto	u1591
  1564     03A1  2BA3               	goto	u1590
  1565     03A2                     u1591:
  1566     03A2  2BA7               	goto	l1808
  1567     03A3                     u1590:
  1568     03A3                     l1806:
  1569                           
  1570                           ;main.c: 196: intvl = 1;
  1571     03A3  3001               	movlw	1
  1572     03A4  00DB               	movwf	main@intvl
  1573     03A5  3000               	movlw	0
  1574     03A6  00DC               	movwf	main@intvl+1
  1575     03A7                     l1808:
  1576                           
  1577                           ;main.c: 197: };main.c: 198: printf("C\tWTB\r\n");
  1578     03A7  3019               	movlw	(low ((STR_21-__stringbase)| (0+32768)))& (0+255)
  1579     03A8  158A  26A4  118A   	fcall	_printf
  1580                           
  1581                           ;main.c: 200: break;
  1582     03AB  2970               	goto	l1686
  1583     03AC                     l1810:
  1584                           
  1585                           ;main.c: 203: ptr = strtok((0), "/");
  1586     03AC  308D               	movlw	(low ((STR_12-__stringbase)| (0+32768)))& (0+255)
  1587     03AD  00FA               	movwf	strtok@s2
  1588     03AE  3000               	movlw	0
  1589     03AF  158A  2753  118A   	fcall	_strtok
  1590     03B2  1283               	bcf	3,5	;RP0=0, select bank0
  1591     03B3  1303               	bcf	3,6	;RP1=0, select bank0
  1592     03B4  00D8               	movwf	main@ptr
  1593                           
  1594                           ;main.c: 204: ptr = strtok((0), "/");
  1595     03B5  308D               	movlw	(low ((STR_12-__stringbase)| (0+32768)))& (0+255)
  1596     03B6  00FA               	movwf	strtok@s2
  1597     03B7  3000               	movlw	0
  1598     03B8  158A  2753  118A   	fcall	_strtok
  1599     03BB  1283               	bcf	3,5	;RP0=0, select bank0
  1600     03BC  1303               	bcf	3,6	;RP1=0, select bank0
  1601     03BD  00D8               	movwf	main@ptr
  1602                           
  1603                           ;main.c: 205: ptr = strtok((0), "/");
  1604     03BE  308D               	movlw	(low ((STR_12-__stringbase)| (0+32768)))& (0+255)
  1605     03BF  00FA               	movwf	strtok@s2
  1606     03C0  3000               	movlw	0
  1607     03C1  158A  2753  118A   	fcall	_strtok
  1608     03C4  1283               	bcf	3,5	;RP0=0, select bank0
  1609     03C5  1303               	bcf	3,6	;RP1=0, select bank0
  1610     03C6  00D8               	movwf	main@ptr
  1611                           
  1612                           ;main.c: 206: ptr = strtok((0), "/");
  1613     03C7  308D               	movlw	(low ((STR_12-__stringbase)| (0+32768)))& (0+255)
  1614     03C8  00FA               	movwf	strtok@s2
  1615     03C9  3000               	movlw	0
  1616     03CA  158A  2753  118A   	fcall	_strtok
  1617     03CD  1283               	bcf	3,5	;RP0=0, select bank0
  1618     03CE  1303               	bcf	3,6	;RP1=0, select bank0
  1619     03CF  00D8               	movwf	main@ptr
  1620                           
  1621                           ;main.c: 207: ptr = strtok((0), "/");
  1622     03D0  308D               	movlw	(low ((STR_12-__stringbase)| (0+32768)))& (0+255)
  1623     03D1  00FA               	movwf	strtok@s2
  1624     03D2  3000               	movlw	0
  1625     03D3  158A  2753  118A   	fcall	_strtok
  1626     03D6  1283               	bcf	3,5	;RP0=0, select bank0
  1627     03D7  1303               	bcf	3,6	;RP1=0, select bank0
  1628     03D8  00D8               	movwf	main@ptr
  1629     03D9                     l1812:
  1630                           
  1631                           ;main.c: 208: if(ptr != (0)) {
  1632     03D9  0858               	movf	main@ptr,w
  1633     03DA  1903               	btfsc	3,2
  1634     03DB  2BDD               	goto	u1601
  1635     03DC  2BDE               	goto	u1600
  1636     03DD                     u1601:
  1637     03DD  2BE8               	goto	l1816
  1638     03DE                     u1600:
  1639     03DE                     l1814:
  1640                           
  1641                           ;main.c: 209: dist = atoi(ptr);
  1642     03DE  0858               	movf	main@ptr,w
  1643     03DF  118A  20D0  118A   	fcall	_atoi
  1644     03E2  0877               	movf	?_atoi+1,w
  1645     03E3  1283               	bcf	3,5	;RP0=0, select bank0
  1646     03E4  1303               	bcf	3,6	;RP1=0, select bank0
  1647     03E5  00D7               	movwf	main@dist+1
  1648     03E6  0876               	movf	?_atoi,w
  1649     03E7  00D6               	movwf	main@dist
  1650     03E8                     l1816:
  1651                           
  1652                           ;main.c: 210: };main.c: 212: if (dist > 0){
  1653     03E8  0857               	movf	main@dist+1,w
  1654     03E9  3A80               	xorlw	128
  1655     03EA  00FF               	movwf	btemp+1
  1656     03EB  3080               	movlw	128
  1657     03EC  027F               	subwf	btemp+1,w
  1658     03ED  1D03               	skipz
  1659     03EE  2BF1               	goto	u1615
  1660     03EF  3001               	movlw	1
  1661     03F0  0256               	subwf	main@dist,w
  1662     03F1                     u1615:
  1663     03F1  1C03               	skipc
  1664     03F2  2BF4               	goto	u1611
  1665     03F3  2BF5               	goto	u1610
  1666     03F4                     u1611:
  1667     03F4  2CA0               	goto	l1842
  1668     03F5                     u1610:
  1669     03F5                     l1818:
  1670                           
  1671                           ;main.c: 213: for(k = 0 ; k < dist ; k++){
  1672     03F5  1283               	bcf	3,5	;RP0=0, select bank0
  1673     03F6  1303               	bcf	3,6	;RP1=0, select bank0
  1674     03F7  01D9               	clrf	main@k
  1675     03F8  01DA               	clrf	main@k+1
  1676     03F9  2C3C               	goto	l96
  1677     03FA                     l97:
  1678                           
  1679                           ;main.c: 214: RA0 = 1;
  1680     03FA  1283               	bcf	3,5	;RP0=0, select bank0
  1681     03FB  1303               	bcf	3,6	;RP1=0, select bank0
  1682     03FC  1405               	bsf	5,0	;volatile
  1683     03FD                     l1820:
  1684                           
  1685                           ;main.c: 215: for(j = 0 ; j < intvl ; j++){
  1686     03FD  01DD               	clrf	main@j
  1687     03FE  01DE               	clrf	main@j+1
  1688     03FF  2C09               	goto	l98
  1689     0400                     l99:
  1690                           
  1691                           ;main.c: 216: _delay((unsigned long)((1)*(4000000/4000000.0)));
  1692     0400  0000               	nop
  1693     0401                     l1822:
  1694     0401  3001               	movlw	1
  1695     0402  1283               	bcf	3,5	;RP0=0, select bank0
  1696     0403  1303               	bcf	3,6	;RP1=0, select bank0
  1697     0404  07DD               	addwf	main@j,f
  1698     0405  1803               	skipnc
  1699     0406  0ADE               	incf	main@j+1,f
  1700     0407  3000               	movlw	0
  1701     0408  07DE               	addwf	main@j+1,f
  1702     0409                     l98:
  1703     0409  085E               	movf	main@j+1,w
  1704     040A  3A80               	xorlw	128
  1705     040B  00A0               	movwf	??_main
  1706     040C  085C               	movf	main@intvl+1,w
  1707     040D  3A80               	xorlw	128
  1708     040E  0220               	subwf	??_main,w
  1709     040F  1D03               	skipz
  1710     0410  2C13               	goto	u1625
  1711     0411  085B               	movf	main@intvl,w
  1712     0412  025D               	subwf	main@j,w
  1713     0413                     u1625:
  1714     0413  1C03               	skipc
  1715     0414  2C16               	goto	u1621
  1716     0415  2C17               	goto	u1620
  1717     0416                     u1621:
  1718     0416  2C00               	goto	l99
  1719     0417                     u1620:
  1720     0417                     l100:
  1721                           
  1722                           ;main.c: 217: };main.c: 218: RA0 = 0;
  1723     0417  1283               	bcf	3,5	;RP0=0, select bank0
  1724     0418  1303               	bcf	3,6	;RP1=0, select bank0
  1725     0419  1005               	bcf	5,0	;volatile
  1726     041A                     l1824:
  1727                           
  1728                           ;main.c: 219: for(j = 0 ; j < intvl ; j++){
  1729     041A  01DD               	clrf	main@j
  1730     041B  01DE               	clrf	main@j+1
  1731     041C  2C26               	goto	l101
  1732     041D                     l102:
  1733                           
  1734                           ;main.c: 220: _delay((unsigned long)((1)*(4000000/4000000.0)));
  1735     041D  0000               	nop
  1736     041E                     l1826:
  1737     041E  3001               	movlw	1
  1738     041F  1283               	bcf	3,5	;RP0=0, select bank0
  1739     0420  1303               	bcf	3,6	;RP1=0, select bank0
  1740     0421  07DD               	addwf	main@j,f
  1741     0422  1803               	skipnc
  1742     0423  0ADE               	incf	main@j+1,f
  1743     0424  3000               	movlw	0
  1744     0425  07DE               	addwf	main@j+1,f
  1745     0426                     l101:
  1746     0426  085E               	movf	main@j+1,w
  1747     0427  3A80               	xorlw	128
  1748     0428  00A0               	movwf	??_main
  1749     0429  085C               	movf	main@intvl+1,w
  1750     042A  3A80               	xorlw	128
  1751     042B  0220               	subwf	??_main,w
  1752     042C  1D03               	skipz
  1753     042D  2C30               	goto	u1635
  1754     042E  085B               	movf	main@intvl,w
  1755     042F  025D               	subwf	main@j,w
  1756     0430                     u1635:
  1757     0430  1C03               	skipc
  1758     0431  2C33               	goto	u1631
  1759     0432  2C34               	goto	u1630
  1760     0433                     u1631:
  1761     0433  2C1D               	goto	l102
  1762     0434                     u1630:
  1763     0434                     l1828:
  1764     0434  3001               	movlw	1
  1765     0435  1283               	bcf	3,5	;RP0=0, select bank0
  1766     0436  1303               	bcf	3,6	;RP1=0, select bank0
  1767     0437  07D9               	addwf	main@k,f
  1768     0438  1803               	skipnc
  1769     0439  0ADA               	incf	main@k+1,f
  1770     043A  3000               	movlw	0
  1771     043B  07DA               	addwf	main@k+1,f
  1772     043C                     l96:
  1773     043C  085A               	movf	main@k+1,w
  1774     043D  3A80               	xorlw	128
  1775     043E  00A0               	movwf	??_main
  1776     043F  0857               	movf	main@dist+1,w
  1777     0440  3A80               	xorlw	128
  1778     0441  0220               	subwf	??_main,w
  1779     0442  1D03               	skipz
  1780     0443  2C46               	goto	u1645
  1781     0444  0856               	movf	main@dist,w
  1782     0445  0259               	subwf	main@k,w
  1783     0446                     u1645:
  1784     0446  1C03               	skipc
  1785     0447  2C49               	goto	u1641
  1786     0448  2C4A               	goto	u1640
  1787     0449                     u1641:
  1788     0449  2BFA               	goto	l97
  1789     044A                     u1640:
  1790     044A                     l1830:
  1791                           
  1792                           ;main.c: 221: };main.c: 222: };main.c: 223: for(k = 0 ; k < dist ; k++){
  1793     044A  1283               	bcf	3,5	;RP0=0, select bank0
  1794     044B  1303               	bcf	3,6	;RP1=0, select bank0
  1795     044C  01D9               	clrf	main@k
  1796     044D  01DA               	clrf	main@k+1
  1797     044E  2C91               	goto	l105
  1798     044F                     l106:
  1799                           
  1800                           ;main.c: 224: RA1 = 1;
  1801     044F  1283               	bcf	3,5	;RP0=0, select bank0
  1802     0450  1303               	bcf	3,6	;RP1=0, select bank0
  1803     0451  1485               	bsf	5,1	;volatile
  1804     0452                     l1832:
  1805                           
  1806                           ;main.c: 225: for(j = 0 ; j < intvl ; j++){
  1807     0452  01DD               	clrf	main@j
  1808     0453  01DE               	clrf	main@j+1
  1809     0454  2C5E               	goto	l107
  1810     0455                     l108:
  1811                           
  1812                           ;main.c: 226: _delay((unsigned long)((1)*(4000000/4000000.0)));
  1813     0455  0000               	nop
  1814     0456                     l1834:
  1815     0456  3001               	movlw	1
  1816     0457  1283               	bcf	3,5	;RP0=0, select bank0
  1817     0458  1303               	bcf	3,6	;RP1=0, select bank0
  1818     0459  07DD               	addwf	main@j,f
  1819     045A  1803               	skipnc
  1820     045B  0ADE               	incf	main@j+1,f
  1821     045C  3000               	movlw	0
  1822     045D  07DE               	addwf	main@j+1,f
  1823     045E                     l107:
  1824     045E  085E               	movf	main@j+1,w
  1825     045F  3A80               	xorlw	128
  1826     0460  00A0               	movwf	??_main
  1827     0461  085C               	movf	main@intvl+1,w
  1828     0462  3A80               	xorlw	128
  1829     0463  0220               	subwf	??_main,w
  1830     0464  1D03               	skipz
  1831     0465  2C68               	goto	u1655
  1832     0466  085B               	movf	main@intvl,w
  1833     0467  025D               	subwf	main@j,w
  1834     0468                     u1655:
  1835     0468  1C03               	skipc
  1836     0469  2C6B               	goto	u1651
  1837     046A  2C6C               	goto	u1650
  1838     046B                     u1651:
  1839     046B  2C55               	goto	l108
  1840     046C                     u1650:
  1841     046C                     l109:
  1842                           
  1843                           ;main.c: 227: };main.c: 228: RA1 = 0;
  1844     046C  1283               	bcf	3,5	;RP0=0, select bank0
  1845     046D  1303               	bcf	3,6	;RP1=0, select bank0
  1846     046E  1085               	bcf	5,1	;volatile
  1847     046F                     l1836:
  1848                           
  1849                           ;main.c: 229: for(j = 0 ; j < intvl ; j++){
  1850     046F  01DD               	clrf	main@j
  1851     0470  01DE               	clrf	main@j+1
  1852     0471  2C7B               	goto	l110
  1853     0472                     l111:
  1854                           
  1855                           ;main.c: 230: _delay((unsigned long)((1)*(4000000/4000000.0)));
  1856     0472  0000               	nop
  1857     0473                     l1838:
  1858     0473  3001               	movlw	1
  1859     0474  1283               	bcf	3,5	;RP0=0, select bank0
  1860     0475  1303               	bcf	3,6	;RP1=0, select bank0
  1861     0476  07DD               	addwf	main@j,f
  1862     0477  1803               	skipnc
  1863     0478  0ADE               	incf	main@j+1,f
  1864     0479  3000               	movlw	0
  1865     047A  07DE               	addwf	main@j+1,f
  1866     047B                     l110:
  1867     047B  085E               	movf	main@j+1,w
  1868     047C  3A80               	xorlw	128
  1869     047D  00A0               	movwf	??_main
  1870     047E  085C               	movf	main@intvl+1,w
  1871     047F  3A80               	xorlw	128
  1872     0480  0220               	subwf	??_main,w
  1873     0481  1D03               	skipz
  1874     0482  2C85               	goto	u1665
  1875     0483  085B               	movf	main@intvl,w
  1876     0484  025D               	subwf	main@j,w
  1877     0485                     u1665:
  1878     0485  1C03               	skipc
  1879     0486  2C88               	goto	u1661
  1880     0487  2C89               	goto	u1660
  1881     0488                     u1661:
  1882     0488  2C72               	goto	l111
  1883     0489                     u1660:
  1884     0489                     l1840:
  1885     0489  3001               	movlw	1
  1886     048A  1283               	bcf	3,5	;RP0=0, select bank0
  1887     048B  1303               	bcf	3,6	;RP1=0, select bank0
  1888     048C  07D9               	addwf	main@k,f
  1889     048D  1803               	skipnc
  1890     048E  0ADA               	incf	main@k+1,f
  1891     048F  3000               	movlw	0
  1892     0490  07DA               	addwf	main@k+1,f
  1893     0491                     l105:
  1894     0491  085A               	movf	main@k+1,w
  1895     0492  3A80               	xorlw	128
  1896     0493  00A0               	movwf	??_main
  1897     0494  0857               	movf	main@dist+1,w
  1898     0495  3A80               	xorlw	128
  1899     0496  0220               	subwf	??_main,w
  1900     0497  1D03               	skipz
  1901     0498  2C9B               	goto	u1675
  1902     0499  0856               	movf	main@dist,w
  1903     049A  0259               	subwf	main@k,w
  1904     049B                     u1675:
  1905     049B  1C03               	skipc
  1906     049C  2C9E               	goto	u1671
  1907     049D  2C9F               	goto	u1670
  1908     049E                     u1671:
  1909     049E  2C4F               	goto	l106
  1910     049F                     u1670:
  1911     049F  2D5B               	goto	l1868
  1912     04A0                     l1842:
  1913                           
  1914                           ;main.c: 234: dist *= -1;
  1915     04A0  30FF               	movlw	255
  1916     04A1  00F0               	movwf	___wmul@multiplier
  1917     04A2  30FF               	movlw	255
  1918     04A3  00F1               	movwf	___wmul@multiplier+1
  1919     04A4  1283               	bcf	3,5	;RP0=0, select bank0
  1920     04A5  1303               	bcf	3,6	;RP1=0, select bank0
  1921     04A6  0857               	movf	main@dist+1,w
  1922     04A7  00F3               	movwf	___wmul@multiplicand+1
  1923     04A8  0856               	movf	main@dist,w
  1924     04A9  00F2               	movwf	___wmul@multiplicand
  1925     04AA  158A  26D7  118A   	fcall	___wmul
  1926     04AD  0871               	movf	?___wmul+1,w
  1927     04AE  1283               	bcf	3,5	;RP0=0, select bank0
  1928     04AF  1303               	bcf	3,6	;RP1=0, select bank0
  1929     04B0  00D7               	movwf	main@dist+1
  1930     04B1  0870               	movf	?___wmul,w
  1931     04B2  00D6               	movwf	main@dist
  1932     04B3                     l1844:
  1933                           
  1934                           ;main.c: 235: for(k = 0 ; k < dist ; k++){
  1935     04B3  01D9               	clrf	main@k
  1936     04B4  01DA               	clrf	main@k+1
  1937     04B5  2CF8               	goto	l115
  1938     04B6                     l116:
  1939                           
  1940                           ;main.c: 236: RA1 = 1;
  1941     04B6  1283               	bcf	3,5	;RP0=0, select bank0
  1942     04B7  1303               	bcf	3,6	;RP1=0, select bank0
  1943     04B8  1485               	bsf	5,1	;volatile
  1944     04B9                     l1846:
  1945                           
  1946                           ;main.c: 237: for(j = 0 ; j < intvl ; j++){
  1947     04B9  01DD               	clrf	main@j
  1948     04BA  01DE               	clrf	main@j+1
  1949     04BB  2CC5               	goto	l117
  1950     04BC                     l118:
  1951                           
  1952                           ;main.c: 238: _delay((unsigned long)((1)*(4000000/4000000.0)));
  1953     04BC  0000               	nop
  1954     04BD                     l1848:
  1955     04BD  3001               	movlw	1
  1956     04BE  1283               	bcf	3,5	;RP0=0, select bank0
  1957     04BF  1303               	bcf	3,6	;RP1=0, select bank0
  1958     04C0  07DD               	addwf	main@j,f
  1959     04C1  1803               	skipnc
  1960     04C2  0ADE               	incf	main@j+1,f
  1961     04C3  3000               	movlw	0
  1962     04C4  07DE               	addwf	main@j+1,f
  1963     04C5                     l117:
  1964     04C5  085E               	movf	main@j+1,w
  1965     04C6  3A80               	xorlw	128
  1966     04C7  00A0               	movwf	??_main
  1967     04C8  085C               	movf	main@intvl+1,w
  1968     04C9  3A80               	xorlw	128
  1969     04CA  0220               	subwf	??_main,w
  1970     04CB  1D03               	skipz
  1971     04CC  2CCF               	goto	u1685
  1972     04CD  085B               	movf	main@intvl,w
  1973     04CE  025D               	subwf	main@j,w
  1974     04CF                     u1685:
  1975     04CF  1C03               	skipc
  1976     04D0  2CD2               	goto	u1681
  1977     04D1  2CD3               	goto	u1680
  1978     04D2                     u1681:
  1979     04D2  2CBC               	goto	l118
  1980     04D3                     u1680:
  1981     04D3                     l119:
  1982                           
  1983                           ;main.c: 239: };main.c: 240: RA1 = 0;
  1984     04D3  1283               	bcf	3,5	;RP0=0, select bank0
  1985     04D4  1303               	bcf	3,6	;RP1=0, select bank0
  1986     04D5  1085               	bcf	5,1	;volatile
  1987     04D6                     l1850:
  1988                           
  1989                           ;main.c: 241: for(j = 0 ; j < intvl ; j++){
  1990     04D6  01DD               	clrf	main@j
  1991     04D7  01DE               	clrf	main@j+1
  1992     04D8  2CE2               	goto	l120
  1993     04D9                     l121:
  1994                           
  1995                           ;main.c: 242: _delay((unsigned long)((1)*(4000000/4000000.0)));
  1996     04D9  0000               	nop
  1997     04DA                     l1852:
  1998     04DA  3001               	movlw	1
  1999     04DB  1283               	bcf	3,5	;RP0=0, select bank0
  2000     04DC  1303               	bcf	3,6	;RP1=0, select bank0
  2001     04DD  07DD               	addwf	main@j,f
  2002     04DE  1803               	skipnc
  2003     04DF  0ADE               	incf	main@j+1,f
  2004     04E0  3000               	movlw	0
  2005     04E1  07DE               	addwf	main@j+1,f
  2006     04E2                     l120:
  2007     04E2  085E               	movf	main@j+1,w
  2008     04E3  3A80               	xorlw	128
  2009     04E4  00A0               	movwf	??_main
  2010     04E5  085C               	movf	main@intvl+1,w
  2011     04E6  3A80               	xorlw	128
  2012     04E7  0220               	subwf	??_main,w
  2013     04E8  1D03               	skipz
  2014     04E9  2CEC               	goto	u1695
  2015     04EA  085B               	movf	main@intvl,w
  2016     04EB  025D               	subwf	main@j,w
  2017     04EC                     u1695:
  2018     04EC  1C03               	skipc
  2019     04ED  2CEF               	goto	u1691
  2020     04EE  2CF0               	goto	u1690
  2021     04EF                     u1691:
  2022     04EF  2CD9               	goto	l121
  2023     04F0                     u1690:
  2024     04F0                     l1854:
  2025     04F0  3001               	movlw	1
  2026     04F1  1283               	bcf	3,5	;RP0=0, select bank0
  2027     04F2  1303               	bcf	3,6	;RP1=0, select bank0
  2028     04F3  07D9               	addwf	main@k,f
  2029     04F4  1803               	skipnc
  2030     04F5  0ADA               	incf	main@k+1,f
  2031     04F6  3000               	movlw	0
  2032     04F7  07DA               	addwf	main@k+1,f
  2033     04F8                     l115:
  2034     04F8  085A               	movf	main@k+1,w
  2035     04F9  3A80               	xorlw	128
  2036     04FA  00A0               	movwf	??_main
  2037     04FB  0857               	movf	main@dist+1,w
  2038     04FC  3A80               	xorlw	128
  2039     04FD  0220               	subwf	??_main,w
  2040     04FE  1D03               	skipz
  2041     04FF  2D02               	goto	u1705
  2042     0500  0856               	movf	main@dist,w
  2043     0501  0259               	subwf	main@k,w
  2044     0502                     u1705:
  2045     0502  1C03               	skipc
  2046     0503  2D05               	goto	u1701
  2047     0504  2D06               	goto	u1700
  2048     0505                     u1701:
  2049     0505  2CB6               	goto	l116
  2050     0506                     u1700:
  2051     0506                     l1856:
  2052                           
  2053                           ;main.c: 243: };main.c: 244: };main.c: 245: for(k = 0 ; k < dist ; k++){
  2054     0506  1283               	bcf	3,5	;RP0=0, select bank0
  2055     0507  1303               	bcf	3,6	;RP1=0, select bank0
  2056     0508  01D9               	clrf	main@k
  2057     0509  01DA               	clrf	main@k+1
  2058     050A  2D4D               	goto	l124
  2059     050B                     l125:
  2060                           
  2061                           ;main.c: 246: RA0 = 1;
  2062     050B  1283               	bcf	3,5	;RP0=0, select bank0
  2063     050C  1303               	bcf	3,6	;RP1=0, select bank0
  2064     050D  1405               	bsf	5,0	;volatile
  2065     050E                     l1858:
  2066                           
  2067                           ;main.c: 247: for(j = 0 ; j < intvl ; j++){
  2068     050E  01DD               	clrf	main@j
  2069     050F  01DE               	clrf	main@j+1
  2070     0510  2D1A               	goto	l126
  2071     0511                     l127:
  2072                           
  2073                           ;main.c: 248: _delay((unsigned long)((1)*(4000000/4000000.0)));
  2074     0511  0000               	nop
  2075     0512                     l1860:
  2076     0512  3001               	movlw	1
  2077     0513  1283               	bcf	3,5	;RP0=0, select bank0
  2078     0514  1303               	bcf	3,6	;RP1=0, select bank0
  2079     0515  07DD               	addwf	main@j,f
  2080     0516  1803               	skipnc
  2081     0517  0ADE               	incf	main@j+1,f
  2082     0518  3000               	movlw	0
  2083     0519  07DE               	addwf	main@j+1,f
  2084     051A                     l126:
  2085     051A  085E               	movf	main@j+1,w
  2086     051B  3A80               	xorlw	128
  2087     051C  00A0               	movwf	??_main
  2088     051D  085C               	movf	main@intvl+1,w
  2089     051E  3A80               	xorlw	128
  2090     051F  0220               	subwf	??_main,w
  2091     0520  1D03               	skipz
  2092     0521  2D24               	goto	u1715
  2093     0522  085B               	movf	main@intvl,w
  2094     0523  025D               	subwf	main@j,w
  2095     0524                     u1715:
  2096     0524  1C03               	skipc
  2097     0525  2D27               	goto	u1711
  2098     0526  2D28               	goto	u1710
  2099     0527                     u1711:
  2100     0527  2D11               	goto	l127
  2101     0528                     u1710:
  2102     0528                     l128:
  2103                           
  2104                           ;main.c: 249: };main.c: 250: RA0 = 0;
  2105     0528  1283               	bcf	3,5	;RP0=0, select bank0
  2106     0529  1303               	bcf	3,6	;RP1=0, select bank0
  2107     052A  1005               	bcf	5,0	;volatile
  2108     052B                     l1862:
  2109                           
  2110                           ;main.c: 251: for(j = 0 ; j < intvl ; j++){
  2111     052B  01DD               	clrf	main@j
  2112     052C  01DE               	clrf	main@j+1
  2113     052D  2D37               	goto	l129
  2114     052E                     l130:
  2115                           
  2116                           ;main.c: 252: _delay((unsigned long)((1)*(4000000/4000000.0)));
  2117     052E  0000               	nop
  2118     052F                     l1864:
  2119     052F  3001               	movlw	1
  2120     0530  1283               	bcf	3,5	;RP0=0, select bank0
  2121     0531  1303               	bcf	3,6	;RP1=0, select bank0
  2122     0532  07DD               	addwf	main@j,f
  2123     0533  1803               	skipnc
  2124     0534  0ADE               	incf	main@j+1,f
  2125     0535  3000               	movlw	0
  2126     0536  07DE               	addwf	main@j+1,f
  2127     0537                     l129:
  2128     0537  085E               	movf	main@j+1,w
  2129     0538  3A80               	xorlw	128
  2130     0539  00A0               	movwf	??_main
  2131     053A  085C               	movf	main@intvl+1,w
  2132     053B  3A80               	xorlw	128
  2133     053C  0220               	subwf	??_main,w
  2134     053D  1D03               	skipz
  2135     053E  2D41               	goto	u1725
  2136     053F  085B               	movf	main@intvl,w
  2137     0540  025D               	subwf	main@j,w
  2138     0541                     u1725:
  2139     0541  1C03               	skipc
  2140     0542  2D44               	goto	u1721
  2141     0543  2D45               	goto	u1720
  2142     0544                     u1721:
  2143     0544  2D2E               	goto	l130
  2144     0545                     u1720:
  2145     0545                     l1866:
  2146     0545  3001               	movlw	1
  2147     0546  1283               	bcf	3,5	;RP0=0, select bank0
  2148     0547  1303               	bcf	3,6	;RP1=0, select bank0
  2149     0548  07D9               	addwf	main@k,f
  2150     0549  1803               	skipnc
  2151     054A  0ADA               	incf	main@k+1,f
  2152     054B  3000               	movlw	0
  2153     054C  07DA               	addwf	main@k+1,f
  2154     054D                     l124:
  2155     054D  085A               	movf	main@k+1,w
  2156     054E  3A80               	xorlw	128
  2157     054F  00A0               	movwf	??_main
  2158     0550  0857               	movf	main@dist+1,w
  2159     0551  3A80               	xorlw	128
  2160     0552  0220               	subwf	??_main,w
  2161     0553  1D03               	skipz
  2162     0554  2D57               	goto	u1735
  2163     0555  0856               	movf	main@dist,w
  2164     0556  0259               	subwf	main@k,w
  2165     0557                     u1735:
  2166     0557  1C03               	skipc
  2167     0558  2D5A               	goto	u1731
  2168     0559  2D5B               	goto	u1730
  2169     055A                     u1731:
  2170     055A  2D0B               	goto	l125
  2171     055B                     u1730:
  2172     055B                     l1868:
  2173                           
  2174                           ;main.c: 253: };main.c: 254: };main.c: 255: };main.c: 258: printf("C\tOSC\r\n");
  2175     055B  3021               	movlw	(low ((STR_27-__stringbase)| (0+32768)))& (0+255)
  2176     055C  158A  26A4  118A   	fcall	_printf
  2177                           
  2178                           ;main.c: 259: break;
  2179     055F  2970               	goto	l1686
  2180     0560                     l1870:
  2181                           
  2182                           ;main.c: 262: dist = 10000;
  2183     0560  3010               	movlw	16
  2184     0561  00D6               	movwf	main@dist
  2185     0562  3027               	movlw	39
  2186     0563  00D7               	movwf	main@dist+1
  2187     0564                     l1872:
  2188                           
  2189                           ;main.c: 263: for(k = 0 ; k < dist ; k++){
  2190     0564  01D9               	clrf	main@k
  2191     0565  01DA               	clrf	main@k+1
  2192     0566  2DAE               	goto	l134
  2193     0567                     l135:
  2194                           
  2195                           ;main.c: 264: RA0 = 1;
  2196     0567  1283               	bcf	3,5	;RP0=0, select bank0
  2197     0568  1303               	bcf	3,6	;RP1=0, select bank0
  2198     0569  1405               	bsf	5,0	;volatile
  2199     056A                     l1874:
  2200                           
  2201                           ;main.c: 265: for(j = 0 ; j < intvl ; j++){
  2202     056A  01DD               	clrf	main@j
  2203     056B  01DE               	clrf	main@j+1
  2204     056C  2D76               	goto	l136
  2205     056D                     l137:
  2206                           
  2207                           ;main.c: 266: _delay((unsigned long)((1)*(4000000/4000000.0)));
  2208     056D  0000               	nop
  2209     056E                     l1876:
  2210     056E  3001               	movlw	1
  2211     056F  1283               	bcf	3,5	;RP0=0, select bank0
  2212     0570  1303               	bcf	3,6	;RP1=0, select bank0
  2213     0571  07DD               	addwf	main@j,f
  2214     0572  1803               	skipnc
  2215     0573  0ADE               	incf	main@j+1,f
  2216     0574  3000               	movlw	0
  2217     0575  07DE               	addwf	main@j+1,f
  2218     0576                     l136:
  2219     0576  085E               	movf	main@j+1,w
  2220     0577  3A80               	xorlw	128
  2221     0578  00A0               	movwf	??_main
  2222     0579  085C               	movf	main@intvl+1,w
  2223     057A  3A80               	xorlw	128
  2224     057B  0220               	subwf	??_main,w
  2225     057C  1D03               	skipz
  2226     057D  2D80               	goto	u1745
  2227     057E  085B               	movf	main@intvl,w
  2228     057F  025D               	subwf	main@j,w
  2229     0580                     u1745:
  2230     0580  1C03               	skipc
  2231     0581  2D83               	goto	u1741
  2232     0582  2D84               	goto	u1740
  2233     0583                     u1741:
  2234     0583  2D6D               	goto	l137
  2235     0584                     u1740:
  2236     0584                     l138:
  2237                           
  2238                           ;main.c: 267: };main.c: 268: RA0 = 0;
  2239     0584  1283               	bcf	3,5	;RP0=0, select bank0
  2240     0585  1303               	bcf	3,6	;RP1=0, select bank0
  2241     0586  1005               	bcf	5,0	;volatile
  2242     0587                     l1878:
  2243                           
  2244                           ;main.c: 269: for(j = 0 ; j < intvl ; j++){
  2245     0587  01DD               	clrf	main@j
  2246     0588  01DE               	clrf	main@j+1
  2247     0589  2D93               	goto	l139
  2248     058A                     l140:
  2249                           
  2250                           ;main.c: 270: _delay((unsigned long)((1)*(4000000/4000000.0)));
  2251     058A  0000               	nop
  2252     058B                     l1880:
  2253     058B  3001               	movlw	1
  2254     058C  1283               	bcf	3,5	;RP0=0, select bank0
  2255     058D  1303               	bcf	3,6	;RP1=0, select bank0
  2256     058E  07DD               	addwf	main@j,f
  2257     058F  1803               	skipnc
  2258     0590  0ADE               	incf	main@j+1,f
  2259     0591  3000               	movlw	0
  2260     0592  07DE               	addwf	main@j+1,f
  2261     0593                     l139:
  2262     0593  085E               	movf	main@j+1,w
  2263     0594  3A80               	xorlw	128
  2264     0595  00A0               	movwf	??_main
  2265     0596  085C               	movf	main@intvl+1,w
  2266     0597  3A80               	xorlw	128
  2267     0598  0220               	subwf	??_main,w
  2268     0599  1D03               	skipz
  2269     059A  2D9D               	goto	u1755
  2270     059B  085B               	movf	main@intvl,w
  2271     059C  025D               	subwf	main@j,w
  2272     059D                     u1755:
  2273     059D  1C03               	skipc
  2274     059E  2DA0               	goto	u1751
  2275     059F  2DA1               	goto	u1750
  2276     05A0                     u1751:
  2277     05A0  2D8A               	goto	l140
  2278     05A1                     u1750:
  2279     05A1                     l141:
  2280                           
  2281                           ;main.c: 271: };main.c: 273: if(RB0 == 0){
  2282     05A1  1283               	bcf	3,5	;RP0=0, select bank0
  2283     05A2  1303               	bcf	3,6	;RP1=0, select bank0
  2284     05A3  1806               	btfsc	6,0	;volatile
  2285     05A4  2DA6               	goto	u1761
  2286     05A5  2DA7               	goto	u1760
  2287     05A6                     u1761:
  2288     05A6  2DA8               	goto	l1884
  2289     05A7                     u1760:
  2290     05A7  2DBC               	goto	l1886
  2291     05A8                     l1884:
  2292     05A8  3001               	movlw	1
  2293     05A9  07D9               	addwf	main@k,f
  2294     05AA  1803               	skipnc
  2295     05AB  0ADA               	incf	main@k+1,f
  2296     05AC  3000               	movlw	0
  2297     05AD  07DA               	addwf	main@k+1,f
  2298     05AE                     l134:
  2299     05AE  085A               	movf	main@k+1,w
  2300     05AF  3A80               	xorlw	128
  2301     05B0  00A0               	movwf	??_main
  2302     05B1  0857               	movf	main@dist+1,w
  2303     05B2  3A80               	xorlw	128
  2304     05B3  0220               	subwf	??_main,w
  2305     05B4  1D03               	skipz
  2306     05B5  2DB8               	goto	u1775
  2307     05B6  0856               	movf	main@dist,w
  2308     05B7  0259               	subwf	main@k,w
  2309     05B8                     u1775:
  2310     05B8  1C03               	skipc
  2311     05B9  2DBB               	goto	u1771
  2312     05BA  2DBC               	goto	u1770
  2313     05BB                     u1771:
  2314     05BB  2D67               	goto	l135
  2315     05BC                     u1770:
  2316     05BC                     l1886:
  2317                           
  2318                           ;main.c: 275: };main.c: 277: };main.c: 279: printf("C\tNTD\r\n");
  2319     05BC  3041               	movlw	(low ((STR_28-__stringbase)| (0+32768)))& (0+255)
  2320     05BD  158A  26A4  118A   	fcall	_printf
  2321                           
  2322                           ;main.c: 281: break;
  2323     05C0  2970               	goto	l1686
  2324     05C1                     l1888:
  2325                           
  2326                           ;main.c: 284: ptr = strtok((0), "/");
  2327     05C1  308D               	movlw	(low ((STR_12-__stringbase)| (0+32768)))& (0+255)
  2328     05C2  00FA               	movwf	strtok@s2
  2329     05C3  3000               	movlw	0
  2330     05C4  158A  2753  118A   	fcall	_strtok
  2331     05C7  1283               	bcf	3,5	;RP0=0, select bank0
  2332     05C8  1303               	bcf	3,6	;RP1=0, select bank0
  2333     05C9  00D8               	movwf	main@ptr
  2334     05CA                     l1890:
  2335                           
  2336                           ;main.c: 285: if(ptr != (0)) {
  2337     05CA  0858               	movf	main@ptr,w
  2338     05CB  1903               	btfsc	3,2
  2339     05CC  2DCE               	goto	u1781
  2340     05CD  2DCF               	goto	u1780
  2341     05CE                     u1781:
  2342     05CE  2DD9               	goto	l1894
  2343     05CF                     u1780:
  2344     05CF                     l1892:
  2345                           
  2346                           ;main.c: 286: dist = atoi(ptr);
  2347     05CF  0858               	movf	main@ptr,w
  2348     05D0  118A  20D0  118A   	fcall	_atoi
  2349     05D3  0877               	movf	?_atoi+1,w
  2350     05D4  1283               	bcf	3,5	;RP0=0, select bank0
  2351     05D5  1303               	bcf	3,6	;RP1=0, select bank0
  2352     05D6  00D7               	movwf	main@dist+1
  2353     05D7  0876               	movf	?_atoi,w
  2354     05D8  00D6               	movwf	main@dist
  2355     05D9                     l1894:
  2356                           
  2357                           ;main.c: 287: };main.c: 289: for(k = 0 ; k < 10000 ; k++){
  2358     05D9  01D9               	clrf	main@k
  2359     05DA  01DA               	clrf	main@k+1
  2360     05DB                     l146:
  2361                           
  2362                           ;main.c: 290: RA0 = 1;
  2363     05DB  1283               	bcf	3,5	;RP0=0, select bank0
  2364     05DC  1303               	bcf	3,6	;RP1=0, select bank0
  2365     05DD  1405               	bsf	5,0	;volatile
  2366     05DE                     l1900:
  2367                           
  2368                           ;main.c: 291: for(j = 0 ; j < intvl ; j++){
  2369     05DE  01DD               	clrf	main@j
  2370     05DF  01DE               	clrf	main@j+1
  2371     05E0  2DEA               	goto	l148
  2372     05E1                     l149:
  2373                           
  2374                           ;main.c: 292: _delay((unsigned long)((1)*(4000000/4000000.0)));
  2375     05E1  0000               	nop
  2376     05E2                     l1902:
  2377     05E2  3001               	movlw	1
  2378     05E3  1283               	bcf	3,5	;RP0=0, select bank0
  2379     05E4  1303               	bcf	3,6	;RP1=0, select bank0
  2380     05E5  07DD               	addwf	main@j,f
  2381     05E6  1803               	skipnc
  2382     05E7  0ADE               	incf	main@j+1,f
  2383     05E8  3000               	movlw	0
  2384     05E9  07DE               	addwf	main@j+1,f
  2385     05EA                     l148:
  2386     05EA  085E               	movf	main@j+1,w
  2387     05EB  3A80               	xorlw	128
  2388     05EC  00A0               	movwf	??_main
  2389     05ED  085C               	movf	main@intvl+1,w
  2390     05EE  3A80               	xorlw	128
  2391     05EF  0220               	subwf	??_main,w
  2392     05F0  1D03               	skipz
  2393     05F1  2DF4               	goto	u1795
  2394     05F2  085B               	movf	main@intvl,w
  2395     05F3  025D               	subwf	main@j,w
  2396     05F4                     u1795:
  2397     05F4  1C03               	skipc
  2398     05F5  2DF7               	goto	u1791
  2399     05F6  2DF8               	goto	u1790
  2400     05F7                     u1791:
  2401     05F7  2DE1               	goto	l149
  2402     05F8                     u1790:
  2403     05F8                     l150:
  2404                           
  2405                           ;main.c: 293: };main.c: 294: RA0 = 0;
  2406     05F8  1283               	bcf	3,5	;RP0=0, select bank0
  2407     05F9  1303               	bcf	3,6	;RP1=0, select bank0
  2408     05FA  1005               	bcf	5,0	;volatile
  2409     05FB                     l1904:
  2410                           
  2411                           ;main.c: 295: for(j = 0 ; j < intvl ; j++){
  2412     05FB  01DD               	clrf	main@j
  2413     05FC  01DE               	clrf	main@j+1
  2414     05FD  2E07               	goto	l151
  2415     05FE                     l152:
  2416                           
  2417                           ;main.c: 296: _delay((unsigned long)((1)*(4000000/4000000.0)));
  2418     05FE  0000               	nop
  2419     05FF                     l1906:
  2420     05FF  3001               	movlw	1
  2421     0600  1283               	bcf	3,5	;RP0=0, select bank0
  2422     0601  1303               	bcf	3,6	;RP1=0, select bank0
  2423     0602  07DD               	addwf	main@j,f
  2424     0603  1803               	skipnc
  2425     0604  0ADE               	incf	main@j+1,f
  2426     0605  3000               	movlw	0
  2427     0606  07DE               	addwf	main@j+1,f
  2428     0607                     l151:
  2429     0607  085E               	movf	main@j+1,w
  2430     0608  3A80               	xorlw	128
  2431     0609  00A0               	movwf	??_main
  2432     060A  085C               	movf	main@intvl+1,w
  2433     060B  3A80               	xorlw	128
  2434     060C  0220               	subwf	??_main,w
  2435     060D  1D03               	skipz
  2436     060E  2E11               	goto	u1805
  2437     060F  085B               	movf	main@intvl,w
  2438     0610  025D               	subwf	main@j,w
  2439     0611                     u1805:
  2440     0611  1C03               	skipc
  2441     0612  2E14               	goto	u1801
  2442     0613  2E15               	goto	u1800
  2443     0614                     u1801:
  2444     0614  2DFE               	goto	l152
  2445     0615                     u1800:
  2446     0615                     l153:
  2447                           
  2448                           ;main.c: 297: };main.c: 299: if(RB0 == 0){
  2449     0615  1283               	bcf	3,5	;RP0=0, select bank0
  2450     0616  1303               	bcf	3,6	;RP1=0, select bank0
  2451     0617  1806               	btfsc	6,0	;volatile
  2452     0618  2E1A               	goto	u1811
  2453     0619  2E1B               	goto	u1810
  2454     061A                     u1811:
  2455     061A  2E1C               	goto	l1910
  2456     061B                     u1810:
  2457     061B  2E2F               	goto	l1914
  2458     061C                     l1910:
  2459     061C  3001               	movlw	1
  2460     061D  07D9               	addwf	main@k,f
  2461     061E  1803               	skipnc
  2462     061F  0ADA               	incf	main@k+1,f
  2463     0620  3000               	movlw	0
  2464     0621  07DA               	addwf	main@k+1,f
  2465     0622                     l1912:
  2466     0622  085A               	movf	main@k+1,w
  2467     0623  3A80               	xorlw	128
  2468     0624  00FF               	movwf	btemp+1
  2469     0625  30A7               	movlw	167
  2470     0626  027F               	subwf	btemp+1,w
  2471     0627  1D03               	skipz
  2472     0628  2E2B               	goto	u1825
  2473     0629  3010               	movlw	16
  2474     062A  0259               	subwf	main@k,w
  2475     062B                     u1825:
  2476     062B  1C03               	skipc
  2477     062C  2E2E               	goto	u1821
  2478     062D  2E2F               	goto	u1820
  2479     062E                     u1821:
  2480     062E  2DDB               	goto	l146
  2481     062F                     u1820:
  2482     062F                     l1914:
  2483                           
  2484                           ;main.c: 301: };main.c: 303: };main.c: 305: for(k = 0 ; k < dist ; k++){
  2485     062F  1283               	bcf	3,5	;RP0=0, select bank0
  2486     0630  1303               	bcf	3,6	;RP1=0, select bank0
  2487     0631  01D9               	clrf	main@k
  2488     0632  01DA               	clrf	main@k+1
  2489     0633  2E76               	goto	l155
  2490     0634                     l156:
  2491                           
  2492                           ;main.c: 306: RA1 = 1;
  2493     0634  1283               	bcf	3,5	;RP0=0, select bank0
  2494     0635  1303               	bcf	3,6	;RP1=0, select bank0
  2495     0636  1485               	bsf	5,1	;volatile
  2496     0637                     l1916:
  2497                           
  2498                           ;main.c: 307: for(j = 0 ; j < intvl ; j++){
  2499     0637  01DD               	clrf	main@j
  2500     0638  01DE               	clrf	main@j+1
  2501     0639  2E43               	goto	l157
  2502     063A                     l158:
  2503                           
  2504                           ;main.c: 308: _delay((unsigned long)((1)*(4000000/4000000.0)));
  2505     063A  0000               	nop
  2506     063B                     l1918:
  2507     063B  3001               	movlw	1
  2508     063C  1283               	bcf	3,5	;RP0=0, select bank0
  2509     063D  1303               	bcf	3,6	;RP1=0, select bank0
  2510     063E  07DD               	addwf	main@j,f
  2511     063F  1803               	skipnc
  2512     0640  0ADE               	incf	main@j+1,f
  2513     0641  3000               	movlw	0
  2514     0642  07DE               	addwf	main@j+1,f
  2515     0643                     l157:
  2516     0643  085E               	movf	main@j+1,w
  2517     0644  3A80               	xorlw	128
  2518     0645  00A0               	movwf	??_main
  2519     0646  085C               	movf	main@intvl+1,w
  2520     0647  3A80               	xorlw	128
  2521     0648  0220               	subwf	??_main,w
  2522     0649  1D03               	skipz
  2523     064A  2E4D               	goto	u1835
  2524     064B  085B               	movf	main@intvl,w
  2525     064C  025D               	subwf	main@j,w
  2526     064D                     u1835:
  2527     064D  1C03               	skipc
  2528     064E  2E50               	goto	u1831
  2529     064F  2E51               	goto	u1830
  2530     0650                     u1831:
  2531     0650  2E3A               	goto	l158
  2532     0651                     u1830:
  2533     0651                     l159:
  2534                           
  2535                           ;main.c: 309: };main.c: 310: RA1 = 0;
  2536     0651  1283               	bcf	3,5	;RP0=0, select bank0
  2537     0652  1303               	bcf	3,6	;RP1=0, select bank0
  2538     0653  1085               	bcf	5,1	;volatile
  2539     0654                     l1920:
  2540                           
  2541                           ;main.c: 311: for(j = 0 ; j < intvl ; j++){
  2542     0654  01DD               	clrf	main@j
  2543     0655  01DE               	clrf	main@j+1
  2544     0656  2E60               	goto	l160
  2545     0657                     l161:
  2546                           
  2547                           ;main.c: 312: _delay((unsigned long)((1)*(4000000/4000000.0)));
  2548     0657  0000               	nop
  2549     0658                     l1922:
  2550     0658  3001               	movlw	1
  2551     0659  1283               	bcf	3,5	;RP0=0, select bank0
  2552     065A  1303               	bcf	3,6	;RP1=0, select bank0
  2553     065B  07DD               	addwf	main@j,f
  2554     065C  1803               	skipnc
  2555     065D  0ADE               	incf	main@j+1,f
  2556     065E  3000               	movlw	0
  2557     065F  07DE               	addwf	main@j+1,f
  2558     0660                     l160:
  2559     0660  085E               	movf	main@j+1,w
  2560     0661  3A80               	xorlw	128
  2561     0662  00A0               	movwf	??_main
  2562     0663  085C               	movf	main@intvl+1,w
  2563     0664  3A80               	xorlw	128
  2564     0665  0220               	subwf	??_main,w
  2565     0666  1D03               	skipz
  2566     0667  2E6A               	goto	u1845
  2567     0668  085B               	movf	main@intvl,w
  2568     0669  025D               	subwf	main@j,w
  2569     066A                     u1845:
  2570     066A  1C03               	skipc
  2571     066B  2E6D               	goto	u1841
  2572     066C  2E6E               	goto	u1840
  2573     066D                     u1841:
  2574     066D  2E57               	goto	l161
  2575     066E                     u1840:
  2576     066E                     l1924:
  2577     066E  3001               	movlw	1
  2578     066F  1283               	bcf	3,5	;RP0=0, select bank0
  2579     0670  1303               	bcf	3,6	;RP1=0, select bank0
  2580     0671  07D9               	addwf	main@k,f
  2581     0672  1803               	skipnc
  2582     0673  0ADA               	incf	main@k+1,f
  2583     0674  3000               	movlw	0
  2584     0675  07DA               	addwf	main@k+1,f
  2585     0676                     l155:
  2586     0676  085A               	movf	main@k+1,w
  2587     0677  3A80               	xorlw	128
  2588     0678  00A0               	movwf	??_main
  2589     0679  0857               	movf	main@dist+1,w
  2590     067A  3A80               	xorlw	128
  2591     067B  0220               	subwf	??_main,w
  2592     067C  1D03               	skipz
  2593     067D  2E80               	goto	u1855
  2594     067E  0856               	movf	main@dist,w
  2595     067F  0259               	subwf	main@k,w
  2596     0680                     u1855:
  2597     0680  1C03               	skipc
  2598     0681  2E83               	goto	u1851
  2599     0682  2E84               	goto	u1850
  2600     0683                     u1851:
  2601     0683  2E34               	goto	l156
  2602     0684                     u1850:
  2603     0684                     l1926:
  2604                           
  2605                           ;main.c: 313: };main.c: 314: };main.c: 317: printf("C\tNDO\r\n");
  2606     0684  3049               	movlw	(low ((STR_30-__stringbase)| (0+32768)))& (0+255)
  2607     0685  158A  26A4  118A   	fcall	_printf
  2608                           
  2609                           ;main.c: 318: break;
  2610     0688  2970               	goto	l1686
  2611     0689                     l1928:
  2612                           
  2613                           ;main.c: 321: for(k = 0 ; k < 10000 ; k++){
  2614     0689  01D9               	clrf	main@k
  2615     068A  01DA               	clrf	main@k+1
  2616     068B                     l165:
  2617                           
  2618                           ;main.c: 322: RA0 = 1;
  2619     068B  1283               	bcf	3,5	;RP0=0, select bank0
  2620     068C  1303               	bcf	3,6	;RP1=0, select bank0
  2621     068D  1405               	bsf	5,0	;volatile
  2622     068E                     l1934:
  2623                           
  2624                           ;main.c: 323: for(j = 0 ; j < intvl ; j++){
  2625     068E  01DD               	clrf	main@j
  2626     068F  01DE               	clrf	main@j+1
  2627     0690  2E9A               	goto	l167
  2628     0691                     l168:
  2629                           
  2630                           ;main.c: 324: _delay((unsigned long)((1)*(4000000/4000000.0)));
  2631     0691  0000               	nop
  2632     0692                     l1936:
  2633     0692  3001               	movlw	1
  2634     0693  1283               	bcf	3,5	;RP0=0, select bank0
  2635     0694  1303               	bcf	3,6	;RP1=0, select bank0
  2636     0695  07DD               	addwf	main@j,f
  2637     0696  1803               	skipnc
  2638     0697  0ADE               	incf	main@j+1,f
  2639     0698  3000               	movlw	0
  2640     0699  07DE               	addwf	main@j+1,f
  2641     069A                     l167:
  2642     069A  085E               	movf	main@j+1,w
  2643     069B  3A80               	xorlw	128
  2644     069C  00A0               	movwf	??_main
  2645     069D  085C               	movf	main@intvl+1,w
  2646     069E  3A80               	xorlw	128
  2647     069F  0220               	subwf	??_main,w
  2648     06A0  1D03               	skipz
  2649     06A1  2EA4               	goto	u1865
  2650     06A2  085B               	movf	main@intvl,w
  2651     06A3  025D               	subwf	main@j,w
  2652     06A4                     u1865:
  2653     06A4  1C03               	skipc
  2654     06A5  2EA7               	goto	u1861
  2655     06A6  2EA8               	goto	u1860
  2656     06A7                     u1861:
  2657     06A7  2E91               	goto	l168
  2658     06A8                     u1860:
  2659     06A8                     l169:
  2660                           
  2661                           ;main.c: 325: };main.c: 326: RA0 = 0;
  2662     06A8  1283               	bcf	3,5	;RP0=0, select bank0
  2663     06A9  1303               	bcf	3,6	;RP1=0, select bank0
  2664     06AA  1005               	bcf	5,0	;volatile
  2665     06AB                     l1938:
  2666                           
  2667                           ;main.c: 327: for(j = 0 ; j < intvl ; j++){
  2668     06AB  01DD               	clrf	main@j
  2669     06AC  01DE               	clrf	main@j+1
  2670     06AD  2EB7               	goto	l170
  2671     06AE                     l171:
  2672                           
  2673                           ;main.c: 328: _delay((unsigned long)((1)*(4000000/4000000.0)));
  2674     06AE  0000               	nop
  2675     06AF                     l1940:
  2676     06AF  3001               	movlw	1
  2677     06B0  1283               	bcf	3,5	;RP0=0, select bank0
  2678     06B1  1303               	bcf	3,6	;RP1=0, select bank0
  2679     06B2  07DD               	addwf	main@j,f
  2680     06B3  1803               	skipnc
  2681     06B4  0ADE               	incf	main@j+1,f
  2682     06B5  3000               	movlw	0
  2683     06B6  07DE               	addwf	main@j+1,f
  2684     06B7                     l170:
  2685     06B7  085E               	movf	main@j+1,w
  2686     06B8  3A80               	xorlw	128
  2687     06B9  00A0               	movwf	??_main
  2688     06BA  085C               	movf	main@intvl+1,w
  2689     06BB  3A80               	xorlw	128
  2690     06BC  0220               	subwf	??_main,w
  2691     06BD  1D03               	skipz
  2692     06BE  2EC1               	goto	u1875
  2693     06BF  085B               	movf	main@intvl,w
  2694     06C0  025D               	subwf	main@j,w
  2695     06C1                     u1875:
  2696     06C1  1C03               	skipc
  2697     06C2  2EC4               	goto	u1871
  2698     06C3  2EC5               	goto	u1870
  2699     06C4                     u1871:
  2700     06C4  2EAE               	goto	l171
  2701     06C5                     u1870:
  2702     06C5                     l172:
  2703                           
  2704                           ;main.c: 329: };main.c: 331: if(RB0 == 0){
  2705     06C5  1283               	bcf	3,5	;RP0=0, select bank0
  2706     06C6  1303               	bcf	3,6	;RP1=0, select bank0
  2707     06C7  1806               	btfsc	6,0	;volatile
  2708     06C8  2ECA               	goto	u1881
  2709     06C9  2ECB               	goto	u1880
  2710     06CA                     u1881:
  2711     06CA  2ECC               	goto	l1944
  2712     06CB                     u1880:
  2713     06CB  2EDF               	goto	l1948
  2714     06CC                     l1944:
  2715     06CC  3001               	movlw	1
  2716     06CD  07D9               	addwf	main@k,f
  2717     06CE  1803               	skipnc
  2718     06CF  0ADA               	incf	main@k+1,f
  2719     06D0  3000               	movlw	0
  2720     06D1  07DA               	addwf	main@k+1,f
  2721     06D2                     l1946:
  2722     06D2  085A               	movf	main@k+1,w
  2723     06D3  3A80               	xorlw	128
  2724     06D4  00FF               	movwf	btemp+1
  2725     06D5  30A7               	movlw	167
  2726     06D6  027F               	subwf	btemp+1,w
  2727     06D7  1D03               	skipz
  2728     06D8  2EDB               	goto	u1895
  2729     06D9  3010               	movlw	16
  2730     06DA  0259               	subwf	main@k,w
  2731     06DB                     u1895:
  2732     06DB  1C03               	skipc
  2733     06DC  2EDE               	goto	u1891
  2734     06DD  2EDF               	goto	u1890
  2735     06DE                     u1891:
  2736     06DE  2E8B               	goto	l165
  2737     06DF                     u1890:
  2738     06DF                     l1948:
  2739                           
  2740                           ;main.c: 333: };main.c: 334: };main.c: 336: for(k = 0 ; k < npd ; k++){
  2741     06DF  1283               	bcf	3,5	;RP0=0, select bank0
  2742     06E0  1303               	bcf	3,6	;RP1=0, select bank0
  2743     06E1  01D9               	clrf	main@k
  2744     06E2  01DA               	clrf	main@k+1
  2745     06E3  2F26               	goto	l174
  2746     06E4                     l175:
  2747                           
  2748                           ;main.c: 337: RA1 = 1;
  2749     06E4  1283               	bcf	3,5	;RP0=0, select bank0
  2750     06E5  1303               	bcf	3,6	;RP1=0, select bank0
  2751     06E6  1485               	bsf	5,1	;volatile
  2752     06E7                     l1950:
  2753                           
  2754                           ;main.c: 338: for(j = 0 ; j < intvl ; j++){
  2755     06E7  01DD               	clrf	main@j
  2756     06E8  01DE               	clrf	main@j+1
  2757     06E9  2EF3               	goto	l176
  2758     06EA                     l177:
  2759                           
  2760                           ;main.c: 339: _delay((unsigned long)((1)*(4000000/4000000.0)));
  2761     06EA  0000               	nop
  2762     06EB                     l1952:
  2763     06EB  3001               	movlw	1
  2764     06EC  1283               	bcf	3,5	;RP0=0, select bank0
  2765     06ED  1303               	bcf	3,6	;RP1=0, select bank0
  2766     06EE  07DD               	addwf	main@j,f
  2767     06EF  1803               	skipnc
  2768     06F0  0ADE               	incf	main@j+1,f
  2769     06F1  3000               	movlw	0
  2770     06F2  07DE               	addwf	main@j+1,f
  2771     06F3                     l176:
  2772     06F3  085E               	movf	main@j+1,w
  2773     06F4  3A80               	xorlw	128
  2774     06F5  00A0               	movwf	??_main
  2775     06F6  085C               	movf	main@intvl+1,w
  2776     06F7  3A80               	xorlw	128
  2777     06F8  0220               	subwf	??_main,w
  2778     06F9  1D03               	skipz
  2779     06FA  2EFD               	goto	u1905
  2780     06FB  085B               	movf	main@intvl,w
  2781     06FC  025D               	subwf	main@j,w
  2782     06FD                     u1905:
  2783     06FD  1C03               	skipc
  2784     06FE  2F00               	goto	u1901
  2785     06FF  2F01               	goto	u1900
  2786     0700                     u1901:
  2787     0700  2EEA               	goto	l177
  2788     0701                     u1900:
  2789     0701                     l178:
  2790                           
  2791                           ;main.c: 340: };main.c: 341: RA1 = 0;
  2792     0701  1283               	bcf	3,5	;RP0=0, select bank0
  2793     0702  1303               	bcf	3,6	;RP1=0, select bank0
  2794     0703  1085               	bcf	5,1	;volatile
  2795     0704                     l1954:
  2796                           
  2797                           ;main.c: 342: for(j = 0 ; j < intvl ; j++){
  2798     0704  01DD               	clrf	main@j
  2799     0705  01DE               	clrf	main@j+1
  2800     0706  2F10               	goto	l179
  2801     0707                     l180:
  2802                           
  2803                           ;main.c: 343: _delay((unsigned long)((1)*(4000000/4000000.0)));
  2804     0707  0000               	nop
  2805     0708                     l1956:
  2806     0708  3001               	movlw	1
  2807     0709  1283               	bcf	3,5	;RP0=0, select bank0
  2808     070A  1303               	bcf	3,6	;RP1=0, select bank0
  2809     070B  07DD               	addwf	main@j,f
  2810     070C  1803               	skipnc
  2811     070D  0ADE               	incf	main@j+1,f
  2812     070E  3000               	movlw	0
  2813     070F  07DE               	addwf	main@j+1,f
  2814     0710                     l179:
  2815     0710  085E               	movf	main@j+1,w
  2816     0711  3A80               	xorlw	128
  2817     0712  00A0               	movwf	??_main
  2818     0713  085C               	movf	main@intvl+1,w
  2819     0714  3A80               	xorlw	128
  2820     0715  0220               	subwf	??_main,w
  2821     0716  1D03               	skipz
  2822     0717  2F1A               	goto	u1915
  2823     0718  085B               	movf	main@intvl,w
  2824     0719  025D               	subwf	main@j,w
  2825     071A                     u1915:
  2826     071A  1C03               	skipc
  2827     071B  2F1D               	goto	u1911
  2828     071C  2F1E               	goto	u1910
  2829     071D                     u1911:
  2830     071D  2F07               	goto	l180
  2831     071E                     u1910:
  2832     071E                     l1958:
  2833     071E  3001               	movlw	1
  2834     071F  1283               	bcf	3,5	;RP0=0, select bank0
  2835     0720  1303               	bcf	3,6	;RP1=0, select bank0
  2836     0721  07D9               	addwf	main@k,f
  2837     0722  1803               	skipnc
  2838     0723  0ADA               	incf	main@k+1,f
  2839     0724  3000               	movlw	0
  2840     0725  07DA               	addwf	main@k+1,f
  2841     0726                     l174:
  2842     0726  085A               	movf	main@k+1,w
  2843     0727  3A80               	xorlw	128
  2844     0728  00A0               	movwf	??_main
  2845     0729  084E               	movf	main@npd+1,w
  2846     072A  3A80               	xorlw	128
  2847     072B  0220               	subwf	??_main,w
  2848     072C  1D03               	skipz
  2849     072D  2F30               	goto	u1925
  2850     072E  084D               	movf	main@npd,w
  2851     072F  0259               	subwf	main@k,w
  2852     0730                     u1925:
  2853     0730  1C03               	skipc
  2854     0731  2F33               	goto	u1921
  2855     0732  2F34               	goto	u1920
  2856     0733                     u1921:
  2857     0733  2EE4               	goto	l175
  2858     0734                     u1920:
  2859     0734                     l1960:
  2860                           
  2861                           ;main.c: 344: };main.c: 345: };main.c: 348: printf("C\tNDD\r\n");
  2862     0734  3029               	movlw	(low ((STR_31-__stringbase)| (0+32768)))& (0+255)
  2863     0735  158A  26A4  118A   	fcall	_printf
  2864                           
  2865                           ;main.c: 349: break;
  2866     0738  2970               	goto	l1686
  2867     0739                     l1962:
  2868                           
  2869                           ;main.c: 353: for(k = 0 ; k < nsp ; k++){
  2870     0739  01D9               	clrf	main@k
  2871     073A  01DA               	clrf	main@k+1
  2872     073B  2F7E               	goto	l184
  2873     073C                     l185:
  2874                           
  2875                           ;main.c: 354: RA1 = 1;
  2876     073C  1283               	bcf	3,5	;RP0=0, select bank0
  2877     073D  1303               	bcf	3,6	;RP1=0, select bank0
  2878     073E  1485               	bsf	5,1	;volatile
  2879     073F                     l1964:
  2880                           
  2881                           ;main.c: 355: for(j = 0 ; j < intvl ; j++){
  2882     073F  01DD               	clrf	main@j
  2883     0740  01DE               	clrf	main@j+1
  2884     0741  2F4B               	goto	l186
  2885     0742                     l187:
  2886                           
  2887                           ;main.c: 356: _delay((unsigned long)((1)*(4000000/4000000.0)));
  2888     0742  0000               	nop
  2889     0743                     l1966:
  2890     0743  3001               	movlw	1
  2891     0744  1283               	bcf	3,5	;RP0=0, select bank0
  2892     0745  1303               	bcf	3,6	;RP1=0, select bank0
  2893     0746  07DD               	addwf	main@j,f
  2894     0747  1803               	skipnc
  2895     0748  0ADE               	incf	main@j+1,f
  2896     0749  3000               	movlw	0
  2897     074A  07DE               	addwf	main@j+1,f
  2898     074B                     l186:
  2899     074B  085E               	movf	main@j+1,w
  2900     074C  3A80               	xorlw	128
  2901     074D  00A0               	movwf	??_main
  2902     074E  085C               	movf	main@intvl+1,w
  2903     074F  3A80               	xorlw	128
  2904     0750  0220               	subwf	??_main,w
  2905     0751  1D03               	skipz
  2906     0752  2F55               	goto	u1935
  2907     0753  085B               	movf	main@intvl,w
  2908     0754  025D               	subwf	main@j,w
  2909     0755                     u1935:
  2910     0755  1C03               	skipc
  2911     0756  2F58               	goto	u1931
  2912     0757  2F59               	goto	u1930
  2913     0758                     u1931:
  2914     0758  2F42               	goto	l187
  2915     0759                     u1930:
  2916     0759                     l188:
  2917                           
  2918                           ;main.c: 357: };main.c: 358: RA1 = 0;
  2919     0759  1283               	bcf	3,5	;RP0=0, select bank0
  2920     075A  1303               	bcf	3,6	;RP1=0, select bank0
  2921     075B  1085               	bcf	5,1	;volatile
  2922     075C                     l1968:
  2923                           
  2924                           ;main.c: 359: for(j = 0 ; j < intvl ; j++){
  2925     075C  01DD               	clrf	main@j
  2926     075D  01DE               	clrf	main@j+1
  2927     075E  2F68               	goto	l189
  2928     075F                     l190:
  2929                           
  2930                           ;main.c: 360: _delay((unsigned long)((1)*(4000000/4000000.0)));
  2931     075F  0000               	nop
  2932     0760                     l1970:
  2933     0760  3001               	movlw	1
  2934     0761  1283               	bcf	3,5	;RP0=0, select bank0
  2935     0762  1303               	bcf	3,6	;RP1=0, select bank0
  2936     0763  07DD               	addwf	main@j,f
  2937     0764  1803               	skipnc
  2938     0765  0ADE               	incf	main@j+1,f
  2939     0766  3000               	movlw	0
  2940     0767  07DE               	addwf	main@j+1,f
  2941     0768                     l189:
  2942     0768  085E               	movf	main@j+1,w
  2943     0769  3A80               	xorlw	128
  2944     076A  00A0               	movwf	??_main
  2945     076B  085C               	movf	main@intvl+1,w
  2946     076C  3A80               	xorlw	128
  2947     076D  0220               	subwf	??_main,w
  2948     076E  1D03               	skipz
  2949     076F  2F72               	goto	u1945
  2950     0770  085B               	movf	main@intvl,w
  2951     0771  025D               	subwf	main@j,w
  2952     0772                     u1945:
  2953     0772  1C03               	skipc
  2954     0773  2F75               	goto	u1941
  2955     0774  2F76               	goto	u1940
  2956     0775                     u1941:
  2957     0775  2F5F               	goto	l190
  2958     0776                     u1940:
  2959     0776                     l1972:
  2960     0776  3001               	movlw	1
  2961     0777  1283               	bcf	3,5	;RP0=0, select bank0
  2962     0778  1303               	bcf	3,6	;RP1=0, select bank0
  2963     0779  07D9               	addwf	main@k,f
  2964     077A  1803               	skipnc
  2965     077B  0ADA               	incf	main@k+1,f
  2966     077C  3000               	movlw	0
  2967     077D  07DA               	addwf	main@k+1,f
  2968     077E                     l184:
  2969     077E  085A               	movf	main@k+1,w
  2970     077F  3A80               	xorlw	128
  2971     0780  00A0               	movwf	??_main
  2972     0781  0850               	movf	main@nsp+1,w
  2973     0782  3A80               	xorlw	128
  2974     0783  0220               	subwf	??_main,w
  2975     0784  1D03               	skipz
  2976     0785  2F88               	goto	u1955
  2977     0786  084F               	movf	main@nsp,w
  2978     0787  0259               	subwf	main@k,w
  2979     0788                     u1955:
  2980     0788  1C03               	skipc
  2981     0789  2F8B               	goto	u1951
  2982     078A  2F8C               	goto	u1950
  2983     078B                     u1951:
  2984     078B  2F3C               	goto	l185
  2985     078C                     u1950:
  2986     078C                     l1974:
  2987                           
  2988                           ;main.c: 361: };main.c: 362: };main.c: 365: printf("C\tNSD\r\n");
  2989     078C  3039               	movlw	(low ((STR_32-__stringbase)| (0+32768)))& (0+255)
  2990     078D  158A  26A4  118A   	fcall	_printf
  2991                           
  2992                           ;main.c: 366: break;
  2993     0790  2970               	goto	l1686
  2994     0791                     l1976:
  2995                           
  2996                           ;main.c: 369: ptr = strtok((0), "/");
  2997     0791  308D               	movlw	(low ((STR_12-__stringbase)| (0+32768)))& (0+255)
  2998     0792  00FA               	movwf	strtok@s2
  2999     0793  3000               	movlw	0
  3000     0794  158A  2753  118A   	fcall	_strtok
  3001     0797  1283               	bcf	3,5	;RP0=0, select bank0
  3002     0798  1303               	bcf	3,6	;RP1=0, select bank0
  3003     0799  00D8               	movwf	main@ptr
  3004     079A                     l1978:
  3005                           
  3006                           ;main.c: 370: if(ptr != (0)) {
  3007     079A  0858               	movf	main@ptr,w
  3008     079B  1903               	btfsc	3,2
  3009     079C  2F9E               	goto	u1961
  3010     079D  2F9F               	goto	u1960
  3011     079E                     u1961:
  3012     079E  2FA9               	goto	l1982
  3013     079F                     u1960:
  3014     079F                     l1980:
  3015                           
  3016                           ;main.c: 371: npd = atoi(ptr);
  3017     079F  0858               	movf	main@ptr,w
  3018     07A0  118A  20D0  118A   	fcall	_atoi
  3019     07A3  0877               	movf	?_atoi+1,w
  3020     07A4  1283               	bcf	3,5	;RP0=0, select bank0
  3021     07A5  1303               	bcf	3,6	;RP1=0, select bank0
  3022     07A6  00CE               	movwf	main@npd+1
  3023     07A7  0876               	movf	?_atoi,w
  3024     07A8  00CD               	movwf	main@npd
  3025     07A9                     l1982:
  3026                           
  3027                           ;main.c: 372: };main.c: 373: printf("C\tNPD\r\n");
  3028     07A9  3031               	movlw	(low ((STR_34-__stringbase)| (0+32768)))& (0+255)
  3029     07AA  158A  26A4  118A   	fcall	_printf
  3030                           
  3031                           ;main.c: 374: break;
  3032     07AD  2970               	goto	l1686
  3033     07AE                     l1984:
  3034                           
  3035                           ;main.c: 377: ptr = strtok((0), "/");
  3036     07AE  308D               	movlw	(low ((STR_12-__stringbase)| (0+32768)))& (0+255)
  3037     07AF  00FA               	movwf	strtok@s2
  3038     07B0  3000               	movlw	0
  3039     07B1  158A  2753  118A   	fcall	_strtok
  3040     07B4  1283               	bcf	3,5	;RP0=0, select bank0
  3041     07B5  1303               	bcf	3,6	;RP1=0, select bank0
  3042     07B6  00D8               	movwf	main@ptr
  3043     07B7                     l1986:
  3044                           
  3045                           ;main.c: 378: if(ptr != (0)) {
  3046     07B7  0858               	movf	main@ptr,w
  3047     07B8  1903               	btfsc	3,2
  3048     07B9  2FBB               	goto	u1971
  3049     07BA  2FBC               	goto	u1970
  3050     07BB                     u1971:
  3051     07BB  2FC6               	goto	l1990
  3052     07BC                     u1970:
  3053     07BC                     l1988:
  3054                           
  3055                           ;main.c: 379: nsp = atoi(ptr);
  3056     07BC  0858               	movf	main@ptr,w
  3057     07BD  118A  20D0  118A   	fcall	_atoi
  3058     07C0  0877               	movf	?_atoi+1,w
  3059     07C1  1283               	bcf	3,5	;RP0=0, select bank0
  3060     07C2  1303               	bcf	3,6	;RP1=0, select bank0
  3061     07C3  00D0               	movwf	main@nsp+1
  3062     07C4  0876               	movf	?_atoi,w
  3063     07C5  00CF               	movwf	main@nsp
  3064     07C6                     l1990:
  3065                           
  3066                           ;main.c: 380: };main.c: 381: printf("C\tNSP\r\n");
  3067     07C6  3051               	movlw	(low ((STR_36-__stringbase)| (0+32768)))& (0+255)
  3068     07C7  158A  26A4  118A   	fcall	_printf
  3069                           
  3070                           ;main.c: 382: break;
  3071     07CA  2970               	goto	l1686
  3072     07CB                     l1992:
  3073                           
  3074                           ;main.c: 385: printf("C\tREADY\r\n");
  3075     07CB  300F               	movlw	(low ((STR_37-__stringbase)| (0+32768)))& (0+255)
  3076     07CC  158A  26A4  118A   	fcall	_printf
  3077                           
  3078                           ;main.c: 386: break;
  3079     07CF  2970               	goto	l1686
  3080     07D0                     l1994:
  3081                           
  3082                           ;main.c: 389: printf("C\tVERSION 2\r\n");
  3083     07D0  3001               	movlw	(low ((STR_38-__stringbase)| (0+32768)))& (0+255)
  3084     07D1  158A  26A4  118A   	fcall	_printf
  3085                           
  3086                           ;main.c: 390: break;
  3087     07D4  2970               	goto	l1686
  3088     07D5                     l1998:
  3089     07D5  0851               	movf	main@cmd,w
  3090                           
  3091                           ; Switch size 1, requested type "simple"
  3092                           ; Number of cases is 11, Range of values is 0 to 10
  3093                           ; switch strategies available:
  3094                           ; Name         Instructions Cycles
  3095                           ; direct_byte           29     7 (fixed)
  3096                           ; simple_byte           34    18 (average)
  3097                           ; jumptable            260     6 (fixed)
  3098                           ;	Chosen strategy is simple_byte
  3099     07D6  3A00               	xorlw	0	; case 0
  3100     07D7  1903               	skipnz
  3101     07D8  2A61               	goto	l1760
  3102     07D9  3A01               	xorlw	1	; case 1
  3103     07DA  1903               	skipnz
  3104     07DB  2B62               	goto	l1796
  3105     07DC  3A03               	xorlw	3	; case 2
  3106     07DD  1903               	skipnz
  3107     07DE  2BAC               	goto	l1810
  3108     07DF  3A01               	xorlw	1	; case 3
  3109     07E0  1903               	skipnz
  3110     07E1  2D60               	goto	l1870
  3111     07E2  3A07               	xorlw	7	; case 4
  3112     07E3  1903               	skipnz
  3113     07E4  2DC1               	goto	l1888
  3114     07E5  3A01               	xorlw	1	; case 5
  3115     07E6  1903               	skipnz
  3116     07E7  2E89               	goto	l1928
  3117     07E8  3A03               	xorlw	3	; case 6
  3118     07E9  1903               	skipnz
  3119     07EA  2F91               	goto	l1976
  3120     07EB  3A01               	xorlw	1	; case 7
  3121     07EC  1903               	skipnz
  3122     07ED  2FAE               	goto	l1984
  3123     07EE  3A0F               	xorlw	15	; case 8
  3124     07EF  1903               	skipnz
  3125     07F0  2F39               	goto	l1962
  3126     07F1  3A01               	xorlw	1	; case 9
  3127     07F2  1903               	skipnz
  3128     07F3  2FD0               	goto	l1994
  3129     07F4  3A03               	xorlw	3	; case 10
  3130     07F5  1903               	skipnz
  3131     07F6  2FCB               	goto	l1992
  3132     07F7  2970               	goto	l1686
  3133     07F8  118A  2800         	ljmp	start
  3134     07FA                     __end_of_main:
  3135                           
  3136                           	psect	text1
  3137     0F53                     __ptext1:	
  3138 ;; *************** function _strtok *****************
  3139 ;; Defined at:
  3140 ;;		line 8 in file "C:\Program Files\Microchip\xc8\v2.41\pic\sources\c90\common\strtok.c"
  3141 ;; Parameters:    Size  Location     Type
  3142 ;;  s1              1    wreg     PTR unsigned char 
  3143 ;;		 -> NULL(0), main@tmp(40), 
  3144 ;;  s2              1   10[COMMON] PTR const unsigned char 
  3145 ;;		 -> STR_35(2), STR_33(2), STR_29(2), STR_26(2), 
  3146 ;;		 -> STR_25(2), STR_24(2), STR_23(2), STR_22(2), 
  3147 ;;		 -> STR_20(2), STR_19(2), STR_18(2), STR_16(2), 
  3148 ;;		 -> STR_15(2), STR_14(2), STR_13(2), STR_12(2), 
  3149 ;; Auto vars:     Size  Location     Type
  3150 ;;  s1              1   11[COMMON] PTR unsigned char 
  3151 ;;		 -> NULL(0), main@tmp(40), 
  3152 ;; Return value:  Size  Location     Type
  3153 ;;                  1    wreg      PTR unsigned char 
  3154 ;; Registers used:
  3155 ;;		wreg, fsr0l, fsr0h, status,2, status,0, btemp+1, pclath, cstack
  3156 ;; Tracked objects:
  3157 ;;		On entry : 0/0
  3158 ;;		On exit  : 0/0
  3159 ;;		Unchanged: 0/0
  3160 ;; Data sizes:     COMMON   BANK0   BANK1   BANK2
  3161 ;;      Params:         1       0       0       0
  3162 ;;      Locals:         1       0       0       0
  3163 ;;      Temps:          0       0       0       0
  3164 ;;      Totals:         2       0       0       0
  3165 ;;Total ram usage:        2 bytes
  3166 ;; Hardware stack levels used: 1
  3167 ;; Hardware stack levels required when called: 3
  3168 ;; This function calls:
  3169 ;;		_strcspn
  3170 ;;		_strspn
  3171 ;; This function is called by:
  3172 ;;		_main
  3173 ;; This function uses a non-reentrant model
  3174 ;;
  3175                           
  3176     0F53                     _strtok:	
  3177                           ;psect for function _strtok
  3178                           
  3179                           
  3180                           ;incstack = 0
  3181                           ; Regs used in _strtok: [wreg-fsr0h+status,2+status,0+btemp+1+pclath+cstack]
  3182                           ;strtok@s1 stored from wreg
  3183     0F53  00FB               	movwf	strtok@s1
  3184     0F54                     l1540:
  3185     0F54  087B               	movf	strtok@s1,w
  3186     0F55  1D03               	btfss	3,2
  3187     0F56  2F58               	goto	u1151
  3188     0F57  2F59               	goto	u1150
  3189     0F58                     u1151:
  3190     0F58  2F5D               	goto	l1544
  3191     0F59                     u1150:
  3192     0F59                     l1542:
  3193     0F59  1283               	bcf	3,5	;RP0=0, select bank0
  3194     0F5A  1303               	bcf	3,6	;RP1=0, select bank0
  3195     0F5B  085F               	movf	strtok@sp,w
  3196     0F5C  00FB               	movwf	strtok@s1
  3197     0F5D                     l1544:
  3198     0F5D  087B               	movf	strtok@s1,w
  3199     0F5E  1D03               	btfss	3,2
  3200     0F5F  2F61               	goto	u1161
  3201     0F60  2F62               	goto	u1160
  3202     0F61                     u1161:
  3203     0F61  2F64               	goto	l1550
  3204     0F62                     u1160:
  3205     0F62                     l1546:
  3206     0F62  3000               	movlw	0
  3207     0F63  2F98               	goto	l817
  3208     0F64                     l1550:
  3209     0F64  087A               	movf	strtok@s2,w
  3210     0F65  00F3               	movwf	strspn@s2
  3211     0F66  087B               	movf	strtok@s1,w
  3212     0F67  118A  20A3  158A   	fcall	_strspn
  3213     0F6A  0873               	movf	?_strspn,w
  3214     0F6B  00FF               	movwf	btemp+1
  3215     0F6C  087F               	movf	btemp+1,w
  3216     0F6D  07FB               	addwf	strtok@s1,f
  3217     0F6E                     l1552:
  3218     0F6E  087B               	movf	strtok@s1,w
  3219     0F6F  0084               	movwf	4
  3220     0F70  1383               	bcf	3,7	;select IRP bank0
  3221     0F71  0800               	movf	0,w
  3222     0F72  1D03               	btfss	3,2
  3223     0F73  2F75               	goto	u1171
  3224     0F74  2F76               	goto	u1170
  3225     0F75                     u1171:
  3226     0F75  2F7B               	goto	l1558
  3227     0F76                     u1170:
  3228     0F76                     l1554:
  3229     0F76  1283               	bcf	3,5	;RP0=0, select bank0
  3230     0F77  1303               	bcf	3,6	;RP1=0, select bank0
  3231     0F78  01DF               	clrf	strtok@sp
  3232     0F79  3000               	movlw	0
  3233     0F7A  2F98               	goto	l817
  3234     0F7B                     l1558:
  3235     0F7B  087A               	movf	strtok@s2,w
  3236     0F7C  00F3               	movwf	strcspn@s2
  3237     0F7D  087B               	movf	strtok@s1,w
  3238     0F7E  158A  2726  158A   	fcall	_strcspn
  3239     0F81  0873               	movf	?_strcspn,w
  3240     0F82  077B               	addwf	strtok@s1,w
  3241     0F83  1283               	bcf	3,5	;RP0=0, select bank0
  3242     0F84  1303               	bcf	3,6	;RP1=0, select bank0
  3243     0F85  00DF               	movwf	strtok@sp
  3244     0F86                     l1560:
  3245     0F86  085F               	movf	strtok@sp,w
  3246     0F87  0084               	movwf	4
  3247     0F88  1383               	bcf	3,7	;select IRP bank0
  3248     0F89  0800               	movf	0,w
  3249     0F8A  1903               	btfsc	3,2
  3250     0F8B  2F8D               	goto	u1181
  3251     0F8C  2F8E               	goto	u1180
  3252     0F8D                     u1181:
  3253     0F8D  2F96               	goto	l1566
  3254     0F8E                     u1180:
  3255     0F8E                     l1562:
  3256     0F8E  085F               	movf	strtok@sp,w
  3257     0F8F  0084               	movwf	4
  3258     0F90  0180               	clrf	0
  3259     0F91                     l1564:
  3260     0F91  3001               	movlw	1
  3261     0F92  00FF               	movwf	btemp+1
  3262     0F93  087F               	movf	btemp+1,w
  3263     0F94  07DF               	addwf	strtok@sp,f
  3264     0F95  2F97               	goto	l1568
  3265     0F96                     l1566:
  3266     0F96  01DF               	clrf	strtok@sp
  3267     0F97                     l1568:
  3268     0F97  087B               	movf	strtok@s1,w
  3269     0F98                     l817:
  3270     0F98  0008               	return
  3271     0F99                     __end_of_strtok:
  3272                           
  3273                           	psect	text2
  3274     00A3                     __ptext2:	
  3275 ;; *************** function _strspn *****************
  3276 ;; Defined at:
  3277 ;;		line 4 in file "C:\Program Files\Microchip\xc8\v2.41\pic\sources\c90\common\strspn.c"
  3278 ;; Parameters:    Size  Location     Type
  3279 ;;  s1              1    wreg     PTR const unsigned char 
  3280 ;;		 -> NULL(0), main@tmp(40), 
  3281 ;;  s2              1    3[COMMON] PTR const unsigned char 
  3282 ;;		 -> STR_35(2), STR_33(2), STR_29(2), STR_26(2), 
  3283 ;;		 -> STR_25(2), STR_24(2), STR_23(2), STR_22(2), 
  3284 ;;		 -> STR_20(2), STR_19(2), STR_18(2), STR_16(2), 
  3285 ;;		 -> STR_15(2), STR_14(2), STR_13(2), STR_12(2), 
  3286 ;; Auto vars:     Size  Location     Type
  3287 ;;  s1              1    9[COMMON] PTR const unsigned char 
  3288 ;;		 -> NULL(0), main@tmp(40), 
  3289 ;;  i               2    7[COMMON] unsigned int 
  3290 ;; Return value:  Size  Location     Type
  3291 ;;                  2    3[COMMON] unsigned int 
  3292 ;; Registers used:
  3293 ;;		wreg, fsr0l, fsr0h, status,2, status,0, btemp+1, pclath, cstack
  3294 ;; Tracked objects:
  3295 ;;		On entry : 0/0
  3296 ;;		On exit  : 0/0
  3297 ;;		Unchanged: 0/0
  3298 ;; Data sizes:     COMMON   BANK0   BANK1   BANK2
  3299 ;;      Params:         2       0       0       0
  3300 ;;      Locals:         3       0       0       0
  3301 ;;      Temps:          2       0       0       0
  3302 ;;      Totals:         7       0       0       0
  3303 ;;Total ram usage:        7 bytes
  3304 ;; Hardware stack levels used: 1
  3305 ;; Hardware stack levels required when called: 2
  3306 ;; This function calls:
  3307 ;;		_strchr
  3308 ;; This function is called by:
  3309 ;;		_strtok
  3310 ;; This function uses a non-reentrant model
  3311 ;;
  3312                           
  3313     00A3                     _strspn:	
  3314                           ;psect for function _strspn
  3315                           
  3316                           
  3317                           ;incstack = 0
  3318                           ; Regs used in _strspn: [wreg-fsr0h+status,2+status,0+btemp+1+pclath+cstack]
  3319                           ;strspn@s1 stored from wreg
  3320     00A3  00F9               	movwf	strspn@s1
  3321     00A4                     l1500:
  3322     00A4  01F7               	clrf	strspn@i
  3323     00A5  01F8               	clrf	strspn@i+1
  3324     00A6  28B1               	goto	l1504
  3325     00A7                     l1502:
  3326     00A7  3001               	movlw	1
  3327     00A8  00FF               	movwf	btemp+1
  3328     00A9  087F               	movf	btemp+1,w
  3329     00AA  07F9               	addwf	strspn@s1,f
  3330     00AB  3001               	movlw	1
  3331     00AC  07F7               	addwf	strspn@i,f
  3332     00AD  1803               	skipnc
  3333     00AE  0AF8               	incf	strspn@i+1,f
  3334     00AF  3000               	movlw	0
  3335     00B0  07F8               	addwf	strspn@i+1,f
  3336     00B1                     l1504:
  3337     00B1  0879               	movf	strspn@s1,w
  3338     00B2  0084               	movwf	4
  3339     00B3  1383               	bcf	3,7	;select IRP bank0
  3340     00B4  0800               	movf	0,w
  3341     00B5  1903               	btfsc	3,2
  3342     00B6  28B8               	goto	u1091
  3343     00B7  28B9               	goto	u1090
  3344     00B8                     u1091:
  3345     00B8  28CB               	goto	l1508
  3346     00B9                     u1090:
  3347     00B9                     l1506:
  3348     00B9  0879               	movf	strspn@s1,w
  3349     00BA  0084               	movwf	4
  3350     00BB  0800               	movf	0,w
  3351     00BC  00F5               	movwf	??_strspn
  3352     00BD  01F6               	clrf	??_strspn+1
  3353     00BE  0875               	movf	??_strspn,w
  3354     00BF  00F0               	movwf	strchr@chr
  3355     00C0  0876               	movf	??_strspn+1,w
  3356     00C1  00F1               	movwf	strchr@chr+1
  3357     00C2  0873               	movf	strspn@s2,w
  3358     00C3  158A  26BB  118A   	fcall	_strchr
  3359     00C6  3A00               	xorlw	0
  3360     00C7  1D03               	skipz
  3361     00C8  28CA               	goto	u1101
  3362     00C9  28CB               	goto	u1100
  3363     00CA                     u1101:
  3364     00CA  28A7               	goto	l1502
  3365     00CB                     u1100:
  3366     00CB                     l1508:
  3367     00CB  0878               	movf	strspn@i+1,w
  3368     00CC  00F4               	movwf	?_strspn+1
  3369     00CD  0877               	movf	strspn@i,w
  3370     00CE  00F3               	movwf	?_strspn
  3371     00CF                     l846:
  3372     00CF  0008               	return
  3373     00D0                     __end_of_strspn:
  3374                           
  3375                           	psect	text3
  3376     0F26                     __ptext3:	
  3377 ;; *************** function _strcspn *****************
  3378 ;; Defined at:
  3379 ;;		line 4 in file "C:\Program Files\Microchip\xc8\v2.41\pic\sources\c90\common\strcspn.c"
  3380 ;; Parameters:    Size  Location     Type
  3381 ;;  s1              1    wreg     PTR const unsigned char 
  3382 ;;		 -> NULL(0), main@tmp(40), 
  3383 ;;  s2              1    3[COMMON] PTR const unsigned char 
  3384 ;;		 -> STR_35(2), STR_33(2), STR_29(2), STR_26(2), 
  3385 ;;		 -> STR_25(2), STR_24(2), STR_23(2), STR_22(2), 
  3386 ;;		 -> STR_20(2), STR_19(2), STR_18(2), STR_16(2), 
  3387 ;;		 -> STR_15(2), STR_14(2), STR_13(2), STR_12(2), 
  3388 ;; Auto vars:     Size  Location     Type
  3389 ;;  s1              1    9[COMMON] PTR const unsigned char 
  3390 ;;		 -> NULL(0), main@tmp(40), 
  3391 ;;  i               2    7[COMMON] unsigned int 
  3392 ;; Return value:  Size  Location     Type
  3393 ;;                  2    3[COMMON] unsigned int 
  3394 ;; Registers used:
  3395 ;;		wreg, fsr0l, fsr0h, status,2, status,0, btemp+1, pclath, cstack
  3396 ;; Tracked objects:
  3397 ;;		On entry : 0/0
  3398 ;;		On exit  : 0/0
  3399 ;;		Unchanged: 0/0
  3400 ;; Data sizes:     COMMON   BANK0   BANK1   BANK2
  3401 ;;      Params:         2       0       0       0
  3402 ;;      Locals:         3       0       0       0
  3403 ;;      Temps:          2       0       0       0
  3404 ;;      Totals:         7       0       0       0
  3405 ;;Total ram usage:        7 bytes
  3406 ;; Hardware stack levels used: 1
  3407 ;; Hardware stack levels required when called: 2
  3408 ;; This function calls:
  3409 ;;		_strchr
  3410 ;; This function is called by:
  3411 ;;		_strtok
  3412 ;; This function uses a non-reentrant model
  3413 ;;
  3414                           
  3415     0F26                     _strcspn:	
  3416                           ;psect for function _strcspn
  3417                           
  3418                           
  3419                           ;incstack = 0
  3420                           ; Regs used in _strcspn: [wreg-fsr0h+status,2+status,0+btemp+1+pclath+cstack]
  3421                           ;strcspn@s1 stored from wreg
  3422     0F26  00F9               	movwf	strcspn@s1
  3423     0F27                     l1512:
  3424     0F27  01F7               	clrf	strcspn@i
  3425     0F28  01F8               	clrf	strcspn@i+1
  3426     0F29  2F34               	goto	l1516
  3427     0F2A                     l1514:
  3428     0F2A  3001               	movlw	1
  3429     0F2B  00FF               	movwf	btemp+1
  3430     0F2C  087F               	movf	btemp+1,w
  3431     0F2D  07F9               	addwf	strcspn@s1,f
  3432     0F2E  3001               	movlw	1
  3433     0F2F  07F7               	addwf	strcspn@i,f
  3434     0F30  1803               	skipnc
  3435     0F31  0AF8               	incf	strcspn@i+1,f
  3436     0F32  3000               	movlw	0
  3437     0F33  07F8               	addwf	strcspn@i+1,f
  3438     0F34                     l1516:
  3439     0F34  0879               	movf	strcspn@s1,w
  3440     0F35  0084               	movwf	4
  3441     0F36  1383               	bcf	3,7	;select IRP bank0
  3442     0F37  0800               	movf	0,w
  3443     0F38  1903               	btfsc	3,2
  3444     0F39  2F3B               	goto	u1111
  3445     0F3A  2F3C               	goto	u1110
  3446     0F3B                     u1111:
  3447     0F3B  2F4E               	goto	l1520
  3448     0F3C                     u1110:
  3449     0F3C                     l1518:
  3450     0F3C  0879               	movf	strcspn@s1,w
  3451     0F3D  0084               	movwf	4
  3452     0F3E  0800               	movf	0,w
  3453     0F3F  00F5               	movwf	??_strcspn
  3454     0F40  01F6               	clrf	??_strcspn+1
  3455     0F41  0875               	movf	??_strcspn,w
  3456     0F42  00F0               	movwf	strchr@chr
  3457     0F43  0876               	movf	??_strcspn+1,w
  3458     0F44  00F1               	movwf	strchr@chr+1
  3459     0F45  0873               	movf	strcspn@s2,w
  3460     0F46  158A  26BB  158A   	fcall	_strchr
  3461     0F49  3A00               	xorlw	0
  3462     0F4A  1903               	skipnz
  3463     0F4B  2F4D               	goto	u1121
  3464     0F4C  2F4E               	goto	u1120
  3465     0F4D                     u1121:
  3466     0F4D  2F2A               	goto	l1514
  3467     0F4E                     u1120:
  3468     0F4E                     l1520:
  3469     0F4E  0878               	movf	strcspn@i+1,w
  3470     0F4F  00F4               	movwf	?_strcspn+1
  3471     0F50  0877               	movf	strcspn@i,w
  3472     0F51  00F3               	movwf	?_strcspn
  3473     0F52                     l830:
  3474     0F52  0008               	return
  3475     0F53                     __end_of_strcspn:
  3476                           
  3477                           	psect	text4
  3478     0EBB                     __ptext4:	
  3479 ;; *************** function _strchr *****************
  3480 ;; Defined at:
  3481 ;;		line 4 in file "C:\Program Files\Microchip\xc8\v2.41\pic\sources\c90\common\strchr.c"
  3482 ;; Parameters:    Size  Location     Type
  3483 ;;  ptr             1    wreg     PTR const unsigned char 
  3484 ;;		 -> STR_35(2), STR_33(2), STR_29(2), STR_26(2), 
  3485 ;;		 -> STR_25(2), STR_24(2), STR_23(2), STR_22(2), 
  3486 ;;		 -> STR_20(2), STR_19(2), STR_18(2), STR_16(2), 
  3487 ;;		 -> STR_15(2), STR_14(2), STR_13(2), STR_12(2), 
  3488 ;;  chr             2    0[COMMON] int 
  3489 ;; Auto vars:     Size  Location     Type
  3490 ;;  ptr             1    2[COMMON] PTR const unsigned char 
  3491 ;;		 -> STR_35(2), STR_33(2), STR_29(2), STR_26(2), 
  3492 ;;		 -> STR_25(2), STR_24(2), STR_23(2), STR_22(2), 
  3493 ;;		 -> STR_20(2), STR_19(2), STR_18(2), STR_16(2), 
  3494 ;;		 -> STR_15(2), STR_14(2), STR_13(2), STR_12(2), 
  3495 ;; Return value:  Size  Location     Type
  3496 ;;                  1    wreg      PTR unsigned char 
  3497 ;; Registers used:
  3498 ;;		wreg, fsr0l, fsr0h, pclath
  3499 ;; Tracked objects:
  3500 ;;		On entry : 0/0
  3501 ;;		On exit  : 0/0
  3502 ;;		Unchanged: 0/0
  3503 ;; Data sizes:     COMMON   BANK0   BANK1   BANK2
  3504 ;;      Params:         2       0       0       0
  3505 ;;      Locals:         1       0       0       0
  3506 ;;      Temps:          0       0       0       0
  3507 ;;      Totals:         3       0       0       0
  3508 ;;Total ram usage:        3 bytes
  3509 ;; Hardware stack levels used: 2
  3510 ;; This function calls:
  3511 ;;		Nothing
  3512 ;; This function is called by:
  3513 ;;		_strcspn
  3514 ;;		_strspn
  3515 ;; This function uses a non-reentrant model
  3516 ;;
  3517                           
  3518     0EBB                     _strchr:	
  3519                           ;psect for function _strchr
  3520                           
  3521                           
  3522                           ;incstack = 0
  3523                           ; Regs used in _strchr: [wreg-fsr0h+pclath]
  3524                           ;strchr@ptr stored from wreg
  3525     0EBB  00F2               	movwf	strchr@ptr
  3526     0EBC                     l833:
  3527     0EBC                     l1458:
  3528     0EBC  0872               	movf	strchr@ptr,w
  3529     0EBD  0084               	movwf	4
  3530     0EBE  118A  2002  158A   	fcall	stringdir
  3531     0EC1  0670               	xorwf	strchr@chr,w
  3532     0EC2  1D03               	skipz
  3533     0EC3  2EC5               	goto	u1001
  3534     0EC4  2EC6               	goto	u1000
  3535     0EC5                     u1001:
  3536     0EC5  2EC8               	goto	l1464
  3537     0EC6                     u1000:
  3538     0EC6                     l1460:
  3539     0EC6  0872               	movf	strchr@ptr,w
  3540     0EC7  2ED6               	goto	l835
  3541     0EC8                     l1464:
  3542     0EC8  3001               	movlw	1
  3543     0EC9  07F2               	addwf	strchr@ptr,f
  3544     0ECA  30FF               	movlw	-1
  3545     0ECB  0772               	addwf	strchr@ptr,w
  3546     0ECC  0084               	movwf	4
  3547     0ECD  118A  2002  158A   	fcall	stringdir
  3548     0ED0  3A00               	xorlw	0
  3549     0ED1  1D03               	skipz
  3550     0ED2  2ED4               	goto	u1011
  3551     0ED3  2ED5               	goto	u1010
  3552     0ED4                     u1011:
  3553     0ED4  2EBC               	goto	l833
  3554     0ED5                     u1010:
  3555     0ED5                     l1466:
  3556     0ED5  3000               	movlw	0
  3557     0ED6                     l835:
  3558     0ED6  0008               	return
  3559     0ED7                     __end_of_strchr:
  3560                           
  3561                           	psect	text5
  3562     0EFC                     __ptext5:	
  3563 ;; *************** function _strcmp *****************
  3564 ;; Defined at:
  3565 ;;		line 33 in file "C:\Program Files\Microchip\xc8\v2.41\pic\sources\c90\common\strcmp.c"
  3566 ;; Parameters:    Size  Location     Type
  3567 ;;  s1              1    wreg     PTR const unsigned char 
  3568 ;;		 -> main@rcmd(4), 
  3569 ;;  s2              1    0[COMMON] PTR const unsigned char 
  3570 ;;		 -> STR_11(4), STR_10(4), STR_9(4), STR_8(4), 
  3571 ;;		 -> STR_7(4), STR_6(4), STR_5(4), STR_4(4), 
  3572 ;;		 -> STR_3(4), STR_2(4), STR_1(4), 
  3573 ;; Auto vars:     Size  Location     Type
  3574 ;;  s1              1    5[COMMON] PTR const unsigned char 
  3575 ;;		 -> main@rcmd(4), 
  3576 ;;  r               1    4[COMMON] char 
  3577 ;; Return value:  Size  Location     Type
  3578 ;;                  2    0[COMMON] int 
  3579 ;; Registers used:
  3580 ;;		wreg, fsr0l, fsr0h, status,2, status,0, btemp+1, pclath
  3581 ;; Tracked objects:
  3582 ;;		On entry : 0/0
  3583 ;;		On exit  : 0/0
  3584 ;;		Unchanged: 0/0
  3585 ;; Data sizes:     COMMON   BANK0   BANK1   BANK2
  3586 ;;      Params:         2       0       0       0
  3587 ;;      Locals:         2       0       0       0
  3588 ;;      Temps:          2       0       0       0
  3589 ;;      Totals:         6       0       0       0
  3590 ;;Total ram usage:        6 bytes
  3591 ;; Hardware stack levels used: 2
  3592 ;; This function calls:
  3593 ;;		Nothing
  3594 ;; This function is called by:
  3595 ;;		_main
  3596 ;; This function uses a non-reentrant model
  3597 ;;
  3598                           
  3599     0EFC                     _strcmp:	
  3600                           ;psect for function _strcmp
  3601                           
  3602                           
  3603                           ;incstack = 0
  3604                           ; Regs used in _strcmp: [wreg-fsr0h+status,2+status,0+btemp+1+pclath]
  3605                           ;strcmp@s1 stored from wreg
  3606     0EFC  00F5               	movwf	strcmp@s1
  3607     0EFD                     l1526:
  3608     0EFD  2F06               	goto	l1532
  3609     0EFE                     l1528:
  3610     0EFE  3001               	movlw	1
  3611     0EFF  00FF               	movwf	btemp+1
  3612     0F00  087F               	movf	btemp+1,w
  3613     0F01  07F5               	addwf	strcmp@s1,f
  3614     0F02                     l1530:
  3615     0F02  3001               	movlw	1
  3616     0F03  00FF               	movwf	btemp+1
  3617     0F04  087F               	movf	btemp+1,w
  3618     0F05  07F0               	addwf	strcmp@s2,f
  3619     0F06                     l1532:
  3620     0F06  0870               	movf	strcmp@s2,w
  3621     0F07  0084               	movwf	4
  3622     0F08  118A  2002  158A   	fcall	stringdir
  3623     0F0B  00F2               	movwf	??_strcmp
  3624     0F0C  0875               	movf	strcmp@s1,w
  3625     0F0D  0084               	movwf	4
  3626     0F0E  1383               	bcf	3,7	;select IRP bank0
  3627     0F0F  0800               	movf	0,w
  3628     0F10  00F3               	movwf	??_strcmp+1
  3629     0F11  0872               	movf	??_strcmp,w
  3630     0F12  0273               	subwf	??_strcmp+1,w
  3631     0F13  00F4               	movwf	strcmp@r
  3632     0F14  0874               	movf	strcmp@r,w
  3633     0F15  1D03               	btfss	3,2
  3634     0F16  2F18               	goto	u1131
  3635     0F17  2F19               	goto	u1130
  3636     0F18                     u1131:
  3637     0F18  2F20               	goto	l1536
  3638     0F19                     u1130:
  3639     0F19                     l1534:
  3640     0F19  0875               	movf	strcmp@s1,w
  3641     0F1A  0084               	movwf	4
  3642     0F1B  0800               	movf	0,w
  3643     0F1C  1D03               	btfss	3,2
  3644     0F1D  2F1F               	goto	u1141
  3645     0F1E  2F20               	goto	u1140
  3646     0F1F                     u1141:
  3647     0F1F  2EFE               	goto	l1528
  3648     0F20                     u1140:
  3649     0F20                     l1536:
  3650     0F20  0874               	movf	strcmp@r,w
  3651     0F21  00F0               	movwf	?_strcmp
  3652     0F22  01F1               	clrf	?_strcmp+1
  3653     0F23  1BF0               	btfsc	?_strcmp,7
  3654     0F24  03F1               	decf	?_strcmp+1,f
  3655     0F25                     l806:
  3656     0F25  0008               	return
  3657     0F26                     __end_of_strcmp:
  3658                           
  3659                           	psect	text6
  3660     0EA4                     __ptext6:	
  3661 ;; *************** function _printf *****************
  3662 ;; Defined at:
  3663 ;;		line 477 in file "C:\Program Files\Microchip\xc8\v2.41\pic\sources\c90\common\doprnt.c"
  3664 ;; Parameters:    Size  Location     Type
  3665 ;;  f               1    wreg     PTR const unsigned char 
  3666 ;;		 -> STR_38(14), STR_37(10), STR_36(8), STR_34(8), 
  3667 ;;		 -> STR_32(8), STR_31(8), STR_30(8), STR_28(8), 
  3668 ;;		 -> STR_27(8), STR_21(8), STR_17(8), 
  3669 ;; Auto vars:     Size  Location     Type
  3670 ;;  f               1    3[COMMON] PTR const unsigned char 
  3671 ;;		 -> STR_38(14), STR_37(10), STR_36(8), STR_34(8), 
  3672 ;;		 -> STR_32(8), STR_31(8), STR_30(8), STR_28(8), 
  3673 ;;		 -> STR_27(8), STR_21(8), STR_17(8), 
  3674 ;;  tmpval          4    0        struct .
  3675 ;;  cp              2    0        PTR const unsigned char 
  3676 ;;  len             2    0        unsigned int 
  3677 ;;  val             2    0        unsigned int 
  3678 ;;  c               1    2[COMMON] unsigned char 
  3679 ;;  ap              1    1[COMMON] PTR void [1]
  3680 ;;		 -> ?_printf(2), 
  3681 ;;  flag            1    0        unsigned char 
  3682 ;;  prec            1    0        char 
  3683 ;; Return value:  Size  Location     Type
  3684 ;;                  2   32[None  ] int 
  3685 ;; Registers used:
  3686 ;;		wreg, fsr0l, fsr0h, status,2, status,0, pclath, cstack
  3687 ;; Tracked objects:
  3688 ;;		On entry : 0/0
  3689 ;;		On exit  : 0/0
  3690 ;;		Unchanged: 0/0
  3691 ;; Data sizes:     COMMON   BANK0   BANK1   BANK2
  3692 ;;      Params:         0       0       0       0
  3693 ;;      Locals:         3       0       0       0
  3694 ;;      Temps:          0       0       0       0
  3695 ;;      Totals:         3       0       0       0
  3696 ;;Total ram usage:        3 bytes
  3697 ;; Hardware stack levels used: 1
  3698 ;; Hardware stack levels required when called: 1
  3699 ;; This function calls:
  3700 ;;		_putch
  3701 ;; This function is called by:
  3702 ;;		_main
  3703 ;; This function uses a non-reentrant model
  3704 ;;
  3705                           
  3706     0EA4                     _printf:	
  3707                           ;psect for function _printf
  3708                           
  3709                           
  3710                           ;incstack = 0
  3711                           ; Regs used in _printf: [wreg-fsr0h+status,2+status,0+pclath+cstack]
  3712                           ;printf@f stored from wreg
  3713     0EA4  00F3               	movwf	printf@f
  3714     0EA5                     l1606:
  3715                           
  3716                           ;doprnt.c: 479: va_list ap;;doprnt.c: 512: char c;;doprnt.c: 521: signed char prec;;dopr
      +                          nt.c: 525: unsigned char flag;;doprnt.c: 540: union {;doprnt.c: 541: unsigned long vd;;d
      +                          oprnt.c: 542: double integ;;doprnt.c: 543: } tmpval;;doprnt.c: 545: unsigned int val;;do
      +                          prnt.c: 546: unsigned len;;doprnt.c: 547: const char * cp;;doprnt.c: 550: *ap = __va_sta
      +                          rt();
  3717     0EA5  3070               	movlw	(low (?_printf| 0))& (0+255)
  3718     0EA6  00F1               	movwf	printf@ap
  3719                           
  3720                           ;doprnt.c: 553: while((c = *f++)) {
  3721     0EA7  2EAC               	goto	l1610
  3722     0EA8                     l1608:
  3723                           
  3724                           ;doprnt.c: 557: {;doprnt.c: 558: (putch(c) );
  3725     0EA8  0872               	movf	printf@c,w
  3726     0EA9  158A  2688  158A   	fcall	_putch
  3727     0EAC                     l1610:	
  3728                           ;doprnt.c: 559: continue;
  3729                           
  3730     0EAC  3001               	movlw	1
  3731     0EAD  07F3               	addwf	printf@f,f
  3732     0EAE  30FF               	movlw	-1
  3733     0EAF  0773               	addwf	printf@f,w
  3734     0EB0  0084               	movwf	4
  3735     0EB1  118A  2002  158A   	fcall	stringdir
  3736     0EB4  00F2               	movwf	printf@c
  3737     0EB5  0872               	movf	printf@c,w
  3738     0EB6  1D03               	btfss	3,2
  3739     0EB7  2EB9               	goto	u1251
  3740     0EB8  2EBA               	goto	u1250
  3741     0EB9                     u1251:
  3742     0EB9  2EA8               	goto	l1608
  3743     0EBA                     u1250:
  3744     0EBA                     l326:
  3745     0EBA  0008               	return
  3746     0EBB                     __end_of_printf:
  3747                           
  3748                           	psect	text7
  3749     0E88                     __ptext7:	
  3750 ;; *************** function _putch *****************
  3751 ;; Defined at:
  3752 ;;		line 13 in file "uart.c"
  3753 ;; Parameters:    Size  Location     Type
  3754 ;;  byte            1    wreg     unsigned char 
  3755 ;; Auto vars:     Size  Location     Type
  3756 ;;  byte            1    0[COMMON] unsigned char 
  3757 ;; Return value:  Size  Location     Type
  3758 ;;                  1    wreg      void 
  3759 ;; Registers used:
  3760 ;;		wreg
  3761 ;; Tracked objects:
  3762 ;;		On entry : 0/0
  3763 ;;		On exit  : 0/0
  3764 ;;		Unchanged: 0/0
  3765 ;; Data sizes:     COMMON   BANK0   BANK1   BANK2
  3766 ;;      Params:         0       0       0       0
  3767 ;;      Locals:         1       0       0       0
  3768 ;;      Temps:          0       0       0       0
  3769 ;;      Totals:         1       0       0       0
  3770 ;;Total ram usage:        1 bytes
  3771 ;; Hardware stack levels used: 1
  3772 ;; This function calls:
  3773 ;;		Nothing
  3774 ;; This function is called by:
  3775 ;;		_printf
  3776 ;;		_getche
  3777 ;; This function uses a non-reentrant model
  3778 ;;
  3779                           
  3780     0E88                     _putch:	
  3781                           ;psect for function _putch
  3782                           
  3783                           
  3784                           ;incstack = 0
  3785                           ; Regs used in _putch: [wreg]
  3786                           ;putch@byte stored from wreg
  3787     0E88  00F0               	movwf	putch@byte
  3788     0E89                     l1470:
  3789     0E89                     l222:	
  3790                           ;uart.c: 15: while(!TXIF){
  3791                           
  3792     0E89  1283               	bcf	3,5	;RP0=0, select bank0
  3793     0E8A  1303               	bcf	3,6	;RP1=0, select bank0
  3794     0E8B  1E0C               	btfss	12,4	;volatile
  3795     0E8C  2E8E               	goto	u1021
  3796     0E8D  2E8F               	goto	u1020
  3797     0E8E                     u1021:
  3798     0E8E  2E89               	goto	l222
  3799     0E8F                     u1020:
  3800     0E8F                     l1472:
  3801                           
  3802                           ;uart.c: 16: };uart.c: 17: TXREG = byte;
  3803     0E8F  0870               	movf	putch@byte,w
  3804     0E90  0099               	movwf	25	;volatile
  3805     0E91                     l225:
  3806     0E91  0008               	return
  3807     0E92                     __end_of_putch:
  3808                           
  3809                           	psect	text8
  3810     0098                     __ptext8:	
  3811 ;; *************** function _initUART *****************
  3812 ;; Defined at:
  3813 ;;		line 6 in file "uart.c"
  3814 ;; Parameters:    Size  Location     Type
  3815 ;;		None
  3816 ;; Auto vars:     Size  Location     Type
  3817 ;;		None
  3818 ;; Return value:  Size  Location     Type
  3819 ;;                  1    wreg      void 
  3820 ;; Registers used:
  3821 ;;		wreg
  3822 ;; Tracked objects:
  3823 ;;		On entry : 0/0
  3824 ;;		On exit  : 0/0
  3825 ;;		Unchanged: 0/0
  3826 ;; Data sizes:     COMMON   BANK0   BANK1   BANK2
  3827 ;;      Params:         0       0       0       0
  3828 ;;      Locals:         0       0       0       0
  3829 ;;      Temps:          0       0       0       0
  3830 ;;      Totals:         0       0       0       0
  3831 ;;Total ram usage:        0 bytes
  3832 ;; Hardware stack levels used: 1
  3833 ;; This function calls:
  3834 ;;		Nothing
  3835 ;; This function is called by:
  3836 ;;		_main
  3837 ;; This function uses a non-reentrant model
  3838 ;;
  3839                           
  3840     0098                     _initUART:	
  3841                           ;psect for function _initUART
  3842                           
  3843     0098                     l1524:	
  3844                           ;incstack = 0
  3845                           ; Regs used in _initUART: [wreg]
  3846                           
  3847                           
  3848                           ;uart.c: 8: SPBRG = ((unsigned char)(((4000000 / 16) / 9600) - 1));
  3849     0098  3019               	movlw	25
  3850     0099  1683               	bsf	3,5	;RP0=1, select bank1
  3851     009A  1303               	bcf	3,6	;RP1=0, select bank1
  3852     009B  0099               	movwf	25	;volatile
  3853                           
  3854                           ;uart.c: 9: TXSTA = (0x00 | 0x04 | 0x20);
  3855     009C  3024               	movlw	36
  3856     009D  0098               	movwf	24	;volatile
  3857                           
  3858                           ;uart.c: 10: RCSTA = (0x00 | 0x90);
  3859     009E  3090               	movlw	144
  3860     009F  1283               	bcf	3,5	;RP0=0, select bank0
  3861     00A0  1303               	bcf	3,6	;RP1=0, select bank0
  3862     00A1  0098               	movwf	24	;volatile
  3863     00A2                     l219:
  3864     00A2  0008               	return
  3865     00A3                     __end_of_initUART:
  3866                           
  3867                           	psect	text9
  3868     00D0                     __ptext9:	
  3869 ;; *************** function _atoi *****************
  3870 ;; Defined at:
  3871 ;;		line 5 in file "C:\Program Files\Microchip\xc8\v2.41\pic\sources\c90\common\atoi.c"
  3872 ;; Parameters:    Size  Location     Type
  3873 ;;  s               1    wreg     PTR const unsigned char 
  3874 ;;		 -> NULL(0), main@tmp(40), 
  3875 ;; Auto vars:     Size  Location     Type
  3876 ;;  s               1   13[COMMON] PTR const unsigned char 
  3877 ;;		 -> NULL(0), main@tmp(40), 
  3878 ;;  a               2   11[COMMON] int 
  3879 ;;  sign            1   10[COMMON] unsigned char 
  3880 ;; Return value:  Size  Location     Type
  3881 ;;                  2    6[COMMON] int 
  3882 ;; Registers used:
  3883 ;;		wreg, fsr0l, fsr0h, status,2, status,0, btemp+1, pclath, cstack
  3884 ;; Tracked objects:
  3885 ;;		On entry : 0/0
  3886 ;;		On exit  : 0/0
  3887 ;;		Unchanged: 0/0
  3888 ;; Data sizes:     COMMON   BANK0   BANK1   BANK2
  3889 ;;      Params:         2       0       0       0
  3890 ;;      Locals:         4       0       0       0
  3891 ;;      Temps:          2       0       0       0
  3892 ;;      Totals:         8       0       0       0
  3893 ;;Total ram usage:        8 bytes
  3894 ;; Hardware stack levels used: 1
  3895 ;; Hardware stack levels required when called: 1
  3896 ;; This function calls:
  3897 ;;		___wmul
  3898 ;;		_isdigit
  3899 ;; This function is called by:
  3900 ;;		_main
  3901 ;; This function uses a non-reentrant model
  3902 ;;
  3903                           
  3904     00D0                     _atoi:	
  3905                           ;psect for function _atoi
  3906                           
  3907                           
  3908                           ;incstack = 0
  3909                           ; Regs used in _atoi: [wreg-fsr0h+status,2+status,0+btemp+1+pclath+cstack]
  3910                           ;atoi@s stored from wreg
  3911     00D0  00FD               	movwf	atoi@s
  3912     00D1                     l1572:
  3913     00D1  28D6               	goto	l1576
  3914     00D2                     l1574:
  3915     00D2  3001               	movlw	1
  3916     00D3  00FF               	movwf	btemp+1
  3917     00D4  087F               	movf	btemp+1,w
  3918     00D5  07FD               	addwf	atoi@s,f
  3919     00D6                     l1576:
  3920     00D6  087D               	movf	atoi@s,w
  3921     00D7  0084               	movwf	4
  3922     00D8  3020               	movlw	32
  3923     00D9  1383               	bcf	3,7	;select IRP bank0
  3924     00DA  0600               	xorwf	0,w
  3925     00DB  1903               	btfsc	3,2
  3926     00DC  28DE               	goto	u1191
  3927     00DD  28DF               	goto	u1190
  3928     00DE                     u1191:
  3929     00DE  28D2               	goto	l1574
  3930     00DF                     u1190:
  3931     00DF                     l1578:
  3932     00DF  087D               	movf	atoi@s,w
  3933     00E0  0084               	movwf	4
  3934     00E1  3009               	movlw	9
  3935     00E2  0600               	xorwf	0,w
  3936     00E3  1903               	btfsc	3,2
  3937     00E4  28E6               	goto	u1201
  3938     00E5  28E7               	goto	u1200
  3939     00E6                     u1201:
  3940     00E6  28D2               	goto	l1574
  3941     00E7                     u1200:
  3942     00E7                     l1580:
  3943     00E7  01FB               	clrf	atoi@a
  3944     00E8  01FC               	clrf	atoi@a+1
  3945     00E9  01FA               	clrf	atoi@sign
  3946     00EA                     l1582:
  3947     00EA  087D               	movf	atoi@s,w
  3948     00EB  0084               	movwf	4
  3949     00EC  302D               	movlw	45
  3950     00ED  0600               	xorwf	0,w
  3951     00EE  1D03               	btfss	3,2
  3952     00EF  28F1               	goto	u1211
  3953     00F0  28F2               	goto	u1210
  3954     00F1                     u1211:
  3955     00F1  28FB               	goto	l1586
  3956     00F2                     u1210:
  3957     00F2                     l1584:
  3958     00F2  3001               	movlw	1
  3959     00F3  00FF               	movwf	btemp+1
  3960     00F4  087F               	movf	btemp+1,w
  3961     00F5  07FA               	addwf	atoi@sign,f
  3962     00F6  3001               	movlw	1
  3963     00F7  00FF               	movwf	btemp+1
  3964     00F8  087F               	movf	btemp+1,w
  3965     00F9  07FD               	addwf	atoi@s,f
  3966     00FA  2927               	goto	l1594
  3967     00FB                     l1586:
  3968     00FB  087D               	movf	atoi@s,w
  3969     00FC  0084               	movwf	4
  3970     00FD  302B               	movlw	43
  3971     00FE  0600               	xorwf	0,w
  3972     00FF  1D03               	btfss	3,2
  3973     0100  2902               	goto	u1221
  3974     0101  2903               	goto	u1220
  3975     0102                     u1221:
  3976     0102  2927               	goto	l1594
  3977     0103                     u1220:
  3978     0103                     l1588:
  3979     0103  3001               	movlw	1
  3980     0104  00FF               	movwf	btemp+1
  3981     0105  087F               	movf	btemp+1,w
  3982     0106  07FD               	addwf	atoi@s,f
  3983     0107  2927               	goto	l1594
  3984     0108                     l1590:
  3985     0108  087D               	movf	atoi@s,w
  3986     0109  0084               	movwf	4
  3987     010A  087C               	movf	atoi@a+1,w
  3988     010B  00F1               	movwf	___wmul@multiplier+1
  3989     010C  087B               	movf	atoi@a,w
  3990     010D  00F0               	movwf	___wmul@multiplier
  3991     010E  300A               	movlw	10
  3992     010F  00F2               	movwf	___wmul@multiplicand
  3993     0110  3000               	movlw	0
  3994     0111  00F3               	movwf	___wmul@multiplicand+1
  3995     0112  158A  26D7  118A   	fcall	___wmul
  3996     0115  1383               	bcf	3,7	;select IRP bank0
  3997     0116  0800               	movf	0,w
  3998     0117  0770               	addwf	?___wmul,w
  3999     0118  00F8               	movwf	??_atoi
  4000     0119  3000               	movlw	0
  4001     011A  1803               	skipnc
  4002     011B  3001               	movlw	1
  4003     011C  0771               	addwf	?___wmul+1,w
  4004     011D  00F9               	movwf	??_atoi+1
  4005     011E  0878               	movf	??_atoi,w
  4006     011F  3ED0               	addlw	208
  4007     0120  00FB               	movwf	atoi@a
  4008     0121  0879               	movf	??_atoi+1,w
  4009     0122  1803               	skipnc
  4010     0123  3E01               	addlw	1
  4011     0124  3EFF               	addlw	255
  4012     0125  00FC               	movwf	atoi@a+1
  4013     0126  2903               	goto	l1588
  4014     0127                     l1594:
  4015     0127  087D               	movf	atoi@s,w
  4016     0128  0084               	movwf	4
  4017     0129  0800               	movf	0,w
  4018     012A  158A  2692  118A   	fcall	_isdigit
  4019     012D  1803               	btfsc	3,0
  4020     012E  2930               	goto	u1231
  4021     012F  2931               	goto	u1230
  4022     0130                     u1231:
  4023     0130  2908               	goto	l1590
  4024     0131                     u1230:
  4025     0131                     l1596:
  4026     0131  087A               	movf	atoi@sign,w
  4027     0132  1903               	btfsc	3,2
  4028     0133  2935               	goto	u1241
  4029     0134  2936               	goto	u1240
  4030     0135                     u1241:
  4031     0135  2942               	goto	l1602
  4032     0136                     u1240:
  4033     0136                     l1598:
  4034     0136  097B               	comf	atoi@a,w
  4035     0137  00F8               	movwf	??_atoi
  4036     0138  097C               	comf	atoi@a+1,w
  4037     0139  00F9               	movwf	??_atoi+1
  4038     013A  0AF8               	incf	??_atoi,f
  4039     013B  1903               	skipnz
  4040     013C  0AF9               	incf	??_atoi+1,f
  4041     013D  0878               	movf	??_atoi,w
  4042     013E  00F6               	movwf	?_atoi
  4043     013F  0879               	movf	??_atoi+1,w
  4044     0140  00F7               	movwf	?_atoi+1
  4045     0141  2946               	goto	l793
  4046     0142                     l1602:
  4047     0142  087C               	movf	atoi@a+1,w
  4048     0143  00F7               	movwf	?_atoi+1
  4049     0144  087B               	movf	atoi@a,w
  4050     0145  00F6               	movwf	?_atoi
  4051     0146                     l793:
  4052     0146  0008               	return
  4053     0147                     __end_of_atoi:
  4054                           
  4055                           	psect	text10
  4056     0E92                     __ptext10:	
  4057 ;; *************** function _isdigit *****************
  4058 ;; Defined at:
  4059 ;;		line 8 in file "C:\Program Files\Microchip\xc8\v2.41\pic\sources\c90\common\isdigit.c"
  4060 ;; Parameters:    Size  Location     Type
  4061 ;;  c               1    wreg     unsigned char 
  4062 ;; Auto vars:     Size  Location     Type
  4063 ;;  c               1    1[COMMON] unsigned char 
  4064 ;; Return value:  Size  Location     Type
  4065 ;;		None               void
  4066 ;; Registers used:
  4067 ;;		wreg, status,2, status,0
  4068 ;; Tracked objects:
  4069 ;;		On entry : 0/0
  4070 ;;		On exit  : 0/0
  4071 ;;		Unchanged: 0/0
  4072 ;; Data sizes:     COMMON   BANK0   BANK1   BANK2
  4073 ;;      Params:         0       0       0       0
  4074 ;;      Locals:         2       0       0       0
  4075 ;;      Temps:          0       0       0       0
  4076 ;;      Totals:         2       0       0       0
  4077 ;;Total ram usage:        2 bytes
  4078 ;; Hardware stack levels used: 1
  4079 ;; This function calls:
  4080 ;;		Nothing
  4081 ;; This function is called by:
  4082 ;;		_atoi
  4083 ;; This function uses a non-reentrant model
  4084 ;;
  4085                           
  4086     0E92                     _isdigit:	
  4087                           ;psect for function _isdigit
  4088                           
  4089                           
  4090                           ;incstack = 0
  4091                           ; Regs used in _isdigit: [wreg+status,2+status,0]
  4092                           ;isdigit@c stored from wreg
  4093     0E92  00F1               	movwf	isdigit@c
  4094     0E93                     l1488:
  4095     0E93  01F0               	clrf	_isdigit$617
  4096     0E94                     l1490:
  4097     0E94  303A               	movlw	58
  4098     0E95  0271               	subwf	isdigit@c,w
  4099     0E96  1803               	skipnc
  4100     0E97  2E99               	goto	u1071
  4101     0E98  2E9A               	goto	u1070
  4102     0E99                     u1071:
  4103     0E99  2EA2               	goto	l1496
  4104     0E9A                     u1070:
  4105     0E9A                     l1492:
  4106     0E9A  3030               	movlw	48
  4107     0E9B  0271               	subwf	isdigit@c,w
  4108     0E9C  1C03               	skipc
  4109     0E9D  2E9F               	goto	u1081
  4110     0E9E  2EA0               	goto	u1080
  4111     0E9F                     u1081:
  4112     0E9F  2EA2               	goto	l1496
  4113     0EA0                     u1080:
  4114     0EA0                     l1494:
  4115     0EA0  01F0               	clrf	_isdigit$617
  4116     0EA1  0AF0               	incf	_isdigit$617,f
  4117     0EA2                     l1496:
  4118     0EA2  0C70               	rrf	_isdigit$617,w
  4119     0EA3                     l798:
  4120     0EA3  0008               	return
  4121     0EA4                     __end_of_isdigit:
  4122                           
  4123                           	psect	text11
  4124     0ED7                     __ptext11:	
  4125 ;; *************** function ___wmul *****************
  4126 ;; Defined at:
  4127 ;;		line 15 in file "C:\Program Files\Microchip\xc8\v2.41\pic\sources\c90\common\Umul16.c"
  4128 ;; Parameters:    Size  Location     Type
  4129 ;;  multiplier      2    0[COMMON] unsigned int 
  4130 ;;  multiplicand    2    2[COMMON] unsigned int 
  4131 ;; Auto vars:     Size  Location     Type
  4132 ;;  product         2    4[COMMON] unsigned int 
  4133 ;; Return value:  Size  Location     Type
  4134 ;;                  2    0[COMMON] unsigned int 
  4135 ;; Registers used:
  4136 ;;		wreg, status,2, status,0
  4137 ;; Tracked objects:
  4138 ;;		On entry : 0/0
  4139 ;;		On exit  : 0/0
  4140 ;;		Unchanged: 0/0
  4141 ;; Data sizes:     COMMON   BANK0   BANK1   BANK2
  4142 ;;      Params:         4       0       0       0
  4143 ;;      Locals:         2       0       0       0
  4144 ;;      Temps:          0       0       0       0
  4145 ;;      Totals:         6       0       0       0
  4146 ;;Total ram usage:        6 bytes
  4147 ;; Hardware stack levels used: 1
  4148 ;; This function calls:
  4149 ;;		Nothing
  4150 ;; This function is called by:
  4151 ;;		_main
  4152 ;;		_atoi
  4153 ;; This function uses a non-reentrant model
  4154 ;;
  4155                           
  4156     0ED7                     ___wmul:	
  4157                           ;psect for function ___wmul
  4158                           
  4159     0ED7                     l1474:	
  4160                           ;incstack = 0
  4161                           ; Regs used in ___wmul: [wreg+status,2+status,0]
  4162                           
  4163     0ED7  01F4               	clrf	___wmul@product
  4164     0ED8  01F5               	clrf	___wmul@product+1
  4165     0ED9                     l1476:
  4166     0ED9  1C70               	btfss	___wmul@multiplier,0
  4167     0EDA  2EDC               	goto	u1031
  4168     0EDB  2EDD               	goto	u1030
  4169     0EDC                     u1031:
  4170     0EDC  2EE3               	goto	l330
  4171     0EDD                     u1030:
  4172     0EDD                     l1478:
  4173     0EDD  0872               	movf	___wmul@multiplicand,w
  4174     0EDE  07F4               	addwf	___wmul@product,f
  4175     0EDF  1803               	skipnc
  4176     0EE0  0AF5               	incf	___wmul@product+1,f
  4177     0EE1  0873               	movf	___wmul@multiplicand+1,w
  4178     0EE2  07F5               	addwf	___wmul@product+1,f
  4179     0EE3                     l330:
  4180     0EE3  3001               	movlw	1
  4181     0EE4                     u1045:
  4182     0EE4  1003               	clrc
  4183     0EE5  0DF2               	rlf	___wmul@multiplicand,f
  4184     0EE6  0DF3               	rlf	___wmul@multiplicand+1,f
  4185     0EE7  3EFF               	addlw	-1
  4186     0EE8  1D03               	skipz
  4187     0EE9  2EE4               	goto	u1045
  4188     0EEA                     l1480:
  4189     0EEA  3001               	movlw	1
  4190     0EEB                     u1055:
  4191     0EEB  1003               	clrc
  4192     0EEC  0CF1               	rrf	___wmul@multiplier+1,f
  4193     0EED  0CF0               	rrf	___wmul@multiplier,f
  4194     0EEE  3EFF               	addlw	-1
  4195     0EEF  1D03               	skipz
  4196     0EF0  2EEB               	goto	u1055
  4197     0EF1                     l1482:
  4198     0EF1  0870               	movf	___wmul@multiplier,w
  4199     0EF2  0471               	iorwf	___wmul@multiplier+1,w
  4200     0EF3  1D03               	btfss	3,2
  4201     0EF4  2EF6               	goto	u1061
  4202     0EF5  2EF7               	goto	u1060
  4203     0EF6                     u1061:
  4204     0EF6  2ED9               	goto	l1476
  4205     0EF7                     u1060:
  4206     0EF7                     l1484:
  4207     0EF7  0875               	movf	___wmul@product+1,w
  4208     0EF8  00F1               	movwf	?___wmul+1
  4209     0EF9  0874               	movf	___wmul@product,w
  4210     0EFA  00F0               	movwf	?___wmul
  4211     0EFB                     l332:
  4212     0EFB  0008               	return
  4213     0EFC                     __end_of___wmul:
  4214                           
  4215                           	psect	text12
  4216     0F99                     __ptext12:	
  4217 ;; *************** function ___awdiv *****************
  4218 ;; Defined at:
  4219 ;;		line 5 in file "C:\Program Files\Microchip\xc8\v2.41\pic\sources\c90\common\awdiv.c"
  4220 ;; Parameters:    Size  Location     Type
  4221 ;;  divisor         2    0[COMMON] int 
  4222 ;;  dividend        2    2[COMMON] int 
  4223 ;; Auto vars:     Size  Location     Type
  4224 ;;  quotient        2    6[COMMON] int 
  4225 ;;  sign            1    5[COMMON] unsigned char 
  4226 ;;  counter         1    4[COMMON] unsigned char 
  4227 ;; Return value:  Size  Location     Type
  4228 ;;                  2    0[COMMON] int 
  4229 ;; Registers used:
  4230 ;;		wreg, status,2, status,0, btemp+1
  4231 ;; Tracked objects:
  4232 ;;		On entry : 0/0
  4233 ;;		On exit  : 0/0
  4234 ;;		Unchanged: 0/0
  4235 ;; Data sizes:     COMMON   BANK0   BANK1   BANK2
  4236 ;;      Params:         4       0       0       0
  4237 ;;      Locals:         4       0       0       0
  4238 ;;      Temps:          0       0       0       0
  4239 ;;      Totals:         8       0       0       0
  4240 ;;Total ram usage:        8 bytes
  4241 ;; Hardware stack levels used: 1
  4242 ;; This function calls:
  4243 ;;		Nothing
  4244 ;; This function is called by:
  4245 ;;		_main
  4246 ;; This function uses a non-reentrant model
  4247 ;;
  4248                           
  4249     0F99                     ___awdiv:	
  4250                           ;psect for function ___awdiv
  4251                           
  4252     0F99                     l1612:	
  4253                           ;incstack = 0
  4254                           ; Regs used in ___awdiv: [wreg+status,2+status,0+btemp+1]
  4255                           
  4256     0F99  01F5               	clrf	___awdiv@sign
  4257     0F9A                     l1614:
  4258     0F9A  1FF1               	btfss	___awdiv@divisor+1,7
  4259     0F9B  2F9D               	goto	u1261
  4260     0F9C  2F9E               	goto	u1260
  4261     0F9D                     u1261:
  4262     0F9D  2FA5               	goto	l1620
  4263     0F9E                     u1260:
  4264     0F9E                     l1616:
  4265     0F9E  09F0               	comf	___awdiv@divisor,f
  4266     0F9F  09F1               	comf	___awdiv@divisor+1,f
  4267     0FA0  0AF0               	incf	___awdiv@divisor,f
  4268     0FA1  1903               	skipnz
  4269     0FA2  0AF1               	incf	___awdiv@divisor+1,f
  4270     0FA3                     l1618:
  4271     0FA3  01F5               	clrf	___awdiv@sign
  4272     0FA4  0AF5               	incf	___awdiv@sign,f
  4273     0FA5                     l1620:
  4274     0FA5  1FF3               	btfss	___awdiv@dividend+1,7
  4275     0FA6  2FA8               	goto	u1271
  4276     0FA7  2FA9               	goto	u1270
  4277     0FA8                     u1271:
  4278     0FA8  2FB2               	goto	l1626
  4279     0FA9                     u1270:
  4280     0FA9                     l1622:
  4281     0FA9  09F2               	comf	___awdiv@dividend,f
  4282     0FAA  09F3               	comf	___awdiv@dividend+1,f
  4283     0FAB  0AF2               	incf	___awdiv@dividend,f
  4284     0FAC  1903               	skipnz
  4285     0FAD  0AF3               	incf	___awdiv@dividend+1,f
  4286     0FAE                     l1624:
  4287     0FAE  3001               	movlw	1
  4288     0FAF  00FF               	movwf	btemp+1
  4289     0FB0  087F               	movf	btemp+1,w
  4290     0FB1  06F5               	xorwf	___awdiv@sign,f
  4291     0FB2                     l1626:
  4292     0FB2  01F6               	clrf	___awdiv@quotient
  4293     0FB3  01F7               	clrf	___awdiv@quotient+1
  4294     0FB4                     l1628:
  4295     0FB4  0870               	movf	___awdiv@divisor,w
  4296     0FB5  0471               	iorwf	___awdiv@divisor+1,w
  4297     0FB6  1903               	btfsc	3,2
  4298     0FB7  2FB9               	goto	u1281
  4299     0FB8  2FBA               	goto	u1280
  4300     0FB9                     u1281:
  4301     0FB9  2FF1               	goto	l1648
  4302     0FBA                     u1280:
  4303     0FBA                     l1630:
  4304     0FBA  01F4               	clrf	___awdiv@counter
  4305     0FBB  0AF4               	incf	___awdiv@counter,f
  4306     0FBC  2FC8               	goto	l1636
  4307     0FBD                     l1632:
  4308     0FBD  3001               	movlw	1
  4309     0FBE                     u1295:
  4310     0FBE  1003               	clrc
  4311     0FBF  0DF0               	rlf	___awdiv@divisor,f
  4312     0FC0  0DF1               	rlf	___awdiv@divisor+1,f
  4313     0FC1  3EFF               	addlw	-1
  4314     0FC2  1D03               	skipz
  4315     0FC3  2FBE               	goto	u1295
  4316     0FC4                     l1634:
  4317     0FC4  3001               	movlw	1
  4318     0FC5  00FF               	movwf	btemp+1
  4319     0FC6  087F               	movf	btemp+1,w
  4320     0FC7  07F4               	addwf	___awdiv@counter,f
  4321     0FC8                     l1636:
  4322     0FC8  1FF1               	btfss	___awdiv@divisor+1,7
  4323     0FC9  2FCB               	goto	u1301
  4324     0FCA  2FCC               	goto	u1300
  4325     0FCB                     u1301:
  4326     0FCB  2FBD               	goto	l1632
  4327     0FCC                     u1300:
  4328     0FCC                     l1638:
  4329     0FCC  3001               	movlw	1
  4330     0FCD                     u1315:
  4331     0FCD  1003               	clrc
  4332     0FCE  0DF6               	rlf	___awdiv@quotient,f
  4333     0FCF  0DF7               	rlf	___awdiv@quotient+1,f
  4334     0FD0  3EFF               	addlw	-1
  4335     0FD1  1D03               	skipz
  4336     0FD2  2FCD               	goto	u1315
  4337     0FD3  0871               	movf	___awdiv@divisor+1,w
  4338     0FD4  0273               	subwf	___awdiv@dividend+1,w
  4339     0FD5  1D03               	skipz
  4340     0FD6  2FD9               	goto	u1325
  4341     0FD7  0870               	movf	___awdiv@divisor,w
  4342     0FD8  0272               	subwf	___awdiv@dividend,w
  4343     0FD9                     u1325:
  4344     0FD9  1C03               	skipc
  4345     0FDA  2FDC               	goto	u1321
  4346     0FDB  2FDD               	goto	u1320
  4347     0FDC                     u1321:
  4348     0FDC  2FE4               	goto	l1644
  4349     0FDD                     u1320:
  4350     0FDD                     l1640:
  4351     0FDD  0870               	movf	___awdiv@divisor,w
  4352     0FDE  02F2               	subwf	___awdiv@dividend,f
  4353     0FDF  0871               	movf	___awdiv@divisor+1,w
  4354     0FE0  1C03               	skipc
  4355     0FE1  03F3               	decf	___awdiv@dividend+1,f
  4356     0FE2  02F3               	subwf	___awdiv@dividend+1,f
  4357     0FE3                     l1642:
  4358     0FE3  1476               	bsf	___awdiv@quotient,0
  4359     0FE4                     l1644:
  4360     0FE4  3001               	movlw	1
  4361     0FE5                     u1335:
  4362     0FE5  1003               	clrc
  4363     0FE6  0CF1               	rrf	___awdiv@divisor+1,f
  4364     0FE7  0CF0               	rrf	___awdiv@divisor,f
  4365     0FE8  3EFF               	addlw	-1
  4366     0FE9  1D03               	skipz
  4367     0FEA  2FE5               	goto	u1335
  4368     0FEB                     l1646:
  4369     0FEB  3001               	movlw	1
  4370     0FEC  02F4               	subwf	___awdiv@counter,f
  4371     0FED  1D03               	btfss	3,2
  4372     0FEE  2FF0               	goto	u1341
  4373     0FEF  2FF1               	goto	u1340
  4374     0FF0                     u1341:
  4375     0FF0  2FCC               	goto	l1638
  4376     0FF1                     u1340:
  4377     0FF1                     l1648:
  4378     0FF1  0875               	movf	___awdiv@sign,w
  4379     0FF2  1903               	btfsc	3,2
  4380     0FF3  2FF5               	goto	u1351
  4381     0FF4  2FF6               	goto	u1350
  4382     0FF5                     u1351:
  4383     0FF5  2FFB               	goto	l1652
  4384     0FF6                     u1350:
  4385     0FF6                     l1650:
  4386     0FF6  09F6               	comf	___awdiv@quotient,f
  4387     0FF7  09F7               	comf	___awdiv@quotient+1,f
  4388     0FF8  0AF6               	incf	___awdiv@quotient,f
  4389     0FF9  1903               	skipnz
  4390     0FFA  0AF7               	incf	___awdiv@quotient+1,f
  4391     0FFB                     l1652:
  4392     0FFB  0877               	movf	___awdiv@quotient+1,w
  4393     0FFC  00F1               	movwf	?___awdiv+1
  4394     0FFD  0876               	movf	___awdiv@quotient,w
  4395     0FFE  00F0               	movwf	?___awdiv
  4396     0FFF                     l483:
  4397     0FFF  0008               	return
  4398     1000                     __end_of___awdiv:
  4399     007E                     btemp	set	126	;btemp
  4400     007E                     wtemp0	set	126
  4401                           
  4402                           	psect	idloc
  4403                           
  4404                           ;Config register IDLOC0 @ 0x2000
  4405                           ;	unspecified, using default values
  4406     2000                     	org	8192
  4407     2000  3FFF               	dw	16383
  4408                           
  4409                           ;Config register IDLOC1 @ 0x2001
  4410                           ;	unspecified, using default values
  4411     2001                     	org	8193
  4412     2001  3FFF               	dw	16383
  4413                           
  4414                           ;Config register IDLOC2 @ 0x2002
  4415                           ;	unspecified, using default values
  4416     2002                     	org	8194
  4417     2002  3FFF               	dw	16383
  4418                           
  4419                           ;Config register IDLOC3 @ 0x2003
  4420                           ;	unspecified, using default values
  4421     2003                     	org	8195
  4422     2003  3FFF               	dw	16383
  4423                           
  4424                           	psect	config
  4425                           
  4426                           ;Config register CONFIG @ 0x2007
  4427                           ;	Oscillator Selection bits
  4428                           ;	FOSC = INTOSCIO, INTOSC oscillator: I/O function on RA6/OSC2/CLKOUT pin, I/O function 
      +                          on RA7/OSC1/CLKIN
  4429                           ;	Watchdog Timer Enable bit
  4430                           ;	WDTE = OFF, WDT disabled
  4431                           ;	Power-up Timer Enable bit
  4432                           ;	PWRTE = OFF, PWRT disabled
  4433                           ;	RA5/MCLR/VPP Pin Function Select bit
  4434                           ;	MCLRE = ON, RA5/MCLR/VPP pin function is MCLR
  4435                           ;	Brown-out Detect Enable bit
  4436                           ;	BOREN = ON, BOD enabled
  4437                           ;	Low-Voltage Programming Enable bit
  4438                           ;	LVP = OFF, RB4/PGM pin has digital I/O function, HV on MCLR must be used for programmi
      +                          ng
  4439                           ;	Data EE Memory Code Protection bit
  4440                           ;	CPD = OFF, Data memory code protection off
  4441                           ;	Flash Program Memory Code Protection bit
  4442                           ;	CP = OFF, Code protection off
  4443     2007                     	org	8199
  4444     2007  3F78               	dw	16248

Data Sizes:
    Strings     142
    Constant    0
    Data        0
    BSS         1
    Persistent  0
    Stack       0

Auto Spaces:
    Space          Size  Autos    Used
    COMMON           14     14      14
    BANK0            80     63      64
    BANK1            80      0       0
    BANK2            80      0       0

Pointer List with Targets:

    strspn@s2	PTR const unsigned char  size(1) Largest target is 2
		 -> STR_35(CODE[2]), STR_33(CODE[2]), STR_29(CODE[2]), STR_26(CODE[2]), 
		 -> STR_25(CODE[2]), STR_24(CODE[2]), STR_23(CODE[2]), STR_22(CODE[2]), 
		 -> STR_20(CODE[2]), STR_19(CODE[2]), STR_18(CODE[2]), STR_16(CODE[2]), 
		 -> STR_15(CODE[2]), STR_14(CODE[2]), STR_13(CODE[2]), STR_12(CODE[2]), 

    strspn@s1	PTR const unsigned char  size(1) Largest target is 40
		 -> NULL(NULL[0]), main@tmp(BANK0[40]), 

    strchr@ptr	PTR const unsigned char  size(1) Largest target is 2
		 -> STR_35(CODE[2]), STR_33(CODE[2]), STR_29(CODE[2]), STR_26(CODE[2]), 
		 -> STR_25(CODE[2]), STR_24(CODE[2]), STR_23(CODE[2]), STR_22(CODE[2]), 
		 -> STR_20(CODE[2]), STR_19(CODE[2]), STR_18(CODE[2]), STR_16(CODE[2]), 
		 -> STR_15(CODE[2]), STR_14(CODE[2]), STR_13(CODE[2]), STR_12(CODE[2]), 

    sp__strchr	PTR unsigned char  size(1) Largest target is 2
		 -> STR_35(CODE[2]), STR_33(CODE[2]), STR_29(CODE[2]), STR_26(CODE[2]), 
		 -> STR_25(CODE[2]), STR_24(CODE[2]), STR_23(CODE[2]), STR_22(CODE[2]), 
		 -> STR_20(CODE[2]), STR_19(CODE[2]), STR_18(CODE[2]), STR_16(CODE[2]), 
		 -> STR_15(CODE[2]), STR_14(CODE[2]), STR_13(CODE[2]), NULL(NULL[0]), 
		 -> STR_12(CODE[2]), 

    strcspn@s2	PTR const unsigned char  size(1) Largest target is 2
		 -> STR_35(CODE[2]), STR_33(CODE[2]), STR_29(CODE[2]), STR_26(CODE[2]), 
		 -> STR_25(CODE[2]), STR_24(CODE[2]), STR_23(CODE[2]), STR_22(CODE[2]), 
		 -> STR_20(CODE[2]), STR_19(CODE[2]), STR_18(CODE[2]), STR_16(CODE[2]), 
		 -> STR_15(CODE[2]), STR_14(CODE[2]), STR_13(CODE[2]), STR_12(CODE[2]), 

    strcspn@s1	PTR const unsigned char  size(1) Largest target is 40
		 -> NULL(NULL[0]), main@tmp(BANK0[40]), 

    strtok@s2	PTR const unsigned char  size(1) Largest target is 2
		 -> STR_35(CODE[2]), STR_33(CODE[2]), STR_29(CODE[2]), STR_26(CODE[2]), 
		 -> STR_25(CODE[2]), STR_24(CODE[2]), STR_23(CODE[2]), STR_22(CODE[2]), 
		 -> STR_20(CODE[2]), STR_19(CODE[2]), STR_18(CODE[2]), STR_16(CODE[2]), 
		 -> STR_15(CODE[2]), STR_14(CODE[2]), STR_13(CODE[2]), STR_12(CODE[2]), 

    strtok@sp	PTR unsigned char  size(1) Largest target is 40
		 -> NULL(NULL[0]), main@tmp(BANK0[40]), 

    strtok@s1	PTR unsigned char  size(1) Largest target is 40
		 -> NULL(NULL[0]), main@tmp(BANK0[40]), 

    strcmp@s2	PTR const unsigned char  size(1) Largest target is 4
		 -> STR_11(CODE[4]), STR_10(CODE[4]), STR_9(CODE[4]), STR_8(CODE[4]), 
		 -> STR_7(CODE[4]), STR_6(CODE[4]), STR_5(CODE[4]), STR_4(CODE[4]), 
		 -> STR_3(CODE[4]), STR_2(CODE[4]), STR_1(CODE[4]), 

    strcmp@s1	PTR const unsigned char  size(1) Largest target is 4
		 -> main@rcmd(BANK0[4]), 

    atoi@s	PTR const unsigned char  size(1) Largest target is 40
		 -> NULL(NULL[0]), main@tmp(BANK0[40]), 

    printf@f	PTR const unsigned char  size(1) Largest target is 14
		 -> STR_38(CODE[14]), STR_37(CODE[10]), STR_36(CODE[8]), STR_34(CODE[8]), 
		 -> STR_32(CODE[8]), STR_31(CODE[8]), STR_30(CODE[8]), STR_28(CODE[8]), 
		 -> STR_27(CODE[8]), STR_21(CODE[8]), STR_17(CODE[8]), 

    printf@ap	PTR void [1] size(1) Largest target is 2
		 -> ?_printf(COMMON[2]), 

    sp__strtok	PTR unsigned char  size(1) Largest target is 40
		 -> NULL(NULL[0]), main@tmp(BANK0[40]), 

    main@ptr	PTR unsigned char  size(1) Largest target is 40
		 -> NULL(NULL[0]), main@tmp(BANK0[40]), 


Critical Paths under _main in COMMON

    _main->_atoi
    _strtok->_strcspn
    _strtok->_strspn
    _strspn->_strchr
    _strcspn->_strchr
    _printf->_putch
    _atoi->___wmul

Critical Paths under _main in BANK0

    None.

Critical Paths under _main in BANK1

    None.

Critical Paths under _main in BANK2

    None.

Call Graph Tables:

 ---------------------------------------------------------------------------------
 (Depth) Function   	        Calls       Base Space   Used Autos Params    Refs
 ---------------------------------------------------------------------------------
 (0) _main                                                69    69      0    9433
                                              0 BANK0     63    63      0
                            ___awdiv
                             ___wmul
                               _atoi
                           _initUART
                             _printf
                             _strcmp
                             _strtok
 ---------------------------------------------------------------------------------
 (1) _strtok                                               2     1      1    2956
                                             10 COMMON     2     1      1
                            _strcspn
                             _strspn
 ---------------------------------------------------------------------------------
 (2) _strspn                                               7     5      2     506
                                              3 COMMON     7     5      2
                             _strchr
 ---------------------------------------------------------------------------------
 (2) _strcspn                                              7     5      2     506
                                              3 COMMON     7     5      2
                             _strchr
 ---------------------------------------------------------------------------------
 (4) _strchr                                               3     1      2     306
                                              0 COMMON     3     1      2
 ---------------------------------------------------------------------------------
 (2) _strcmp                                               6     4      2    1290
                                              0 COMMON     6     4      2
 ---------------------------------------------------------------------------------
 (1) _printf                                              15    15      0     431
                                              1 COMMON     3     3      0
                              _putch
 ---------------------------------------------------------------------------------
 (2) _putch                                                1     1      0      22
                                              0 COMMON     1     1      0
 ---------------------------------------------------------------------------------
 (1) _initUART                                             0     0      0       0
 ---------------------------------------------------------------------------------
 (1) _atoi                                                 8     6      2    1042
                                              6 COMMON     8     6      2
                             ___wmul
                            _isdigit
 ---------------------------------------------------------------------------------
 (2) _isdigit                                              2     2      0      68
                                              0 COMMON     2     2      0
 ---------------------------------------------------------------------------------
 (2) ___wmul                                               6     2      4     548
                                              0 COMMON     6     2      4
 ---------------------------------------------------------------------------------
 (1) ___awdiv                                              8     4      4     452
                                              0 COMMON     8     4      4
 ---------------------------------------------------------------------------------
 Estimated maximum stack depth 4
 ---------------------------------------------------------------------------------

 Call Graph Graphs:

 _main (ROOT)
   ___awdiv
   ___wmul
   _atoi
     ___wmul
     _isdigit
   _initUART
   _printf
     _putch
   _strcmp
   _strtok
     _strcspn
       _strchr
     _strspn
       _strchr

 Address spaces:
Name               Size   Autos  Total    Cost      Usage
BITCOMMON            E      0       0       0        0.0%
EEDATA             100      0       0       0        0.0%
NULL                 0      0       0       0        0.0%
CODE                 0      0       0       0        0.0%
COMMON               E      E       E       1      100.0%
BITSFR0              0      0       0       1        0.0%
SFR0                 0      0       0       1        0.0%
BITSFR1              0      0       0       2        0.0%
SFR1                 0      0       0       2        0.0%
STACK                0      0       0       2        0.0%
BANK0               50     3F      40       3       80.0%
BITBANK1            50      0       0       4        0.0%
BITSFR3              0      0       0       4        0.0%
SFR3                 0      0       0       4        0.0%
BANK1               50      0       0       5        0.0%
BITSFR2              0      0       0       5        0.0%
SFR2                 0      0       0       5        0.0%
BITBANK2            50      0       0       6        0.0%
BANK2               50      0       0       7        0.0%
ABS                  0      0      4E       8        0.0%
BITBANK0            50      0       0       9        0.0%
DATA                 0      0      4E      10        0.0%


Microchip Technology PIC Macro Assembler V2.41 build 20230208172133 
Symbol Table                                                                                   Thu Oct 26 20:32:02 2023

                      pc 0002                       l40 0189                       l41 0196  
                     l42 0190                       l60 0257                       l70 02E8  
                     l71 02A6                       l80 034F                       l72 02B5  
                     l81 030D                       l73 02AC                       l82 031C  
                     l74 02C3                       l83 0313                       l75 02D2  
                     l84 032A                       l76 02C9                       l85 0339  
                     l86 0330                       l96 043C                       l97 03FA  
                     l98 0409                       l99 0400             ___awdiv@sign 0075  
                     fsr 0004      ___wmul@multiplicand 0072                      l100 0417  
                    l101 0426                      l110 047B                      l102 041D  
                    l111 0472                      l120 04E2                      l121 04D9  
                    l105 0491                      l130 052E                      l106 044F  
                    l115 04F8                      l107 045E                      l140 058A  
                    l124 054D                      l116 04B6                      l108 0455  
                    l141 05A1                      l125 050B                      l117 04C5  
                    l109 046C                      l222 0E89                      l150 05F8  
                    l134 05AE                      l126 051A                      l118 04BC  
                    l151 0607                      l135 0567                      l127 0511  
                    l119 04D3                      l160 0660                      l152 05FE  
                    l136 0576                      l128 0528                      l225 0E91  
                    l161 0657                      l153 0615                      l137 056D  
                    l129 0537                      l330 0EE3                      l170 06B7  
                    l146 05DB                      l138 0584                      l219 00A2  
                    l171 06AE                      l155 0676                      l139 0593  
                    l332 0EFB                      l180 0707                      l172 06C5  
                    l156 0634                      l148 05EA                      l165 068B  
                    l157 0643                      l149 05E1                      l326 0EBA  
                    l190 075F                      l174 0726                      l158 063A  
                    l175 06E4                      l167 069A                      l159 0651  
                    l184 077E                      l176 06F3                      l168 0691  
                    l185 073C                      l177 06EA                      l169 06A8  
                    l186 074B                      l178 0701                      l187 0742  
                    l179 0710                      l188 0759                      l189 0768  
                    l483 0FFF                      l806 0F25                      l830 0F52  
                    l833 0EBC                      l817 0F98                      l835 0ED6  
                    l846 00CF                      l793 0146                      l798 0EA3  
                    _RA0 0028                      _RA1 0029                      _RB0 0030  
                    _RB4 0034                      _RB5 0035                      _RB6 0036  
                    fsr0 0004                      indf 0000                     l1500 00A4  
                   l1502 00A7                     l1520 0F4E                     l1512 0F27  
                   l1504 00B1                     l1602 0142                     l1610 0EAC  
                   l1530 0F02                     l1514 0F2A                     l1506 00B9  
                   l1620 0FA5                     l1612 0F99                     l1524 0098  
                   l1532 0F06                     l1460 0EC6                     l1516 0F34  
                   l1508 00CB                     l1540 0F54                     l1700 017F  
                   l1630 0FBA                     l1622 0FA9                     l1614 0F9A  
                   l1470 0E89                     l1606 0EA5                     l1534 0F19  
                   l1526 0EFD                     l1518 0F3C                     l1550 0F64  
                   l1542 0F59                     l1710 0194                     l1702 0181  
                   l1640 0FDD                     l1632 0FBD                     l1624 0FAE  
                   l1616 0F9E                     l1480 0EEA                     l1472 0E8F  
                   l1608 0EA8                     l1536 0F20                     l1528 0EFE  
                   l1464 0EC8                     l1560 0F86                     l1552 0F6E  
                   l1544 0F5D                     l1800 0382                     l1720 01B9  
                   l1712 019C                     l1704 0182                     l1650 0FF6  
                   l1642 0FE3                     l1634 0FC4                     l1626 0FB2  
                   l1618 0FA3                     l1482 0EF1                     l1474 0ED7  
                   l1490 0E94                     l1466 0ED5                     l1458 0EBC  
                   l1562 0F8E                     l1554 0F76                     l1546 0F62  
                   l1810 03AC                     l1802 038C                     l1730 01E0  
                   l1722 01BE                     l1714 019D                     l1706 0186  
                   l1652 0FFB                     l1644 0FE4                     l1636 0FC8  
                   l1628 0FB4                     l1484 0EF7                     l1476 0ED9  
                   l1492 0E9A                     l1580 00E7                     l1572 00D1  
                   l1564 0F91                     l1900 05DE                     l1820 03FD  
                   l1812 03D9                     l1804 039D                     l1740 020E  
                   l1732 01EC                     l1724 01CA                     l1716 01A9  
                   l1708 018D                     l1660 0150                     l1646 0FEB  
                   l1638 0FCC                     l1478 0EDD                     l1494 0EA0  
                   l1590 0108                     l1582 00EA                     l1574 00D2  
                   l1566 0F96                     l1558 0F7B                     l1910 061C  
                   l1902 05E2                     l1830 044A                     l1822 0401  
                   l1814 03DE                     l1806 03A3                     l1750 0235  
                   l1742 0213                     l1734 01F1                     l1726 01CF  
                   l1718 01AD                     l1670 0157                     l1662 0154  
                   l1648 0FF1                     l1496 0EA2                     l1488 0E93  
                   l1584 00F2                     l1576 00D6                     l1568 0F97  
                   l1920 0654                     l1912 0622                     l1904 05FB  
                   l1840 0489                     l1832 0452                     l1824 041A  
                   l1816 03E8                     l1808 03A7                     l1760 0261  
                   l1752 0241                     l1744 021F                     l1736 01FD  
                   l1728 01DB                     l1680 016D                     l1672 015D  
                   l1664 0157                     l1656 0147                     l1594 0127  
                   l1586 00FB                     l1578 00DF                     l1922 0658  
                   l1914 062F                     l1906 05FF                     l1850 04D6  
                   l1834 0456                     l1826 041E                     l1818 03F5  
                   l1842 04A0                     l1770 02A9                     l1762 0285  
                   l1754 0246                     l1746 0224                     l1738 0202  
                   l1690 0176                     l1682 016E                     l1674 0161  
                   l1666 0157                     l1658 014E                     l1596 0131  
                   l1588 0103                     l1940 06AF                     l1924 066E  
                   l1916 0637                     l1860 0512                     l1852 04DA  
                   l1844 04B3                     l1836 046F                     l1828 0434  
                   l1772 02AD                     l1780 02F7                     l1764 028A  
                   l1756 0252                     l1748 0230                     l1692 0178  
                   l1684 016F                     l1676 0165                     l1668 0157  
                   l1598 0136                     l1950 06E7                     l1934 068E  
                   l1926 0684                     l1918 063B                     l1870 0560  
                   l1862 052B                     l1854 04F0                     l1846 04B9  
                   l1838 0473                     l1790 0331                     l1782 030A  
                   l1774 02C6                     l1766 0294                     l1758 0257  
                   l1694 017A                     l1686 0170                     l1678 0169  
                   l1960 0734                     l1952 06EB                     l1944 06CC  
                   l1936 0692                     l1928 0689                     l1880 058B  
                   l1872 0564                     l1864 052F                     l1856 0506  
                   l1848 04BD                     l1792 0347                     l1784 0310  
                   l1776 02CA                     l1768 02A1                     l1696 017B  
                   l1688 0174                     l1970 0760                     l1962 0739  
                   l1954 0704                     l1946 06D2                     l1938 06AB  
                   l1890 05CA                     l1874 056A                     l1866 0545  
                   l1858 050E                     l1786 0314                     l1794 035D  
                   l1778 02E0                     l1698 017D                     l1980 079F  
                   l1972 0776                     l1964 073F                     l1956 0708  
                   l1948 06DF                     l1892 05CF                     l1884 05A8  
                   l1876 056E                     l1868 055B                     l1796 0362  
                   l1788 032D                     l1990 07C6                     l1982 07A9  
                   l1974 078C                     l1966 0743                     l1958 071E  
                   l1894 05D9                     l1886 05BC                     l1878 0587  
                   l1798 037D                     l1992 07CB                     l1984 07AE  
                   l1976 0791                     l1968 075C                     l1888 05C1  
                   l1994 07D0                     l1986 07B7                     l1978 079A  
                   l1988 07BC                     l1998 07D5                     STR_1 008C  
                   STR_2 0068                     STR_3 006C                     STR_4 007C  
                   STR_5 0080                     STR_6 0070                     STR_7 0088  
                   STR_8 0090                     STR_9 0074                     u1000 0EC6  
                   u1001 0EC5                     u1010 0ED5                     u1011 0ED4  
                   u1020 0E8F                     u1100 00CB                     u1021 0E8E  
                   u1101 00CA                     u1030 0EDD                     u1110 0F3C  
                   u1031 0EDC                     u1111 0F3B                     u1200 00E7  
                   u1120 0F4E                     u1201 00E6                     u1121 0F4D  
                   u1210 00F2                     u1130 0F19                     u1211 00F1  
                   u1131 0F18                     u1300 0FCC                     u1060 0EF7  
                   u1220 0103                     u1140 0F20                     u1301 0FCB  
                   u1061 0EF6                     u1045 0EE4                     u1221 0102  
                   u1141 0F1F                     u1070 0E9A                     u1230 0131  
                   u1150 0F59                     u1055 0EEB                     u1071 0E99  
                   u1231 0130                     u1151 0F58                     u1320 0FDD  
                   u1080 0EA0                     u1240 0136                     u1160 0F62  
                   u1400 01B9                     u1321 0FDC                     u1081 0E9F  
                   u1241 0135                     u1161 0F61                     u1401 01B8  
                   u1250 0EBA                     u1090 00B9                     u1170 0F76  
                   u1410 01CA                     u1315 0FCD                     u1251 0EB9  
                   u1091 00B8                     u1171 0F75                     u1411 01C9  
                   u1340 0FF1                     u1260 0F9E                     u1180 0F8E  
                   u1500 028A                     u1420 01DB                     u1341 0FF0  
                   u1325 0FD9                     u1261 0F9D                     u1181 0F8D  
                   u1501 0289                     u1421 01DA                     u1350 0FF6  
                   u1270 0FA9                     u1190 00DF                     u1510 02A1  
                   u1430 01EC                     u1351 0FF5                     u1335 0FE5  
                   u1271 0FA8                     u1191 00DE                     u1511 02A0  
                   u1431 01EB                     u1280 0FBA                     u1600 03DE  
                   u1520 02C3                     u1440 01FD                     u1360 0186  
                   u1281 0FB9                     u1601 03DD                     u1521 02C2  
                   u1441 01FC                     u1361 0185                     u1610 03F5  
                   u1530 02E0                     u1450 020E                     u1370 018D  
                   u1611 03F4                     u1531 02DF                     u1515 029D  
                   u1451 020D                     u1371 018C                     u1700 0506  
                   u1620 0417                     u1540 02F6                     u1460 021F  
                   u1380 0194                     u1701 0505                     u1621 0416  
                   u1541 02F5                     u1525 02BF                     u1461 021E  
                   u1381 0193                     u1710 0528                     u1630 0434  
                   u1550 032A                     u1470 0230                     u1390 01A9  
                   u1295 0FBE                     u1711 0527                     u1631 0433  
                   u1615 03F1                     u1551 0329                     u1535 02DC  
                   u1471 022F                     u1391 01A8                     u1800 0615  
                   u1720 0545                     u1640 044A                     u1560 0347  
                   u1480 0241                     u1801 0614                     u1721 0544  
                   u1705 0502                     u1641 0449                     u1625 0413  
                   u1561 0346                     u1545 02F2                     u1481 0240  
                   u1810 061B                     u1730 055B                     u1650 046C  
                   u1570 035D                     u1490 0252                     u1811 061A  
                   u1731 055A                     u1715 0524                     u1651 046B  
                   u1635 0430                     u1571 035C                     u1555 0326  
                   u1491 0251                     u1900 0701                     u1820 062F  
                   u1740 0584                     u1660 0489                     u1580 0382  
                   u1901 0700                     u1821 062E                     u1805 0611  
                   u1741 0583                     u1725 0541                     u1661 0488  
                   u1645 0446                     u1581 0381                     u1565 0343  
                   u1910 071E                     u1830 0651                     u1750 05A1  
                   u1670 049F                     u1590 03A3                     u1911 071D  
                   u1831 0650                     u1751 05A0                     u1735 0557  
                   u1671 049E                     u1655 0468                     u1591 03A2  
                   u1575 0359                     u1920 0734                     u1840 066E  
                   u1760 05A7                     u1680 04D3                     u1921 0733  
                   u1905 06FD                     u1841 066D                     u1825 062B  
                   u1761 05A6                     u1745 0580                     u1681 04D2  
                   u1665 0485                     u1930 0759                     u1850 0684  
                   u1770 05BC                     u1690 04F0                     u1931 0758  
                   u1915 071A                     u1851 0683                     u1835 064D  
                   u1771 05BB                     u1755 059D                     u1691 04EF  
                   u1675 049B                     u1940 0776                     u1860 06A8  
                   u1780 05CF                     u1941 0775                     u1925 0730  
                   u1861 06A7                     u1845 066A                     u1781 05CE  
                   u1685 04CF                     u1950 078C                     u1870 06C5  
                   u1790 05F8                     u1951 078B                     u1935 0755  
                   u1871 06C4                     u1855 0680                     u1791 05F7  
                   u1775 05B8                     u1695 04EC                     u1960 079F  
                   u1880 06CB                     u1961 079E                     u1945 0772  
                   u1881 06CA                     u1865 06A4                     u1970 07BC  
                   u1890 06DF                     u1971 07BB                     u1955 0788  
                   u1891 06DE                     u1875 06C1                     u1795 05F4  
                   u1895 06DB                     _RCIF 0065                     _TXIF 0064  
                   _atoi 00D0                     _main 0147              main@set_spd 004B  
                   btemp 007E                     start 0000                    ?_atoi 0076  
                  ?_main 0070          __end_of___awdiv 1000                    STR_10 0084  
                  STR_11 0078                    STR_20 0094                    STR_12 0094  
                  STR_13 0094                    STR_21 0020                    STR_22 0094  
                  STR_14 0094                    STR_30 0050                    STR_23 0094  
                  STR_15 0094                    STR_31 0030                    STR_24 0094  
                  STR_16 0094                    STR_32 0040                    STR_33 0094  
                  STR_25 0094                    STR_17 0060                    STR_26 0094  
                  STR_18 0094                    STR_34 0038                    STR_35 0094  
                  STR_19 0094                    STR_27 0028                    STR_36 0058  
                  STR_28 0048                    STR_29 0094                    STR_37 0016  
                  STR_38 0008                    _CMCON 001F          ___awdiv@divisor 0070  
        ___awdiv@counter 0074                    _RCREG 001A                    _RCSTA 0018  
                  _SPBRG 0099                    _PORTA 0005                    _PORTB 0006  
                  _TRISA 0085                    _TRISB 0086                    _TXREG 0019  
                  _TXSTA 0098          __end_of_isdigit 0EA4                    atoi@a 007B  
                  atoi@s 007D                    _putch 0E88                    main@j 005D  
                  main@k 0059                    pclath 000A                    status 0003  
                  wtemp0 007E          __end_of_strcspn 0F53          __initialization 07FA  
           __end_of_atoi 0147             __end_of_main 07FA                   ??_atoi 0078  
                 ??_main 0020         ___awdiv@dividend 0072                   ?_putch 0070  
                 ___wmul 0ED7                ??___awdiv 0074         __end_of_initUART 00A3  
       ___awdiv@quotient 0076                   _printf 0EA4                   _strchr 0EBB  
                 _strcmp 0EFC                   _strtok 0F53                   _strspn 00A3  
              ??_isdigit 0070                ??_strcspn 0075  __end_of__initialization 07FD  
         __pcstackCOMMON 0070            __end_of_putch 0E92                  ??_putch 0070  
             __pbssBANK0 005F               __pmaintext 0147                  ?___wmul 0070  
                ?_printf 0070                  ?_strchr 0070                  ?_strcmp 0070  
                ?_strtok 007A                  ?_strspn 0073               __stringtab 0002  
              ?_initUART 0070                  ___awdiv 0F99                  __ptext1 0F53  
                __ptext2 00A3                  __ptext3 0F26                  __ptext4 0EBB  
                __ptext5 0EFC                  __ptext6 0EA4                  __ptext7 0E88  
                __ptext8 0098                  __ptext9 00D0                  _isdigit 0E92  
                main@cmd 0051                  main@npd 004D                  main@nsp 004F  
                main@ptr 0058                  main@tmp 0021                  _strcspn 0F26  
   end_of_initialization 07FD               ??_initUART 0070                  printf@c 0072  
                printf@f 0073                  strcmp@r 0074                  strspn@i 0077  
             main@mx_spd 0049           __end_of___wmul 0EFC           __end_of_printf 0EBB  
         __end_of_strchr 0ED7           __end_of_strcmp 0F26           __end_of_strtok 0F99  
         __end_of_strspn 00D0      start_initialization 07FA                 ??___wmul 0074  
               ??_printf 0071                 ??_strchr 0072                 ??_strcmp 0072  
               ??_strtok 007B                 ??_strspn 0075                ___latbits 0001  
          __pcstackBANK0 0020                 ?___awdiv 0070                __pstrings 0002  
               ?_isdigit 0070                 ?_strcspn 0073           ___wmul@product 0074  
            __stringbase 0007        ___wmul@multiplier 0070                main@intvl 005B  
     __end_of__stringtab 0008              _isdigit$617 0070                 __ptext10 0E92  
               __ptext11 0ED7                 __ptext12 0F99                 _initUART 0098  
               atoi@sign 007A                 main@dist 0056                 main@rcmd 0052  
              putch@byte 0070                 isdigit@c 0071                strchr@chr 0070  
              strchr@ptr 0072                strcspn@s1 0079                strcspn@s2 0073  
              stringcode 0002                 printf@ap 0071                 strcmp@s1 0075  
               strcmp@s2 0070                 strcspn@i 0077                 stringdir 0002  
               stringtab 0002                 strtok@s1 007B                 strtok@s2 007A  
               strspn@s1 0079                 strspn@s2 0073                 strtok@sp 005F  
