

Microchip MPLAB XC8 Assembler V2.50 build 20240725155939 
                                                                                               Thu Jun 25 17:19:52 2026

Microchip MPLAB XC8 C Compiler v2.50 (Free license) build 20240725155939 Og1 
     1                           	processor	16F648A
     2                           	pagewidth 120
     3                           	opt	flic
     4                           	psect	strings,global,class=STRING,space=0,delta=2,noexec
     5                           	psect	cinit,global,class=CODE,space=0,merge=1,delta=2
     6                           	psect	bssBANK0,global,class=BANK0,space=1,delta=1,noexec
     7                           	psect	cstackCOMMON,global,class=COMMON,space=1,delta=1,noexec
     8                           	psect	cstackBANK0,global,class=BANK0,space=1,delta=1,noexec
     9                           	psect	maintext,global,class=CODE,space=0,split=1,delta=2
    10                           	psect	text1,local,class=CODE,space=0,merge=1,delta=2
    11                           	psect	text2,local,class=CODE,space=0,merge=1,delta=2
    12                           	psect	text3,local,class=CODE,space=0,merge=1,delta=2
    13                           	psect	text4,local,class=CODE,space=0,merge=1,delta=2,group=3
    14                           	psect	text5,local,class=CODE,space=0,merge=1,delta=2,group=3
    15                           	psect	text6,local,class=CODE,space=0,merge=1,delta=2,group=3
    16                           	psect	text7,local,class=CODE,space=0,merge=1,delta=2,group=3
    17                           	psect	text8,local,class=CODE,space=0,merge=1,delta=2,group=3
    18                           	psect	text9,local,class=CODE,space=0,merge=1,delta=2
    19                           	psect	text10,local,class=CODE,space=0,merge=1,delta=2
    20                           	psect	text11,local,class=CODE,space=0,merge=1,delta=2
    21                           	psect	text12,local,class=CODE,space=0,merge=1,delta=2
    22                           	psect	text13,local,class=CODE,space=0,merge=1,delta=2
    23                           	psect	text14,local,class=CODE,space=0,merge=1,delta=2
    24                           	psect	text15,local,class=CODE,space=0,merge=1,delta=2,group=1
    25                           	psect	text16,local,class=CODE,space=0,merge=1,delta=2
    26                           	psect	text17,local,class=CODE,space=0,merge=1,delta=2,group=2
    27                           	psect	text18,local,class=CODE,space=0,merge=1,delta=2,group=2
    28                           	psect	text19,local,class=CODE,space=0,merge=1,delta=2
    29                           	psect	text20,local,class=CODE,space=0,merge=1,delta=2,group=3
    30                           	psect	text21,local,class=CODE,space=0,merge=1,delta=2,group=3
    31                           	psect	text22,local,class=CODE,space=0,merge=1,delta=2,group=2
    32                           	psect	idloc,global,abs,ovrld,class=IDLOC,space=5,delta=2,noexec
    33                           	psect	config,global,abs,ovrld,class=CONFIG,space=4,delta=2,noexec
    34                           	dabs	1,0x7E,2
    35     0000                     
    36                           ; Generated 25/07/2024 GMT
    37                           ; 
    38                           ; Copyright © 2024, Microchip Technology Inc. and its subsidiaries ("Microchip")
    39                           ; All rights reserved.
    40                           ; 
    41                           ; This software is developed by Microchip Technology Inc. and its subsidiaries ("Microch
      +                          ip").
    42                           ; 
    43                           ; Redistribution and use in source and binary forms, with or without modification, are
    44                           ; permitted provided that the following conditions are met:
    45                           ; 
    46                           ;     1. Redistributions of source code must retain the above copyright notice, this lis
      +                          t of
    47                           ;        conditions and the following disclaimer.
    48                           ; 
    49                           ;     2. Redistributions in binary form must reproduce the above copyright notice, this 
      +                          list
    50                           ;        of conditions and the following disclaimer in the documentation and/or other
    51                           ;        materials provided with the distribution. Publication is not required when
    52                           ;        this file is used in an embedded application.
    53                           ; 
    54                           ;     3. Microchip's name may not be used to endorse or promote products derived from th
      +                          is
    55                           ;        software without specific prior written permission.
    56                           ; 
    57                           ; THIS SOFTWARE IS PROVIDED BY MICROCHIP "AS IS" AND ANY EXPRESS OR IMPLIED WARRANTIES,
    58                           ; INCLUDING, BUT NOT LIMITED TO, THE IMPLIED WARRANTIES OF MERCHANTABILITY AND FITNESS F
      +                          OR
    59                           ; PURPOSE ARE DISCLAIMED.  IN NO EVENT SHALL MICROCHIP BE LIABLE FOR ANY DIRECT, INDIREC
      +                          T,
    60                           ; INCIDENTAL, SPECIAL, EXEMPLARY, OR CONSEQUENTIAL DAMAGES (INCLUDING BUT NOT LIMITED TO
    61                           ; PROCUREMENT OF SUBSTITUTE GOODS OR SERVICES; LOSS OF USE, DATA OR PROFITS; OR BUSINESS
    62                           ; INTERRUPTION) HOWSOEVER CAUSED AND ON ANY THEORY OF LIABILITY, WHETHER IN CONTRACT, ST
      +                          RICT
    63                           ; LIABILITY, OR TORT (INCLUDING NEGLIGENCE OR OTHERWISE) ARISING IN ANY WAY OUT OF THE U
      +                          SE OF
    64                           ; THIS SOFTWARE, EVEN IF ADVISED OF THE POSSIBILITY OF SUCH DAMAGE.
    65                           ; 
    66                           ; 
    67                           ; Code-generator required, PIC16F648A Definitions
    68                           ; 
    69                           ; SFR Addresses
    70     0004                     fsr             equ	4
    71     0004                     fsr0            equ	4
    72     0000                     indf            equ	0
    73     0000                     indf0           equ	0
    74     0002                     pc              equ	2
    75     0002                     pcl             equ	2
    76     000A                     pclath          equ	10
    77     0003                     status          equ	3
    78     0000                     INDF            equ	0	;# 
    79     0001                     TMR0            equ	1	;# 
    80     0002                     PCL             equ	2	;# 
    81     0003                     STATUS          equ	3	;# 
    82     0004                     FSR             equ	4	;# 
    83     0005                     PORTA           equ	5	;# 
    84     0006                     PORTB           equ	6	;# 
    85     000A                     PCLATH          equ	10	;# 
    86     000B                     INTCON          equ	11	;# 
    87     000C                     PIR1            equ	12	;# 
    88     000E                     TMR1            equ	14	;# 
    89     000E                     TMR1L           equ	14	;# 
    90     000F                     TMR1H           equ	15	;# 
    91     0010                     T1CON           equ	16	;# 
    92     0011                     TMR2            equ	17	;# 
    93     0012                     T2CON           equ	18	;# 
    94     0015                     CCPR1           equ	21	;# 
    95     0015                     CCPR1L          equ	21	;# 
    96     0016                     CCPR1H          equ	22	;# 
    97     0017                     CCP1CON         equ	23	;# 
    98     0018                     RCSTA           equ	24	;# 
    99     0019                     TXREG           equ	25	;# 
   100     001A                     RCREG           equ	26	;# 
   101     001F                     CMCON           equ	31	;# 
   102     0081                     OPTION_REG      equ	129	;# 
   103     0085                     TRISA           equ	133	;# 
   104     0086                     TRISB           equ	134	;# 
   105     008C                     PIE1            equ	140	;# 
   106     008E                     PCON            equ	142	;# 
   107     0092                     PR2             equ	146	;# 
   108     0098                     TXSTA           equ	152	;# 
   109     0099                     SPBRG           equ	153	;# 
   110     009A                     EEDATA          equ	154	;# 
   111     009B                     EEADR           equ	155	;# 
   112     009C                     EECON1          equ	156	;# 
   113     009D                     EECON2          equ	157	;# 
   114     009F                     VRCON           equ	159	;# 
   115     0000                     INDF            equ	0	;# 
   116     0001                     TMR0            equ	1	;# 
   117     0002                     PCL             equ	2	;# 
   118     0003                     STATUS          equ	3	;# 
   119     0004                     FSR             equ	4	;# 
   120     0005                     PORTA           equ	5	;# 
   121     0006                     PORTB           equ	6	;# 
   122     000A                     PCLATH          equ	10	;# 
   123     000B                     INTCON          equ	11	;# 
   124     000C                     PIR1            equ	12	;# 
   125     000E                     TMR1            equ	14	;# 
   126     000E                     TMR1L           equ	14	;# 
   127     000F                     TMR1H           equ	15	;# 
   128     0010                     T1CON           equ	16	;# 
   129     0011                     TMR2            equ	17	;# 
   130     0012                     T2CON           equ	18	;# 
   131     0015                     CCPR1           equ	21	;# 
   132     0015                     CCPR1L          equ	21	;# 
   133     0016                     CCPR1H          equ	22	;# 
   134     0017                     CCP1CON         equ	23	;# 
   135     0018                     RCSTA           equ	24	;# 
   136     0019                     TXREG           equ	25	;# 
   137     001A                     RCREG           equ	26	;# 
   138     001F                     CMCON           equ	31	;# 
   139     0081                     OPTION_REG      equ	129	;# 
   140     0085                     TRISA           equ	133	;# 
   141     0086                     TRISB           equ	134	;# 
   142     008C                     PIE1            equ	140	;# 
   143     008E                     PCON            equ	142	;# 
   144     0092                     PR2             equ	146	;# 
   145     0098                     TXSTA           equ	152	;# 
   146     0099                     SPBRG           equ	153	;# 
   147     009A                     EEDATA          equ	154	;# 
   148     009B                     EEADR           equ	155	;# 
   149     009C                     EECON1          equ	156	;# 
   150     009D                     EECON2          equ	157	;# 
   151     009F                     VRCON           equ	159	;# 
   152     0000                     INDF            equ	0	;# 
   153     0001                     TMR0            equ	1	;# 
   154     0002                     PCL             equ	2	;# 
   155     0003                     STATUS          equ	3	;# 
   156     0004                     FSR             equ	4	;# 
   157     0005                     PORTA           equ	5	;# 
   158     0006                     PORTB           equ	6	;# 
   159     000A                     PCLATH          equ	10	;# 
   160     000B                     INTCON          equ	11	;# 
   161     000C                     PIR1            equ	12	;# 
   162     000E                     TMR1            equ	14	;# 
   163     000E                     TMR1L           equ	14	;# 
   164     000F                     TMR1H           equ	15	;# 
   165     0010                     T1CON           equ	16	;# 
   166     0011                     TMR2            equ	17	;# 
   167     0012                     T2CON           equ	18	;# 
   168     0015                     CCPR1           equ	21	;# 
   169     0015                     CCPR1L          equ	21	;# 
   170     0016                     CCPR1H          equ	22	;# 
   171     0017                     CCP1CON         equ	23	;# 
   172     0018                     RCSTA           equ	24	;# 
   173     0019                     TXREG           equ	25	;# 
   174     001A                     RCREG           equ	26	;# 
   175     001F                     CMCON           equ	31	;# 
   176     0081                     OPTION_REG      equ	129	;# 
   177     0085                     TRISA           equ	133	;# 
   178     0086                     TRISB           equ	134	;# 
   179     008C                     PIE1            equ	140	;# 
   180     008E                     PCON            equ	142	;# 
   181     0092                     PR2             equ	146	;# 
   182     0098                     TXSTA           equ	152	;# 
   183     0099                     SPBRG           equ	153	;# 
   184     009A                     EEDATA          equ	154	;# 
   185     009B                     EEADR           equ	155	;# 
   186     009C                     EECON1          equ	156	;# 
   187     009D                     EECON2          equ	157	;# 
   188     009F                     VRCON           equ	159	;# 
   189     0000                     INDF            equ	0	;# 
   190     0001                     TMR0            equ	1	;# 
   191     0002                     PCL             equ	2	;# 
   192     0003                     STATUS          equ	3	;# 
   193     0004                     FSR             equ	4	;# 
   194     0005                     PORTA           equ	5	;# 
   195     0006                     PORTB           equ	6	;# 
   196     000A                     PCLATH          equ	10	;# 
   197     000B                     INTCON          equ	11	;# 
   198     000C                     PIR1            equ	12	;# 
   199     000E                     TMR1            equ	14	;# 
   200     000E                     TMR1L           equ	14	;# 
   201     000F                     TMR1H           equ	15	;# 
   202     0010                     T1CON           equ	16	;# 
   203     0011                     TMR2            equ	17	;# 
   204     0012                     T2CON           equ	18	;# 
   205     0015                     CCPR1           equ	21	;# 
   206     0015                     CCPR1L          equ	21	;# 
   207     0016                     CCPR1H          equ	22	;# 
   208     0017                     CCP1CON         equ	23	;# 
   209     0018                     RCSTA           equ	24	;# 
   210     0019                     TXREG           equ	25	;# 
   211     001A                     RCREG           equ	26	;# 
   212     001F                     CMCON           equ	31	;# 
   213     0081                     OPTION_REG      equ	129	;# 
   214     0085                     TRISA           equ	133	;# 
   215     0086                     TRISB           equ	134	;# 
   216     008C                     PIE1            equ	140	;# 
   217     008E                     PCON            equ	142	;# 
   218     0092                     PR2             equ	146	;# 
   219     0098                     TXSTA           equ	152	;# 
   220     0099                     SPBRG           equ	153	;# 
   221     009A                     EEDATA          equ	154	;# 
   222     009B                     EEADR           equ	155	;# 
   223     009C                     EECON1          equ	156	;# 
   224     009D                     EECON2          equ	157	;# 
   225     009F                     VRCON           equ	159	;# 
   226                           
   227                           	psect	strings
   228     0002                     __pstrings:
   229     0002                     stringtab:
   230     0002                     __stringtab:
   231     0002                     stringcode:	
   232                           ;	String table - string pointers are 1 byte each
   233                           
   234     0002                     stringdir:
   235     0002  3000               	movlw	high stringdir
   236     0003  008A               	movwf	10
   237     0004  0804               	movf	4,w
   238     0005  0A84               	incf	4,f
   239     0006  0782               	addwf	2,f
   240     0007                     __stringbase:
   241     0007  3400               	retlw	0
   242     0008                     __end_of__stringtab:
   243     0008                     _dpowers:
   244     0008  3401               	retlw	1
   245     0009  3400               	retlw	0
   246     000A  340A               	retlw	10
   247     000B  3400               	retlw	0
   248     000C  3464               	retlw	100
   249     000D  3400               	retlw	0
   250     000E  34E8               	retlw	232
   251     000F  3403               	retlw	3
   252     0010  3410               	retlw	16
   253     0011  3427               	retlw	39
   254     0012                     __end_of_dpowers:
   255     001A                     _RCREG          set	26
   256     0018                     _RCSTAbits      set	24
   257     0019                     _TXREG          set	25
   258     0018                     _RCSTA          set	24
   259     0006                     _PORTBbits      set	6
   260     0005                     _PORTAbits      set	5
   261     0006                     _PORTB          set	6
   262     0005                     _PORTA          set	5
   263     001F                     _CMCON          set	31
   264     0015                     _CCPR1L         set	21
   265     0012                     _T2CONbits      set	18
   266     0012                     _T2CON          set	18
   267     0017                     _CCP1CON        set	23
   268     0065                     _RCIF           set	101
   269     0064                     _TXIF           set	100
   270     0098                     _TXSTA          set	152
   271     0099                     _SPBRG          set	153
   272     0086                     _TRISB          set	134
   273     0085                     _TRISA          set	133
   274     0092                     _PR2            set	146
   275     0012                     STR_16:
   276     0012  3453               	retlw	83	;'S'
   277     0013  3479               	retlw	121	;'y'
   278     0014  3473               	retlw	115	;'s'
   279     0015  3474               	retlw	116	;'t'
   280     0016  3465               	retlw	101	;'e'
   281     0017  346D               	retlw	109	;'m'
   282     0018  3420               	retlw	32	;' '
   283     0019  3469               	retlw	105	;'i'
   284     001A  346E               	retlw	110	;'n'
   285     001B  3469               	retlw	105	;'i'
   286     001C  3474               	retlw	116	;'t'
   287     001D  3469               	retlw	105	;'i'
   288     001E  3461               	retlw	97	;'a'
   289     001F  346C               	retlw	108	;'l'
   290     0020  3469               	retlw	105	;'i'
   291     0021  347A               	retlw	122	;'z'
   292     0022  3461               	retlw	97	;'a'
   293     0023  3474               	retlw	116	;'t'
   294     0024  3469               	retlw	105	;'i'
   295     0025  346F               	retlw	111	;'o'
   296     0026  346E               	retlw	110	;'n'
   297     0027  3420               	retlw	32	;' '
   298     0028  3468               	retlw	104	;'h'
   299     0029  3461               	retlw	97	;'a'
   300     002A  3473               	retlw	115	;'s'
   301     002B  3420               	retlw	32	;' '
   302     002C  3462               	retlw	98	;'b'
   303     002D  3465               	retlw	101	;'e'
   304     002E  3465               	retlw	101	;'e'
   305     002F  346E               	retlw	110	;'n'
   306     0030  3420               	retlw	32	;' '
   307     0031  3463               	retlw	99	;'c'
   308     0032  346F               	retlw	111	;'o'
   309     0033  346D               	retlw	109	;'m'
   310     0034  3470               	retlw	112	;'p'
   311     0035  346C               	retlw	108	;'l'
   312     0036  3465               	retlw	101	;'e'
   313     0037  3474               	retlw	116	;'t'
   314     0038  3465               	retlw	101	;'e'
   315     0039  3464               	retlw	100	;'d'
   316     003A  3421               	retlw	33	;'!'
   317     003B  3421               	retlw	33	;'!'
   318     003C  340D               	retlw	13
   319     003D  340A               	retlw	10
   320     003E  3400               	retlw	0
   321     003F                     STR_17:
   322     003F  3441               	retlw	65	;'A'
   323     0040  344C               	retlw	76	;'L'
   324     0041  3441               	retlw	65	;'A'
   325     0042  3452               	retlw	82	;'R'
   326     0043  344D               	retlw	77	;'M'
   327     0044  3421               	retlw	33	;'!'
   328     0045  3421               	retlw	33	;'!'
   329     0046  3420               	retlw	32	;' '
   330     0047  3453               	retlw	83	;'S'
   331     0048  3468               	retlw	104	;'h'
   332     0049  3475               	retlw	117	;'u'
   333     004A  3474               	retlw	116	;'t'
   334     004B  3474               	retlw	116	;'t'
   335     004C  3465               	retlw	101	;'e'
   336     004D  3472               	retlw	114	;'r'
   337     004E  3420               	retlw	32	;' '
   338     004F  3461               	retlw	97	;'a'
   339     0050  3462               	retlw	98	;'b'
   340     0051  346E               	retlw	110	;'n'
   341     0052  346F               	retlw	111	;'o'
   342     0053  3472               	retlw	114	;'r'
   343     0054  346D               	retlw	109	;'m'
   344     0055  3461               	retlw	97	;'a'
   345     0056  346C               	retlw	108	;'l'
   346     0057  3469               	retlw	105	;'i'
   347     0058  3474               	retlw	116	;'t'
   348     0059  3479               	retlw	121	;'y'
   349     005A  3420               	retlw	32	;' '
   350     005B  3464               	retlw	100	;'d'
   351     005C  3465               	retlw	101	;'e'
   352     005D  3474               	retlw	116	;'t'
   353     005E  3465               	retlw	101	;'e'
   354     005F  3463               	retlw	99	;'c'
   355     0060  3474               	retlw	116	;'t'
   356     0061  3465               	retlw	101	;'e'
   357     0062  3464               	retlw	100	;'d'
   358     0063  3421               	retlw	33	;'!'
   359     0064  3421               	retlw	33	;'!'
   360     0065  340D               	retlw	13
   361     0066  340A               	retlw	10
   362     0067  3400               	retlw	0
   363     0068                     STR_18:
   364     0068  3444               	retlw	68	;'D'
   365     0069  344F               	retlw	79	;'O'
   366     006A  3420               	retlw	32	;' '
   367     006B  344E               	retlw	78	;'N'
   368     006C  344F               	retlw	79	;'O'
   369     006D  3454               	retlw	84	;'T'
   370     006E  3420               	retlw	32	;' '
   371     006F  344F               	retlw	79	;'O'
   372     0070  3450               	retlw	80	;'P'
   373     0071  3445               	retlw	69	;'E'
   374     0072  3452               	retlw	82	;'R'
   375     0073  3441               	retlw	65	;'A'
   376     0074  3454               	retlw	84	;'T'
   377     0075  3445               	retlw	69	;'E'
   378     0076  3420               	retlw	32	;' '
   379     0077  344C               	retlw	76	;'L'
   380     0078  3441               	retlw	65	;'A'
   381     0079  3453               	retlw	83	;'S'
   382     007A  3445               	retlw	69	;'E'
   383     007B  3452               	retlw	82	;'R'
   384     007C  3421               	retlw	33	;'!'
   385     007D  3421               	retlw	33	;'!'
   386     007E  340D               	retlw	13
   387     007F  340A               	retlw	10
   388     0080  3400               	retlw	0
   389     0081                     STR_13:
   390     0081  3443               	retlw	67	;'C'
   391     0082  3409               	retlw	9
   392     0083  3453               	retlw	83	;'S'
   393     0084  3448               	retlw	72	;'H'
   394     0085  3454               	retlw	84	;'T'
   395     0086  3409               	retlw	9
   396     0087  3425               	retlw	37	;'%'
   397     0088  3464               	retlw	100	;'d'
   398     0089  3409               	retlw	9
   399     008A  3448               	retlw	72	;'H'
   400     008B  3441               	retlw	65	;'A'
   401     008C  344C               	retlw	76	;'L'
   402     008D  3409               	retlw	9
   403     008E  3425               	retlw	37	;'%'
   404     008F  3464               	retlw	100	;'d'
   405     0090  340D               	retlw	13
   406     0091  340A               	retlw	10
   407     0092  3400               	retlw	0
   408     0093                     STR_7:
   409     0093  3443               	retlw	67	;'C'
   410     0094  3409               	retlw	9
   411     0095  3456               	retlw	86	;'V'
   412     0096  3445               	retlw	69	;'E'
   413     0097  3452               	retlw	82	;'R'
   414     0098  3453               	retlw	83	;'S'
   415     0099  3449               	retlw	73	;'I'
   416     009A  344F               	retlw	79	;'O'
   417     009B  344E               	retlw	78	;'N'
   418     009C  3420               	retlw	32	;' '
   419     009D  3433               	retlw	51	;'3'
   420     009E  342E               	retlw	46	;'.'
   421     009F  3430               	retlw	48	;'0'
   422     00A0  340D               	retlw	13
   423     00A1  340A               	retlw	10
   424     00A2  3400               	retlw	0
   425     00A3                     STR_11:
   426     00A3  3443               	retlw	67	;'C'
   427     00A4  3409               	retlw	9
   428     00A5  3444               	retlw	68	;'D'
   429     00A6  3443               	retlw	67	;'C'
   430     00A7  3446               	retlw	70	;'F'
   431     00A8  3409               	retlw	9
   432     00A9  3425               	retlw	37	;'%'
   433     00AA  3464               	retlw	100	;'d'
   434     00AB  340D               	retlw	13
   435     00AC  340A               	retlw	10
   436     00AD  3400               	retlw	0
   437     00AE                     STR_15:
   438     00AE  3443               	retlw	67	;'C'
   439     00AF  3409               	retlw	9
   440     00B0  3448               	retlw	72	;'H'
   441     00B1  3441               	retlw	65	;'A'
   442     00B2  344C               	retlw	76	;'L'
   443     00B3  3409               	retlw	9
   444     00B4  3425               	retlw	37	;'%'
   445     00B5  3464               	retlw	100	;'d'
   446     00B6  340D               	retlw	13
   447     00B7  340A               	retlw	10
   448     00B8  3400               	retlw	0
   449     00B9                     STR_9:
   450     00B9  3443               	retlw	67	;'C'
   451     00BA  3409               	retlw	9
   452     00BB  344C               	retlw	76	;'L'
   453     00BC  3444               	retlw	68	;'D'
   454     00BD  3450               	retlw	80	;'P'
   455     00BE  3409               	retlw	9
   456     00BF  3425               	retlw	37	;'%'
   457     00C0  3464               	retlw	100	;'d'
   458     00C1  340D               	retlw	13
   459     00C2  340A               	retlw	10
   460     00C3  3400               	retlw	0
   461     00C4                     STR_3:
   462     00C4  3444               	retlw	68	;'D'
   463     00C5  3443               	retlw	67	;'C'
   464     00C6  3446               	retlw	70	;'F'
   465     00C7  3400               	retlw	0
   466     00C8                     STR_5:
   467     00C8  3448               	retlw	72	;'H'
   468     00C9  3441               	retlw	65	;'A'
   469     00CA  344C               	retlw	76	;'L'
   470     00CB  3400               	retlw	0
   471     00CC                     STR_2:
   472     00CC  344C               	retlw	76	;'L'
   473     00CD  3444               	retlw	68	;'D'
   474     00CE  3450               	retlw	80	;'P'
   475     00CF  3400               	retlw	0
   476     00D0                     STR_1:
   477     00D0  3456               	retlw	86	;'V'
   478     00D1  3445               	retlw	69	;'E'
   479     00D2  3452               	retlw	82	;'R'
   480     00D3  3400               	retlw	0
   481     00D4                     STR_4:
   482     00D4  3453               	retlw	83	;'S'
   483     00D5  3448               	retlw	72	;'H'
   484     00D6  3454               	retlw	84	;'T'
   485     00D7  3400               	retlw	0
   486     00D8                     STR_6:
   487     00D8  342F               	retlw	47	;'/'
   488     00D9  3400               	retlw	0
   489     00D8                     STR_8           equ	STR_6
   490     00D8                     STR_10          equ	STR_6
   491     00D8                     STR_12          equ	STR_6
   492     00D8                     STR_14          equ	STR_6
   493                           
   494                           	psect	cinit
   495     07F5                     start_initialization:	
   496                           ; #config settings
   497                           
   498     07F5                     __initialization:
   499                           
   500                           ; Clear objects allocated to BANK0
   501     07F5  1283               	bcf	3,5	;RP0=0, select bank0
   502     07F6  1303               	bcf	3,6	;RP1=0, select bank0
   503     07F7  01EA               	clrf	__pbssBANK0& (0+127)
   504     07F8  01EB               	clrf	(__pbssBANK0+1)& (0+127)
   505     07F9  01EC               	clrf	(__pbssBANK0+2)& (0+127)
   506     07FA  01ED               	clrf	(__pbssBANK0+3)& (0+127)
   507     07FB  01EE               	clrf	(__pbssBANK0+4)& (0+127)
   508     07FC  01EF               	clrf	(__pbssBANK0+5)& (0+127)
   509     07FD                     end_of_initialization:	
   510                           ;End of C runtime variable initialization code
   511                           
   512     07FD                     __end_of__initialization:
   513     07FD  0183               	clrf	3
   514     07FE  118A  2E69         	ljmp	_main	;jump to C main() function
   515                           
   516                           	psect	bssBANK0
   517     006A                     __pbssBANK0:
   518     006A                     strtok@sp:
   519     006A                     	ds	1
   520     006B                     _sht_status:
   521     006B                     	ds	1
   522     006C                     _hall_status:
   523     006C                     	ds	1
   524     006D                     _sht_on_off:
   525     006D                     	ds	1
   526     006E                     _dcf_on_off:
   527     006E                     	ds	1
   528     006F                     _ld_on_off:
   529     006F                     	ds	1
   530                           
   531                           	psect	cstackCOMMON
   532     0070                     __pcstackCOMMON:
   533     0070                     ?_uart_init:
   534     0070                     ?_ps_laser_util_init:	
   535                           ; 1 bytes @ 0x0
   536                           
   537     0070                     ?_shutter_close:	
   538                           ; 1 bytes @ 0x0
   539                           
   540     0070                     ?_shutter_open:	
   541                           ; 1 bytes @ 0x0
   542                           
   543     0070                     ?_shutter_safe:	
   544                           ; 1 bytes @ 0x0
   545                           
   546     0070                     ?_get_hall_status:	
   547                           ; 1 bytes @ 0x0
   548                           
   549     0070                     ?_isdigit:	
   550                           ; 1 bytes @ 0x0
   551                           
   552     0070                     ?_strchr:	
   553                           ; 1 bit 
   554                           
   555     0070                     ?_pwm_init:	
   556                           ; 1 bytes @ 0x0
   557                           
   558     0070                     ?_pwm_percent:	
   559                           ; 1 bytes @ 0x0
   560                           
   561     0070                     ?_main:	
   562                           ; 1 bytes @ 0x0
   563                           
   564     0070                     ?_putch:	
   565                           ; 1 bytes @ 0x0
   566                           
   567     0070                     ?_getch:	
   568                           ; 1 bytes @ 0x0
   569                           
   570     0070                     ?_strcmp:	
   571                           ; 1 bytes @ 0x0
   572                           
   573     0070                     ?___wmul:	
   574                           ; 2 bytes @ 0x0
   575                           
   576     0070                     putch@byte:	
   577                           ; 2 bytes @ 0x0
   578                           
   579     0070                     _isdigit$763:	
   580                           ; 1 bytes @ 0x0
   581                           
   582     0070                     strcmp@s1:	
   583                           ; 1 bytes @ 0x0
   584                           
   585     0070                     strchr@ptr:	
   586                           ; 1 bytes @ 0x0
   587                           
   588     0070                     ___wmul@multiplier:	
   589                           ; 1 bytes @ 0x0
   590                           
   591     0070                     ??_uart_init:	
   592                           ; 2 bytes @ 0x0
   593                           
   594     0070                     ??_get_hall_status:	
   595                           ; 1 bytes @ 0x0
   596                           
   597     0070                     ??_isdigit:	
   598                           ; 1 bytes @ 0x0
   599                           
   600     0070                     ??_pwm_init:	
   601                           ; 1 bytes @ 0x0
   602                           
   603     0070                     ??_putch:	
   604                           ; 1 bytes @ 0x0
   605                           
   606     0070                     ??_getch:	
   607                           ; 1 bytes @ 0x0
   608                           
   609                           
   610                           ; 1 bytes @ 0x0
   611     0070                     	ds	1
   612     0071                     ?_uart_gets:
   613     0071                     uart_gets@buffer:	
   614                           ; 1 bytes @ 0x1
   615                           
   616     0071                     isdigit@c:	
   617                           ; 1 bytes @ 0x1
   618                           
   619     0071                     strcmp@s2:	
   620                           ; 1 bytes @ 0x1
   621                           
   622     0071                     strchr@chr:	
   623                           ; 1 bytes @ 0x1
   624                           
   625                           
   626                           ; 2 bytes @ 0x1
   627     0071                     	ds	1
   628     0072                     uart_gets@max_len:
   629     0072                     ___wmul@multiplicand:	
   630                           ; 2 bytes @ 0x2
   631                           
   632     0072                     ??_strcmp:	
   633                           ; 2 bytes @ 0x2
   634                           
   635                           
   636                           ; 1 bytes @ 0x2
   637     0072                     	ds	1
   638     0073                     ?_strspn:
   639     0073                     ?_strcspn:	
   640                           ; 2 bytes @ 0x3
   641                           
   642     0073                     strcspn@s1:	
   643                           ; 2 bytes @ 0x3
   644                           
   645     0073                     strspn@s1:	
   646                           ; 1 bytes @ 0x3
   647                           
   648     0073                     ??_strchr:	
   649                           ; 1 bytes @ 0x3
   650                           
   651                           
   652                           ; 1 bytes @ 0x3
   653     0073                     	ds	1
   654     0074                     strcmp@r:
   655     0074                     strcspn@s2:	
   656                           ; 1 bytes @ 0x4
   657                           
   658     0074                     strspn@s2:	
   659                           ; 1 bytes @ 0x4
   660                           
   661     0074                     ___wmul@product:	
   662                           ; 1 bytes @ 0x4
   663                           
   664     0074                     ??_uart_gets:	
   665                           ; 2 bytes @ 0x4
   666                           
   667     0074                     ??___wmul:	
   668                           ; 1 bytes @ 0x4
   669                           
   670                           
   671                           ; 1 bytes @ 0x4
   672     0074                     	ds	1
   673     0075                     ??_strspn:
   674     0075                     ??_strcspn:	
   675                           ; 1 bytes @ 0x5
   676                           
   677                           
   678                           ; 1 bytes @ 0x5
   679     0075                     	ds	1
   680     0076                     ?_atoi:
   681     0076                     ?___lwdiv:	
   682                           ; 2 bytes @ 0x6
   683                           
   684     0076                     atoi@s:	
   685                           ; 2 bytes @ 0x6
   686                           
   687     0076                     uart_gets@idx:	
   688                           ; 1 bytes @ 0x6
   689                           
   690     0076                     ___lwdiv@divisor:	
   691                           ; 2 bytes @ 0x6
   692                           
   693                           
   694                           ; 2 bytes @ 0x6
   695     0076                     	ds	1
   696     0077                     strcspn@i:
   697     0077                     strspn@i:	
   698                           ; 2 bytes @ 0x7
   699                           
   700                           
   701                           ; 2 bytes @ 0x7
   702     0077                     	ds	1
   703     0078                     uart_gets@c:
   704     0078                     ___lwdiv@dividend:	
   705                           ; 1 bytes @ 0x8
   706                           
   707     0078                     ??_atoi:	
   708                           ; 2 bytes @ 0x8
   709                           
   710                           
   711                           ; 1 bytes @ 0x8
   712     0078                     	ds	1
   713     0079                     ?_strtok:
   714     0079                     strtok@s1:	
   715                           ; 1 bytes @ 0x9
   716                           
   717                           
   718                           ; 1 bytes @ 0x9
   719     0079                     	ds	1
   720     007A                     atoi@sign:
   721     007A                     strtok@s2:	
   722                           ; 1 bytes @ 0xA
   723                           
   724     007A                     ___lwdiv@quotient:	
   725                           ; 1 bytes @ 0xA
   726                           
   727     007A                     ??___lwdiv:	
   728                           ; 2 bytes @ 0xA
   729                           
   730                           
   731                           ; 1 bytes @ 0xA
   732     007A                     	ds	1
   733     007B                     atoi@a:
   734     007B                     ??_strtok:	
   735                           ; 2 bytes @ 0xB
   736                           
   737                           
   738                           ; 1 bytes @ 0xB
   739     007B                     	ds	1
   740     007C                     ___lwdiv@counter:
   741                           
   742                           ; 1 bytes @ 0xC
   743     007C                     	ds	1
   744     007D                     ___lwmod@counter:
   745     007D                     ??___lwmod:	
   746                           ; 1 bytes @ 0xD
   747                           
   748                           
   749                           ; 1 bytes @ 0xD
   750     007D                     	ds	1
   751     007E                     ??_shutter_safe:
   752                           
   753                           	psect	cstackBANK0
   754     0020                     __pcstackBANK0:	
   755                           ; 1 bytes @ 0xE
   756                           
   757     0020                     ?___lwmod:
   758     0020                     ___lwmod@divisor:	
   759                           ; 2 bytes @ 0x0
   760                           
   761     0020                     ??_pwm_percent:	
   762                           ; 2 bytes @ 0x0
   763                           
   764                           
   765                           ; 1 bytes @ 0x0
   766     0020                     	ds	2
   767     0022                     pwm_percent@hw_value:
   768     0022                     ___lwmod@dividend:	
   769                           ; 2 bytes @ 0x2
   770                           
   771                           
   772                           ; 2 bytes @ 0x2
   773     0022                     	ds	2
   774     0024                     ?_printf:
   775     0024                     pwm_percent@percent:	
   776                           ; 2 bytes @ 0x4
   777                           
   778     0024                     printf@f:	
   779                           ; 1 bytes @ 0x4
   780                           
   781                           
   782                           ; 1 bytes @ 0x4
   783     0024                     	ds	1
   784     0025                     ??_shutter_close:
   785     0025                     ??_shutter_open:	
   786                           ; 1 bytes @ 0x5
   787                           
   788                           
   789                           ; 1 bytes @ 0x5
   790     0025                     	ds	4
   791     0029                     ??_printf:
   792                           
   793                           ; 1 bytes @ 0x9
   794     0029                     	ds	3
   795     002C                     printf@ap:
   796                           
   797                           ; 1 bytes @ 0xC
   798     002C                     	ds	1
   799     002D                     printf@flag:
   800                           
   801                           ; 1 bytes @ 0xD
   802     002D                     	ds	1
   803     002E                     printf@prec:
   804                           
   805                           ; 1 bytes @ 0xE
   806     002E                     	ds	1
   807     002F                     printf@val:
   808                           
   809                           ; 2 bytes @ 0xF
   810     002F                     	ds	2
   811     0031                     printf@c:
   812                           
   813                           ; 1 bytes @ 0x11
   814     0031                     	ds	1
   815     0032                     shutter_safe@sht_alarm:
   816                           
   817                           ; 1 bytes @ 0x12
   818     0032                     	ds	1
   819     0033                     ??_ps_laser_util_init:
   820                           
   821                           ; 1 bytes @ 0x13
   822     0033                     	ds	2
   823     0035                     ps_laser_util_init@a:
   824                           
   825                           ; 1 bytes @ 0x15
   826     0035                     	ds	1
   827     0036                     ps_laser_util_init@i:
   828                           
   829                           ; 2 bytes @ 0x16
   830     0036                     	ds	2
   831     0038                     ??_main:
   832                           
   833                           ; 1 bytes @ 0x18
   834     0038                     	ds	4
   835     003C                     main@tmp:
   836                           
   837                           ; 40 bytes @ 0x1C
   838     003C                     	ds	40
   839     0064                     main@cmd:
   840                           
   841                           ; 1 bytes @ 0x44
   842     0064                     	ds	1
   843     0065                     main@rcmd:
   844                           
   845                           ; 4 bytes @ 0x45
   846     0065                     	ds	4
   847     0069                     main@ptr:
   848                           
   849                           ; 1 bytes @ 0x49
   850     0069                     	ds	1
   851                           
   852                           	psect	maintext
   853     0669                     __pmaintext:	
   854 ;;
   855 ;;Main: autosize = 0, tempsize = 4, incstack = 0, save=0
   856 ;;
   857 ;; *************** function _main *****************
   858 ;; Defined at:
   859 ;;		line 90 in file "main.c"
   860 ;; Parameters:    Size  Location     Type
   861 ;;		None
   862 ;; Auto vars:     Size  Location     Type
   863 ;;  cmd             1   68[BANK0 ] enum E776
   864 ;;  tmp            40   28[BANK0 ] unsigned char [40]
   865 ;;  rcmd            4   69[BANK0 ] unsigned char [4]
   866 ;;  axis            2    0        int 
   867 ;;  ptr             1   73[BANK0 ] PTR unsigned char 
   868 ;;		 -> NULL(0), main@tmp(40), 
   869 ;; Return value:  Size  Location     Type
   870 ;;                  1    wreg      void 
   871 ;; Registers used:
   872 ;;		wreg, fsr0l, fsr0h, status,2, status,0, btemp+1, pclath, cstack
   873 ;; Tracked objects:
   874 ;;		On entry : B00/0
   875 ;;		On exit  : 0/0
   876 ;;		Unchanged: 0/0
   877 ;; Data sizes:     COMMON   BANK0   BANK1   BANK2
   878 ;;      Params:         0       0       0       0
   879 ;;      Locals:         0      46       0       0
   880 ;;      Temps:          0       4       0       0
   881 ;;      Totals:         0      50       0       0
   882 ;;Total ram usage:       50 bytes
   883 ;; Hardware stack levels required when called: 4
   884 ;; This function calls:
   885 ;;		_atoi
   886 ;;		_get_hall_status
   887 ;;		_printf
   888 ;;		_ps_laser_util_init
   889 ;;		_pwm_init
   890 ;;		_shutter_close
   891 ;;		_shutter_open
   892 ;;		_shutter_safe
   893 ;;		_strcmp
   894 ;;		_strtok
   895 ;;		_uart_gets
   896 ;;		_uart_init
   897 ;; This function is called by:
   898 ;;		Startup code after reset
   899 ;; This function uses a non-reentrant model
   900 ;;
   901                           
   902     0669                     _main:	
   903                           ;psect for function _main
   904                           
   905     0669                     l1792:	
   906                           ;incstack = 0
   907                           ; Regs used in _main: [wreg-fsr0h+status,2+status,0+btemp+1+pclath+cstack]
   908                           
   909                           
   910                           ;main.c: 99: CMCON = 0b00000111;
   911     0669  3007               	movlw	7
   912     066A  1283               	bcf	3,5	;RP0=0, select bank0
   913     066B  1303               	bcf	3,6	;RP1=0, select bank0
   914     066C  009F               	movwf	31	;volatile
   915                           
   916                           ;main.c: 100: TRISA = 0b00001000;
   917     066D  3008               	movlw	8
   918     066E  1683               	bsf	3,5	;RP0=1, select bank1
   919     066F  1303               	bcf	3,6	;RP1=0, select bank1
   920     0670  0085               	movwf	5	;volatile
   921                           
   922                           ;main.c: 101: TRISB = 0b00000010;
   923     0671  3002               	movlw	2
   924     0672  0086               	movwf	6	;volatile
   925     0673                     l1794:
   926                           
   927                           ;main.c: 102: PORTA = 0x00;
   928     0673  1283               	bcf	3,5	;RP0=0, select bank0
   929     0674  1303               	bcf	3,6	;RP1=0, select bank0
   930     0675  0185               	clrf	5	;volatile
   931                           
   932                           ;main.c: 103: PORTB = 0x00;
   933     0676  0186               	clrf	6	;volatile
   934     0677                     l1796:
   935                           
   936                           ;main.c: 107: char rcmd[4];;main.c: 116: char *ptr;;main.c: 118: uart_init();
   937     0677  118A  21FA  118A   	fcall	_uart_init
   938     067A                     l1798:
   939                           
   940                           ;main.c: 119: pwm_init();
   941     067A  118A  2205  118A   	fcall	_pwm_init
   942     067D                     l1800:
   943                           
   944                           ;main.c: 120: ps_laser_util_init();
   945     067D  118A  23C6  118A   	fcall	_ps_laser_util_init
   946     0680                     l1802:
   947                           
   948                           ;main.c: 123: rcmd[0] = 'Q';
   949     0680  3051               	movlw	81
   950     0681  1283               	bcf	3,5	;RP0=0, select bank0
   951     0682  1303               	bcf	3,6	;RP1=0, select bank0
   952     0683  00E5               	movwf	main@rcmd
   953     0684                     l1804:
   954                           
   955                           ;main.c: 124: rcmd[1] = 'Q';
   956     0684  3051               	movlw	81
   957     0685  00E6               	movwf	main@rcmd+1
   958     0686                     l1806:
   959                           
   960                           ;main.c: 125: rcmd[2] = 'Q';
   961     0686  3051               	movlw	81
   962     0687  00E7               	movwf	main@rcmd+2
   963     0688                     l1808:
   964                           
   965                           ;main.c: 126: rcmd[3] = '\0';
   966     0688  01E8               	clrf	main@rcmd+3
   967     0689                     l1810:
   968                           
   969                           ;main.c: 128: tmp[0] = 'Q';
   970     0689  3051               	movlw	81
   971     068A  00BC               	movwf	main@tmp
   972     068B                     l1812:
   973                           
   974                           ;main.c: 129: tmp[1] = 'Q';
   975     068B  3051               	movlw	81
   976     068C  00BD               	movwf	main@tmp+1
   977     068D                     l1814:
   978                           
   979                           ;main.c: 130: tmp[2] = 'Q';
   980     068D  3051               	movlw	81
   981     068E  00BE               	movwf	main@tmp+2
   982     068F                     l1816:
   983                           
   984                           ;main.c: 131: tmp[3] = 'Q';
   985     068F  3051               	movlw	81
   986     0690  00BF               	movwf	main@tmp+3
   987     0691                     l1818:
   988                           
   989                           ;main.c: 132: tmp[4] = '\0';
   990     0691  01C0               	clrf	main@tmp+4
   991     0692                     l1820:
   992                           
   993                           ;main.c: 135: uart_gets(tmp, sizeof(tmp));
   994     0692  303C               	movlw	(low (main@tmp| 0))& (0+255)
   995     0693  00F1               	movwf	uart_gets@buffer
   996     0694  3028               	movlw	40
   997     0695  00F2               	movwf	uart_gets@max_len
   998     0696  3000               	movlw	0
   999     0697  00F3               	movwf	uart_gets@max_len+1
  1000     0698  118A  253B  118A   	fcall	_uart_gets
  1001     069B                     l1822:
  1002                           
  1003                           ;main.c: 137: rcmd[0] = tmp[1];
  1004     069B  1283               	bcf	3,5	;RP0=0, select bank0
  1005     069C  1303               	bcf	3,6	;RP1=0, select bank0
  1006     069D  083D               	movf	main@tmp+1,w
  1007     069E  00E5               	movwf	main@rcmd
  1008     069F                     l1824:
  1009                           
  1010                           ;main.c: 138: rcmd[1] = tmp[2];
  1011     069F  083E               	movf	main@tmp+2,w
  1012     06A0  00E6               	movwf	main@rcmd+1
  1013     06A1                     l1826:
  1014                           
  1015                           ;main.c: 139: rcmd[2] = tmp[3];
  1016     06A1  083F               	movf	main@tmp+3,w
  1017     06A2  00E7               	movwf	main@rcmd+2
  1018     06A3                     l1828:
  1019                           
  1020                           ;main.c: 140: rcmd[3] = '\0';
  1021     06A3  01E8               	clrf	main@rcmd+3
  1022     06A4                     l1830:
  1023     06A4  3040               	movlw	(low ((main@tmp| 0+4)))& (0+255)
  1024     06A5  00F6               	movwf	atoi@s
  1025     06A6  118A  24CD  118A   	fcall	_atoi
  1026     06A9                     l1832:
  1027                           
  1028                           ;main.c: 144: enum command cmd;;main.c: 146: if(strcmp(rcmd,"VER") == 0) {
  1029     06A9  3065               	movlw	(low (main@rcmd| 0))& (0+255)
  1030     06AA  00F0               	movwf	strcmp@s1
  1031     06AB  30C9               	movlw	(low ((STR_1-__stringbase)| (0+32768)))& (0+255)
  1032     06AC  00F1               	movwf	strcmp@s2
  1033     06AD  118A  2299  118A   	fcall	_strcmp
  1034     06B0  0870               	movf	?_strcmp,w
  1035     06B1  0471               	iorwf	?_strcmp+1,w
  1036     06B2  1D03               	btfss	3,2
  1037     06B3  2EB5               	goto	u1401
  1038     06B4  2EB6               	goto	u1400
  1039     06B5                     u1401:
  1040     06B5  2EBA               	goto	l1836
  1041     06B6                     u1400:
  1042     06B6                     l1834:
  1043                           
  1044                           ;main.c: 147: cmd = VER;
  1045     06B6  1283               	bcf	3,5	;RP0=0, select bank0
  1046     06B7  1303               	bcf	3,6	;RP1=0, select bank0
  1047     06B8  01E4               	clrf	main@cmd
  1048                           
  1049                           ;main.c: 148: }else if(strcmp(rcmd,"LDP") == 0){
  1050     06B9  2F01               	goto	l1852
  1051     06BA                     l1836:
  1052     06BA  3065               	movlw	(low (main@rcmd| 0))& (0+255)
  1053     06BB  00F0               	movwf	strcmp@s1
  1054     06BC  30C5               	movlw	(low ((STR_2-__stringbase)| (0+32768)))& (0+255)
  1055     06BD  00F1               	movwf	strcmp@s2
  1056     06BE  118A  2299  118A   	fcall	_strcmp
  1057     06C1  0870               	movf	?_strcmp,w
  1058     06C2  0471               	iorwf	?_strcmp+1,w
  1059     06C3  1D03               	btfss	3,2
  1060     06C4  2EC6               	goto	u1411
  1061     06C5  2EC7               	goto	u1410
  1062     06C6                     u1411:
  1063     06C6  2ECC               	goto	l1840
  1064     06C7                     u1410:
  1065     06C7                     l1838:
  1066                           
  1067                           ;main.c: 149: cmd = LDP;
  1068     06C7  3001               	movlw	1
  1069     06C8  1283               	bcf	3,5	;RP0=0, select bank0
  1070     06C9  1303               	bcf	3,6	;RP1=0, select bank0
  1071     06CA  00E4               	movwf	main@cmd
  1072                           
  1073                           ;main.c: 150: }else if(strcmp(rcmd,"DCF") == 0){
  1074     06CB  2F01               	goto	l1852
  1075     06CC                     l1840:
  1076     06CC  3065               	movlw	(low (main@rcmd| 0))& (0+255)
  1077     06CD  00F0               	movwf	strcmp@s1
  1078     06CE  30BD               	movlw	(low ((STR_3-__stringbase)| (0+32768)))& (0+255)
  1079     06CF  00F1               	movwf	strcmp@s2
  1080     06D0  118A  2299  118A   	fcall	_strcmp
  1081     06D3  0870               	movf	?_strcmp,w
  1082     06D4  0471               	iorwf	?_strcmp+1,w
  1083     06D5  1D03               	btfss	3,2
  1084     06D6  2ED8               	goto	u1421
  1085     06D7  2ED9               	goto	u1420
  1086     06D8                     u1421:
  1087     06D8  2EDE               	goto	l1844
  1088     06D9                     u1420:
  1089     06D9                     l1842:
  1090                           
  1091                           ;main.c: 151: cmd = DCF;
  1092     06D9  3002               	movlw	2
  1093     06DA  1283               	bcf	3,5	;RP0=0, select bank0
  1094     06DB  1303               	bcf	3,6	;RP1=0, select bank0
  1095     06DC  00E4               	movwf	main@cmd
  1096                           
  1097                           ;main.c: 152: }else if(strcmp(rcmd,"SHT") == 0){
  1098     06DD  2F01               	goto	l1852
  1099     06DE                     l1844:
  1100     06DE  3065               	movlw	(low (main@rcmd| 0))& (0+255)
  1101     06DF  00F0               	movwf	strcmp@s1
  1102     06E0  30CD               	movlw	(low ((STR_4-__stringbase)| (0+32768)))& (0+255)
  1103     06E1  00F1               	movwf	strcmp@s2
  1104     06E2  118A  2299  118A   	fcall	_strcmp
  1105     06E5  0870               	movf	?_strcmp,w
  1106     06E6  0471               	iorwf	?_strcmp+1,w
  1107     06E7  1D03               	btfss	3,2
  1108     06E8  2EEA               	goto	u1431
  1109     06E9  2EEB               	goto	u1430
  1110     06EA                     u1431:
  1111     06EA  2EF0               	goto	l1848
  1112     06EB                     u1430:
  1113     06EB                     l1846:
  1114                           
  1115                           ;main.c: 153: cmd = SHT;
  1116     06EB  3003               	movlw	3
  1117     06EC  1283               	bcf	3,5	;RP0=0, select bank0
  1118     06ED  1303               	bcf	3,6	;RP1=0, select bank0
  1119     06EE  00E4               	movwf	main@cmd
  1120                           
  1121                           ;main.c: 154: }else if(strcmp(rcmd,"HAL") == 0){
  1122     06EF  2F01               	goto	l1852
  1123     06F0                     l1848:
  1124     06F0  3065               	movlw	(low (main@rcmd| 0))& (0+255)
  1125     06F1  00F0               	movwf	strcmp@s1
  1126     06F2  30C1               	movlw	(low ((STR_5-__stringbase)| (0+32768)))& (0+255)
  1127     06F3  00F1               	movwf	strcmp@s2
  1128     06F4  118A  2299  118A   	fcall	_strcmp
  1129     06F7  0870               	movf	?_strcmp,w
  1130     06F8  0471               	iorwf	?_strcmp+1,w
  1131     06F9  1D03               	btfss	3,2
  1132     06FA  2EFC               	goto	u1441
  1133     06FB  2EFD               	goto	u1440
  1134     06FC                     u1441:
  1135     06FC  2E80               	goto	l1802
  1136     06FD                     u1440:
  1137     06FD                     l1850:
  1138                           
  1139                           ;main.c: 155: cmd = HAL;
  1140     06FD  3004               	movlw	4
  1141     06FE  1283               	bcf	3,5	;RP0=0, select bank0
  1142     06FF  1303               	bcf	3,6	;RP1=0, select bank0
  1143     0700  00E4               	movwf	main@cmd
  1144     0701                     l1852:	
  1145                           ;main.c: 156: }else {
  1146                           
  1147     0701  303C               	movlw	(low (main@tmp| 0))& (0+255)
  1148     0702  00F9               	movwf	strtok@s1
  1149     0703  30D1               	movlw	(low ((STR_6-__stringbase)| (0+32768)))& (0+255)
  1150     0704  00FA               	movwf	strtok@s2
  1151     0705  118A  2446  118A   	fcall	_strtok
  1152                           
  1153                           ;main.c: 176: switch(cmd){
  1154     0708  2FE0               	goto	l1918
  1155     0709                     l1854:
  1156                           
  1157                           ;main.c: 179: printf("C\tVERSION 3.0\r\n");
  1158     0709  308C               	movlw	(low ((STR_7-__stringbase)| (0+32768)))& (0+255)
  1159     070A  00A4               	movwf	printf@f
  1160     070B  118A  25BB  118A   	fcall	_printf
  1161                           
  1162                           ;main.c: 180: break;
  1163     070E  2E80               	goto	l1802
  1164     070F                     l1856:
  1165                           
  1166                           ;main.c: 183: ptr = strtok((0), "/");
  1167     070F  01F9               	clrf	strtok@s1
  1168     0710  30D1               	movlw	(low ((STR_6-__stringbase)| (0+32768)))& (0+255)
  1169     0711  00FA               	movwf	strtok@s2
  1170     0712  118A  2446  118A   	fcall	_strtok
  1171     0715  1283               	bcf	3,5	;RP0=0, select bank0
  1172     0716  1303               	bcf	3,6	;RP1=0, select bank0
  1173     0717  00E9               	movwf	main@ptr
  1174     0718                     l1858:
  1175                           
  1176                           ;main.c: 184: if(ptr != (0)) {
  1177     0718  0869               	movf	main@ptr,w
  1178     0719  1903               	btfsc	3,2
  1179     071A  2F1C               	goto	u1451
  1180     071B  2F1D               	goto	u1450
  1181     071C                     u1451:
  1182     071C  2F26               	goto	l1862
  1183     071D                     u1450:
  1184     071D                     l1860:
  1185                           
  1186                           ;main.c: 185: ld_on_off = atoi(ptr);
  1187     071D  0869               	movf	main@ptr,w
  1188     071E  00F6               	movwf	atoi@s
  1189     071F  118A  24CD  118A   	fcall	_atoi
  1190     0722  0876               	movf	?_atoi,w
  1191     0723  1283               	bcf	3,5	;RP0=0, select bank0
  1192     0724  1303               	bcf	3,6	;RP1=0, select bank0
  1193     0725  00EF               	movwf	_ld_on_off
  1194     0726                     l1862:
  1195                           
  1196                           ;main.c: 186: };main.c: 187: if(ld_on_off == 0){
  1197     0726  086F               	movf	_ld_on_off,w
  1198     0727  1D03               	btfss	3,2
  1199     0728  2F2A               	goto	u1461
  1200     0729  2F2B               	goto	u1460
  1201     072A                     u1461:
  1202     072A  2F2D               	goto	l1866
  1203     072B                     u1460:
  1204     072B                     l1864:
  1205                           
  1206                           ;main.c: 188: PORTAbits.RA2 = 0;
  1207     072B  1105               	bcf	5,2	;volatile
  1208                           
  1209                           ;main.c: 189: }else if(ld_on_off == 1){
  1210     072C  2F33               	goto	l1870
  1211     072D                     l1866:
  1212     072D  036F               	decf	_ld_on_off,w
  1213     072E  1D03               	btfss	3,2
  1214     072F  2F31               	goto	u1471
  1215     0730  2F32               	goto	u1470
  1216     0731                     u1471:
  1217     0731  2F33               	goto	l1870
  1218     0732                     u1470:
  1219     0732                     l1868:
  1220                           
  1221                           ;main.c: 190: PORTAbits.RA2 = 1;
  1222     0732  1505               	bsf	5,2	;volatile
  1223     0733                     l1870:
  1224                           
  1225                           ;main.c: 191: };main.c: 192: printf("C\tLDP\t%d\r\n", ld_on_off);
  1226     0733  30B2               	movlw	(low ((STR_9-__stringbase)| (0+32768)))& (0+255)
  1227     0734  00A4               	movwf	printf@f
  1228     0735  086F               	movf	_ld_on_off,w
  1229     0736  00B8               	movwf	??_main
  1230     0737  01B9               	clrf	??_main+1
  1231     0738  0838               	movf	??_main,w
  1232     0739  00A5               	movwf	?_printf+1
  1233     073A  0839               	movf	??_main+1,w
  1234     073B  00A6               	movwf	?_printf+2
  1235     073C  118A  25BB  118A   	fcall	_printf
  1236                           
  1237                           ;main.c: 193: break;
  1238     073F  2E80               	goto	l1802
  1239     0740                     l1872:
  1240                           
  1241                           ;main.c: 196: ptr = strtok((0), "/");
  1242     0740  01F9               	clrf	strtok@s1
  1243     0741  30D1               	movlw	(low ((STR_6-__stringbase)| (0+32768)))& (0+255)
  1244     0742  00FA               	movwf	strtok@s2
  1245     0743  118A  2446  118A   	fcall	_strtok
  1246     0746  1283               	bcf	3,5	;RP0=0, select bank0
  1247     0747  1303               	bcf	3,6	;RP1=0, select bank0
  1248     0748  00E9               	movwf	main@ptr
  1249     0749                     l1874:
  1250                           
  1251                           ;main.c: 197: if(ptr != (0)) {
  1252     0749  0869               	movf	main@ptr,w
  1253     074A  1903               	btfsc	3,2
  1254     074B  2F4D               	goto	u1481
  1255     074C  2F4E               	goto	u1480
  1256     074D                     u1481:
  1257     074D  2F57               	goto	l1878
  1258     074E                     u1480:
  1259     074E                     l1876:
  1260                           
  1261                           ;main.c: 198: dcf_on_off = atoi(ptr);
  1262     074E  0869               	movf	main@ptr,w
  1263     074F  00F6               	movwf	atoi@s
  1264     0750  118A  24CD  118A   	fcall	_atoi
  1265     0753  0876               	movf	?_atoi,w
  1266     0754  1283               	bcf	3,5	;RP0=0, select bank0
  1267     0755  1303               	bcf	3,6	;RP1=0, select bank0
  1268     0756  00EE               	movwf	_dcf_on_off
  1269     0757                     l1878:
  1270                           
  1271                           ;main.c: 199: };main.c: 200: if(dcf_on_off == 0){
  1272     0757  086E               	movf	_dcf_on_off,w
  1273     0758  1D03               	btfss	3,2
  1274     0759  2F5B               	goto	u1491
  1275     075A  2F5C               	goto	u1490
  1276     075B                     u1491:
  1277     075B  2F5E               	goto	l1882
  1278     075C                     u1490:
  1279     075C                     l1880:
  1280                           
  1281                           ;main.c: 201: PORTAbits.RA1 = 0;
  1282     075C  1085               	bcf	5,1	;volatile
  1283                           
  1284                           ;main.c: 202: }else if(dcf_on_off == 1){
  1285     075D  2F64               	goto	l1886
  1286     075E                     l1882:
  1287     075E  036E               	decf	_dcf_on_off,w
  1288     075F  1D03               	btfss	3,2
  1289     0760  2F62               	goto	u1501
  1290     0761  2F63               	goto	u1500
  1291     0762                     u1501:
  1292     0762  2F64               	goto	l1886
  1293     0763                     u1500:
  1294     0763                     l1884:
  1295                           
  1296                           ;main.c: 203: PORTAbits.RA1 = 1;
  1297     0763  1485               	bsf	5,1	;volatile
  1298     0764                     l1886:
  1299                           
  1300                           ;main.c: 204: };main.c: 205: printf("C\tDCF\t%d\r\n", dcf_on_off);
  1301     0764  309C               	movlw	(low ((STR_11-__stringbase)| (0+32768)))& (0+255)
  1302     0765  00A4               	movwf	printf@f
  1303     0766  086E               	movf	_dcf_on_off,w
  1304     0767  00B8               	movwf	??_main
  1305     0768  01B9               	clrf	??_main+1
  1306     0769  0838               	movf	??_main,w
  1307     076A  00A5               	movwf	?_printf+1
  1308     076B  0839               	movf	??_main+1,w
  1309     076C  00A6               	movwf	?_printf+2
  1310     076D  118A  25BB  118A   	fcall	_printf
  1311                           
  1312                           ;main.c: 206: break;
  1313     0770  2E80               	goto	l1802
  1314     0771                     l1888:
  1315                           
  1316                           ;main.c: 209: ptr = strtok((0), "/");
  1317     0771  01F9               	clrf	strtok@s1
  1318     0772  30D1               	movlw	(low ((STR_6-__stringbase)| (0+32768)))& (0+255)
  1319     0773  00FA               	movwf	strtok@s2
  1320     0774  118A  2446  118A   	fcall	_strtok
  1321     0777  1283               	bcf	3,5	;RP0=0, select bank0
  1322     0778  1303               	bcf	3,6	;RP1=0, select bank0
  1323     0779  00E9               	movwf	main@ptr
  1324     077A                     l1890:
  1325                           
  1326                           ;main.c: 210: if(ptr != (0)) {
  1327     077A  0869               	movf	main@ptr,w
  1328     077B  1903               	btfsc	3,2
  1329     077C  2F7E               	goto	u1511
  1330     077D  2F7F               	goto	u1510
  1331     077E                     u1511:
  1332     077E  2F88               	goto	l1894
  1333     077F                     u1510:
  1334     077F                     l1892:
  1335                           
  1336                           ;main.c: 211: sht_on_off = atoi(ptr);
  1337     077F  0869               	movf	main@ptr,w
  1338     0780  00F6               	movwf	atoi@s
  1339     0781  118A  24CD  118A   	fcall	_atoi
  1340     0784  0876               	movf	?_atoi,w
  1341     0785  1283               	bcf	3,5	;RP0=0, select bank0
  1342     0786  1303               	bcf	3,6	;RP1=0, select bank0
  1343     0787  00ED               	movwf	_sht_on_off
  1344     0788                     l1894:
  1345                           
  1346                           ;main.c: 212: };main.c: 213: if(sht_on_off == 0){
  1347     0788  086D               	movf	_sht_on_off,w
  1348     0789  1D03               	btfss	3,2
  1349     078A  2F8C               	goto	u1521
  1350     078B  2F8D               	goto	u1520
  1351     078C                     u1521:
  1352     078C  2F91               	goto	l1898
  1353     078D                     u1520:
  1354     078D                     l1896:
  1355                           
  1356                           ;main.c: 214: shutter_close();
  1357     078D  118A  234E  118A   	fcall	_shutter_close
  1358                           
  1359                           ;main.c: 215: }else if(sht_on_off == 1){
  1360     0790  2F99               	goto	l1902
  1361     0791                     l1898:
  1362     0791  036D               	decf	_sht_on_off,w
  1363     0792  1D03               	btfss	3,2
  1364     0793  2F95               	goto	u1531
  1365     0794  2F96               	goto	u1530
  1366     0795                     u1531:
  1367     0795  2F99               	goto	l1902
  1368     0796                     u1530:
  1369     0796                     l1900:
  1370                           
  1371                           ;main.c: 216: shutter_open();
  1372     0796  118A  2389  118A   	fcall	_shutter_open
  1373     0799                     l1902:
  1374                           
  1375                           ;main.c: 217: };main.c: 218: shutter_safe();
  1376     0799  118A  2252  118A   	fcall	_shutter_safe
  1377     079C                     l1904:
  1378                           
  1379                           ;main.c: 219: hall_status = get_hall_status();
  1380     079C  118A  21E8  118A   	fcall	_get_hall_status
  1381     079F  1283               	bcf	3,5	;RP0=0, select bank0
  1382     07A0  1303               	bcf	3,6	;RP1=0, select bank0
  1383     07A1  00EC               	movwf	_hall_status
  1384                           
  1385                           ;main.c: 221: printf("C\tSHT\t%d\tHAL\t%d\r\n", sht_on_off,hall_status);
  1386     07A2  307A               	movlw	(low ((STR_13-__stringbase)| (0+32768)))& (0+255)
  1387     07A3  00A4               	movwf	printf@f
  1388     07A4  086D               	movf	_sht_on_off,w
  1389     07A5  00B8               	movwf	??_main
  1390     07A6  01B9               	clrf	??_main+1
  1391     07A7  0838               	movf	??_main,w
  1392     07A8  00A5               	movwf	?_printf+1
  1393     07A9  0839               	movf	??_main+1,w
  1394     07AA  00A6               	movwf	?_printf+2
  1395     07AB  086C               	movf	_hall_status,w
  1396     07AC  00BA               	movwf	??_main+2
  1397     07AD  01BB               	clrf	??_main+3
  1398     07AE  083A               	movf	??_main+2,w
  1399     07AF  00A7               	movwf	?_printf+3
  1400     07B0  083B               	movf	??_main+3,w
  1401     07B1  00A8               	movwf	?_printf+4
  1402     07B2  118A  25BB  118A   	fcall	_printf
  1403                           
  1404                           ;main.c: 222: break;
  1405     07B5  2E80               	goto	l1802
  1406     07B6                     l1906:
  1407                           
  1408                           ;main.c: 225: ptr = strtok((0), "/");
  1409     07B6  01F9               	clrf	strtok@s1
  1410     07B7  30D1               	movlw	(low ((STR_6-__stringbase)| (0+32768)))& (0+255)
  1411     07B8  00FA               	movwf	strtok@s2
  1412     07B9  118A  2446  118A   	fcall	_strtok
  1413     07BC  1283               	bcf	3,5	;RP0=0, select bank0
  1414     07BD  1303               	bcf	3,6	;RP1=0, select bank0
  1415     07BE  00E9               	movwf	main@ptr
  1416     07BF                     l1908:
  1417                           
  1418                           ;main.c: 226: if(ptr != (0)) {
  1419     07BF  0869               	movf	main@ptr,w
  1420     07C0  1903               	btfsc	3,2
  1421     07C1  2FC3               	goto	u1541
  1422     07C2  2FC4               	goto	u1540
  1423     07C3                     u1541:
  1424     07C3  2FCD               	goto	l1912
  1425     07C4                     u1540:
  1426     07C4                     l1910:
  1427                           
  1428                           ;main.c: 227: hall_status = atoi(ptr);
  1429     07C4  0869               	movf	main@ptr,w
  1430     07C5  00F6               	movwf	atoi@s
  1431     07C6  118A  24CD  118A   	fcall	_atoi
  1432     07C9  0876               	movf	?_atoi,w
  1433     07CA  1283               	bcf	3,5	;RP0=0, select bank0
  1434     07CB  1303               	bcf	3,6	;RP1=0, select bank0
  1435     07CC  00EC               	movwf	_hall_status
  1436     07CD                     l1912:
  1437                           
  1438                           ;main.c: 228: };main.c: 229: hall_status = get_hall_status();
  1439     07CD  118A  21E8  118A   	fcall	_get_hall_status
  1440     07D0  1283               	bcf	3,5	;RP0=0, select bank0
  1441     07D1  1303               	bcf	3,6	;RP1=0, select bank0
  1442     07D2  00EC               	movwf	_hall_status
  1443     07D3                     l1914:
  1444                           
  1445                           ;main.c: 230: printf("C\tHAL\t%d\r\n", hall_status);
  1446     07D3  30A7               	movlw	(low ((STR_15-__stringbase)| (0+32768)))& (0+255)
  1447     07D4  00A4               	movwf	printf@f
  1448     07D5  086C               	movf	_hall_status,w
  1449     07D6  00B8               	movwf	??_main
  1450     07D7  01B9               	clrf	??_main+1
  1451     07D8  0838               	movf	??_main,w
  1452     07D9  00A5               	movwf	?_printf+1
  1453     07DA  0839               	movf	??_main+1,w
  1454     07DB  00A6               	movwf	?_printf+2
  1455     07DC  118A  25BB  118A   	fcall	_printf
  1456                           
  1457                           ;main.c: 231: break;
  1458     07DF  2E80               	goto	l1802
  1459     07E0                     l1918:
  1460     07E0  1283               	bcf	3,5	;RP0=0, select bank0
  1461     07E1  1303               	bcf	3,6	;RP1=0, select bank0
  1462     07E2  0864               	movf	main@cmd,w
  1463                           
  1464                           ; Switch size 1, requested type "simple"
  1465                           ; Number of cases is 5, Range of values is 0 to 4
  1466                           ; switch strategies available:
  1467                           ; Name         Instructions Cycles
  1468                           ; simple_byte           16     9 (average)
  1469                           ; direct_byte           17     7 (fixed)
  1470                           ; jumptable            260     6 (fixed)
  1471                           ;	Chosen strategy is simple_byte
  1472     07E3  3A00               	xorlw	0	; case 0
  1473     07E4  1903               	skipnz
  1474     07E5  2F09               	goto	l1854
  1475     07E6  3A01               	xorlw	1	; case 1
  1476     07E7  1903               	skipnz
  1477     07E8  2F0F               	goto	l1856
  1478     07E9  3A03               	xorlw	3	; case 2
  1479     07EA  1903               	skipnz
  1480     07EB  2F40               	goto	l1872
  1481     07EC  3A01               	xorlw	1	; case 3
  1482     07ED  1903               	skipnz
  1483     07EE  2F71               	goto	l1888
  1484     07EF  3A07               	xorlw	7	; case 4
  1485     07F0  1903               	skipnz
  1486     07F1  2FB6               	goto	l1906
  1487     07F2  2E80               	goto	l1802
  1488     07F3  118A  2800         	ljmp	start
  1489     07F5                     __end_of_main:
  1490                           
  1491                           	psect	text1
  1492     01FA                     __ptext1:	
  1493 ;; *************** function _uart_init *****************
  1494 ;; Defined at:
  1495 ;;		line 7 in file "uart.c"
  1496 ;; Parameters:    Size  Location     Type
  1497 ;;		None
  1498 ;; Auto vars:     Size  Location     Type
  1499 ;;		None
  1500 ;; Return value:  Size  Location     Type
  1501 ;;                  1    wreg      void 
  1502 ;; Registers used:
  1503 ;;		None
  1504 ;; Tracked objects:
  1505 ;;		On entry : 0/0
  1506 ;;		On exit  : 0/0
  1507 ;;		Unchanged: 0/0
  1508 ;; Data sizes:     COMMON   BANK0   BANK1   BANK2
  1509 ;;      Params:         0       0       0       0
  1510 ;;      Locals:         0       0       0       0
  1511 ;;      Temps:          0       0       0       0
  1512 ;;      Totals:         0       0       0       0
  1513 ;;Total ram usage:        0 bytes
  1514 ;; Hardware stack levels used: 1
  1515 ;; This function calls:
  1516 ;;		Nothing
  1517 ;; This function is called by:
  1518 ;;		_main
  1519 ;; This function uses a non-reentrant model
  1520 ;;
  1521                           
  1522     01FA                     _uart_init:	
  1523                           ;psect for function _uart_init
  1524                           
  1525     01FA                     l1614:	
  1526                           ;incstack = 0
  1527                           ; Regs used in _uart_init: []
  1528                           
  1529                           
  1530                           ;uart.c: 9: SPBRG = ((unsigned char)(((4000000 / 16) / 9600) - 1));
  1531     01FA  3019               	movlw	25
  1532     01FB  1683               	bsf	3,5	;RP0=1, select bank1
  1533     01FC  1303               	bcf	3,6	;RP1=0, select bank1
  1534     01FD  0099               	movwf	25	;volatile
  1535                           
  1536                           ;uart.c: 10: TXSTA = (0x00 | 0x04 | 0x20);
  1537     01FE  3024               	movlw	36
  1538     01FF  0098               	movwf	24	;volatile
  1539                           
  1540                           ;uart.c: 11: RCSTA = (0x00 | 0x90);
  1541     0200  3090               	movlw	144
  1542     0201  1283               	bcf	3,5	;RP0=0, select bank0
  1543     0202  1303               	bcf	3,6	;RP1=0, select bank0
  1544     0203  0098               	movwf	24	;volatile
  1545     0204                     l147:
  1546     0204  0008               	return
  1547     0205                     __end_of_uart_init:
  1548                           
  1549                           	psect	text2
  1550     053B                     __ptext2:	
  1551 ;; *************** function _uart_gets *****************
  1552 ;; Defined at:
  1553 ;;		line 49 in file "uart.c"
  1554 ;; Parameters:    Size  Location     Type
  1555 ;;  buffer          1    1[COMMON] PTR unsigned char 
  1556 ;;		 -> main@tmp(40), 
  1557 ;;  max_len         2    2[COMMON] unsigned int 
  1558 ;; Auto vars:     Size  Location     Type
  1559 ;;  idx             2    6[COMMON] unsigned int 
  1560 ;;  c               1    8[COMMON] unsigned char 
  1561 ;; Return value:  Size  Location     Type
  1562 ;;                  1    wreg      void 
  1563 ;; Registers used:
  1564 ;;		wreg, fsr0l, fsr0h, status,2, status,0, pclath, cstack
  1565 ;; Tracked objects:
  1566 ;;		On entry : 0/0
  1567 ;;		On exit  : 0/0
  1568 ;;		Unchanged: 0/0
  1569 ;; Data sizes:     COMMON   BANK0   BANK1   BANK2
  1570 ;;      Params:         3       0       0       0
  1571 ;;      Locals:         3       0       0       0
  1572 ;;      Temps:          2       0       0       0
  1573 ;;      Totals:         8       0       0       0
  1574 ;;Total ram usage:        8 bytes
  1575 ;; Hardware stack levels used: 1
  1576 ;; Hardware stack levels required when called: 1
  1577 ;; This function calls:
  1578 ;;		_getch
  1579 ;;		_putch
  1580 ;; This function is called by:
  1581 ;;		_main
  1582 ;; This function uses a non-reentrant model
  1583 ;;
  1584                           
  1585     053B                     _uart_gets:	
  1586                           ;psect for function _uart_gets
  1587                           
  1588     053B                     l1636:	
  1589                           ;incstack = 0
  1590                           ; Regs used in _uart_gets: [wreg-fsr0h+status,2+status,0+pclath+cstack]
  1591                           
  1592                           
  1593                           ;uart.c: 51: uint16_t idx = 0;
  1594     053B  01F6               	clrf	uart_gets@idx
  1595     053C  01F7               	clrf	uart_gets@idx+1
  1596     053D                     l1638:
  1597                           
  1598                           ;uart.c: 52: char c;;uart.c: 55: if(buffer == (0) || max_len == 0) {
  1599     053D  0871               	movf	uart_gets@buffer,w
  1600     053E  1903               	btfsc	3,2
  1601     053F  2D41               	goto	u1191
  1602     0540  2D42               	goto	u1190
  1603     0541                     u1191:
  1604     0541  2DBA               	goto	l170
  1605     0542                     u1190:
  1606     0542                     l1640:
  1607     0542  0872               	movf	uart_gets@max_len,w
  1608     0543  0473               	iorwf	uart_gets@max_len+1,w
  1609     0544  1D03               	btfss	3,2
  1610     0545  2D47               	goto	u1201
  1611     0546  2D48               	goto	u1200
  1612     0547                     u1201:
  1613     0547  2DA7               	goto	l1678
  1614     0548                     u1200:
  1615     0548  2DBA               	goto	l170
  1616     0549                     l1642:
  1617                           
  1618                           ;uart.c: 60: c = getch();
  1619     0549  118A  2224  118A   	fcall	_getch
  1620     054C  00F8               	movwf	uart_gets@c
  1621     054D                     l1644:
  1622                           
  1623                           ;uart.c: 62: if(c == '\r' || c == '\n') {
  1624     054D  300D               	movlw	13
  1625     054E  0678               	xorwf	uart_gets@c,w
  1626     054F  1903               	btfsc	3,2
  1627     0550  2D52               	goto	u1211
  1628     0551  2D53               	goto	u1210
  1629     0552                     u1211:
  1630     0552  2D59               	goto	l1648
  1631     0553                     u1210:
  1632     0553                     l1646:
  1633     0553  300A               	movlw	10
  1634     0554  0678               	xorwf	uart_gets@c,w
  1635     0555  1D03               	btfss	3,2
  1636     0556  2D58               	goto	u1221
  1637     0557  2D59               	goto	u1220
  1638     0558                     u1221:
  1639     0558  2D69               	goto	l1654
  1640     0559                     u1220:
  1641     0559                     l1648:
  1642                           
  1643                           ;uart.c: 63: putch('\r');
  1644     0559  300D               	movlw	13
  1645     055A  118A  21F0  118A   	fcall	_putch
  1646                           
  1647                           ;uart.c: 64: putch('\n');
  1648     055D  300A               	movlw	10
  1649     055E  118A  21F0  118A   	fcall	_putch
  1650     0561                     l1650:
  1651                           
  1652                           ;uart.c: 65: buffer[idx] = '\0';
  1653     0561  0876               	movf	uart_gets@idx,w
  1654     0562  0771               	addwf	uart_gets@buffer,w
  1655     0563  00F4               	movwf	??_uart_gets
  1656     0564  0874               	movf	??_uart_gets,w
  1657     0565  0084               	movwf	4
  1658     0566  1383               	bcf	3,7	;select IRP bank0
  1659     0567  0180               	clrf	0
  1660     0568  2DBA               	goto	l170
  1661     0569                     l1654:
  1662                           
  1663                           ;uart.c: 67: };uart.c: 69: if((c == '\b' || c == 0x7F) && idx > 0) {
  1664     0569  3008               	movlw	8
  1665     056A  0678               	xorwf	uart_gets@c,w
  1666     056B  1903               	btfsc	3,2
  1667     056C  2D6E               	goto	u1231
  1668     056D  2D6F               	goto	u1230
  1669     056E                     u1231:
  1670     056E  2D75               	goto	l1658
  1671     056F                     u1230:
  1672     056F                     l1656:
  1673     056F  307F               	movlw	127
  1674     0570  0678               	xorwf	uart_gets@c,w
  1675     0571  1D03               	btfss	3,2
  1676     0572  2D74               	goto	u1241
  1677     0573  2D75               	goto	u1240
  1678     0574                     u1241:
  1679     0574  2D8E               	goto	l1668
  1680     0575                     u1240:
  1681     0575                     l1658:
  1682     0575  0876               	movf	uart_gets@idx,w
  1683     0576  0477               	iorwf	uart_gets@idx+1,w
  1684     0577  1903               	btfsc	3,2
  1685     0578  2D7A               	goto	u1251
  1686     0579  2D7B               	goto	u1250
  1687     057A                     u1251:
  1688     057A  2D8E               	goto	l1668
  1689     057B                     u1250:
  1690     057B                     l1660:
  1691                           
  1692                           ;uart.c: 70: idx--;
  1693     057B  3001               	movlw	1
  1694     057C  02F6               	subwf	uart_gets@idx,f
  1695     057D  3000               	movlw	0
  1696     057E  1C03               	skipc
  1697     057F  03F7               	decf	uart_gets@idx+1,f
  1698     0580  02F7               	subwf	uart_gets@idx+1,f
  1699     0581                     l1662:
  1700                           
  1701                           ;uart.c: 71: putch('\b');
  1702     0581  3008               	movlw	8
  1703     0582  118A  21F0  118A   	fcall	_putch
  1704     0585                     l1664:
  1705                           
  1706                           ;uart.c: 72: putch(' ');
  1707     0585  3020               	movlw	32
  1708     0586  118A  21F0  118A   	fcall	_putch
  1709     0589                     l1666:
  1710                           
  1711                           ;uart.c: 73: putch('\b');
  1712     0589  3008               	movlw	8
  1713     058A  118A  21F0  118A   	fcall	_putch
  1714                           
  1715                           ;uart.c: 74: continue;
  1716     058D  2DA7               	goto	l1678
  1717     058E                     l1668:
  1718                           
  1719                           ;uart.c: 75: };uart.c: 77: if(c < 0x20) continue;
  1720     058E  3020               	movlw	32
  1721     058F  0278               	subwf	uart_gets@c,w
  1722     0590  1803               	skipnc
  1723     0591  2D93               	goto	u1261
  1724     0592  2D94               	goto	u1260
  1725     0593                     u1261:
  1726     0593  2D95               	goto	l1672
  1727     0594                     u1260:
  1728     0594  2DA7               	goto	l1678
  1729     0595                     l1672:
  1730                           
  1731                           ;uart.c: 79: buffer[idx++] = c;
  1732     0595  0876               	movf	uart_gets@idx,w
  1733     0596  0771               	addwf	uart_gets@buffer,w
  1734     0597  00F4               	movwf	??_uart_gets
  1735     0598  0874               	movf	??_uart_gets,w
  1736     0599  0084               	movwf	4
  1737     059A  0878               	movf	uart_gets@c,w
  1738     059B  1383               	bcf	3,7	;select IRP bank0
  1739     059C  0080               	movwf	0
  1740     059D                     l1674:
  1741     059D  3001               	movlw	1
  1742     059E  07F6               	addwf	uart_gets@idx,f
  1743     059F  1803               	skipnc
  1744     05A0  0AF7               	incf	uart_gets@idx+1,f
  1745     05A1  3000               	movlw	0
  1746     05A2  07F7               	addwf	uart_gets@idx+1,f
  1747     05A3                     l1676:
  1748                           
  1749                           ;uart.c: 80: putch(c);
  1750     05A3  0878               	movf	uart_gets@c,w
  1751     05A4  118A  21F0  118A   	fcall	_putch
  1752     05A7                     l1678:
  1753     05A7  0872               	movf	uart_gets@max_len,w
  1754     05A8  3EFF               	addlw	255
  1755     05A9  00F4               	movwf	??_uart_gets
  1756     05AA  0873               	movf	uart_gets@max_len+1,w
  1757     05AB  1803               	skipnc
  1758     05AC  3E01               	addlw	1
  1759     05AD  3EFF               	addlw	255
  1760     05AE  00F5               	movwf	??_uart_gets+1
  1761     05AF  0875               	movf	??_uart_gets+1,w
  1762     05B0  0277               	subwf	uart_gets@idx+1,w
  1763     05B1  1D03               	skipz
  1764     05B2  2DB5               	goto	u1275
  1765     05B3  0874               	movf	??_uart_gets,w
  1766     05B4  0276               	subwf	uart_gets@idx,w
  1767     05B5                     u1275:
  1768     05B5  1C03               	skipc
  1769     05B6  2DB8               	goto	u1271
  1770     05B7  2DB9               	goto	u1270
  1771     05B8                     u1271:
  1772     05B8  2D49               	goto	l1642
  1773     05B9                     u1270:
  1774     05B9  2D61               	goto	l1650
  1775     05BA                     l170:
  1776     05BA  0008               	return
  1777     05BB                     __end_of_uart_gets:
  1778                           
  1779                           	psect	text3
  1780     0224                     __ptext3:	
  1781 ;; *************** function _getch *****************
  1782 ;; Defined at:
  1783 ;;		line 20 in file "uart.c"
  1784 ;; Parameters:    Size  Location     Type
  1785 ;;		None
  1786 ;; Auto vars:     Size  Location     Type
  1787 ;;  dummy           1    0        unsigned char 
  1788 ;; Return value:  Size  Location     Type
  1789 ;;                  1    wreg      unsigned char 
  1790 ;; Registers used:
  1791 ;;		wreg
  1792 ;; Tracked objects:
  1793 ;;		On entry : 0/0
  1794 ;;		On exit  : 0/0
  1795 ;;		Unchanged: 0/0
  1796 ;; Data sizes:     COMMON   BANK0   BANK1   BANK2
  1797 ;;      Params:         0       0       0       0
  1798 ;;      Locals:         0       0       0       0
  1799 ;;      Temps:          0       0       0       0
  1800 ;;      Totals:         0       0       0       0
  1801 ;;Total ram usage:        0 bytes
  1802 ;; Hardware stack levels used: 1
  1803 ;; This function calls:
  1804 ;;		Nothing
  1805 ;; This function is called by:
  1806 ;;		_uart_gets
  1807 ;;		_uart_getche
  1808 ;; This function uses a non-reentrant model
  1809 ;;
  1810                           
  1811     0224                     _getch:	
  1812                           ;psect for function _getch
  1813                           
  1814     0224                     l1558:	
  1815                           ;incstack = 0
  1816                           ; Regs used in _getch: [wreg]
  1817                           
  1818     0224                     l156:	
  1819                           ;uart.c: 23: {
  1820                           
  1821     0224  1283               	bcf	3,5	;RP0=0, select bank0
  1822     0225  1303               	bcf	3,6	;RP1=0, select bank0
  1823     0226  1E8C               	btfss	12,5	;volatile
  1824     0227  2A29               	goto	u1081
  1825     0228  2A2A               	goto	u1080
  1826     0229                     u1081:
  1827     0229  2A24               	goto	l156
  1828     022A                     u1080:
  1829     022A                     l158:
  1830                           
  1831                           ;uart.c: 25: };uart.c: 28: if(RCSTAbits.OERR) {
  1832     022A  1C98               	btfss	24,1	;volatile
  1833     022B  2A2D               	goto	u1091
  1834     022C  2A2E               	goto	u1090
  1835     022D                     u1091:
  1836     022D  2A30               	goto	l159
  1837     022E                     u1090:
  1838     022E                     l1560:
  1839                           
  1840                           ;uart.c: 29: RCSTAbits.CREN = 0;
  1841     022E  1218               	bcf	24,4	;volatile
  1842                           
  1843                           ;uart.c: 30: RCSTAbits.CREN = 1;
  1844     022F  1618               	bsf	24,4	;volatile
  1845     0230                     l159:
  1846                           
  1847                           ;uart.c: 31: };uart.c: 34: if(RCSTAbits.FERR) {
  1848     0230  1D18               	btfss	24,2	;volatile
  1849     0231  2A33               	goto	u1101
  1850     0232  2A34               	goto	u1100
  1851     0233                     u1101:
  1852     0233  2A35               	goto	l160
  1853     0234                     u1100:
  1854     0234                     l1562:
  1855     0234  081A               	movf	26,w	;volatile
  1856     0235                     l160:
  1857                           
  1858                           ;uart.c: 37: };uart.c: 39: return RCREG;
  1859     0235  081A               	movf	26,w	;volatile
  1860     0236                     l161:
  1861     0236  0008               	return
  1862     0237                     __end_of_getch:
  1863                           
  1864                           	psect	text4
  1865     0446                     __ptext4:	
  1866 ;; *************** function _strtok *****************
  1867 ;; Defined at:
  1868 ;;		line 8 in file "C:\Program Files\Microchip\xc8\v2.50\pic\sources\c90\common\strtok.c"
  1869 ;; Parameters:    Size  Location     Type
  1870 ;;  s1              1    9[COMMON] PTR unsigned char 
  1871 ;;		 -> NULL(0), main@tmp(40), 
  1872 ;;  s2              1   10[COMMON] PTR const unsigned char 
  1873 ;;		 -> STR_14(2), STR_12(2), STR_10(2), STR_8(2), 
  1874 ;;		 -> STR_6(2), 
  1875 ;; Auto vars:     Size  Location     Type
  1876 ;;		None
  1877 ;; Return value:  Size  Location     Type
  1878 ;;                  1    9[COMMON] PTR unsigned char 
  1879 ;; Registers used:
  1880 ;;		wreg, fsr0l, fsr0h, status,2, status,0, pclath, cstack
  1881 ;; Tracked objects:
  1882 ;;		On entry : 0/0
  1883 ;;		On exit  : 0/0
  1884 ;;		Unchanged: 0/0
  1885 ;; Data sizes:     COMMON   BANK0   BANK1   BANK2
  1886 ;;      Params:         2       0       0       0
  1887 ;;      Locals:         0       0       0       0
  1888 ;;      Temps:          0       0       0       0
  1889 ;;      Totals:         2       0       0       0
  1890 ;;Total ram usage:        2 bytes
  1891 ;; Hardware stack levels used: 1
  1892 ;; Hardware stack levels required when called: 3
  1893 ;; This function calls:
  1894 ;;		_strcspn
  1895 ;;		_strspn
  1896 ;; This function is called by:
  1897 ;;		_main
  1898 ;; This function uses a non-reentrant model
  1899 ;;
  1900                           
  1901     0446                     _strtok:	
  1902                           ;psect for function _strtok
  1903                           
  1904     0446                     l1728:	
  1905                           ;incstack = 0
  1906                           ; Regs used in _strtok: [wreg-fsr0h+status,2+status,0+pclath+cstack]
  1907                           
  1908     0446  0879               	movf	strtok@s1,w
  1909     0447  1D03               	btfss	3,2
  1910     0448  2C4A               	goto	u1361
  1911     0449  2C4B               	goto	u1360
  1912     044A                     u1361:
  1913     044A  2C4F               	goto	l1732
  1914     044B                     u1360:
  1915     044B                     l1730:
  1916     044B  1283               	bcf	3,5	;RP0=0, select bank0
  1917     044C  1303               	bcf	3,6	;RP1=0, select bank0
  1918     044D  086A               	movf	strtok@sp,w
  1919     044E  00F9               	movwf	strtok@s1
  1920     044F                     l1732:
  1921     044F  0879               	movf	strtok@s1,w
  1922     0450  1D03               	btfss	3,2
  1923     0451  2C53               	goto	u1371
  1924     0452  2C54               	goto	u1370
  1925     0453                     u1371:
  1926     0453  2C56               	goto	l1738
  1927     0454                     u1370:
  1928     0454                     l1734:
  1929     0454  3000               	movlw	0
  1930     0455  2C88               	goto	l783
  1931     0456                     l1738:
  1932     0456  0879               	movf	strtok@s1,w
  1933     0457  00F3               	movwf	strspn@s1
  1934     0458  087A               	movf	strtok@s2,w
  1935     0459  00F4               	movwf	strspn@s2
  1936     045A  118A  22E9  118A   	fcall	_strspn
  1937     045D  0873               	movf	?_strspn,w
  1938     045E  07F9               	addwf	strtok@s1,f
  1939     045F                     l1740:
  1940     045F  0879               	movf	strtok@s1,w
  1941     0460  0084               	movwf	4
  1942     0461  1383               	bcf	3,7	;select IRP bank0
  1943     0462  0800               	movf	0,w
  1944     0463  1D03               	btfss	3,2
  1945     0464  2C66               	goto	u1381
  1946     0465  2C67               	goto	u1380
  1947     0466                     u1381:
  1948     0466  2C6C               	goto	l1746
  1949     0467                     u1380:
  1950     0467                     l1742:
  1951     0467  1283               	bcf	3,5	;RP0=0, select bank0
  1952     0468  1303               	bcf	3,6	;RP1=0, select bank0
  1953     0469  01EA               	clrf	strtok@sp
  1954     046A  3000               	movlw	0
  1955     046B  2C88               	goto	l783
  1956     046C                     l1746:
  1957     046C  0879               	movf	strtok@s1,w
  1958     046D  00F3               	movwf	strcspn@s1
  1959     046E  087A               	movf	strtok@s2,w
  1960     046F  00F4               	movwf	strcspn@s2
  1961     0470  118A  22BE  118A   	fcall	_strcspn
  1962     0473  0873               	movf	?_strcspn,w
  1963     0474  0779               	addwf	strtok@s1,w
  1964     0475  1283               	bcf	3,5	;RP0=0, select bank0
  1965     0476  1303               	bcf	3,6	;RP1=0, select bank0
  1966     0477  00EA               	movwf	strtok@sp
  1967     0478                     l1748:
  1968     0478  086A               	movf	strtok@sp,w
  1969     0479  0084               	movwf	4
  1970     047A  1383               	bcf	3,7	;select IRP bank0
  1971     047B  0800               	movf	0,w
  1972     047C  1903               	btfsc	3,2
  1973     047D  2C7F               	goto	u1391
  1974     047E  2C80               	goto	u1390
  1975     047F                     u1391:
  1976     047F  2C86               	goto	l1754
  1977     0480                     u1390:
  1978     0480                     l1750:
  1979     0480  086A               	movf	strtok@sp,w
  1980     0481  0084               	movwf	4
  1981     0482  0180               	clrf	0
  1982     0483                     l1752:
  1983     0483  3001               	movlw	1
  1984     0484  07EA               	addwf	strtok@sp,f
  1985     0485  2C87               	goto	l1756
  1986     0486                     l1754:
  1987     0486  01EA               	clrf	strtok@sp
  1988     0487                     l1756:
  1989     0487  0879               	movf	strtok@s1,w
  1990     0488                     l783:
  1991     0488  0008               	return
  1992     0489                     __end_of_strtok:
  1993                           
  1994                           	psect	text5
  1995     02E9                     __ptext5:	
  1996 ;; *************** function _strspn *****************
  1997 ;; Defined at:
  1998 ;;		line 4 in file "C:\Program Files\Microchip\xc8\v2.50\pic\sources\c90\common\strspn.c"
  1999 ;; Parameters:    Size  Location     Type
  2000 ;;  s1              1    3[COMMON] PTR const unsigned char 
  2001 ;;		 -> NULL(0), main@tmp(40), 
  2002 ;;  s2              1    4[COMMON] PTR const unsigned char 
  2003 ;;		 -> STR_14(2), STR_12(2), STR_10(2), STR_8(2), 
  2004 ;;		 -> STR_6(2), 
  2005 ;; Auto vars:     Size  Location     Type
  2006 ;;  i               2    7[COMMON] unsigned int 
  2007 ;; Return value:  Size  Location     Type
  2008 ;;                  2    3[COMMON] unsigned int 
  2009 ;; Registers used:
  2010 ;;		wreg, fsr0l, fsr0h, status,2, status,0, pclath, cstack
  2011 ;; Tracked objects:
  2012 ;;		On entry : 0/0
  2013 ;;		On exit  : 0/0
  2014 ;;		Unchanged: 0/0
  2015 ;; Data sizes:     COMMON   BANK0   BANK1   BANK2
  2016 ;;      Params:         2       0       0       0
  2017 ;;      Locals:         2       0       0       0
  2018 ;;      Temps:          2       0       0       0
  2019 ;;      Totals:         6       0       0       0
  2020 ;;Total ram usage:        6 bytes
  2021 ;; Hardware stack levels used: 1
  2022 ;; Hardware stack levels required when called: 2
  2023 ;; This function calls:
  2024 ;;		_strchr
  2025 ;; This function is called by:
  2026 ;;		_strtok
  2027 ;; This function uses a non-reentrant model
  2028 ;;
  2029                           
  2030     02E9                     _strspn:	
  2031                           ;psect for function _strspn
  2032                           
  2033     02E9                     l1578:	
  2034                           ;incstack = 0
  2035                           ; Regs used in _strspn: [wreg-fsr0h+status,2+status,0+pclath+cstack]
  2036                           
  2037     02E9  01F7               	clrf	strspn@i
  2038     02EA  01F8               	clrf	strspn@i+1
  2039     02EB  2AF4               	goto	l1584
  2040     02EC                     l1580:
  2041     02EC  3001               	movlw	1
  2042     02ED  07F3               	addwf	strspn@s1,f
  2043     02EE                     l1582:
  2044     02EE  3001               	movlw	1
  2045     02EF  07F7               	addwf	strspn@i,f
  2046     02F0  1803               	skipnc
  2047     02F1  0AF8               	incf	strspn@i+1,f
  2048     02F2  3000               	movlw	0
  2049     02F3  07F8               	addwf	strspn@i+1,f
  2050     02F4                     l1584:
  2051     02F4  0873               	movf	strspn@s1,w
  2052     02F5  0084               	movwf	4
  2053     02F6  1383               	bcf	3,7	;select IRP bank0
  2054     02F7  0800               	movf	0,w
  2055     02F8  1903               	btfsc	3,2
  2056     02F9  2AFB               	goto	u1131
  2057     02FA  2AFC               	goto	u1130
  2058     02FB                     u1131:
  2059     02FB  2B0F               	goto	l1588
  2060     02FC                     u1130:
  2061     02FC                     l1586:
  2062     02FC  0874               	movf	strspn@s2,w
  2063     02FD  00F0               	movwf	strchr@ptr
  2064     02FE  0873               	movf	strspn@s1,w
  2065     02FF  0084               	movwf	4
  2066     0300  0800               	movf	0,w
  2067     0301  00F5               	movwf	??_strspn
  2068     0302  01F6               	clrf	??_strspn+1
  2069     0303  0875               	movf	??_strspn,w
  2070     0304  00F1               	movwf	strchr@chr
  2071     0305  0876               	movf	??_strspn+1,w
  2072     0306  00F2               	movwf	strchr@chr+1
  2073     0307  118A  2237  118A   	fcall	_strchr
  2074     030A  3A00               	xorlw	0
  2075     030B  1D03               	skipz
  2076     030C  2B0E               	goto	u1141
  2077     030D  2B0F               	goto	u1140
  2078     030E                     u1141:
  2079     030E  2AEC               	goto	l1580
  2080     030F                     u1140:
  2081     030F                     l1588:
  2082     030F  0878               	movf	strspn@i+1,w
  2083     0310  00F4               	movwf	?_strspn+1
  2084     0311  0877               	movf	strspn@i,w
  2085     0312  00F3               	movwf	?_strspn
  2086     0313                     l812:
  2087     0313  0008               	return
  2088     0314                     __end_of_strspn:
  2089                           
  2090                           	psect	text6
  2091     02BE                     __ptext6:	
  2092 ;; *************** function _strcspn *****************
  2093 ;; Defined at:
  2094 ;;		line 4 in file "C:\Program Files\Microchip\xc8\v2.50\pic\sources\c90\common\strcspn.c"
  2095 ;; Parameters:    Size  Location     Type
  2096 ;;  s1              1    3[COMMON] PTR const unsigned char 
  2097 ;;		 -> NULL(0), main@tmp(40), 
  2098 ;;  s2              1    4[COMMON] PTR const unsigned char 
  2099 ;;		 -> STR_14(2), STR_12(2), STR_10(2), STR_8(2), 
  2100 ;;		 -> STR_6(2), 
  2101 ;; Auto vars:     Size  Location     Type
  2102 ;;  i               2    7[COMMON] unsigned int 
  2103 ;; Return value:  Size  Location     Type
  2104 ;;                  2    3[COMMON] unsigned int 
  2105 ;; Registers used:
  2106 ;;		wreg, fsr0l, fsr0h, status,2, status,0, pclath, cstack
  2107 ;; Tracked objects:
  2108 ;;		On entry : 0/0
  2109 ;;		On exit  : 0/0
  2110 ;;		Unchanged: 0/0
  2111 ;; Data sizes:     COMMON   BANK0   BANK1   BANK2
  2112 ;;      Params:         2       0       0       0
  2113 ;;      Locals:         2       0       0       0
  2114 ;;      Temps:          2       0       0       0
  2115 ;;      Totals:         6       0       0       0
  2116 ;;Total ram usage:        6 bytes
  2117 ;; Hardware stack levels used: 1
  2118 ;; Hardware stack levels required when called: 2
  2119 ;; This function calls:
  2120 ;;		_strchr
  2121 ;; This function is called by:
  2122 ;;		_strtok
  2123 ;; This function uses a non-reentrant model
  2124 ;;
  2125                           
  2126     02BE                     _strcspn:	
  2127                           ;psect for function _strcspn
  2128                           
  2129     02BE                     l1592:	
  2130                           ;incstack = 0
  2131                           ; Regs used in _strcspn: [wreg-fsr0h+status,2+status,0+pclath+cstack]
  2132                           
  2133     02BE  01F7               	clrf	strcspn@i
  2134     02BF  01F8               	clrf	strcspn@i+1
  2135     02C0  2AC9               	goto	l1598
  2136     02C1                     l1594:
  2137     02C1  3001               	movlw	1
  2138     02C2  07F3               	addwf	strcspn@s1,f
  2139     02C3                     l1596:
  2140     02C3  3001               	movlw	1
  2141     02C4  07F7               	addwf	strcspn@i,f
  2142     02C5  1803               	skipnc
  2143     02C6  0AF8               	incf	strcspn@i+1,f
  2144     02C7  3000               	movlw	0
  2145     02C8  07F8               	addwf	strcspn@i+1,f
  2146     02C9                     l1598:
  2147     02C9  0873               	movf	strcspn@s1,w
  2148     02CA  0084               	movwf	4
  2149     02CB  1383               	bcf	3,7	;select IRP bank0
  2150     02CC  0800               	movf	0,w
  2151     02CD  1903               	btfsc	3,2
  2152     02CE  2AD0               	goto	u1151
  2153     02CF  2AD1               	goto	u1150
  2154     02D0                     u1151:
  2155     02D0  2AE4               	goto	l1602
  2156     02D1                     u1150:
  2157     02D1                     l1600:
  2158     02D1  0874               	movf	strcspn@s2,w
  2159     02D2  00F0               	movwf	strchr@ptr
  2160     02D3  0873               	movf	strcspn@s1,w
  2161     02D4  0084               	movwf	4
  2162     02D5  0800               	movf	0,w
  2163     02D6  00F5               	movwf	??_strcspn
  2164     02D7  01F6               	clrf	??_strcspn+1
  2165     02D8  0875               	movf	??_strcspn,w
  2166     02D9  00F1               	movwf	strchr@chr
  2167     02DA  0876               	movf	??_strcspn+1,w
  2168     02DB  00F2               	movwf	strchr@chr+1
  2169     02DC  118A  2237  118A   	fcall	_strchr
  2170     02DF  3A00               	xorlw	0
  2171     02E0  1903               	skipnz
  2172     02E1  2AE3               	goto	u1161
  2173     02E2  2AE4               	goto	u1160
  2174     02E3                     u1161:
  2175     02E3  2AC1               	goto	l1594
  2176     02E4                     u1160:
  2177     02E4                     l1602:
  2178     02E4  0878               	movf	strcspn@i+1,w
  2179     02E5  00F4               	movwf	?_strcspn+1
  2180     02E6  0877               	movf	strcspn@i,w
  2181     02E7  00F3               	movwf	?_strcspn
  2182     02E8                     l796:
  2183     02E8  0008               	return
  2184     02E9                     __end_of_strcspn:
  2185                           
  2186                           	psect	text7
  2187     0237                     __ptext7:	
  2188 ;; *************** function _strchr *****************
  2189 ;; Defined at:
  2190 ;;		line 4 in file "C:\Program Files\Microchip\xc8\v2.50\pic\sources\c90\common\strchr.c"
  2191 ;; Parameters:    Size  Location     Type
  2192 ;;  ptr             1    0[COMMON] PTR const unsigned char 
  2193 ;;		 -> STR_14(2), STR_12(2), STR_10(2), STR_8(2), 
  2194 ;;		 -> STR_6(2), 
  2195 ;;  chr             2    1[COMMON] int 
  2196 ;; Auto vars:     Size  Location     Type
  2197 ;;		None
  2198 ;; Return value:  Size  Location     Type
  2199 ;;                  1    0[COMMON] PTR unsigned char 
  2200 ;; Registers used:
  2201 ;;		wreg, fsr0l, fsr0h, pclath
  2202 ;; Tracked objects:
  2203 ;;		On entry : 0/0
  2204 ;;		On exit  : 0/0
  2205 ;;		Unchanged: 0/0
  2206 ;; Data sizes:     COMMON   BANK0   BANK1   BANK2
  2207 ;;      Params:         3       0       0       0
  2208 ;;      Locals:         0       0       0       0
  2209 ;;      Temps:          0       0       0       0
  2210 ;;      Totals:         3       0       0       0
  2211 ;;Total ram usage:        3 bytes
  2212 ;; Hardware stack levels used: 2
  2213 ;; This function calls:
  2214 ;;		Nothing
  2215 ;; This function is called by:
  2216 ;;		_strcspn
  2217 ;;		_strspn
  2218 ;; This function uses a non-reentrant model
  2219 ;;
  2220                           
  2221     0237                     _strchr:	
  2222                           ;psect for function _strchr
  2223                           
  2224     0237                     l799:	
  2225                           ;incstack = 0
  2226                           ; Regs used in _strchr: [wreg-fsr0h+pclath]
  2227                           
  2228     0237                     l1516:
  2229     0237  0870               	movf	strchr@ptr,w
  2230     0238  0084               	movwf	4
  2231     0239  118A  2002  118A   	fcall	stringdir
  2232     023C  0671               	xorwf	strchr@chr,w
  2233     023D  1D03               	skipz
  2234     023E  2A40               	goto	u1031
  2235     023F  2A41               	goto	u1030
  2236     0240                     u1031:
  2237     0240  2A43               	goto	l1522
  2238     0241                     u1030:
  2239     0241                     l1518:
  2240     0241  0870               	movf	strchr@ptr,w
  2241     0242  2A51               	goto	l801
  2242     0243                     l1522:
  2243     0243  3001               	movlw	1
  2244     0244  07F0               	addwf	strchr@ptr,f
  2245     0245  30FF               	movlw	-1
  2246     0246  0770               	addwf	strchr@ptr,w
  2247     0247  0084               	movwf	4
  2248     0248  118A  2002  118A   	fcall	stringdir
  2249     024B  3A00               	xorlw	0
  2250     024C  1D03               	skipz
  2251     024D  2A4F               	goto	u1041
  2252     024E  2A50               	goto	u1040
  2253     024F                     u1041:
  2254     024F  2A37               	goto	l799
  2255     0250                     u1040:
  2256     0250                     l1524:
  2257     0250  3000               	movlw	0
  2258     0251                     l801:
  2259     0251  0008               	return
  2260     0252                     __end_of_strchr:
  2261                           
  2262                           	psect	text8
  2263     0299                     __ptext8:	
  2264 ;; *************** function _strcmp *****************
  2265 ;; Defined at:
  2266 ;;		line 33 in file "C:\Program Files\Microchip\xc8\v2.50\pic\sources\c90\common\strcmp.c"
  2267 ;; Parameters:    Size  Location     Type
  2268 ;;  s1              1    0[COMMON] PTR const unsigned char 
  2269 ;;		 -> main@rcmd(4), 
  2270 ;;  s2              1    1[COMMON] PTR const unsigned char 
  2271 ;;		 -> STR_5(4), STR_4(4), STR_3(4), STR_2(4), 
  2272 ;;		 -> STR_1(4), 
  2273 ;; Auto vars:     Size  Location     Type
  2274 ;;  r               1    4[COMMON] char 
  2275 ;; Return value:  Size  Location     Type
  2276 ;;                  2    0[COMMON] int 
  2277 ;; Registers used:
  2278 ;;		wreg, fsr0l, fsr0h, status,2, status,0, pclath
  2279 ;; Tracked objects:
  2280 ;;		On entry : 0/0
  2281 ;;		On exit  : 0/0
  2282 ;;		Unchanged: 0/0
  2283 ;; Data sizes:     COMMON   BANK0   BANK1   BANK2
  2284 ;;      Params:         2       0       0       0
  2285 ;;      Locals:         1       0       0       0
  2286 ;;      Temps:          2       0       0       0
  2287 ;;      Totals:         5       0       0       0
  2288 ;;Total ram usage:        5 bytes
  2289 ;; Hardware stack levels used: 2
  2290 ;; This function calls:
  2291 ;;		Nothing
  2292 ;; This function is called by:
  2293 ;;		_main
  2294 ;; This function uses a non-reentrant model
  2295 ;;
  2296                           
  2297     0299                     _strcmp:	
  2298                           ;psect for function _strcmp
  2299                           
  2300     0299                     l1716:	
  2301                           ;incstack = 0
  2302                           ; Regs used in _strcmp: [wreg-fsr0h+status,2+status,0+pclath]
  2303                           
  2304     0299  2A9E               	goto	l1720
  2305     029A                     l1718:
  2306     029A  3001               	movlw	1
  2307     029B  07F0               	addwf	strcmp@s1,f
  2308     029C  3001               	movlw	1
  2309     029D  07F1               	addwf	strcmp@s2,f
  2310     029E                     l1720:
  2311     029E  0871               	movf	strcmp@s2,w
  2312     029F  0084               	movwf	4
  2313     02A0  118A  2002  118A   	fcall	stringdir
  2314     02A3  00F2               	movwf	??_strcmp
  2315     02A4  0870               	movf	strcmp@s1,w
  2316     02A5  0084               	movwf	4
  2317     02A6  1383               	bcf	3,7	;select IRP bank0
  2318     02A7  0800               	movf	0,w
  2319     02A8  00F3               	movwf	??_strcmp+1
  2320     02A9  0872               	movf	??_strcmp,w
  2321     02AA  0273               	subwf	??_strcmp+1,w
  2322     02AB  00F4               	movwf	strcmp@r
  2323     02AC  0874               	movf	strcmp@r,w
  2324     02AD  1D03               	btfss	3,2
  2325     02AE  2AB0               	goto	u1341
  2326     02AF  2AB1               	goto	u1340
  2327     02B0                     u1341:
  2328     02B0  2AB8               	goto	l1724
  2329     02B1                     u1340:
  2330     02B1                     l1722:
  2331     02B1  0870               	movf	strcmp@s1,w
  2332     02B2  0084               	movwf	4
  2333     02B3  0800               	movf	0,w
  2334     02B4  1D03               	btfss	3,2
  2335     02B5  2AB7               	goto	u1351
  2336     02B6  2AB8               	goto	u1350
  2337     02B7                     u1351:
  2338     02B7  2A9A               	goto	l1718
  2339     02B8                     u1350:
  2340     02B8                     l1724:
  2341     02B8  0874               	movf	strcmp@r,w
  2342     02B9  00F0               	movwf	?_strcmp
  2343     02BA  01F1               	clrf	?_strcmp+1
  2344     02BB  1BF0               	btfsc	?_strcmp,7
  2345     02BC  03F1               	decf	?_strcmp+1,f
  2346     02BD                     l772:
  2347     02BD  0008               	return
  2348     02BE                     __end_of_strcmp:
  2349                           
  2350                           	psect	text9
  2351     0389                     __ptext9:	
  2352 ;; *************** function _shutter_open *****************
  2353 ;; Defined at:
  2354 ;;		line 250 in file "main.c"
  2355 ;; Parameters:    Size  Location     Type
  2356 ;;		None
  2357 ;; Auto vars:     Size  Location     Type
  2358 ;;		None
  2359 ;; Return value:  Size  Location     Type
  2360 ;;                  1    wreg      void 
  2361 ;; Registers used:
  2362 ;;		wreg, status,2, status,0, pclath, cstack
  2363 ;; Tracked objects:
  2364 ;;		On entry : 0/0
  2365 ;;		On exit  : 0/0
  2366 ;;		Unchanged: 0/0
  2367 ;; Data sizes:     COMMON   BANK0   BANK1   BANK2
  2368 ;;      Params:         0       0       0       0
  2369 ;;      Locals:         0       0       0       0
  2370 ;;      Temps:          0       2       0       0
  2371 ;;      Totals:         0       2       0       0
  2372 ;;Total ram usage:        2 bytes
  2373 ;; Hardware stack levels used: 1
  2374 ;; Hardware stack levels required when called: 2
  2375 ;; This function calls:
  2376 ;;		_pwm_percent
  2377 ;; This function is called by:
  2378 ;;		_main
  2379 ;; This function uses a non-reentrant model
  2380 ;;
  2381                           
  2382     0389                     _shutter_open:	
  2383                           ;psect for function _shutter_open
  2384                           
  2385     0389                     l1776:	
  2386                           ;incstack = 0
  2387                           ; Regs used in _shutter_open: [wreg+status,2+status,0+pclath+cstack]
  2388                           
  2389                           
  2390                           ;main.c: 251: pwm_percent(0);
  2391     0389  3000               	movlw	0
  2392     038A  118A  2489  118A   	fcall	_pwm_percent
  2393     038D                     l1778:
  2394                           
  2395                           ;main.c: 252: _delay((unsigned long)((10)*(4000000/4000.0)));
  2396     038D  300D               	movlw	13
  2397     038E  1283               	bcf	3,5	;RP0=0, select bank0
  2398     038F  1303               	bcf	3,6	;RP1=0, select bank0
  2399     0390  00A6               	movwf	??_shutter_open+1
  2400     0391  30FB               	movlw	251
  2401     0392  00A5               	movwf	??_shutter_open
  2402     0393                     u1557:
  2403     0393  0BA5               	decfsz	??_shutter_open,f
  2404     0394  2B93               	goto	u1557
  2405     0395  0BA6               	decfsz	??_shutter_open+1,f
  2406     0396  2B93               	goto	u1557
  2407     0397  0000               	nop
  2408     0398                     l1780:
  2409                           
  2410                           ;main.c: 253: PORTBbits.RB0 = 1;
  2411     0398  1283               	bcf	3,5	;RP0=0, select bank0
  2412     0399  1303               	bcf	3,6	;RP1=0, select bank0
  2413     039A  1406               	bsf	6,0	;volatile
  2414     039B                     l1782:
  2415                           
  2416                           ;main.c: 254: PORTBbits.RB5 = 0;
  2417     039B  1286               	bcf	6,5	;volatile
  2418     039C                     l1784:
  2419                           
  2420                           ;main.c: 255: _delay((unsigned long)((10)*(4000000/4000.0)));
  2421     039C  300D               	movlw	13
  2422     039D  1283               	bcf	3,5	;RP0=0, select bank0
  2423     039E  1303               	bcf	3,6	;RP1=0, select bank0
  2424     039F  00A6               	movwf	??_shutter_open+1
  2425     03A0  30FB               	movlw	251
  2426     03A1  00A5               	movwf	??_shutter_open
  2427     03A2                     u1567:
  2428     03A2  0BA5               	decfsz	??_shutter_open,f
  2429     03A3  2BA2               	goto	u1567
  2430     03A4  0BA6               	decfsz	??_shutter_open+1,f
  2431     03A5  2BA2               	goto	u1567
  2432     03A6  0000               	nop
  2433     03A7                     l1786:
  2434                           
  2435                           ;main.c: 256: _delay((unsigned long)((18)*(4000000/4000.0)));
  2436     03A7  3018               	movlw	24
  2437     03A8  1283               	bcf	3,5	;RP0=0, select bank0
  2438     03A9  1303               	bcf	3,6	;RP1=0, select bank0
  2439     03AA  00A6               	movwf	??_shutter_open+1
  2440     03AB  305E               	movlw	94
  2441     03AC  00A5               	movwf	??_shutter_open
  2442     03AD                     u1577:
  2443     03AD  0BA5               	decfsz	??_shutter_open,f
  2444     03AE  2BAD               	goto	u1577
  2445     03AF  0BA6               	decfsz	??_shutter_open+1,f
  2446     03B0  2BAD               	goto	u1577
  2447     03B1  2BB2               	nop2
  2448     03B2                     l1788:
  2449                           
  2450                           ;main.c: 257: pwm_percent(80);
  2451     03B2  3050               	movlw	80
  2452     03B3  118A  2489  118A   	fcall	_pwm_percent
  2453                           
  2454                           ;main.c: 258: _delay((unsigned long)((5)*(4000000/4000.0)));
  2455     03B6  3007               	movlw	7
  2456     03B7  1283               	bcf	3,5	;RP0=0, select bank0
  2457     03B8  1303               	bcf	3,6	;RP1=0, select bank0
  2458     03B9  00A6               	movwf	??_shutter_open+1
  2459     03BA  307C               	movlw	124
  2460     03BB  00A5               	movwf	??_shutter_open
  2461     03BC                     u1587:
  2462     03BC  0BA5               	decfsz	??_shutter_open,f
  2463     03BD  2BBC               	goto	u1587
  2464     03BE  0BA6               	decfsz	??_shutter_open+1,f
  2465     03BF  2BBC               	goto	u1587
  2466     03C0  2BC1               	nop2
  2467     03C1                     l1790:
  2468                           
  2469                           ;main.c: 259: pwm_percent(40);
  2470     03C1  3028               	movlw	40
  2471     03C2  118A  2489  118A   	fcall	_pwm_percent
  2472     03C5                     l117:
  2473     03C5  0008               	return
  2474     03C6                     __end_of_shutter_open:
  2475                           
  2476                           	psect	text10
  2477     034E                     __ptext10:	
  2478 ;; *************** function _shutter_close *****************
  2479 ;; Defined at:
  2480 ;;		line 262 in file "main.c"
  2481 ;; Parameters:    Size  Location     Type
  2482 ;;		None
  2483 ;; Auto vars:     Size  Location     Type
  2484 ;;		None
  2485 ;; Return value:  Size  Location     Type
  2486 ;;                  1    wreg      void 
  2487 ;; Registers used:
  2488 ;;		wreg, status,2, status,0, pclath, cstack
  2489 ;; Tracked objects:
  2490 ;;		On entry : 0/0
  2491 ;;		On exit  : 0/0
  2492 ;;		Unchanged: 0/0
  2493 ;; Data sizes:     COMMON   BANK0   BANK1   BANK2
  2494 ;;      Params:         0       0       0       0
  2495 ;;      Locals:         0       0       0       0
  2496 ;;      Temps:          0       2       0       0
  2497 ;;      Totals:         0       2       0       0
  2498 ;;Total ram usage:        2 bytes
  2499 ;; Hardware stack levels used: 1
  2500 ;; Hardware stack levels required when called: 2
  2501 ;; This function calls:
  2502 ;;		_pwm_percent
  2503 ;; This function is called by:
  2504 ;;		_main
  2505 ;; This function uses a non-reentrant model
  2506 ;;
  2507                           
  2508     034E                     _shutter_close:	
  2509                           ;psect for function _shutter_close
  2510                           
  2511     034E                     l1760:	
  2512                           ;incstack = 0
  2513                           ; Regs used in _shutter_close: [wreg+status,2+status,0+pclath+cstack]
  2514                           
  2515                           
  2516                           ;main.c: 263: pwm_percent(0);
  2517     034E  3000               	movlw	0
  2518     034F  118A  2489  118A   	fcall	_pwm_percent
  2519     0352                     l1762:
  2520                           
  2521                           ;main.c: 264: _delay((unsigned long)((10)*(4000000/4000.0)));
  2522     0352  300D               	movlw	13
  2523     0353  1283               	bcf	3,5	;RP0=0, select bank0
  2524     0354  1303               	bcf	3,6	;RP1=0, select bank0
  2525     0355  00A6               	movwf	??_shutter_close+1
  2526     0356  30FB               	movlw	251
  2527     0357  00A5               	movwf	??_shutter_close
  2528     0358                     u1597:
  2529     0358  0BA5               	decfsz	??_shutter_close,f
  2530     0359  2B58               	goto	u1597
  2531     035A  0BA6               	decfsz	??_shutter_close+1,f
  2532     035B  2B58               	goto	u1597
  2533     035C  0000               	nop
  2534     035D                     l1764:
  2535                           
  2536                           ;main.c: 265: PORTBbits.RB0 = 0;
  2537     035D  1283               	bcf	3,5	;RP0=0, select bank0
  2538     035E  1303               	bcf	3,6	;RP1=0, select bank0
  2539     035F  1006               	bcf	6,0	;volatile
  2540     0360                     l1766:
  2541                           
  2542                           ;main.c: 266: PORTBbits.RB5 = 1;
  2543     0360  1686               	bsf	6,5	;volatile
  2544     0361                     l1768:
  2545                           
  2546                           ;main.c: 267: _delay((unsigned long)((10)*(4000000/4000.0)));
  2547     0361  300D               	movlw	13
  2548     0362  1283               	bcf	3,5	;RP0=0, select bank0
  2549     0363  1303               	bcf	3,6	;RP1=0, select bank0
  2550     0364  00A6               	movwf	??_shutter_close+1
  2551     0365  30FB               	movlw	251
  2552     0366  00A5               	movwf	??_shutter_close
  2553     0367                     u1607:
  2554     0367  0BA5               	decfsz	??_shutter_close,f
  2555     0368  2B67               	goto	u1607
  2556     0369  0BA6               	decfsz	??_shutter_close+1,f
  2557     036A  2B67               	goto	u1607
  2558     036B  0000               	nop
  2559     036C                     l1770:
  2560                           
  2561                           ;main.c: 268: _delay((unsigned long)((17)*(4000000/4000.0)));
  2562     036C  3017               	movlw	23
  2563     036D  1283               	bcf	3,5	;RP0=0, select bank0
  2564     036E  1303               	bcf	3,6	;RP1=0, select bank0
  2565     036F  00A6               	movwf	??_shutter_close+1
  2566     0370  3012               	movlw	18
  2567     0371  00A5               	movwf	??_shutter_close
  2568     0372                     u1617:
  2569     0372  0BA5               	decfsz	??_shutter_close,f
  2570     0373  2B72               	goto	u1617
  2571     0374  0BA6               	decfsz	??_shutter_close+1,f
  2572     0375  2B72               	goto	u1617
  2573     0376                     l1772:
  2574                           
  2575                           ;main.c: 269: pwm_percent(50);
  2576     0376  3032               	movlw	50
  2577     0377  118A  2489  118A   	fcall	_pwm_percent
  2578                           
  2579                           ;main.c: 270: _delay((unsigned long)((3)*(4000000/4000.0)));
  2580     037A  3004               	movlw	4
  2581     037B  1283               	bcf	3,5	;RP0=0, select bank0
  2582     037C  1303               	bcf	3,6	;RP1=0, select bank0
  2583     037D  00A6               	movwf	??_shutter_close+1
  2584     037E  30E4               	movlw	228
  2585     037F  00A5               	movwf	??_shutter_close
  2586     0380                     u1627:
  2587     0380  0BA5               	decfsz	??_shutter_close,f
  2588     0381  2B80               	goto	u1627
  2589     0382  0BA6               	decfsz	??_shutter_close+1,f
  2590     0383  2B80               	goto	u1627
  2591     0384                     l1774:
  2592                           
  2593                           ;main.c: 271: pwm_percent(30);
  2594     0384  301E               	movlw	30
  2595     0385  118A  2489  118A   	fcall	_pwm_percent
  2596     0388                     l120:
  2597     0388  0008               	return
  2598     0389                     __end_of_shutter_close:
  2599                           
  2600                           	psect	text11
  2601     0489                     __ptext11:	
  2602 ;; *************** function _pwm_percent *****************
  2603 ;; Defined at:
  2604 ;;		line 14 in file "pwm.c"
  2605 ;; Parameters:    Size  Location     Type
  2606 ;;  percent         1    wreg     unsigned char 
  2607 ;; Auto vars:     Size  Location     Type
  2608 ;;  percent         1    4[BANK0 ] unsigned char 
  2609 ;;  hw_value        2    2[BANK0 ] unsigned int 
  2610 ;; Return value:  Size  Location     Type
  2611 ;;                  1    wreg      void 
  2612 ;; Registers used:
  2613 ;;		wreg, status,2, status,0, pclath, cstack
  2614 ;; Tracked objects:
  2615 ;;		On entry : 0/0
  2616 ;;		On exit  : 0/0
  2617 ;;		Unchanged: 0/0
  2618 ;; Data sizes:     COMMON   BANK0   BANK1   BANK2
  2619 ;;      Params:         0       0       0       0
  2620 ;;      Locals:         0       3       0       0
  2621 ;;      Temps:          0       2       0       0
  2622 ;;      Totals:         0       5       0       0
  2623 ;;Total ram usage:        5 bytes
  2624 ;; Hardware stack levels used: 1
  2625 ;; Hardware stack levels required when called: 1
  2626 ;; This function calls:
  2627 ;;		___lwdiv
  2628 ;;		___wmul
  2629 ;; This function is called by:
  2630 ;;		_shutter_open
  2631 ;;		_shutter_close
  2632 ;; This function uses a non-reentrant model
  2633 ;;
  2634                           
  2635     0489                     _pwm_percent:	
  2636                           ;psect for function _pwm_percent
  2637                           
  2638                           
  2639                           ;incstack = 0
  2640                           ; Regs used in _pwm_percent: [wreg+status,2+status,0+pclath+cstack]
  2641                           ;pwm_percent@percent stored from wreg
  2642     0489  1283               	bcf	3,5	;RP0=0, select bank0
  2643     048A  1303               	bcf	3,6	;RP1=0, select bank0
  2644     048B  00A4               	movwf	pwm_percent@percent
  2645     048C                     l1528:
  2646                           
  2647                           ;pwm.c: 17: if (percent > 100) {
  2648     048C  3065               	movlw	101
  2649     048D  0224               	subwf	pwm_percent@percent,w
  2650     048E  1C03               	skipc
  2651     048F  2C91               	goto	u1051
  2652     0490  2C92               	goto	u1050
  2653     0491                     u1051:
  2654     0491  2C94               	goto	l1532
  2655     0492                     u1050:
  2656     0492                     l1530:
  2657                           
  2658                           ;pwm.c: 18: percent = 100;
  2659     0492  3064               	movlw	100
  2660     0493  00A4               	movwf	pwm_percent@percent
  2661     0494                     l1532:
  2662                           
  2663                           ;pwm.c: 19: };pwm.c: 23: uint16_t hw_value = ((uint16_t)percent * 199) / 100U;
  2664     0494  3064               	movlw	100
  2665     0495  00F6               	movwf	___lwdiv@divisor
  2666     0496  3000               	movlw	0
  2667     0497  00F7               	movwf	___lwdiv@divisor+1
  2668     0498  0824               	movf	pwm_percent@percent,w
  2669     0499  00A0               	movwf	??_pwm_percent
  2670     049A  01A1               	clrf	??_pwm_percent+1
  2671     049B  0820               	movf	??_pwm_percent,w
  2672     049C  00F0               	movwf	___wmul@multiplier
  2673     049D  0821               	movf	??_pwm_percent+1,w
  2674     049E  00F1               	movwf	___wmul@multiplier+1
  2675     049F  30C7               	movlw	199
  2676     04A0  00F2               	movwf	___wmul@multiplicand
  2677     04A1  3000               	movlw	0
  2678     04A2  00F3               	movwf	___wmul@multiplicand+1
  2679     04A3  118A  2274  118A   	fcall	___wmul
  2680     04A6  0871               	movf	?___wmul+1,w
  2681     04A7  00F9               	movwf	___lwdiv@dividend+1
  2682     04A8  0870               	movf	?___wmul,w
  2683     04A9  00F8               	movwf	___lwdiv@dividend
  2684     04AA  118A  2404  118A   	fcall	___lwdiv
  2685     04AD  0877               	movf	?___lwdiv+1,w
  2686     04AE  1283               	bcf	3,5	;RP0=0, select bank0
  2687     04AF  1303               	bcf	3,6	;RP1=0, select bank0
  2688     04B0  00A3               	movwf	pwm_percent@hw_value+1
  2689     04B1  0876               	movf	?___lwdiv,w
  2690     04B2  00A2               	movwf	pwm_percent@hw_value
  2691     04B3                     l1534:
  2692                           
  2693                           ;pwm.c: 26: CCPR1L = hw_value >> 2;
  2694     04B3  0823               	movf	pwm_percent@hw_value+1,w
  2695     04B4  00A1               	movwf	??_pwm_percent+1
  2696     04B5  0822               	movf	pwm_percent@hw_value,w
  2697     04B6  00A0               	movwf	??_pwm_percent
  2698     04B7  1003               	clrc
  2699     04B8  0CA1               	rrf	??_pwm_percent+1,f
  2700     04B9  0CA0               	rrf	??_pwm_percent,f
  2701     04BA  1003               	clrc
  2702     04BB  0CA1               	rrf	??_pwm_percent+1,f
  2703     04BC  0CA0               	rrf	??_pwm_percent,f
  2704     04BD  0820               	movf	??_pwm_percent,w
  2705     04BE  0095               	movwf	21	;volatile
  2706     04BF                     l1536:
  2707                           
  2708                           ;pwm.c: 27: CCP1CON = (CCP1CON & 0xCF) | ((hw_value & 0x03) << 4);
  2709     04BF  0822               	movf	pwm_percent@hw_value,w
  2710     04C0  3903               	andlw	3
  2711     04C1  00A0               	movwf	??_pwm_percent
  2712     04C2  3004               	movlw	4
  2713     04C3                     u1065:
  2714     04C3  1003               	clrc
  2715     04C4  0DA0               	rlf	??_pwm_percent,f
  2716     04C5  3EFF               	addlw	-1
  2717     04C6  1D03               	skipz
  2718     04C7  2CC3               	goto	u1065
  2719     04C8  0817               	movf	23,w	;volatile
  2720     04C9  39CF               	andlw	207
  2721     04CA  0420               	iorwf	??_pwm_percent,w
  2722     04CB  0097               	movwf	23	;volatile
  2723     04CC                     l17:
  2724     04CC  0008               	return
  2725     04CD                     __end_of_pwm_percent:
  2726                           
  2727                           	psect	text12
  2728     0205                     __ptext12:	
  2729 ;; *************** function _pwm_init *****************
  2730 ;; Defined at:
  2731 ;;		line 6 in file "pwm.c"
  2732 ;; Parameters:    Size  Location     Type
  2733 ;;		None
  2734 ;; Auto vars:     Size  Location     Type
  2735 ;;		None
  2736 ;; Return value:  Size  Location     Type
  2737 ;;                  1    wreg      void 
  2738 ;; Registers used:
  2739 ;;		status,2
  2740 ;; Tracked objects:
  2741 ;;		On entry : 0/0
  2742 ;;		On exit  : 0/0
  2743 ;;		Unchanged: 0/0
  2744 ;; Data sizes:     COMMON   BANK0   BANK1   BANK2
  2745 ;;      Params:         0       0       0       0
  2746 ;;      Locals:         0       0       0       0
  2747 ;;      Temps:          0       0       0       0
  2748 ;;      Totals:         0       0       0       0
  2749 ;;Total ram usage:        0 bytes
  2750 ;; Hardware stack levels used: 1
  2751 ;; This function calls:
  2752 ;;		Nothing
  2753 ;; This function is called by:
  2754 ;;		_main
  2755 ;; This function uses a non-reentrant model
  2756 ;;
  2757                           
  2758     0205                     _pwm_init:	
  2759                           ;psect for function _pwm_init
  2760                           
  2761     0205                     l1606:	
  2762                           ;incstack = 0
  2763                           ; Regs used in _pwm_init: [status,2]
  2764                           
  2765                           
  2766                           ;pwm.c: 8: CCP1CON = 0x0C;
  2767     0205  300C               	movlw	12
  2768     0206  1283               	bcf	3,5	;RP0=0, select bank0
  2769     0207  1303               	bcf	3,6	;RP1=0, select bank0
  2770     0208  0097               	movwf	23	;volatile
  2771     0209                     l1608:
  2772                           
  2773                           ;pwm.c: 9: T2CON = 0x00;
  2774     0209  0192               	clrf	18	;volatile
  2775     020A                     l1610:
  2776                           
  2777                           ;pwm.c: 10: PR2 = 49;
  2778     020A  3031               	movlw	49
  2779     020B  1683               	bsf	3,5	;RP0=1, select bank1
  2780     020C  1303               	bcf	3,6	;RP1=0, select bank1
  2781     020D  0092               	movwf	18	;volatile
  2782     020E                     l1612:
  2783                           
  2784                           ;pwm.c: 11: T2CONbits.TMR2ON = 1;
  2785     020E  1283               	bcf	3,5	;RP0=0, select bank0
  2786     020F  1303               	bcf	3,6	;RP1=0, select bank0
  2787     0210  1512               	bsf	18,2	;volatile
  2788     0211                     l13:
  2789     0211  0008               	return
  2790     0212                     __end_of_pwm_init:
  2791                           
  2792                           	psect	text13
  2793     03C6                     __ptext13:	
  2794 ;; *************** function _ps_laser_util_init *****************
  2795 ;; Defined at:
  2796 ;;		line 238 in file "main.c"
  2797 ;; Parameters:    Size  Location     Type
  2798 ;;		None
  2799 ;; Auto vars:     Size  Location     Type
  2800 ;;  i               2   22[BANK0 ] int 
  2801 ;;  a               1   21[BANK0 ] unsigned char 
  2802 ;; Return value:  Size  Location     Type
  2803 ;;                  1    wreg      void 
  2804 ;; Registers used:
  2805 ;;		wreg, fsr0l, fsr0h, status,2, status,0, btemp+1, pclath, cstack
  2806 ;; Tracked objects:
  2807 ;;		On entry : 0/0
  2808 ;;		On exit  : 0/0
  2809 ;;		Unchanged: 0/0
  2810 ;; Data sizes:     COMMON   BANK0   BANK1   BANK2
  2811 ;;      Params:         0       0       0       0
  2812 ;;      Locals:         0       3       0       0
  2813 ;;      Temps:          0       2       0       0
  2814 ;;      Totals:         0       5       0       0
  2815 ;;Total ram usage:        5 bytes
  2816 ;; Hardware stack levels used: 1
  2817 ;; Hardware stack levels required when called: 3
  2818 ;; This function calls:
  2819 ;;		_printf
  2820 ;;		_shutter_safe
  2821 ;; This function is called by:
  2822 ;;		_main
  2823 ;; This function uses a non-reentrant model
  2824 ;;
  2825                           
  2826     03C6                     _ps_laser_util_init:	
  2827                           ;psect for function _ps_laser_util_init
  2828                           
  2829     03C6                     l1616:	
  2830                           ;incstack = 0
  2831                           ; Regs used in _ps_laser_util_init: [wreg-fsr0h+status,2+status,0+btemp+1+pclath+cstack]
  2832                           
  2833                           
  2834                           ;main.c: 240: for(int i=0 ; i < 50 ; i++){
  2835     03C6  1283               	bcf	3,5	;RP0=0, select bank0
  2836     03C7  1303               	bcf	3,6	;RP1=0, select bank0
  2837     03C8  01B6               	clrf	ps_laser_util_init@i
  2838     03C9  01B7               	clrf	ps_laser_util_init@i+1
  2839     03CA                     l1622:
  2840                           
  2841                           ;main.c: 241: _delay((unsigned long)((50)*(4000000/4000.0)));
  2842     03CA  3041               	movlw	65
  2843     03CB  1283               	bcf	3,5	;RP0=0, select bank0
  2844     03CC  1303               	bcf	3,6	;RP1=0, select bank0
  2845     03CD  00B4               	movwf	??_ps_laser_util_init+1
  2846     03CE  30EE               	movlw	238
  2847     03CF  00B3               	movwf	??_ps_laser_util_init
  2848     03D0                     u1637:
  2849     03D0  0BB3               	decfsz	??_ps_laser_util_init,f
  2850     03D1  2BD0               	goto	u1637
  2851     03D2  0BB4               	decfsz	??_ps_laser_util_init+1,f
  2852     03D3  2BD0               	goto	u1637
  2853     03D4                     l1624:
  2854                           
  2855                           ;main.c: 242: PORTAbits.RA0 ^= 1;
  2856     03D4  1283               	bcf	3,5	;RP0=0, select bank0
  2857     03D5  1303               	bcf	3,6	;RP1=0, select bank0
  2858     03D6  0805               	movf	5,w	;volatile
  2859     03D7  3901               	andlw	1
  2860     03D8  00FF               	movwf	btemp+1
  2861     03D9  3001               	movlw	1
  2862     03DA  06FF               	xorwf	btemp+1,f
  2863     03DB  0805               	movf	5,w	;volatile
  2864     03DC  067F               	xorwf	btemp+1,w
  2865     03DD  39FE               	andlw	-2
  2866     03DE  067F               	xorwf	btemp+1,w
  2867     03DF  0085               	movwf	5	;volatile
  2868     03E0                     l1626:
  2869     03E0  3001               	movlw	1
  2870     03E1  07B6               	addwf	ps_laser_util_init@i,f
  2871     03E2  1803               	skipnc
  2872     03E3  0AB7               	incf	ps_laser_util_init@i+1,f
  2873     03E4  3000               	movlw	0
  2874     03E5  07B7               	addwf	ps_laser_util_init@i+1,f
  2875     03E6                     l1628:
  2876     03E6  0837               	movf	ps_laser_util_init@i+1,w
  2877     03E7  3A80               	xorlw	128
  2878     03E8  00FF               	movwf	btemp+1
  2879     03E9  3080               	movlw	128
  2880     03EA  027F               	subwf	btemp+1,w
  2881     03EB  1D03               	skipz
  2882     03EC  2BEF               	goto	u1175
  2883     03ED  3032               	movlw	50
  2884     03EE  0236               	subwf	ps_laser_util_init@i,w
  2885     03EF                     u1175:
  2886     03EF  1C03               	skipc
  2887     03F0  2BF2               	goto	u1171
  2888     03F1  2BF3               	goto	u1170
  2889     03F2                     u1171:
  2890     03F2  2BCA               	goto	l1622
  2891     03F3                     u1170:
  2892     03F3                     l1630:
  2893                           
  2894                           ;main.c: 243: };main.c: 244: a = shutter_safe();
  2895     03F3  118A  2252  118A   	fcall	_shutter_safe
  2896     03F6  1283               	bcf	3,5	;RP0=0, select bank0
  2897     03F7  1303               	bcf	3,6	;RP1=0, select bank0
  2898     03F8  00B5               	movwf	ps_laser_util_init@a
  2899     03F9                     l1632:
  2900                           
  2901                           ;main.c: 245: if(a == 0){
  2902     03F9  0835               	movf	ps_laser_util_init@a,w
  2903     03FA  1D03               	btfss	3,2
  2904     03FB  2BFD               	goto	u1181
  2905     03FC  2BFE               	goto	u1180
  2906     03FD                     u1181:
  2907     03FD  2C03               	goto	l114
  2908     03FE                     u1180:
  2909     03FE                     l1634:
  2910                           
  2911                           ;main.c: 246: printf("System initialization has been completed!!\r\n");
  2912     03FE  300B               	movlw	(low ((STR_16-__stringbase)| (0+32768)))& (0+255)
  2913     03FF  00A4               	movwf	printf@f
  2914     0400  118A  25BB  118A   	fcall	_printf
  2915     0403                     l114:
  2916     0403  0008               	return
  2917     0404                     __end_of_ps_laser_util_init:
  2918                           
  2919                           	psect	text14
  2920     0252                     __ptext14:	
  2921 ;; *************** function _shutter_safe *****************
  2922 ;; Defined at:
  2923 ;;		line 281 in file "main.c"
  2924 ;; Parameters:    Size  Location     Type
  2925 ;;		None
  2926 ;; Auto vars:     Size  Location     Type
  2927 ;;  sht_alarm       1   18[BANK0 ] unsigned char 
  2928 ;; Return value:  Size  Location     Type
  2929 ;;                  1    wreg      unsigned char 
  2930 ;; Registers used:
  2931 ;;		wreg, fsr0l, fsr0h, status,2, status,0, btemp+1, pclath, cstack
  2932 ;; Tracked objects:
  2933 ;;		On entry : 0/0
  2934 ;;		On exit  : 0/0
  2935 ;;		Unchanged: 0/0
  2936 ;; Data sizes:     COMMON   BANK0   BANK1   BANK2
  2937 ;;      Params:         0       0       0       0
  2938 ;;      Locals:         0       1       0       0
  2939 ;;      Temps:          0       0       0       0
  2940 ;;      Totals:         0       1       0       0
  2941 ;;Total ram usage:        1 bytes
  2942 ;; Hardware stack levels used: 1
  2943 ;; Hardware stack levels required when called: 2
  2944 ;; This function calls:
  2945 ;;		_get_hall_status
  2946 ;;		_printf
  2947 ;; This function is called by:
  2948 ;;		_main
  2949 ;;		_ps_laser_util_init
  2950 ;; This function uses a non-reentrant model
  2951 ;;
  2952                           
  2953     0252                     _shutter_safe:	
  2954                           ;psect for function _shutter_safe
  2955                           
  2956     0252                     l1538:	
  2957                           ;incstack = 0
  2958                           ; Regs used in _shutter_safe: [wreg-fsr0h+status,2+status,0+btemp+1+pclath+cstack]
  2959                           
  2960                           
  2961                           ;main.c: 282: hall_status = get_hall_status();
  2962     0252  118A  21E8  118A   	fcall	_get_hall_status
  2963     0255  1283               	bcf	3,5	;RP0=0, select bank0
  2964     0256  1303               	bcf	3,6	;RP1=0, select bank0
  2965     0257  00EC               	movwf	_hall_status
  2966     0258                     l1540:
  2967                           
  2968                           ;main.c: 283: bool sht_alarm = hall_status ^ sht_on_off;
  2969     0258  086C               	movf	_hall_status,w
  2970     0259  066D               	xorwf	_sht_on_off,w
  2971     025A  00B2               	movwf	shutter_safe@sht_alarm
  2972     025B                     l1542:
  2973                           
  2974                           ;main.c: 284: if (sht_alarm == 0) {
  2975     025B  0832               	movf	shutter_safe@sht_alarm,w
  2976     025C  1D03               	btfss	3,2
  2977     025D  2A5F               	goto	u1071
  2978     025E  2A60               	goto	u1070
  2979     025F                     u1071:
  2980     025F  2A71               	goto	l126
  2981     0260                     u1070:
  2982     0260                     l1544:
  2983                           
  2984                           ;main.c: 286: printf("ALARM!! Shutter abnormality detected!!\r\n");
  2985     0260  3038               	movlw	(low ((STR_17-__stringbase)| (0+32768)))& (0+255)
  2986     0261  00A4               	movwf	printf@f
  2987     0262  118A  25BB  118A   	fcall	_printf
  2988                           
  2989                           ;main.c: 290: printf("DO NOT OPERATE LASER!!\r\n");
  2990     0265  3061               	movlw	(low ((STR_18-__stringbase)| (0+32768)))& (0+255)
  2991     0266  1283               	bcf	3,5	;RP0=0, select bank0
  2992     0267  1303               	bcf	3,6	;RP1=0, select bank0
  2993     0268  00A4               	movwf	printf@f
  2994     0269  118A  25BB  118A   	fcall	_printf
  2995     026C                     l1546:
  2996                           
  2997                           ;main.c: 292: PORTAbits.RA0 = 1;
  2998     026C  1283               	bcf	3,5	;RP0=0, select bank0
  2999     026D  1303               	bcf	3,6	;RP1=0, select bank0
  3000     026E  1405               	bsf	5,0	;volatile
  3001     026F                     l1548:
  3002                           
  3003                           ;main.c: 293: return 0;
  3004     026F  3000               	movlw	0
  3005     0270  2A73               	goto	l127
  3006     0271                     l126:
  3007                           
  3008                           ;main.c: 296: PORTAbits.RA0 = 0;
  3009     0271  1005               	bcf	5,0	;volatile
  3010     0272                     l1554:
  3011                           
  3012                           ;main.c: 297: return 1;
  3013     0272  3001               	movlw	1
  3014     0273                     l127:
  3015     0273  0008               	return
  3016     0274                     __end_of_shutter_safe:
  3017                           
  3018                           	psect	text15
  3019     05BB                     __ptext15:	
  3020 ;; *************** function _printf *****************
  3021 ;; Defined at:
  3022 ;;		line 477 in file "C:\Program Files\Microchip\xc8\v2.50\pic\sources\c90\common\doprnt.c"
  3023 ;; Parameters:    Size  Location     Type
  3024 ;;  f               1    4[BANK0 ] PTR const unsigned char 
  3025 ;;		 -> STR_18(25), STR_17(41), STR_16(45), STR_15(11), 
  3026 ;;		 -> STR_13(18), STR_11(11), STR_9(11), STR_7(16), 
  3027 ;; Auto vars:     Size  Location     Type
  3028 ;;  tmpval          4    0        struct .
  3029 ;;  val             2   15[BANK0 ] unsigned int 
  3030 ;;  cp              2    0        PTR const unsigned char 
  3031 ;;  len             2    0        unsigned int 
  3032 ;;  c               1   17[BANK0 ] unsigned char 
  3033 ;;  prec            1   14[BANK0 ] char 
  3034 ;;  flag            1   13[BANK0 ] unsigned char 
  3035 ;;  ap              1   12[BANK0 ] PTR void [1]
  3036 ;;		 -> ?_printf(2), 
  3037 ;; Return value:  Size  Location     Type
  3038 ;;                  2    4[BANK0 ] int 
  3039 ;; Registers used:
  3040 ;;		wreg, fsr0l, fsr0h, status,2, status,0, btemp+1, pclath, cstack
  3041 ;; Tracked objects:
  3042 ;;		On entry : 0/0
  3043 ;;		On exit  : 0/0
  3044 ;;		Unchanged: 0/0
  3045 ;; Data sizes:     COMMON   BANK0   BANK1   BANK2
  3046 ;;      Params:         0       5       0       0
  3047 ;;      Locals:         0       6       0       0
  3048 ;;      Temps:          0       3       0       0
  3049 ;;      Totals:         0      14       0       0
  3050 ;;Total ram usage:       14 bytes
  3051 ;; Hardware stack levels used: 1
  3052 ;; Hardware stack levels required when called: 1
  3053 ;; This function calls:
  3054 ;;		___lwdiv
  3055 ;;		___lwmod
  3056 ;;		_putch
  3057 ;; This function is called by:
  3058 ;;		_main
  3059 ;;		_ps_laser_util_init
  3060 ;;		_shutter_safe
  3061 ;; This function uses a non-reentrant model
  3062 ;;
  3063                           
  3064     05BB                     _printf:	
  3065                           ;psect for function _printf
  3066                           
  3067     05BB                     l1450:	
  3068                           ;incstack = 0
  3069                           ; Regs used in _printf: [wreg-fsr0h+status,2+status,0+btemp+1+pclath+cstack]
  3070                           
  3071                           
  3072                           ;doprnt.c: 479: va_list ap;;doprnt.c: 512: char c;;doprnt.c: 521: signed char prec;;dopr
      +                          nt.c: 525: unsigned char flag;;doprnt.c: 540: union {;doprnt.c: 541: unsigned long vd;;d
      +                          oprnt.c: 542: double integ;;doprnt.c: 543: } tmpval;;doprnt.c: 545: unsigned int val;;do
      +                          prnt.c: 546: unsigned len;;doprnt.c: 547: const char * cp;;doprnt.c: 550: *ap = __va_sta
      +                          rt();
  3073     05BB  3025               	movlw	(low ((?_printf| 0+1)))& (0+255)
  3074     05BC  1283               	bcf	3,5	;RP0=0, select bank0
  3075     05BD  1303               	bcf	3,6	;RP1=0, select bank0
  3076     05BE  00AC               	movwf	printf@ap
  3077                           
  3078                           ;doprnt.c: 553: while((c = *f++)) {
  3079     05BF  2E58               	goto	l1496
  3080     05C0                     l1452:
  3081                           
  3082                           ;doprnt.c: 555: if(c != '%')
  3083     05C0  3025               	movlw	37
  3084     05C1  0631               	xorwf	printf@c,w
  3085     05C2  1903               	btfsc	3,2
  3086     05C3  2DC5               	goto	u921
  3087     05C4  2DC6               	goto	u920
  3088     05C5                     u921:
  3089     05C5  2DCB               	goto	l1456
  3090     05C6                     u920:
  3091     05C6                     l1454:
  3092                           
  3093                           ;doprnt.c: 557: {;doprnt.c: 558: (putch(c) );
  3094     05C6  0831               	movf	printf@c,w
  3095     05C7  118A  21F0  118A   	fcall	_putch
  3096                           
  3097                           ;doprnt.c: 559: continue;
  3098     05CA  2E58               	goto	l1496
  3099     05CB                     l1456:
  3100                           
  3101                           ;doprnt.c: 560: };doprnt.c: 565: flag = 0;
  3102     05CB  01AD               	clrf	printf@flag
  3103     05CC                     l1460:	
  3104                           ;doprnt.c: 661: switch(c = *f++) {
  3105                           
  3106     05CC  3001               	movlw	1
  3107     05CD  07A4               	addwf	printf@f,f
  3108     05CE  30FF               	movlw	-1
  3109     05CF  0724               	addwf	printf@f,w
  3110     05D0  0084               	movwf	4
  3111     05D1  118A  2002  118A   	fcall	stringdir
  3112     05D4  00B1               	movwf	printf@c
  3113                           
  3114                           ; Switch size 1, requested type "simple"
  3115                           ; Number of cases is 3, Range of values is 0 to 105
  3116                           ; switch strategies available:
  3117                           ; Name         Instructions Cycles
  3118                           ; simple_byte           10     6 (average)
  3119                           ; direct_byte          219     7 (fixed)
  3120                           ; jumptable            260     6 (fixed)
  3121                           ;	Chosen strategy is simple_byte
  3122     05D5  3A00               	xorlw	0	; case 0
  3123     05D6  1903               	skipnz
  3124     05D7  2E68               	goto	l292
  3125     05D8  3A64               	xorlw	100	; case 100
  3126     05D9  1903               	skipnz
  3127     05DA  2DDF               	goto	l1462
  3128     05DB  3A0D               	xorlw	13	; case 105
  3129     05DC  1903               	skipnz
  3130     05DD  2DDF               	goto	l1462
  3131     05DE  2E58               	goto	l1496
  3132     05DF                     l1462:
  3133                           
  3134                           ;doprnt.c: 1279: {;doprnt.c: 1285: val = (unsigned int)(*(int *)__va_arg((*(int **)ap), 
      +                          (int)0));
  3135     05DF  082C               	movf	printf@ap,w
  3136     05E0  0084               	movwf	4
  3137     05E1  1383               	bcf	3,7	;select IRP bank0
  3138     05E2  0800               	movf	0,w
  3139     05E3  00AF               	movwf	printf@val
  3140     05E4  0A84               	incf	4,f
  3141     05E5  0800               	movf	0,w
  3142     05E6  00B0               	movwf	printf@val+1
  3143     05E7                     l1464:
  3144     05E7  3002               	movlw	2
  3145     05E8  07AC               	addwf	printf@ap,f
  3146     05E9                     l1466:
  3147                           
  3148                           ;doprnt.c: 1287: if((int)val < 0) {
  3149     05E9  1FB0               	btfss	printf@val+1,7
  3150     05EA  2DEC               	goto	u931
  3151     05EB  2DED               	goto	u930
  3152     05EC                     u931:
  3153     05EC  2DF4               	goto	l1472
  3154     05ED                     u930:
  3155     05ED                     l1468:
  3156                           
  3157                           ;doprnt.c: 1288: flag |= 0x03;
  3158     05ED  3003               	movlw	3
  3159     05EE  04AD               	iorwf	printf@flag,f
  3160     05EF                     l1470:
  3161                           
  3162                           ;doprnt.c: 1289: val = -val;
  3163     05EF  09AF               	comf	printf@val,f
  3164     05F0  09B0               	comf	printf@val+1,f
  3165     05F1  0AAF               	incf	printf@val,f
  3166     05F2  1903               	skipnz
  3167     05F3  0AB0               	incf	printf@val+1,f
  3168     05F4                     l1472:
  3169                           
  3170                           ;doprnt.c: 1290: };doprnt.c: 1292: };doprnt.c: 1331: for(c = 1 ; c != sizeof dpowers/siz
      +                          eof dpowers[0] ; c++)
  3171     05F4  3001               	movlw	1
  3172     05F5  00B1               	movwf	printf@c
  3173     05F6                     l1478:
  3174                           
  3175                           ;doprnt.c: 1332: if(val < dpowers[c])
  3176     05F6  0831               	movf	printf@c,w
  3177     05F7  00A9               	movwf	??_printf
  3178     05F8  0729               	addwf	??_printf,w
  3179     05F9  3E01               	addlw	low ((_dpowers-__stringbase)| (0+32768))
  3180     05FA  0084               	movwf	4
  3181     05FB  118A  2002  118A   	fcall	stringdir
  3182     05FE  00AA               	movwf	??_printf+1
  3183     05FF  118A  2002  118A   	fcall	stringdir
  3184     0602  00AB               	movwf	??_printf+2
  3185     0603  082B               	movf	??_printf+2,w
  3186     0604  0230               	subwf	printf@val+1,w
  3187     0605  1D03               	skipz
  3188     0606  2E09               	goto	u945
  3189     0607  082A               	movf	??_printf+1,w
  3190     0608  022F               	subwf	printf@val,w
  3191     0609                     u945:
  3192     0609  1803               	skipnc
  3193     060A  2E0C               	goto	u941
  3194     060B  2E0D               	goto	u940
  3195     060C                     u941:
  3196     060C  2E0E               	goto	l1482
  3197     060D                     u940:
  3198     060D  2E16               	goto	l1484
  3199     060E                     l1482:
  3200     060E  3001               	movlw	1
  3201     060F  07B1               	addwf	printf@c,f
  3202     0610  3005               	movlw	5
  3203     0611  0631               	xorwf	printf@c,w
  3204     0612  1D03               	btfss	3,2
  3205     0613  2E15               	goto	u951
  3206     0614  2E16               	goto	u950
  3207     0615                     u951:
  3208     0615  2DF6               	goto	l1478
  3209     0616                     u950:
  3210     0616                     l1484:
  3211                           
  3212                           ;doprnt.c: 1448: {;doprnt.c: 1464: if(flag & 0x03)
  3213     0616  082D               	movf	printf@flag,w
  3214     0617  3903               	andlw	3
  3215     0618  1903               	btfsc	3,2
  3216     0619  2E1B               	goto	u961
  3217     061A  2E1C               	goto	u960
  3218     061B                     u961:
  3219     061B  2E20               	goto	l1488
  3220     061C                     u960:
  3221     061C                     l1486:
  3222                           
  3223                           ;doprnt.c: 1465: (putch('-') );
  3224     061C  302D               	movlw	45
  3225     061D  118A  21F0  118A   	fcall	_putch
  3226     0620                     l1488:
  3227                           
  3228                           ;doprnt.c: 1495: };doprnt.c: 1498: prec = c;
  3229     0620  1283               	bcf	3,5	;RP0=0, select bank0
  3230     0621  1303               	bcf	3,6	;RP1=0, select bank0
  3231     0622  0831               	movf	printf@c,w
  3232     0623  00AE               	movwf	printf@prec
  3233                           
  3234                           ;doprnt.c: 1500: while(prec--) {
  3235     0624  2E4F               	goto	l1494
  3236     0625                     l1490:
  3237                           
  3238                           ;doprnt.c: 1504: {;doprnt.c: 1515: c = (val / dpowers[(unsigned char)prec]) % 10 + '0';
  3239     0625  300A               	movlw	10
  3240     0626  00A0               	movwf	___lwmod@divisor
  3241     0627  3000               	movlw	0
  3242     0628  00A1               	movwf	___lwmod@divisor+1
  3243     0629  082E               	movf	printf@prec,w
  3244     062A  00A9               	movwf	??_printf
  3245     062B  0729               	addwf	??_printf,w
  3246     062C  3E01               	addlw	low ((_dpowers-__stringbase)| (0+32768))
  3247     062D  0084               	movwf	4
  3248     062E  118A  2002  118A   	fcall	stringdir
  3249     0631  00F6               	movwf	___lwdiv@divisor
  3250     0632  118A  2002  118A   	fcall	stringdir
  3251     0635  00F7               	movwf	___lwdiv@divisor+1
  3252     0636  0830               	movf	printf@val+1,w
  3253     0637  00F9               	movwf	___lwdiv@dividend+1
  3254     0638  082F               	movf	printf@val,w
  3255     0639  00F8               	movwf	___lwdiv@dividend
  3256     063A  118A  2404  118A   	fcall	___lwdiv
  3257     063D  0877               	movf	?___lwdiv+1,w
  3258     063E  1283               	bcf	3,5	;RP0=0, select bank0
  3259     063F  1303               	bcf	3,6	;RP1=0, select bank0
  3260     0640  00A3               	movwf	___lwmod@dividend+1
  3261     0641  0876               	movf	?___lwdiv,w
  3262     0642  00A2               	movwf	___lwmod@dividend
  3263     0643  118A  2314  118A   	fcall	___lwmod
  3264     0646  1283               	bcf	3,5	;RP0=0, select bank0
  3265     0647  1303               	bcf	3,6	;RP1=0, select bank0
  3266     0648  0820               	movf	?___lwmod,w
  3267     0649  3E30               	addlw	48
  3268     064A  00B1               	movwf	printf@c
  3269     064B                     l1492:
  3270                           
  3271                           ;doprnt.c: 1549: };doprnt.c: 1550: (putch(c) );
  3272     064B  0831               	movf	printf@c,w
  3273     064C  118A  21F0  118A   	fcall	_putch
  3274     064F                     l1494:
  3275     064F  30FF               	movlw	255
  3276     0650  1283               	bcf	3,5	;RP0=0, select bank0
  3277     0651  1303               	bcf	3,6	;RP1=0, select bank0
  3278     0652  07AE               	addwf	printf@prec,f
  3279     0653  0A2E               	incf	printf@prec,w
  3280     0654  1D03               	btfss	3,2
  3281     0655  2E57               	goto	u971
  3282     0656  2E58               	goto	u970
  3283     0657                     u971:
  3284     0657  2E25               	goto	l1490
  3285     0658                     u970:
  3286     0658                     l1496:
  3287     0658  3001               	movlw	1
  3288     0659  1283               	bcf	3,5	;RP0=0, select bank0
  3289     065A  1303               	bcf	3,6	;RP1=0, select bank0
  3290     065B  07A4               	addwf	printf@f,f
  3291     065C  30FF               	movlw	-1
  3292     065D  0724               	addwf	printf@f,w
  3293     065E  0084               	movwf	4
  3294     065F  118A  2002  118A   	fcall	stringdir
  3295     0662  00B1               	movwf	printf@c
  3296     0663  0831               	movf	printf@c,w
  3297     0664  1D03               	btfss	3,2
  3298     0665  2E67               	goto	u981
  3299     0666  2E68               	goto	u980
  3300     0667                     u981:
  3301     0667  2DC0               	goto	l1452
  3302     0668                     u980:
  3303     0668                     l292:
  3304     0668  0008               	return
  3305     0669                     __end_of_printf:
  3306                           
  3307                           	psect	text16
  3308     01F0                     __ptext16:	
  3309 ;; *************** function _putch *****************
  3310 ;; Defined at:
  3311 ;;		line 14 in file "uart.c"
  3312 ;; Parameters:    Size  Location     Type
  3313 ;;  byte            1    wreg     unsigned char 
  3314 ;; Auto vars:     Size  Location     Type
  3315 ;;  byte            1    0[COMMON] unsigned char 
  3316 ;; Return value:  Size  Location     Type
  3317 ;;                  1    wreg      void 
  3318 ;; Registers used:
  3319 ;;		wreg
  3320 ;; Tracked objects:
  3321 ;;		On entry : 0/0
  3322 ;;		On exit  : 0/0
  3323 ;;		Unchanged: 0/0
  3324 ;; Data sizes:     COMMON   BANK0   BANK1   BANK2
  3325 ;;      Params:         0       0       0       0
  3326 ;;      Locals:         1       0       0       0
  3327 ;;      Temps:          0       0       0       0
  3328 ;;      Totals:         1       0       0       0
  3329 ;;Total ram usage:        1 bytes
  3330 ;; Hardware stack levels used: 1
  3331 ;; This function calls:
  3332 ;;		Nothing
  3333 ;; This function is called by:
  3334 ;;		_uart_gets
  3335 ;;		_printf
  3336 ;;		_uart_getche
  3337 ;; This function uses a non-reentrant model
  3338 ;;
  3339                           
  3340     01F0                     _putch:	
  3341                           ;psect for function _putch
  3342                           
  3343                           
  3344                           ;incstack = 0
  3345                           ; Regs used in _putch: [wreg]
  3346                           ;putch@byte stored from wreg
  3347     01F0  00F0               	movwf	putch@byte
  3348     01F1                     l1398:
  3349     01F1                     l150:	
  3350                           ;uart.c: 16: while(!TXIF);
  3351                           
  3352     01F1  1283               	bcf	3,5	;RP0=0, select bank0
  3353     01F2  1303               	bcf	3,6	;RP1=0, select bank0
  3354     01F3  1E0C               	btfss	12,4	;volatile
  3355     01F4  29F6               	goto	u781
  3356     01F5  29F7               	goto	u780
  3357     01F6                     u781:
  3358     01F6  29F1               	goto	l150
  3359     01F7                     u780:
  3360     01F7                     l1400:
  3361                           
  3362                           ;uart.c: 17: TXREG = byte;
  3363     01F7  0870               	movf	putch@byte,w
  3364     01F8  0099               	movwf	25	;volatile
  3365     01F9                     l153:
  3366     01F9  0008               	return
  3367     01FA                     __end_of_putch:
  3368                           
  3369                           	psect	text17
  3370     0314                     __ptext17:	
  3371 ;; *************** function ___lwmod *****************
  3372 ;; Defined at:
  3373 ;;		line 5 in file "C:\Program Files\Microchip\xc8\v2.50\pic\sources\c90\common\lwmod.c"
  3374 ;; Parameters:    Size  Location     Type
  3375 ;;  divisor         2    0[BANK0 ] unsigned int 
  3376 ;;  dividend        2    2[BANK0 ] unsigned int 
  3377 ;; Auto vars:     Size  Location     Type
  3378 ;;  counter         1   13[COMMON] unsigned char 
  3379 ;; Return value:  Size  Location     Type
  3380 ;;                  2    0[BANK0 ] unsigned int 
  3381 ;; Registers used:
  3382 ;;		wreg, status,2, status,0
  3383 ;; Tracked objects:
  3384 ;;		On entry : 0/0
  3385 ;;		On exit  : 0/0
  3386 ;;		Unchanged: 0/0
  3387 ;; Data sizes:     COMMON   BANK0   BANK1   BANK2
  3388 ;;      Params:         0       4       0       0
  3389 ;;      Locals:         1       0       0       0
  3390 ;;      Temps:          0       0       0       0
  3391 ;;      Totals:         1       4       0       0
  3392 ;;Total ram usage:        5 bytes
  3393 ;; Hardware stack levels used: 1
  3394 ;; This function calls:
  3395 ;;		Nothing
  3396 ;; This function is called by:
  3397 ;;		_printf
  3398 ;; This function uses a non-reentrant model
  3399 ;;
  3400                           
  3401     0314                     ___lwmod:	
  3402                           ;psect for function ___lwmod
  3403                           
  3404     0314                     l1428:	
  3405                           ;incstack = 0
  3406                           ; Regs used in ___lwmod: [wreg+status,2+status,0]
  3407                           
  3408     0314  1283               	bcf	3,5	;RP0=0, select bank0
  3409     0315  1303               	bcf	3,6	;RP1=0, select bank0
  3410     0316  0820               	movf	___lwmod@divisor,w
  3411     0317  0421               	iorwf	___lwmod@divisor+1,w
  3412     0318  1903               	btfsc	3,2
  3413     0319  2B1B               	goto	u861
  3414     031A  2B1C               	goto	u860
  3415     031B                     u861:
  3416     031B  2B49               	goto	l1446
  3417     031C                     u860:
  3418     031C                     l1430:
  3419     031C  3001               	movlw	1
  3420     031D  00FD               	movwf	___lwmod@counter
  3421     031E  2B28               	goto	l1436
  3422     031F                     l1432:
  3423     031F  3001               	movlw	1
  3424     0320                     u875:
  3425     0320  1003               	clrc
  3426     0321  0DA0               	rlf	___lwmod@divisor,f
  3427     0322  0DA1               	rlf	___lwmod@divisor+1,f
  3428     0323  3EFF               	addlw	-1
  3429     0324  1D03               	skipz
  3430     0325  2B20               	goto	u875
  3431     0326                     l1434:
  3432     0326  3001               	movlw	1
  3433     0327  07FD               	addwf	___lwmod@counter,f
  3434     0328                     l1436:
  3435     0328  1FA1               	btfss	___lwmod@divisor+1,7
  3436     0329  2B2B               	goto	u881
  3437     032A  2B2C               	goto	u880
  3438     032B                     u881:
  3439     032B  2B1F               	goto	l1432
  3440     032C                     u880:
  3441     032C                     l1438:
  3442     032C  0821               	movf	___lwmod@divisor+1,w
  3443     032D  0223               	subwf	___lwmod@dividend+1,w
  3444     032E  1D03               	skipz
  3445     032F  2B32               	goto	u895
  3446     0330  0820               	movf	___lwmod@divisor,w
  3447     0331  0222               	subwf	___lwmod@dividend,w
  3448     0332                     u895:
  3449     0332  1C03               	skipc
  3450     0333  2B35               	goto	u891
  3451     0334  2B36               	goto	u890
  3452     0335                     u891:
  3453     0335  2B3C               	goto	l1442
  3454     0336                     u890:
  3455     0336                     l1440:
  3456     0336  0820               	movf	___lwmod@divisor,w
  3457     0337  02A2               	subwf	___lwmod@dividend,f
  3458     0338  0821               	movf	___lwmod@divisor+1,w
  3459     0339  1C03               	skipc
  3460     033A  03A3               	decf	___lwmod@dividend+1,f
  3461     033B  02A3               	subwf	___lwmod@dividend+1,f
  3462     033C                     l1442:
  3463     033C  3001               	movlw	1
  3464     033D                     u905:
  3465     033D  1003               	clrc
  3466     033E  0CA1               	rrf	___lwmod@divisor+1,f
  3467     033F  0CA0               	rrf	___lwmod@divisor,f
  3468     0340  3EFF               	addlw	-1
  3469     0341  1D03               	skipz
  3470     0342  2B3D               	goto	u905
  3471     0343                     l1444:
  3472     0343  3001               	movlw	1
  3473     0344  02FD               	subwf	___lwmod@counter,f
  3474     0345  1D03               	btfss	3,2
  3475     0346  2B48               	goto	u911
  3476     0347  2B49               	goto	u910
  3477     0348                     u911:
  3478     0348  2B2C               	goto	l1438
  3479     0349                     u910:
  3480     0349                     l1446:
  3481     0349  0823               	movf	___lwmod@dividend+1,w
  3482     034A  00A1               	movwf	?___lwmod+1
  3483     034B  0822               	movf	___lwmod@dividend,w
  3484     034C  00A0               	movwf	?___lwmod
  3485     034D                     l578:
  3486     034D  0008               	return
  3487     034E                     __end_of___lwmod:
  3488                           
  3489                           	psect	text18
  3490     0404                     __ptext18:	
  3491 ;; *************** function ___lwdiv *****************
  3492 ;; Defined at:
  3493 ;;		line 5 in file "C:\Program Files\Microchip\xc8\v2.50\pic\sources\c90\common\lwdiv.c"
  3494 ;; Parameters:    Size  Location     Type
  3495 ;;  divisor         2    6[COMMON] unsigned int 
  3496 ;;  dividend        2    8[COMMON] unsigned int 
  3497 ;; Auto vars:     Size  Location     Type
  3498 ;;  quotient        2   10[COMMON] unsigned int 
  3499 ;;  counter         1   12[COMMON] unsigned char 
  3500 ;; Return value:  Size  Location     Type
  3501 ;;                  2    6[COMMON] unsigned int 
  3502 ;; Registers used:
  3503 ;;		wreg, status,2, status,0
  3504 ;; Tracked objects:
  3505 ;;		On entry : 0/0
  3506 ;;		On exit  : 0/0
  3507 ;;		Unchanged: 0/0
  3508 ;; Data sizes:     COMMON   BANK0   BANK1   BANK2
  3509 ;;      Params:         4       0       0       0
  3510 ;;      Locals:         3       0       0       0
  3511 ;;      Temps:          0       0       0       0
  3512 ;;      Totals:         7       0       0       0
  3513 ;;Total ram usage:        7 bytes
  3514 ;; Hardware stack levels used: 1
  3515 ;; This function calls:
  3516 ;;		Nothing
  3517 ;; This function is called by:
  3518 ;;		_pwm_percent
  3519 ;;		_printf
  3520 ;; This function uses a non-reentrant model
  3521 ;;
  3522                           
  3523     0404                     ___lwdiv:	
  3524                           ;psect for function ___lwdiv
  3525                           
  3526     0404                     l1402:	
  3527                           ;incstack = 0
  3528                           ; Regs used in ___lwdiv: [wreg+status,2+status,0]
  3529                           
  3530     0404  01FA               	clrf	___lwdiv@quotient
  3531     0405  01FB               	clrf	___lwdiv@quotient+1
  3532     0406                     l1404:
  3533     0406  0876               	movf	___lwdiv@divisor,w
  3534     0407  0477               	iorwf	___lwdiv@divisor+1,w
  3535     0408  1903               	btfsc	3,2
  3536     0409  2C0B               	goto	u791
  3537     040A  2C0C               	goto	u790
  3538     040B                     u791:
  3539     040B  2C41               	goto	l1424
  3540     040C                     u790:
  3541     040C                     l1406:
  3542     040C  3001               	movlw	1
  3543     040D  00FC               	movwf	___lwdiv@counter
  3544     040E  2C18               	goto	l1412
  3545     040F                     l1408:
  3546     040F  3001               	movlw	1
  3547     0410                     u805:
  3548     0410  1003               	clrc
  3549     0411  0DF6               	rlf	___lwdiv@divisor,f
  3550     0412  0DF7               	rlf	___lwdiv@divisor+1,f
  3551     0413  3EFF               	addlw	-1
  3552     0414  1D03               	skipz
  3553     0415  2C10               	goto	u805
  3554     0416                     l1410:
  3555     0416  3001               	movlw	1
  3556     0417  07FC               	addwf	___lwdiv@counter,f
  3557     0418                     l1412:
  3558     0418  1FF7               	btfss	___lwdiv@divisor+1,7
  3559     0419  2C1B               	goto	u811
  3560     041A  2C1C               	goto	u810
  3561     041B                     u811:
  3562     041B  2C0F               	goto	l1408
  3563     041C                     u810:
  3564     041C                     l1414:
  3565     041C  3001               	movlw	1
  3566     041D                     u825:
  3567     041D  1003               	clrc
  3568     041E  0DFA               	rlf	___lwdiv@quotient,f
  3569     041F  0DFB               	rlf	___lwdiv@quotient+1,f
  3570     0420  3EFF               	addlw	-1
  3571     0421  1D03               	skipz
  3572     0422  2C1D               	goto	u825
  3573     0423  0877               	movf	___lwdiv@divisor+1,w
  3574     0424  0279               	subwf	___lwdiv@dividend+1,w
  3575     0425  1D03               	skipz
  3576     0426  2C29               	goto	u835
  3577     0427  0876               	movf	___lwdiv@divisor,w
  3578     0428  0278               	subwf	___lwdiv@dividend,w
  3579     0429                     u835:
  3580     0429  1C03               	skipc
  3581     042A  2C2C               	goto	u831
  3582     042B  2C2D               	goto	u830
  3583     042C                     u831:
  3584     042C  2C34               	goto	l1420
  3585     042D                     u830:
  3586     042D                     l1416:
  3587     042D  0876               	movf	___lwdiv@divisor,w
  3588     042E  02F8               	subwf	___lwdiv@dividend,f
  3589     042F  0877               	movf	___lwdiv@divisor+1,w
  3590     0430  1C03               	skipc
  3591     0431  03F9               	decf	___lwdiv@dividend+1,f
  3592     0432  02F9               	subwf	___lwdiv@dividend+1,f
  3593     0433                     l1418:
  3594     0433  147A               	bsf	___lwdiv@quotient,0
  3595     0434                     l1420:
  3596     0434  3001               	movlw	1
  3597     0435                     u845:
  3598     0435  1003               	clrc
  3599     0436  0CF7               	rrf	___lwdiv@divisor+1,f
  3600     0437  0CF6               	rrf	___lwdiv@divisor,f
  3601     0438  3EFF               	addlw	-1
  3602     0439  1D03               	skipz
  3603     043A  2C35               	goto	u845
  3604     043B                     l1422:
  3605     043B  3001               	movlw	1
  3606     043C  02FC               	subwf	___lwdiv@counter,f
  3607     043D  1D03               	btfss	3,2
  3608     043E  2C40               	goto	u851
  3609     043F  2C41               	goto	u850
  3610     0440                     u851:
  3611     0440  2C1C               	goto	l1414
  3612     0441                     u850:
  3613     0441                     l1424:
  3614     0441  087B               	movf	___lwdiv@quotient+1,w
  3615     0442  00F7               	movwf	?___lwdiv+1
  3616     0443  087A               	movf	___lwdiv@quotient,w
  3617     0444  00F6               	movwf	?___lwdiv
  3618     0445                     l568:
  3619     0445  0008               	return
  3620     0446                     __end_of___lwdiv:
  3621                           
  3622                           	psect	text19
  3623     01E8                     __ptext19:	
  3624 ;; *************** function _get_hall_status *****************
  3625 ;; Defined at:
  3626 ;;		line 274 in file "main.c"
  3627 ;; Parameters:    Size  Location     Type
  3628 ;;		None
  3629 ;; Auto vars:     Size  Location     Type
  3630 ;;		None
  3631 ;; Return value:  Size  Location     Type
  3632 ;;                  1    wreg      unsigned char 
  3633 ;; Registers used:
  3634 ;;		wreg, status,2, status,0
  3635 ;; Tracked objects:
  3636 ;;		On entry : 0/0
  3637 ;;		On exit  : 0/0
  3638 ;;		Unchanged: 0/0
  3639 ;; Data sizes:     COMMON   BANK0   BANK1   BANK2
  3640 ;;      Params:         0       0       0       0
  3641 ;;      Locals:         0       0       0       0
  3642 ;;      Temps:          1       0       0       0
  3643 ;;      Totals:         1       0       0       0
  3644 ;;Total ram usage:        1 bytes
  3645 ;; Hardware stack levels used: 1
  3646 ;; This function calls:
  3647 ;;		Nothing
  3648 ;; This function is called by:
  3649 ;;		_main
  3650 ;;		_shutter_safe
  3651 ;; This function uses a non-reentrant model
  3652 ;;
  3653                           
  3654     01E8                     _get_hall_status:	
  3655                           ;psect for function _get_hall_status
  3656                           
  3657     01E8                     l1498:	
  3658                           ;incstack = 0
  3659                           ; Regs used in _get_hall_status: [wreg+status,2+status,0]
  3660                           
  3661                           
  3662                           ;main.c: 275: return PORTAbits.RA3;
  3663     01E8  1283               	bcf	3,5	;RP0=0, select bank0
  3664     01E9  1303               	bcf	3,6	;RP1=0, select bank0
  3665     01EA  0C05               	rrf	5,w	;volatile
  3666     01EB  00F0               	movwf	??_get_hall_status
  3667     01EC  0CF0               	rrf	??_get_hall_status,f
  3668     01ED  0C70               	rrf	??_get_hall_status,w
  3669     01EE  3901               	andlw	1
  3670     01EF                     l123:
  3671     01EF  0008               	return
  3672     01F0                     __end_of_get_hall_status:
  3673                           
  3674                           	psect	text20
  3675     04CD                     __ptext20:	
  3676 ;; *************** function _atoi *****************
  3677 ;; Defined at:
  3678 ;;		line 5 in file "C:\Program Files\Microchip\xc8\v2.50\pic\sources\c90\common\atoi.c"
  3679 ;; Parameters:    Size  Location     Type
  3680 ;;  s               1    6[COMMON] PTR const unsigned char 
  3681 ;;		 -> NULL(0), main@tmp(40), 
  3682 ;; Auto vars:     Size  Location     Type
  3683 ;;  a               2   11[COMMON] int 
  3684 ;;  sign            1   10[COMMON] unsigned char 
  3685 ;; Return value:  Size  Location     Type
  3686 ;;                  2    6[COMMON] int 
  3687 ;; Registers used:
  3688 ;;		wreg, fsr0l, fsr0h, status,2, status,0, pclath, cstack
  3689 ;; Tracked objects:
  3690 ;;		On entry : 0/0
  3691 ;;		On exit  : 0/0
  3692 ;;		Unchanged: 0/0
  3693 ;; Data sizes:     COMMON   BANK0   BANK1   BANK2
  3694 ;;      Params:         2       0       0       0
  3695 ;;      Locals:         3       0       0       0
  3696 ;;      Temps:          2       0       0       0
  3697 ;;      Totals:         7       0       0       0
  3698 ;;Total ram usage:        7 bytes
  3699 ;; Hardware stack levels used: 1
  3700 ;; Hardware stack levels required when called: 1
  3701 ;; This function calls:
  3702 ;;		___wmul
  3703 ;;		_isdigit
  3704 ;; This function is called by:
  3705 ;;		_main
  3706 ;; This function uses a non-reentrant model
  3707 ;;
  3708                           
  3709     04CD                     _atoi:	
  3710                           ;psect for function _atoi
  3711                           
  3712     04CD                     l1682:	
  3713                           ;incstack = 0
  3714                           ; Regs used in _atoi: [wreg-fsr0h+status,2+status,0+pclath+cstack]
  3715                           
  3716     04CD  2CD0               	goto	l1686
  3717     04CE                     l1684:
  3718     04CE  3001               	movlw	1
  3719     04CF  07F6               	addwf	atoi@s,f
  3720     04D0                     l1686:
  3721     04D0  0876               	movf	atoi@s,w
  3722     04D1  0084               	movwf	4
  3723     04D2  3020               	movlw	32
  3724     04D3  1383               	bcf	3,7	;select IRP bank0
  3725     04D4  0600               	xorwf	0,w
  3726     04D5  1903               	btfsc	3,2
  3727     04D6  2CD8               	goto	u1281
  3728     04D7  2CD9               	goto	u1280
  3729     04D8                     u1281:
  3730     04D8  2CCE               	goto	l1684
  3731     04D9                     u1280:
  3732     04D9                     l1688:
  3733     04D9  0876               	movf	atoi@s,w
  3734     04DA  0084               	movwf	4
  3735     04DB  3009               	movlw	9
  3736     04DC  0600               	xorwf	0,w
  3737     04DD  1903               	btfsc	3,2
  3738     04DE  2CE0               	goto	u1291
  3739     04DF  2CE1               	goto	u1290
  3740     04E0                     u1291:
  3741     04E0  2CCE               	goto	l1684
  3742     04E1                     u1290:
  3743     04E1                     l1690:
  3744     04E1  01FB               	clrf	atoi@a
  3745     04E2  01FC               	clrf	atoi@a+1
  3746     04E3  01FA               	clrf	atoi@sign
  3747     04E4                     l1692:
  3748     04E4  0876               	movf	atoi@s,w
  3749     04E5  0084               	movwf	4
  3750     04E6  302D               	movlw	45
  3751     04E7  0600               	xorwf	0,w
  3752     04E8  1D03               	btfss	3,2
  3753     04E9  2CEB               	goto	u1301
  3754     04EA  2CEC               	goto	u1300
  3755     04EB                     u1301:
  3756     04EB  2CF1               	goto	l1696
  3757     04EC                     u1300:
  3758     04EC                     l1694:
  3759     04EC  3001               	movlw	1
  3760     04ED  07FA               	addwf	atoi@sign,f
  3761     04EE  3001               	movlw	1
  3762     04EF  07F6               	addwf	atoi@s,f
  3763     04F0  2D1B               	goto	l1704
  3764     04F1                     l1696:
  3765     04F1  0876               	movf	atoi@s,w
  3766     04F2  0084               	movwf	4
  3767     04F3  302B               	movlw	43
  3768     04F4  0600               	xorwf	0,w
  3769     04F5  1D03               	btfss	3,2
  3770     04F6  2CF8               	goto	u1311
  3771     04F7  2CF9               	goto	u1310
  3772     04F8                     u1311:
  3773     04F8  2D1B               	goto	l1704
  3774     04F9                     u1310:
  3775     04F9                     l1698:
  3776     04F9  3001               	movlw	1
  3777     04FA  07F6               	addwf	atoi@s,f
  3778     04FB  2D1B               	goto	l1704
  3779     04FC                     l1700:
  3780     04FC  0876               	movf	atoi@s,w
  3781     04FD  0084               	movwf	4
  3782     04FE  087C               	movf	atoi@a+1,w
  3783     04FF  00F1               	movwf	___wmul@multiplier+1
  3784     0500  087B               	movf	atoi@a,w
  3785     0501  00F0               	movwf	___wmul@multiplier
  3786     0502  300A               	movlw	10
  3787     0503  00F2               	movwf	___wmul@multiplicand
  3788     0504  3000               	movlw	0
  3789     0505  00F3               	movwf	___wmul@multiplicand+1
  3790     0506  118A  2274  118A   	fcall	___wmul
  3791     0509  1383               	bcf	3,7	;select IRP bank0
  3792     050A  0800               	movf	0,w
  3793     050B  0770               	addwf	?___wmul,w
  3794     050C  00F8               	movwf	??_atoi
  3795     050D  3000               	movlw	0
  3796     050E  1803               	skipnc
  3797     050F  3001               	movlw	1
  3798     0510  0771               	addwf	?___wmul+1,w
  3799     0511  00F9               	movwf	??_atoi+1
  3800     0512  0878               	movf	??_atoi,w
  3801     0513  3ED0               	addlw	208
  3802     0514  00FB               	movwf	atoi@a
  3803     0515  0879               	movf	??_atoi+1,w
  3804     0516  1803               	skipnc
  3805     0517  3E01               	addlw	1
  3806     0518  3EFF               	addlw	255
  3807     0519  00FC               	movwf	atoi@a+1
  3808     051A  2CF9               	goto	l1698
  3809     051B                     l1704:
  3810     051B  0876               	movf	atoi@s,w
  3811     051C  0084               	movwf	4
  3812     051D  0800               	movf	0,w
  3813     051E  118A  2212  118A   	fcall	_isdigit
  3814     0521  1803               	btfsc	3,0
  3815     0522  2D24               	goto	u1321
  3816     0523  2D25               	goto	u1320
  3817     0524                     u1321:
  3818     0524  2CFC               	goto	l1700
  3819     0525                     u1320:
  3820     0525                     l1706:
  3821     0525  087A               	movf	atoi@sign,w
  3822     0526  1903               	btfsc	3,2
  3823     0527  2D29               	goto	u1331
  3824     0528  2D2A               	goto	u1330
  3825     0529                     u1331:
  3826     0529  2D36               	goto	l1712
  3827     052A                     u1330:
  3828     052A                     l1708:
  3829     052A  097B               	comf	atoi@a,w
  3830     052B  00F8               	movwf	??_atoi
  3831     052C  097C               	comf	atoi@a+1,w
  3832     052D  00F9               	movwf	??_atoi+1
  3833     052E  0AF8               	incf	??_atoi,f
  3834     052F  1903               	skipnz
  3835     0530  0AF9               	incf	??_atoi+1,f
  3836     0531  0878               	movf	??_atoi,w
  3837     0532  00F6               	movwf	?_atoi
  3838     0533  0879               	movf	??_atoi+1,w
  3839     0534  00F7               	movwf	?_atoi+1
  3840     0535  2D3A               	goto	l759
  3841     0536                     l1712:
  3842     0536  087C               	movf	atoi@a+1,w
  3843     0537  00F7               	movwf	?_atoi+1
  3844     0538  087B               	movf	atoi@a,w
  3845     0539  00F6               	movwf	?_atoi
  3846     053A                     l759:
  3847     053A  0008               	return
  3848     053B                     __end_of_atoi:
  3849                           
  3850                           	psect	text21
  3851     0212                     __ptext21:	
  3852 ;; *************** function _isdigit *****************
  3853 ;; Defined at:
  3854 ;;		line 8 in file "C:\Program Files\Microchip\xc8\v2.50\pic\sources\c90\common\isdigit.c"
  3855 ;; Parameters:    Size  Location     Type
  3856 ;;  c               1    wreg     unsigned char 
  3857 ;; Auto vars:     Size  Location     Type
  3858 ;;  c               1    1[COMMON] unsigned char 
  3859 ;; Return value:  Size  Location     Type
  3860 ;;		None               void
  3861 ;; Registers used:
  3862 ;;		wreg, status,2, status,0
  3863 ;; Tracked objects:
  3864 ;;		On entry : 0/0
  3865 ;;		On exit  : 0/0
  3866 ;;		Unchanged: 0/0
  3867 ;; Data sizes:     COMMON   BANK0   BANK1   BANK2
  3868 ;;      Params:         0       0       0       0
  3869 ;;      Locals:         2       0       0       0
  3870 ;;      Temps:          0       0       0       0
  3871 ;;      Totals:         2       0       0       0
  3872 ;;Total ram usage:        2 bytes
  3873 ;; Hardware stack levels used: 1
  3874 ;; This function calls:
  3875 ;;		Nothing
  3876 ;; This function is called by:
  3877 ;;		_atoi
  3878 ;; This function uses a non-reentrant model
  3879 ;;
  3880                           
  3881     0212                     _isdigit:	
  3882                           ;psect for function _isdigit
  3883                           
  3884                           
  3885                           ;incstack = 0
  3886                           ; Regs used in _isdigit: [wreg+status,2+status,0]
  3887                           ;isdigit@c stored from wreg
  3888     0212  00F1               	movwf	isdigit@c
  3889     0213                     l1566:
  3890     0213  01F0               	clrf	_isdigit$763
  3891     0214                     l1568:
  3892     0214  303A               	movlw	58
  3893     0215  0271               	subwf	isdigit@c,w
  3894     0216  1803               	skipnc
  3895     0217  2A19               	goto	u1111
  3896     0218  2A1A               	goto	u1110
  3897     0219                     u1111:
  3898     0219  2A22               	goto	l1574
  3899     021A                     u1110:
  3900     021A                     l1570:
  3901     021A  3030               	movlw	48
  3902     021B  0271               	subwf	isdigit@c,w
  3903     021C  1C03               	skipc
  3904     021D  2A1F               	goto	u1121
  3905     021E  2A20               	goto	u1120
  3906     021F                     u1121:
  3907     021F  2A22               	goto	l1574
  3908     0220                     u1120:
  3909     0220                     l1572:
  3910     0220  3001               	movlw	1
  3911     0221  00F0               	movwf	_isdigit$763
  3912     0222                     l1574:
  3913     0222  0C70               	rrf	_isdigit$763,w
  3914     0223                     l764:
  3915     0223  0008               	return
  3916     0224                     __end_of_isdigit:
  3917                           
  3918                           	psect	text22
  3919     0274                     __ptext22:	
  3920 ;; *************** function ___wmul *****************
  3921 ;; Defined at:
  3922 ;;		line 15 in file "C:\Program Files\Microchip\xc8\v2.50\pic\sources\c90\common\Umul16.c"
  3923 ;; Parameters:    Size  Location     Type
  3924 ;;  multiplier      2    0[COMMON] unsigned int 
  3925 ;;  multiplicand    2    2[COMMON] unsigned int 
  3926 ;; Auto vars:     Size  Location     Type
  3927 ;;  product         2    4[COMMON] unsigned int 
  3928 ;; Return value:  Size  Location     Type
  3929 ;;                  2    0[COMMON] unsigned int 
  3930 ;; Registers used:
  3931 ;;		wreg, status,2, status,0
  3932 ;; Tracked objects:
  3933 ;;		On entry : 0/0
  3934 ;;		On exit  : 0/0
  3935 ;;		Unchanged: 0/0
  3936 ;; Data sizes:     COMMON   BANK0   BANK1   BANK2
  3937 ;;      Params:         4       0       0       0
  3938 ;;      Locals:         2       0       0       0
  3939 ;;      Temps:          0       0       0       0
  3940 ;;      Totals:         6       0       0       0
  3941 ;;Total ram usage:        6 bytes
  3942 ;; Hardware stack levels used: 1
  3943 ;; This function calls:
  3944 ;;		Nothing
  3945 ;; This function is called by:
  3946 ;;		_pwm_percent
  3947 ;;		_atoi
  3948 ;; This function uses a non-reentrant model
  3949 ;;
  3950                           
  3951     0274                     ___wmul:	
  3952                           ;psect for function ___wmul
  3953                           
  3954     0274                     l1502:	
  3955                           ;incstack = 0
  3956                           ; Regs used in ___wmul: [wreg+status,2+status,0]
  3957                           
  3958     0274  01F4               	clrf	___wmul@product
  3959     0275  01F5               	clrf	___wmul@product+1
  3960     0276                     l1504:
  3961     0276  1C70               	btfss	___wmul@multiplier,0
  3962     0277  2A79               	goto	u991
  3963     0278  2A7A               	goto	u990
  3964     0279                     u991:
  3965     0279  2A80               	goto	l296
  3966     027A                     u990:
  3967     027A                     l1506:
  3968     027A  0872               	movf	___wmul@multiplicand,w
  3969     027B  07F4               	addwf	___wmul@product,f
  3970     027C  1803               	skipnc
  3971     027D  0AF5               	incf	___wmul@product+1,f
  3972     027E  0873               	movf	___wmul@multiplicand+1,w
  3973     027F  07F5               	addwf	___wmul@product+1,f
  3974     0280                     l296:
  3975     0280  3001               	movlw	1
  3976     0281                     u1005:
  3977     0281  1003               	clrc
  3978     0282  0DF2               	rlf	___wmul@multiplicand,f
  3979     0283  0DF3               	rlf	___wmul@multiplicand+1,f
  3980     0284  3EFF               	addlw	-1
  3981     0285  1D03               	skipz
  3982     0286  2A81               	goto	u1005
  3983     0287                     l1508:
  3984     0287  3001               	movlw	1
  3985     0288                     u1015:
  3986     0288  1003               	clrc
  3987     0289  0CF1               	rrf	___wmul@multiplier+1,f
  3988     028A  0CF0               	rrf	___wmul@multiplier,f
  3989     028B  3EFF               	addlw	-1
  3990     028C  1D03               	skipz
  3991     028D  2A88               	goto	u1015
  3992     028E                     l1510:
  3993     028E  0870               	movf	___wmul@multiplier,w
  3994     028F  0471               	iorwf	___wmul@multiplier+1,w
  3995     0290  1D03               	btfss	3,2
  3996     0291  2A93               	goto	u1021
  3997     0292  2A94               	goto	u1020
  3998     0293                     u1021:
  3999     0293  2A76               	goto	l1504
  4000     0294                     u1020:
  4001     0294                     l1512:
  4002     0294  0875               	movf	___wmul@product+1,w
  4003     0295  00F1               	movwf	?___wmul+1
  4004     0296  0874               	movf	___wmul@product,w
  4005     0297  00F0               	movwf	?___wmul
  4006     0298                     l298:
  4007     0298  0008               	return
  4008     0299                     __end_of___wmul:
  4009     0001                     ___latbits      equ	1
  4010     007E                     btemp           set	126	;btemp
  4011     007E                     wtemp0          set	126
  4012                           
  4013                           	psect	idloc
  4014                           
  4015                           ;Config register IDLOC0 @ 0x2000
  4016                           ;	unspecified, using default values
  4017     2000                     	org	8192
  4018     2000  3FFF               	dw	16383
  4019                           
  4020                           ;Config register IDLOC1 @ 0x2001
  4021                           ;	unspecified, using default values
  4022     2001                     	org	8193
  4023     2001  3FFF               	dw	16383
  4024                           
  4025                           ;Config register IDLOC2 @ 0x2002
  4026                           ;	unspecified, using default values
  4027     2002                     	org	8194
  4028     2002  3FFF               	dw	16383
  4029                           
  4030                           ;Config register IDLOC3 @ 0x2003
  4031                           ;	unspecified, using default values
  4032     2003                     	org	8195
  4033     2003  3FFF               	dw	16383
  4034                           
  4035                           	psect	config
  4036                           
  4037                           ;Config register CONFIG @ 0x2007
  4038                           ;	Oscillator Selection bits
  4039                           ;	FOSC = INTOSCIO, INTOSC oscillator: I/O function on RA6/OSC2/CLKOUT pin, I/O function 
      +                          on RA7/OSC1/CLKIN
  4040                           ;	Watchdog Timer Enable bit
  4041                           ;	WDTE = OFF, WDT disabled
  4042                           ;	Power-up Timer Enable bit
  4043                           ;	PWRTE = OFF, PWRT disabled
  4044                           ;	RA5/MCLR/VPP Pin Function Select bit
  4045                           ;	MCLRE = ON, RA5/MCLR/VPP pin function is MCLR
  4046                           ;	Brown-out Detect Enable bit
  4047                           ;	BOREN = ON, BOD enabled
  4048                           ;	Low-Voltage Programming Enable bit
  4049                           ;	LVP = OFF, RB4/PGM pin has digital I/O function, HV on MCLR must be used for programmi
      +                          ng
  4050                           ;	Data EE Memory Code Protection bit
  4051                           ;	CPD = OFF, Data memory code protection off
  4052                           ;	Flash Program Memory Code Protection bit
  4053                           ;	CP = OFF, Code protection off
  4054     2007                     	org	8199
  4055     2007  3F78               	dw	16248

Data Sizes:
    Strings     200
    Constant    10
    Data        0
    BSS         6
    Persistent  0
    Stack       0

Auto Spaces:
    Space          Size  Autos    Used
    COMMON           14     14      14
    BANK0            80     74      80
    BANK1            80      0       0
    BANK2            80      0       0

Pointer List with Targets:

    atoi@s	PTR const unsigned char  size(1) Largest target is 40
		 -> main@tmp(BANK0[40]), NULL(NULL[0]), 

    main@ptr	PTR unsigned char  size(1) Largest target is 40
		 -> main@tmp(BANK0[40]), NULL(NULL[0]), 

    printf@ap	PTR void [1] size(1) Largest target is 2
		 -> ?_printf(BANK0[2]), 

    printf@f	PTR const unsigned char  size(1) Largest target is 45
		 -> STR_11(CODE[11]), STR_13(CODE[18]), STR_15(CODE[11]), STR_16(CODE[45]), 
		 -> STR_17(CODE[41]), STR_18(CODE[25]), STR_7(CODE[16]), STR_9(CODE[11]), 

    sp__strchr	PTR unsigned char  size(1) Largest target is 2
		 -> STR_10(CODE[2]), STR_12(CODE[2]), STR_14(CODE[2]), STR_6(CODE[2]), 
		 -> STR_8(CODE[2]), NULL(NULL[0]), 

    sp__strtok	PTR unsigned char  size(1) Largest target is 40
		 -> main@tmp(BANK0[40]), NULL(NULL[0]), 

    strchr@ptr	PTR const unsigned char  size(1) Largest target is 2
		 -> STR_10(CODE[2]), STR_12(CODE[2]), STR_14(CODE[2]), STR_6(CODE[2]), 
		 -> STR_8(CODE[2]), 

    strcmp@s1	PTR const unsigned char  size(1) Largest target is 4
		 -> main@rcmd(BANK0[4]), 

    strcmp@s2	PTR const unsigned char  size(1) Largest target is 4
		 -> STR_1(CODE[4]), STR_2(CODE[4]), STR_3(CODE[4]), STR_4(CODE[4]), 
		 -> STR_5(CODE[4]), 

    strcspn@s1	PTR const unsigned char  size(1) Largest target is 40
		 -> main@tmp(BANK0[40]), NULL(NULL[0]), 

    strcspn@s2	PTR const unsigned char  size(1) Largest target is 2
		 -> STR_10(CODE[2]), STR_12(CODE[2]), STR_14(CODE[2]), STR_6(CODE[2]), 
		 -> STR_8(CODE[2]), 

    strspn@s1	PTR const unsigned char  size(1) Largest target is 40
		 -> main@tmp(BANK0[40]), NULL(NULL[0]), 

    strspn@s2	PTR const unsigned char  size(1) Largest target is 2
		 -> STR_10(CODE[2]), STR_12(CODE[2]), STR_14(CODE[2]), STR_6(CODE[2]), 
		 -> STR_8(CODE[2]), 

    strtok@s1	PTR unsigned char  size(1) Largest target is 40
		 -> main@tmp(BANK0[40]), NULL(NULL[0]), 

    strtok@s2	PTR const unsigned char  size(1) Largest target is 2
		 -> STR_10(CODE[2]), STR_12(CODE[2]), STR_14(CODE[2]), STR_6(CODE[2]), 
		 -> STR_8(CODE[2]), 

    strtok@sp	PTR unsigned char  size(1) Largest target is 40
		 -> main@tmp(BANK0[40]), NULL(NULL[0]), 

    uart_gets@buffer	PTR unsigned char  size(1) Largest target is 40
		 -> main@tmp(BANK0[40]), 


Critical Paths under _main in COMMON

    _uart_gets->_putch
    _strtok->_strcspn
    _strtok->_strspn
    _strspn->_strchr
    _strcspn->_strchr
    _pwm_percent->___lwdiv
    _printf->___lwmod
    ___lwmod->___lwdiv
    ___lwdiv->___wmul
    _atoi->___wmul

Critical Paths under _main in BANK0

    _main->_ps_laser_util_init
    _shutter_open->_pwm_percent
    _shutter_close->_pwm_percent
    _ps_laser_util_init->_shutter_safe
    _shutter_safe->_printf
    _printf->___lwmod

Critical Paths under _main in BANK1

    None.

Critical Paths under _main in BANK2

    None.

Call Graph Tables:

 ---------------------------------------------------------------------------------
 (Depth) Function   	        Calls       Base Space   Used Autos Params    Refs
 ---------------------------------------------------------------------------------
 (0) _main                                                52    52      0    6094
                                             24 BANK0     50    50      0
                               _atoi
                    _get_hall_status
                             _printf
                 _ps_laser_util_init
                           _pwm_init
                      _shutter_close
                       _shutter_open
                       _shutter_safe
                             _strcmp
                             _strtok
                          _uart_gets
                          _uart_init
 ---------------------------------------------------------------------------------
 (1) _uart_init                                            0     0      0       0
 ---------------------------------------------------------------------------------
 (1) _uart_gets                                            8     5      3     432
                                              1 COMMON     8     5      3
                              _getch
                              _putch
 ---------------------------------------------------------------------------------
 (2) _getch                                                1     1      0       1
 ---------------------------------------------------------------------------------
 (1) _strtok                                               2     0      2     580
                                              9 COMMON     2     0      2
                            _strcspn
                             _strspn
 ---------------------------------------------------------------------------------
 (2) _strspn                                               6     4      2     185
                                              3 COMMON     6     4      2
                             _strchr
 ---------------------------------------------------------------------------------
 (2) _strcspn                                              6     4      2     185
                                              3 COMMON     6     4      2
                             _strchr
 ---------------------------------------------------------------------------------
 (4) _strchr                                               3     0      3      92
                                              0 COMMON     3     0      3
 ---------------------------------------------------------------------------------
 (2) _strcmp                                               5     3      2     101
                                              0 COMMON     5     3      2
 ---------------------------------------------------------------------------------
 (1) _shutter_open                                         2     2      0     367
                                              5 BANK0      2     2      0
                        _pwm_percent
 ---------------------------------------------------------------------------------
 (1) _shutter_close                                        2     2      0     367
                                              5 BANK0      2     2      0
                        _pwm_percent
 ---------------------------------------------------------------------------------
 (2) _pwm_percent                                          5     5      0     367
                                              0 BANK0      5     5      0
                            ___lwdiv
                             ___wmul
 ---------------------------------------------------------------------------------
 (1) _pwm_init                                             0     0      0       0
 ---------------------------------------------------------------------------------
 (1) _ps_laser_util_init                                   5     5      0    1593
                                             19 BANK0      5     5      0
                             _printf
                       _shutter_safe
 ---------------------------------------------------------------------------------
 (1) _shutter_safe                                         1     1      0     773
                                             18 BANK0      1     1      0
                    _get_hall_status
                             _printf
 ---------------------------------------------------------------------------------
 (2) _printf                                              22    17      5     750
                                              4 BANK0     14     9      5
                            ___lwdiv
                            ___lwmod
                              _putch
 ---------------------------------------------------------------------------------
 (2) _putch                                                1     1      0      29
                                              0 COMMON     1     1      0
 ---------------------------------------------------------------------------------
 (3) ___lwmod                                              5     1      4     161
                                             13 COMMON     1     1      0
                                              0 BANK0      4     0      4
                            ___lwdiv (ARG)
 ---------------------------------------------------------------------------------
 (3) ___lwdiv                                              7     3      4     166
                                              6 COMMON     7     3      4
                             ___wmul (ARG)
 ---------------------------------------------------------------------------------
 (2) _get_hall_status                                      1     1      0       0
                                              0 COMMON     1     1      0
 ---------------------------------------------------------------------------------
 (1) _atoi                                                 7     5      2     411
                                              6 COMMON     7     5      2
                             ___wmul
                            _isdigit
 ---------------------------------------------------------------------------------
 (2) _isdigit                                              2     2      0      82
                                              0 COMMON     2     2      0
 ---------------------------------------------------------------------------------
 (3) ___wmul                                               6     2      4      96
                                              0 COMMON     6     2      4
 ---------------------------------------------------------------------------------
 Estimated maximum stack depth 4
 ---------------------------------------------------------------------------------

 Call Graph Graphs:

 _main (ROOT)
   _atoi
     ___wmul
     _isdigit
   _get_hall_status
   _printf
     ___lwdiv
       ___wmul (ARG)
     ___lwmod
       ___lwdiv (ARG)
     _putch
   _ps_laser_util_init
     _printf
     _shutter_safe
       _get_hall_status
       _printf
   _pwm_init
   _shutter_close
     _pwm_percent
       ___lwdiv
       ___wmul
   _shutter_open
     _pwm_percent
   _shutter_safe
   _strcmp
   _strtok
     _strcspn
       _strchr
     _strspn
       _strchr
   _uart_gets
     _getch
     _putch
   _uart_init

Address spaces:
Name               Size   Autos  Total    Usage
BITCOMMON           14      0       0      0.0%
BITBANK0            80      0       0      0.0%
BITBANK1            80      0       0      0.0%
BITBANK2            80      0       0      0.0%
COMMON              14     14      14    100.0%
BANK0               80     74      80    100.0%
BANK1               80      0       0      0.0%
BANK2               80      0       0      0.0%
STACK                0      0       0      0.0%
DATA                 0      0      94      0.0%


Microchip Technology PIC Macro Assembler V2.50 build 20240725155939 
Symbol Table                                                                                   Thu Jun 25 17:19:52 2026

                         pc 0002                 _pwm_percent 0489                          l13 0211  
                        l17 04CC                          fsr 0004         ___wmul@multiplicand 0072  
                       l120 0388                         l114 0403                         l123 01EF  
                       l117 03C5                         l150 01F1                         l126 0271  
                       l127 0273                         l160 0235                         l153 01F9  
                       l161 0236                         l170 05BA                         l147 0204  
                       l156 0224                         l158 022A                         l159 0230  
                       l292 0668                         l296 0280                         l801 0251  
                       l298 0298                         l812 0313                         l568 0445  
                       l578 034D                         l764 0223                         l772 02BD  
                       l759 053A                         l783 0488                         l796 02E8  
                       l799 0237                         _PR2 0092                         u810 041C  
                       u811 041B                         u805 0410                         u830 042D  
                       u910 0349                         u831 042C                         u911 0348  
                       u920 05C6                         u825 041D                         u905 033D  
                       u921 05C5                         u850 0441                         u930 05ED  
                       u851 0440                         u835 0429                         u931 05EC  
                       u860 031C                         u780 01F7                         u940 060D  
                       u845 0435                         u861 031B                         u781 01F6  
                       u941 060C                         u790 040C                         u950 0616  
                       u791 040B                         u951 0615                         u880 032C  
                       u960 061C                         u881 032B                         u961 061B  
                       u945 0609                         u890 0336                         u970 0658  
                       u891 0335                         u875 0320                         u971 0657  
                       u980 0668                         u981 0667                         u990 027A  
                       u991 0279                         u895 0332                         fsr0 0004  
                       indf 0000                _shutter_safe 0252                _shutter_open 0389  
       ps_laser_util_init@a 0035         ps_laser_util_init@i 0036                        l1400 01F7  
                      l1410 0416                        l1402 0404                        l1420 0434  
                      l1412 0418                        l1404 0406                        l1510 028E  
                      l1502 0274                        l1422 043B                        l1414 041C  
                      l1406 040C                        l1430 031C                        l1512 0294  
                      l1504 0276                        l1416 042D                        l1408 040F  
                      l1424 0441                        l1440 0336                        l1432 031F  
                      l1600 02D1                        l1506 027A                        l1418 0433  
                      l1442 033C                        l1434 0326                        l1450 05BB  
                      l1610 020A                        l1530 0492                        l1522 0243  
                      l1602 02E4                        l1508 0287                        l1700 04FC  
                      l1444 0343                        l1436 0328                        l1428 0314  
                      l1460 05CC                        l1452 05C0                        l1540 0258  
                      l1612 020E                        l1532 0494                        l1524 0250  
                      l1516 0237                        l1438 032C                        l1446 0349  
                      l1470 05EF                        l1462 05DF                        l1454 05C6  
                      l1542 025B                        l1630 03F3                        l1622 03CA  
                      l1606 0205                        l1534 04B3                        l1518 0241  
                      l1614 01FA                        l1712 0536                        l1704 051B  
                      l1472 05F4                        l1464 05E7                        l1456 05CB  
                      l1544 0260                        l1632 03F9                        l1624 03D4  
                      l1616 03C6                        l1608 0209                        l1536 04BF  
                      l1528 048C                        l1720 029E                        l1560 022E  
                      l1640 0542                        l1800 067D                        l1570 021A  
                      l1706 0525                        l1490 0625                        l1482 060E  
                      l1466 05E9                        l1554 0272                        l1546 026C  
                      l1538 0252                        l1634 03FE                        l1626 03E0  
                      l1722 02B1                        l1730 044B                        l1562 0234  
                      l1650 0561                        l1642 0549                        l1810 0689  
                      l1802 0680                        l1572 0220                        l1708 052A  
                      l1492 064B                        l1484 0616                        l1468 05ED  
                      l1548 026F                        l1628 03E6                        l1724 02B8  
                      l1716 0299                        l1580 02EC                        l1740 045F  
                      l1732 044F                        l1660 057B                        l1644 054D  
                      l1636 053B                        l1900 0796                        l1820 0692  
                      l1812 068B                        l1804 0684                        l1574 0222  
                      l1566 0213                        l1398 01F1                        l1494 064F  
                      l1486 061C                        l1478 05F6                        l1718 029A  
                      l1582 02EE                        l1750 0480                        l1742 0467  
                      l1734 0454                        l1558 0224                        l1662 0581  
                      l1654 0569                        l1646 0553                        l1638 053D  
                      l1910 07C4                        l1902 0799                        l1830 06A4  
                      l1822 069B                        l1814 068D                        l1806 0686  
                      l1568 0214                        l1488 0620                        l1496 0658  
                      l1760 034E                        l1592 02BE                        l1584 02F4  
                      l1752 0483                        l1728 0446                        l1672 0595  
                      l1664 0585                        l1656 056F                        l1648 0559  
                      l1912 07CD                        l1904 079C                        l1840 06CC  
                      l1832 06A9                        l1824 069F                        l1816 068F  
                      l1808 0688                        l1690 04E1                        l1682 04CD  
                      l1498 01E8                        l1770 036C                        l1762 0352  
                      l1594 02C1                        l1586 02FC                        l1578 02E9  
                      l1754 0486                        l1746 046C                        l1738 0456  
                      l1674 059D                        l1666 0589                        l1658 0575  
                      l1914 07D3                        l1906 07B6                        l1850 06FD  
                      l1842 06D9                        l1834 06B6                        l1826 06A1  
                      l1818 0691                        l1692 04E4                        l1684 04CE  
                      l1772 0376                        l1764 035D                        l1780 0398  
                      l1596 02C3                        l1588 030F                        l1756 0487  
                      l1748 0478                        l1676 05A3                        l1668 058E  
                      l1908 07BF                        l1860 071D                        l1844 06DE  
                      l1852 0701                        l1836 06BA                        l1828 06A3  
                      l1694 04EC                        l1686 04D0                        l1774 0384  
                      l1766 0360                        l1790 03C1                        l1782 039B  
                      l1598 02C9                        l1678 05A7                        l1870 0733  
                      l1862 0726                        l1854 0709                        l1918 07E0  
                      l1846 06EB                        l1838 06C7                        l1696 04F1  
                      l1688 04D9                        l1768 0361                        l1784 039C  
                      l1776 0389                        l1880 075C                        l1872 0740  
                      l1864 072B                        l1856 070F                        l1848 06F0  
                      l1792 0669                        l1698 04F9                        l1786 03A7  
                      l1778 038D                        l1890 077A                        l1882 075E  
                      l1874 0749                        l1866 072D                        l1858 0718  
                      l1794 0673                        l1788 03B2                        l1892 077F  
                      l1884 0763                        l1876 074E                        l1868 0732  
                      l1796 0677                        l1894 0788                        l1886 0764  
                      l1878 0757                        l1798 067A                        l1896 078D  
                      l1888 0771                        l1898 0791                        STR_1 00D0  
                      STR_2 00CC                        STR_3 00C4                        STR_4 00D4  
                      STR_5 00C8                        STR_6 00D8                        STR_7 0093  
                      STR_8 00D8                        STR_9 00B9                        u1020 0294  
                      u1100 0234                        u1021 0293                        u1005 0281  
                      u1101 0233                        u1110 021A                        u1030 0241  
                      u1015 0288                        u1111 0219                        u1031 0240  
                      u1120 0220                        u1040 0250                        u1200 0548  
                      u1121 021F                        u1041 024F                        u1201 0547  
                      u1050 0492                        u1130 02FC                        u1210 0553  
                      u1051 0491                        u1131 02FB                        u1211 0552  
                      u1300 04EC                        u1140 030F                        u1220 0559  
                      u1301 04EB                        u1141 030E                        u1221 0558  
                      u1310 04F9                        u1070 0260                        u1150 02D1  
                      u1230 056F                        u1311 04F8                        u1071 025F  
                      u1151 02D0                        u1231 056E                        u1320 0525  
                      u1160 02E4                        u1080 022A                        u1240 0575  
                      u1400 06B6                        u1321 0524                        u1065 04C3  
                      u1161 02E3                        u1081 0229                        u1241 0574  
                      u1401 06B5                        u1330 052A                        u1170 03F3  
                      u1090 022E                        u1250 057B                        u1410 06C7  
                      u1331 0529                        u1171 03F2                        u1091 022D  
                      u1251 057A                        u1411 06C6                        u1180 03FE  
                      u1340 02B1                        u1260 0594                        u1500 0763  
                      u1420 06D9                        u1181 03FD                        u1341 02B0  
                      u1261 0593                        u1501 0762                        u1421 06D8  
                      u1350 02B8                        u1270 05B9                        u1190 0542  
                      u1510 077F                        u1430 06EB                        u1175 03EF  
                      u1351 02B7                        u1271 05B8                        u1191 0541  
                      u1511 077E                        u1431 06EA                        u1280 04D9  
                      u1360 044B                        u1520 078D                        u1440 06FD  
                      u1281 04D8                        u1361 044A                        u1521 078C  
                      u1441 06FC                        u1290 04E1                        u1370 0454  
                      u1530 0796                        u1450 071D                        u1291 04E0  
                      u1371 0453                        u1275 05B5                        u1531 0795  
                      u1451 071C                        u1380 0467                        u1540 07C4  
                      u1460 072B                        u1381 0466                        u1541 07C3  
                      u1461 072A                        u1390 0480                        u1470 0732  
                      u1607 0367                        u1391 047F                        u1471 0731  
                      u1480 074E                        u1617 0372                        u1481 074D  
                      u1490 075C                        u1627 0380                        u1491 075B  
                      u1637 03D0                        u1557 0393                        u1567 03A2  
                      u1577 03AD                        u1587 03BC                        u1597 0358  
                      _RCIF 0065                        _TXIF 0064                        _atoi 04CD  
                      _main 0669                        btemp 007E                        start 0000  
             _shutter_close 034E                       ?_atoi 0076                       ?_main 0070  
                     STR_10 00D8                       STR_11 00A3                       STR_12 00D8  
                     STR_13 0081                       STR_14 00D8                       STR_15 00AE  
                     STR_16 0012                       STR_17 003F                       STR_18 0068  
                     _CMCON 001F                       _T2CON 0012             __end_of___lwdiv 0446  
           __end_of___lwmod 034E                       _RCREG 001A                       _RCSTA 0018  
                     _SPBRG 0099                       _PORTA 0005                       _PORTB 0006  
                     _TRISA 0085                       _TRISB 0086                       _TXREG 0019  
                     _TXSTA 0098                       _getch 0224             __end_of_dpowers 0012  
           __end_of_isdigit 0224                       atoi@a 007B                       atoi@s 0076  
                     _putch 01F0                       pclath 000A                       status 0003  
                     wtemp0 007E             __end_of_strcspn 02E9              ?_shutter_close 0070  
           __initialization 07F5                __end_of_atoi 053B                __end_of_main 07F5  
                    ??_atoi 0078                      ??_main 0038                      ?_getch 0070  
                    _CCPR1L 0015                      ?_putch 0070                      ___wmul 0274  
                 ??___lwdiv 007A                   ??___lwmod 007D                      _printf 05BB  
                    _strchr 0237                      _strcmp 0299                      _strtok 0446  
                    _strspn 02E9                   ??_isdigit 0070       shutter_safe@sht_alarm 0032  
          __end_of_pwm_init 0212                   ??_strcspn 0075     __end_of__initialization 07FD  
           ??_shutter_close 0025              __pcstackCOMMON 0070               __end_of_getch 0237  
              ?_pwm_percent 0070               __end_of_putch 01FA                  _dcf_on_off 006E  
                   ??_getch 0070                     ??_putch 0070                  __pbssBANK0 006A  
        pwm_percent@percent 0024                  __pmaintext 0669                     ?___wmul 0070  
          uart_gets@max_len 0072                     _CCP1CON 0017           ??_get_hall_status 0070  
                   ?_printf 0024                     ?_strchr 0070                     ?_strcmp 0070  
                   ?_strtok 0079                     ?_strspn 0073                  __stringtab 0002  
__end_of_ps_laser_util_init 0404                   ?_pwm_init 0070                     ___lwdiv 0404  
                   ___lwmod 0314                     __ptext1 01FA                     __ptext2 053B  
                   __ptext3 0224                     __ptext4 0446                     __ptext5 02E9  
                   __ptext6 02BE                     __ptext7 0237                     __ptext8 0299  
                   __ptext9 0389                     _dpowers 0008                   _T2CONbits 0012  
                   _isdigit 0212                     main@cmd 0064                     main@ptr 0069  
                   main@tmp 003C                     _strcspn 02BE        end_of_initialization 07FD  
         __end_of_uart_gets 05BB           __end_of_uart_init 0205                   _RCSTAbits 0018  
                   printf@c 0031                     printf@f 0024                  ??_pwm_init 0070  
                   strcmp@r 0074                  _sht_on_off 006D                     strspn@i 0077  
                 _PORTAbits 0005                   _PORTBbits 0006                  _sht_status 006B  
            __end_of___wmul 0299              __end_of_printf 0669              __end_of_strchr 0252  
            __end_of_strcmp 02BE              __end_of_strtok 0489              __end_of_strspn 0314  
       start_initialization 07F5               ?_shutter_safe 0070               ?_shutter_open 0070  
           _get_hall_status 01E8       __end_of_shutter_close 0389                    ??___wmul 0074  
                  ??_printf 0029                    ??_strchr 0073                    ??_strcmp 0072  
                  ??_strtok 007B                    ??_strspn 0075         pwm_percent@hw_value 0022  
            ??_shutter_safe 007E              ??_shutter_open 0025                   ___latbits 0001  
             __pcstackBANK0 0020            ___lwdiv@dividend 0078             uart_gets@buffer 0071  
                  ?___lwdiv 0076                    ?___lwmod 0020                   __pstrings 0002  
                 _ld_on_off 006F          _ps_laser_util_init 03C6                    ?_isdigit 0070  
               _hall_status 006C         ?_ps_laser_util_init 0070            ___lwdiv@quotient 007A  
   __end_of_get_hall_status 01F0                    ?_strcspn 0073              ___wmul@product 0074  
      ??_ps_laser_util_init 0033                   _uart_gets 053B                  uart_gets@c 0078  
                 _uart_init 01FA                 __stringbase 0007           ___wmul@multiplier 0070  
                printf@flag 002D                  printf@prec 002E        __end_of_shutter_safe 0274  
      __end_of_shutter_open 03C6                  ?_uart_gets 0071                  ?_uart_init 0070  
             ??_pwm_percent 0020          __end_of__stringtab 0008                 _isdigit$763 0070  
           ___lwdiv@divisor 0076             ___lwdiv@counter 007C                    __ptext10 034E  
                  __ptext11 0489                    __ptext20 04CD                    __ptext12 0205  
                  __ptext21 0212                    __ptext13 03C6                    __ptext22 0274  
                  __ptext14 0252                    __ptext15 05BB                    __ptext16 01F0  
                  __ptext17 0314                    __ptext18 0404                    __ptext19 01E8  
          ?_get_hall_status 0070                    atoi@sign 007A                    _pwm_init 0205  
                 printf@val 002F                    main@rcmd 0065         __end_of_pwm_percent 04CD  
                 putch@byte 0070                    isdigit@c 0071                   strchr@chr 0071  
          ___lwmod@dividend 0022                   strchr@ptr 0070                   strcspn@s1 0073  
                 strcspn@s2 0074                   stringcode 0002                 ??_uart_gets 0074  
               ??_uart_init 0070                    printf@ap 002C                uart_gets@idx 0076  
                  strcmp@s1 0070                    strcmp@s2 0071             ___lwmod@divisor 0020  
           ___lwmod@counter 007D                    strcspn@i 0077                    stringdir 0002  
                  stringtab 0002                    strtok@s1 0079                    strtok@s2 007A  
                  strspn@s1 0073                    strspn@s2 0074                    strtok@sp 006A  
