

Microchip MPLAB XC8 Assembler V2.41 build 20230208172133 
                                                                                               Wed Oct 18 11:49:39 2023

Microchip MPLAB XC8 C Compiler v2.41 (Free license) build 20230208172133 Og1 
     1                           	processor	16F648A
     2                           	pagewidth 120
     3                           	opt	flic
     4                           	psect	strings,global,class=STRING,delta=2,noexec
     5                           	psect	cinit,global,class=CODE,merge=1,delta=2
     6                           	psect	bssBANK0,global,class=BANK0,space=1,delta=1,noexec
     7                           	psect	cstackCOMMON,global,class=COMMON,space=1,delta=1,noexec
     8                           	psect	cstackBANK0,global,class=BANK0,space=1,delta=1,noexec
     9                           	psect	maintext,global,class=CODE,split=1,delta=2
    10                           	psect	text1,local,class=CODE,merge=1,delta=2,group=3
    11                           	psect	text2,local,class=CODE,merge=1,delta=2,group=3
    12                           	psect	text3,local,class=CODE,merge=1,delta=2,group=3
    13                           	psect	text4,local,class=CODE,merge=1,delta=2,group=3
    14                           	psect	text5,local,class=CODE,merge=1,delta=2,group=3
    15                           	psect	text6,local,class=CODE,merge=1,delta=2,group=3
    16                           	psect	text7,local,class=CODE,merge=1,delta=2,group=3
    17                           	psect	text8,local,class=CODE,merge=1,delta=2,group=3
    18                           	psect	text9,local,class=CODE,merge=1,delta=2,group=1
    19                           	psect	text10,local,class=CODE,merge=1,delta=2
    20                           	psect	text11,local,class=CODE,merge=1,delta=2,group=3
    21                           	psect	text12,local,class=CODE,merge=1,delta=2,group=3
    22                           	psect	text13,local,class=CODE,merge=1,delta=2
    23                           	psect	text14,local,class=CODE,merge=1,delta=2
    24                           	psect	text15,local,class=CODE,merge=1,delta=2
    25                           	psect	text16,local,class=CODE,merge=1,delta=2,group=3
    26                           	psect	text17,local,class=CODE,merge=1,delta=2,group=3
    27                           	psect	text18,local,class=CODE,merge=1,delta=2,group=2
    28                           	psect	text19,local,class=CODE,merge=1,delta=2,group=2
    29                           	psect	idloc,global,abs,ovrld,class=IDLOC,space=5,delta=2,noexec
    30                           	psect	config,global,abs,ovrld,class=CONFIG,space=4,delta=2,noexec
    31                           	dabs	1,0x7E,2
    32     0000                     
    33                           ; Generated 09/02/2023 GMT
    34                           ; 
    35                           ; Copyright © 2023, Microchip Technology Inc. and its subsidiaries ("Microchip")
    36                           ; All rights reserved.
    37                           ; 
    38                           ; This software is developed by Microchip Technology Inc. and its subsidiaries ("Microch
      +                          ip").
    39                           ; 
    40                           ; Redistribution and use in source and binary forms, with or without modification, are
    41                           ; permitted provided that the following conditions are met:
    42                           ; 
    43                           ;     1. Redistributions of source code must retain the above copyright notice, this lis
      +                          t of
    44                           ;        conditions and the following disclaimer.
    45                           ; 
    46                           ;     2. Redistributions in binary form must reproduce the above copyright notice, this 
      +                          list
    47                           ;        of conditions and the following disclaimer in the documentation and/or other
    48                           ;        materials provided with the distribution. Publication is not required when
    49                           ;        this file is used in an embedded application.
    50                           ; 
    51                           ;     3. Microchip's name may not be used to endorse or promote products derived from th
      +                          is
    52                           ;        software without specific prior written permission.
    53                           ; 
    54                           ; THIS SOFTWARE IS PROVIDED BY MICROCHIP "AS IS" AND ANY EXPRESS OR IMPLIED WARRANTIES,
    55                           ; INCLUDING, BUT NOT LIMITED TO, THE IMPLIED WARRANTIES OF MERCHANTABILITY AND FITNESS F
      +                          OR
    56                           ; PURPOSE ARE DISCLAIMED.  IN NO EVENT SHALL MICROCHIP BE LIABLE FOR ANY DIRECT, INDIREC
      +                          T,
    57                           ; INCIDENTAL, SPECIAL, EXEMPLARY, OR CONSEQUENTIAL DAMAGES (INCLUDING BUT NOT LIMITED TO
    58                           ; PROCUREMENT OF SUBSTITUTE GOODS OR SERVICES; LOSS OF USE, DATA OR PROFITS; OR BUSINESS
    59                           ; INTERRUPTION) HOWSOEVER CAUSED AND ON ANY THEORY OF LIABILITY, WHETHER IN CONTRACT, ST
      +                          RICT
    60                           ; LIABILITY, OR TORT (INCLUDING NEGLIGENCE OR OTHERWISE) ARISING IN ANY WAY OUT OF THE U
      +                          SE OF
    61                           ; THIS SOFTWARE, EVEN IF ADVISED OF THE POSSIBILITY OF SUCH DAMAGE.
    62                           ; 
    63                           ; 
    64                           ; Code-generator required, PIC16F648A Definitions
    65                           ; 
    66                           ; SFR Addresses
    67     0000                     	;# 
    68     0001                     	;# 
    69     0002                     	;# 
    70     0003                     	;# 
    71     0004                     	;# 
    72     0005                     	;# 
    73     0006                     	;# 
    74     000A                     	;# 
    75     000B                     	;# 
    76     000C                     	;# 
    77     000E                     	;# 
    78     000E                     	;# 
    79     000F                     	;# 
    80     0010                     	;# 
    81     0011                     	;# 
    82     0012                     	;# 
    83     0015                     	;# 
    84     0015                     	;# 
    85     0016                     	;# 
    86     0017                     	;# 
    87     0018                     	;# 
    88     0019                     	;# 
    89     001A                     	;# 
    90     001F                     	;# 
    91     0081                     	;# 
    92     0085                     	;# 
    93     0086                     	;# 
    94     008C                     	;# 
    95     008E                     	;# 
    96     0092                     	;# 
    97     0098                     	;# 
    98     0099                     	;# 
    99     009A                     	;# 
   100     009B                     	;# 
   101     009C                     	;# 
   102     009D                     	;# 
   103     009F                     	;# 
   104     0000                     	;# 
   105     0001                     	;# 
   106     0002                     	;# 
   107     0003                     	;# 
   108     0004                     	;# 
   109     0005                     	;# 
   110     0006                     	;# 
   111     000A                     	;# 
   112     000B                     	;# 
   113     000C                     	;# 
   114     000E                     	;# 
   115     000E                     	;# 
   116     000F                     	;# 
   117     0010                     	;# 
   118     0011                     	;# 
   119     0012                     	;# 
   120     0015                     	;# 
   121     0015                     	;# 
   122     0016                     	;# 
   123     0017                     	;# 
   124     0018                     	;# 
   125     0019                     	;# 
   126     001A                     	;# 
   127     001F                     	;# 
   128     0081                     	;# 
   129     0085                     	;# 
   130     0086                     	;# 
   131     008C                     	;# 
   132     008E                     	;# 
   133     0092                     	;# 
   134     0098                     	;# 
   135     0099                     	;# 
   136     009A                     	;# 
   137     009B                     	;# 
   138     009C                     	;# 
   139     009D                     	;# 
   140     009F                     	;# 
   141     0000                     	;# 
   142     0001                     	;# 
   143     0002                     	;# 
   144     0003                     	;# 
   145     0004                     	;# 
   146     0005                     	;# 
   147     0006                     	;# 
   148     000A                     	;# 
   149     000B                     	;# 
   150     000C                     	;# 
   151     000E                     	;# 
   152     000E                     	;# 
   153     000F                     	;# 
   154     0010                     	;# 
   155     0011                     	;# 
   156     0012                     	;# 
   157     0015                     	;# 
   158     0015                     	;# 
   159     0016                     	;# 
   160     0017                     	;# 
   161     0018                     	;# 
   162     0019                     	;# 
   163     001A                     	;# 
   164     001F                     	;# 
   165     0081                     	;# 
   166     0085                     	;# 
   167     0086                     	;# 
   168     008C                     	;# 
   169     008E                     	;# 
   170     0092                     	;# 
   171     0098                     	;# 
   172     0099                     	;# 
   173     009A                     	;# 
   174     009B                     	;# 
   175     009C                     	;# 
   176     009D                     	;# 
   177     009F                     	;# 
   178     001A                     _RCREG	set	26
   179     0019                     _TXREG	set	25
   180     0018                     _RCSTA	set	24
   181     001F                     _CMCON	set	31
   182     0006                     _PORTB	set	6
   183     0005                     _PORTA	set	5
   184     0065                     _RCIF	set	101
   185     0064                     _TXIF	set	100
   186     0030                     _RB0	set	48
   187     0029                     _RA1	set	41
   188     0028                     _RA0	set	40
   189     002B                     _RA3	set	43
   190     002A                     _RA2	set	42
   191     0035                     _RB5	set	53
   192     0034                     _RB4	set	52
   193     0098                     _TXSTA	set	152
   194     0099                     _SPBRG	set	153
   195     0086                     _TRISB	set	134
   196     0085                     _TRISA	set	133
   197                           
   198                           	psect	strings
   199     0800                     __pstrings:
   200     0800                     stringtab:
   201     0800                     __stringtab:
   202                           
   203                           ;	String table - string pointers are 1 byte each
   204     0800  1BFF               	btfsc	btemp+1,7
   205     0801  280A               	ljmp	stringcode
   206     0802  1383               	bcf	3,7
   207     0803  187F               	btfsc	btemp+1,0
   208     0804  1783               	bsf	3,7
   209     0805  0800               	movf	0,w
   210     0806  0A84               	incf	4,f
   211     0807  1903               	skipnz
   212     0808  0AFF               	incf	btemp+1,f
   213     0809  0008               	return
   214     080A                     stringcode:
   215     080A                     stringdir:
   216     080A  3008               	movlw	high stringdir
   217     080B  008A               	movwf	10
   218     080C  0804               	movf	4,w
   219     080D  0A84               	incf	4,f
   220     080E  0782               	addwf	2,f
   221     080F                     __stringbase:
   222     080F  3400               	retlw	0
   223     0810                     __end_of__stringtab:
   224     0810                     STR_31:
   225     0810  3443               	retlw	67	;'C'
   226     0811  3409               	retlw	9
   227     0812  3456               	retlw	86	;'V'
   228     0813  3445               	retlw	69	;'E'
   229     0814  3452               	retlw	82	;'R'
   230     0815  3453               	retlw	83	;'S'
   231     0816  3449               	retlw	73	;'I'
   232     0817  344F               	retlw	79	;'O'
   233     0818  344E               	retlw	78	;'N'
   234     0819  3420               	retlw	32	;' '
   235     081A  3431               	retlw	49	;'1'
   236     081B  3430               	retlw	48	;'0'
   237     081C  340D               	retlw	13
   238     081D  340A               	retlw	10
   239     081E  3400               	retlw	0
   240     081F                     STR_9:
   241     081F  3474               	retlw	116	;'t'
   242     0820  346D               	retlw	109	;'m'
   243     0821  3470               	retlw	112	;'p'
   244     0822  3420               	retlw	32	;' '
   245     0823  343D               	retlw	61	;'='
   246     0824  3420               	retlw	32	;' '
   247     0825  3425               	retlw	37	;'%'
   248     0826  3473               	retlw	115	;'s'
   249     0827  340D               	retlw	13
   250     0828  340A               	retlw	10
   251     0829  3400               	retlw	0
   252     082A                     STR_30:
   253     082A  3443               	retlw	67	;'C'
   254     082B  3409               	retlw	9
   255     082C  3452               	retlw	82	;'R'
   256     082D  3445               	retlw	69	;'E'
   257     082E  3441               	retlw	65	;'A'
   258     082F  3444               	retlw	68	;'D'
   259     0830  3459               	retlw	89	;'Y'
   260     0831  340D               	retlw	13
   261     0832  340A               	retlw	10
   262     0833  3400               	retlw	0
   263     0834                     STR_20:
   264     0834  3443               	retlw	67	;'C'
   265     0835  3409               	retlw	9
   266     0836  3457               	retlw	87	;'W'
   267     0837  3454               	retlw	84	;'T'
   268     0838  3442               	retlw	66	;'B'
   269     0839  340D               	retlw	13
   270     083A  340A               	retlw	10
   271     083B  3400               	retlw	0
   272     083C                     STR_26:
   273     083C  3443               	retlw	67	;'C'
   274     083D  3409               	retlw	9
   275     083E  344F               	retlw	79	;'O'
   276     083F  3453               	retlw	83	;'S'
   277     0840  3443               	retlw	67	;'C'
   278     0841  340D               	retlw	13
   279     0842  340A               	retlw	10
   280     0843  3400               	retlw	0
   281     0844                     STR_27:
   282     0844  3443               	retlw	67	;'C'
   283     0845  3409               	retlw	9
   284     0846  344E               	retlw	78	;'N'
   285     0847  3454               	retlw	84	;'T'
   286     0848  3444               	retlw	68	;'D'
   287     0849  340D               	retlw	13
   288     084A  340A               	retlw	10
   289     084B  3400               	retlw	0
   290     084C                     STR_29:
   291     084C  3443               	retlw	67	;'C'
   292     084D  3409               	retlw	9
   293     084E  344E               	retlw	78	;'N'
   294     084F  3444               	retlw	68	;'D'
   295     0850  344F               	retlw	79	;'O'
   296     0851  340D               	retlw	13
   297     0852  340A               	retlw	10
   298     0853  3400               	retlw	0
   299     0854                     STR_32:
   300     0854  3428               	retlw	40	;'('
   301     0855  346E               	retlw	110	;'n'
   302     0856  3475               	retlw	117	;'u'
   303     0857  346C               	retlw	108	;'l'
   304     0858  346C               	retlw	108	;'l'
   305     0859  3429               	retlw	41	;')'
   306     085A  3400               	retlw	0
   307     085B                     STR_14:
   308     085B  3452               	retlw	82	;'R'
   309     085C  3450               	retlw	80	;'P'
   310     085D  3453               	retlw	83	;'S'
   311     085E  3431               	retlw	49	;'1'
   312     085F  3400               	retlw	0
   313     0860                     STR_15:
   314     0860  3452               	retlw	82	;'R'
   315     0861  3450               	retlw	80	;'P'
   316     0862  3453               	retlw	83	;'S'
   317     0863  3432               	retlw	50	;'2'
   318     0864  3400               	retlw	0
   319     0865                     STR_16:
   320     0865  3452               	retlw	82	;'R'
   321     0866  3450               	retlw	80	;'P'
   322     0867  3453               	retlw	83	;'S'
   323     0868  3433               	retlw	51	;'3'
   324     0869  3400               	retlw	0
   325     086A                     STR_2:
   326     086A  3457               	retlw	87	;'W'
   327     086B  3454               	retlw	84	;'T'
   328     086C  3442               	retlw	66	;'B'
   329     086D  3400               	retlw	0
   330     086E                     STR_3:
   331     086E  344F               	retlw	79	;'O'
   332     086F  3453               	retlw	83	;'S'
   333     0870  3443               	retlw	67	;'C'
   334     0871  3400               	retlw	0
   335     0872                     STR_4:
   336     0872  344E               	retlw	78	;'N'
   337     0873  3454               	retlw	84	;'T'
   338     0874  3444               	retlw	68	;'D'
   339     0875  3400               	retlw	0
   340     0876                     STR_5:
   341     0876  344E               	retlw	78	;'N'
   342     0877  3444               	retlw	68	;'D'
   343     0878  344F               	retlw	79	;'O'
   344     0879  3400               	retlw	0
   345     087A                     STR_6:
   346     087A  3456               	retlw	86	;'V'
   347     087B  3445               	retlw	69	;'E'
   348     087C  3452               	retlw	82	;'R'
   349     087D  3400               	retlw	0
   350     087E                     STR_1:
   351     087E  3452               	retlw	82	;'R'
   352     087F  3450               	retlw	80	;'P'
   353     0880  3453               	retlw	83	;'S'
   354     0881  3400               	retlw	0
   355     0882                     STR_7:
   356     0882  3453               	retlw	83	;'S'
   357     0883  3454               	retlw	84	;'T'
   358     0884  3453               	retlw	83	;'S'
   359     0885  3400               	retlw	0
   360     0886                     STR_8:
   361     0886  342F               	retlw	47	;'/'
   362     0887  3400               	retlw	0
   363     0886                     
   364                           	psect	cinit
   365     07FA                     start_initialization:	
   366                           ; #config settings
   367                           
   368     07FA                     __initialization:
   369                           
   370                           ; Clear objects allocated to BANK0
   371     07FA  1283               	bcf	3,5	;RP0=0, select bank0
   372     07FB  1303               	bcf	3,6	;RP1=0, select bank0
   373     07FC  01E7               	clrf	__pbssBANK0& (0+127)
   374     07FD                     end_of_initialization:	
   375                           ;End of C runtime variable initialization code
   376                           
   377     07FD                     __end_of__initialization:
   378     07FD  0183               	clrf	3
   379     07FE  118A  28DF         	ljmp	_main	;jump to C main() function
   380                           
   381                           	psect	bssBANK0
   382     0067                     __pbssBANK0:
   383     0067                     strtok@sp:
   384     0067                     	ds	1
   385                           
   386                           	psect	cstackCOMMON
   387     0070                     __pcstackCOMMON:
   388     0070                     ?_isdigit:
   389     0070                     ?_initUART:	
   390                           ; 1 bit 
   391                           
   392     0070                     ??_initUART:	
   393                           ; 1 bytes @ 0x0
   394                           
   395     0070                     ?_gets:	
   396                           ; 1 bytes @ 0x0
   397                           
   398     0070                     ??_isdigit:	
   399                           ; 1 bytes @ 0x0
   400                           
   401     0070                     ?_cgets:	
   402                           ; 1 bytes @ 0x0
   403                           
   404     0070                     ?_main:	
   405                           ; 1 bytes @ 0x0
   406                           
   407     0070                     ?_putch:	
   408                           ; 1 bytes @ 0x0
   409                           
   410     0070                     ??_putch:	
   411                           ; 1 bytes @ 0x0
   412                           
   413     0070                     ?_getch:	
   414                           ; 1 bytes @ 0x0
   415                           
   416     0070                     ??_getch:	
   417                           ; 1 bytes @ 0x0
   418                           
   419     0070                     ?_getche:	
   420                           ; 1 bytes @ 0x0
   421                           
   422     0070                     ?_strcmp:	
   423                           ; 1 bytes @ 0x0
   424                           
   425     0070                     ?_strlen:	
   426                           ; 2 bytes @ 0x0
   427                           
   428     0070                     ?_strchr:	
   429                           ; 2 bytes @ 0x0
   430                           
   431     0070                     ?___wmul:	
   432                           ; 2 bytes @ 0x0
   433                           
   434     0070                     ?___awdiv:	
   435                           ; 2 bytes @ 0x0
   436                           
   437     0070                     putch@byte:	
   438                           ; 2 bytes @ 0x0
   439                           
   440     0070                     _isdigit$639:	
   441                           ; 1 bytes @ 0x0
   442                           
   443     0070                     strcmp@s2:	
   444                           ; 1 bytes @ 0x0
   445                           
   446     0070                     ___wmul@multiplier:	
   447                           ; 1 bytes @ 0x0
   448                           
   449     0070                     ___awdiv@divisor:	
   450                           ; 2 bytes @ 0x0
   451                           
   452     0070                     strchr@ptr:	
   453                           ; 2 bytes @ 0x0
   454                           
   455                           
   456                           ; 2 bytes @ 0x0
   457     0070                     	ds	1
   458     0071                     ??_getche:
   459     0071                     ?_printf:	
   460                           ; 1 bytes @ 0x1
   461                           
   462     0071                     getche@c:	
   463                           ; 2 bytes @ 0x1
   464                           
   465     0071                     isdigit@c:	
   466                           ; 1 bytes @ 0x1
   467                           
   468                           
   469                           ; 1 bytes @ 0x1
   470     0071                     	ds	1
   471     0072                     ??_strcmp:
   472     0072                     ??_printf:	
   473                           ; 1 bytes @ 0x2
   474                           
   475     0072                     ??_cgets:	
   476                           ; 1 bytes @ 0x2
   477                           
   478     0072                     ??_strlen:	
   479                           ; 1 bytes @ 0x2
   480                           
   481     0072                     printf@ap:	
   482                           ; 1 bytes @ 0x2
   483                           
   484     0072                     strlen@s:	
   485                           ; 1 bytes @ 0x2
   486                           
   487     0072                     ___wmul@multiplicand:	
   488                           ; 1 bytes @ 0x2
   489                           
   490     0072                     ___awdiv@dividend:	
   491                           ; 2 bytes @ 0x2
   492                           
   493     0072                     strchr@chr:	
   494                           ; 2 bytes @ 0x2
   495                           
   496                           
   497                           ; 2 bytes @ 0x2
   498     0072                     	ds	1
   499     0073                     printf@c:
   500     0073                     strlen@cp:	
   501                           ; 1 bytes @ 0x3
   502                           
   503                           
   504                           ; 1 bytes @ 0x3
   505     0073                     	ds	1
   506     0074                     ??_strchr:
   507     0074                     ??___wmul:	
   508                           ; 1 bytes @ 0x4
   509                           
   510     0074                     ??___awdiv:	
   511                           ; 1 bytes @ 0x4
   512                           
   513     0074                     ?_strncmp:	
   514                           ; 1 bytes @ 0x4
   515                           
   516     0074                     ___awdiv@counter:	
   517                           ; 2 bytes @ 0x4
   518                           
   519     0074                     strcmp@r:	
   520                           ; 1 bytes @ 0x4
   521                           
   522     0074                     printf@cp:	
   523                           ; 1 bytes @ 0x4
   524                           
   525     0074                     ___wmul@product:	
   526                           ; 2 bytes @ 0x4
   527                           
   528     0074                     cgets@c:	
   529                           ; 2 bytes @ 0x4
   530                           
   531     0074                     strncmp@s1:	
   532                           ; 2 bytes @ 0x4
   533                           
   534                           
   535                           ; 2 bytes @ 0x4
   536     0074                     	ds	1
   537     0075                     ___awdiv@sign:
   538     0075                     strcmp@s1:	
   539                           ; 1 bytes @ 0x5
   540                           
   541                           
   542                           ; 1 bytes @ 0x5
   543     0075                     	ds	1
   544     0076                     ?_atoi:
   545     0076                     ?_strspn:	
   546                           ; 2 bytes @ 0x6
   547                           
   548     0076                     ?_strcspn:	
   549                           ; 2 bytes @ 0x6
   550                           
   551     0076                     printf@f:	
   552                           ; 2 bytes @ 0x6
   553                           
   554     0076                     cgets@s:	
   555                           ; 1 bytes @ 0x6
   556                           
   557     0076                     strncmp@s2:	
   558                           ; 1 bytes @ 0x6
   559                           
   560     0076                     strcspn@s2:	
   561                           ; 1 bytes @ 0x6
   562                           
   563     0076                     strspn@s2:	
   564                           ; 1 bytes @ 0x6
   565                           
   566     0076                     ___awdiv@quotient:	
   567                           ; 1 bytes @ 0x6
   568                           
   569     0076                     atoi@s:	
   570                           ; 2 bytes @ 0x6
   571                           
   572                           
   573                           ; 2 bytes @ 0x6
   574     0076                     	ds	1
   575     0077                     cgets@s1:
   576     0077                     strncmp@len:	
   577                           ; 1 bytes @ 0x7
   578                           
   579                           
   580                           ; 2 bytes @ 0x7
   581     0077                     	ds	1
   582     0078                     ??_gets:
   583     0078                     ??_atoi:	
   584                           ; 1 bytes @ 0x8
   585                           
   586     0078                     ??_strspn:	
   587                           ; 1 bytes @ 0x8
   588                           
   589     0078                     ??_strcspn:	
   590                           ; 1 bytes @ 0x8
   591                           
   592     0078                     gets@s:	
   593                           ; 1 bytes @ 0x8
   594                           
   595                           
   596                           ; 1 bytes @ 0x8
   597     0078                     	ds	1
   598     0079                     ??_strncmp:
   599                           
   600                           ; 1 bytes @ 0x9
   601     0079                     	ds	1
   602     007A                     ?_strstr:
   603     007A                     atoi@sign:	
   604                           ; 2 bytes @ 0xA
   605                           
   606     007A                     strstr@s1:	
   607                           ; 1 bytes @ 0xA
   608                           
   609     007A                     strcspn@i:	
   610                           ; 2 bytes @ 0xA
   611                           
   612     007A                     strspn@i:	
   613                           ; 2 bytes @ 0xA
   614                           
   615                           
   616                           ; 2 bytes @ 0xA
   617     007A                     	ds	1
   618     007B                     atoi@a:
   619                           
   620                           ; 2 bytes @ 0xB
   621     007B                     	ds	1
   622     007C                     strstr@s2:
   623     007C                     strcspn@s1:	
   624                           ; 1 bytes @ 0xC
   625                           
   626     007C                     strspn@s1:	
   627                           ; 1 bytes @ 0xC
   628                           
   629                           
   630                           ; 1 bytes @ 0xC
   631     007C                     	ds	1
   632     007D                     ?_strtok:
   633     007D                     strtok@s2:	
   634                           ; 1 bytes @ 0xD
   635                           
   636                           
   637                           ; 1 bytes @ 0xD
   638     007D                     	ds	1
   639     007E                     ??_strtok:
   640                           
   641                           	psect	cstackBANK0
   642     0020                     __pcstackBANK0:	
   643                           ; 1 bytes @ 0xE
   644                           
   645     0020                     ??_strstr:
   646     0020                     strtok@s1:	
   647                           ; 1 bytes @ 0x0
   648                           
   649                           
   650                           ; 1 bytes @ 0x0
   651     0020                     	ds	2
   652     0022                     ??_main:
   653                           
   654                           ; 1 bytes @ 0x2
   655     0022                     	ds	1
   656     0023                     main@tmp:
   657                           
   658                           ; 40 bytes @ 0x3
   659     0023                     	ds	40
   660     004B                     main@axis:
   661                           
   662                           ; 2 bytes @ 0x2B
   663     004B                     	ds	2
   664     004D                     main@mx_spd:
   665                           
   666                           ; 2 bytes @ 0x2D
   667     004D                     	ds	2
   668     004F                     main@set_spd:
   669                           
   670                           ; 2 bytes @ 0x2F
   671     004F                     	ds	2
   672     0051                     main@rps_cmd:
   673                           
   674                           ; 6 bytes @ 0x31
   675     0051                     	ds	6
   676     0057                     main@i:
   677                           
   678                           ; 2 bytes @ 0x37
   679     0057                     	ds	2
   680     0059                     main@cmd:
   681                           
   682                           ; 1 bytes @ 0x39
   683     0059                     	ds	1
   684     005A                     main@rcmd:
   685                           
   686                           ; 4 bytes @ 0x3A
   687     005A                     	ds	4
   688     005E                     main@ptr:
   689                           
   690                           ; 1 bytes @ 0x3E
   691     005E                     	ds	1
   692     005F                     main@k:
   693                           
   694                           ; 2 bytes @ 0x3F
   695     005F                     	ds	2
   696     0061                     main@dist:
   697                           
   698                           ; 2 bytes @ 0x41
   699     0061                     	ds	2
   700     0063                     main@intvl:
   701                           
   702                           ; 2 bytes @ 0x43
   703     0063                     	ds	2
   704     0065                     main@j:
   705                           
   706                           ; 2 bytes @ 0x45
   707     0065                     	ds	2
   708                           
   709                           	psect	maintext
   710     00DF                     __pmaintext:	
   711 ;;
   712 ;;Main: autosize = 0, tempsize = 1, incstack = 0, save=0
   713 ;;
   714 ;; *************** function _main *****************
   715 ;; Defined at:
   716 ;;		line 55 in file "main.c"
   717 ;; Parameters:    Size  Location     Type
   718 ;;		None
   719 ;; Auto vars:     Size  Location     Type
   720 ;;  i               2   55[BANK0 ] int 
   721 ;;  cmd             1   57[BANK0 ] enum E765
   722 ;;  tmp            40    3[BANK0 ] unsigned char [40]
   723 ;;  rps_cmd         6   49[BANK0 ] unsigned char [6]
   724 ;;  rcmd            4   58[BANK0 ] unsigned char [4]
   725 ;;  j               2   69[BANK0 ] int 
   726 ;;  intvl           2   67[BANK0 ] int 
   727 ;;  dist            2   65[BANK0 ] int 
   728 ;;  k               2   63[BANK0 ] int 
   729 ;;  set_spd         2   47[BANK0 ] int 
   730 ;;  mx_spd          2   45[BANK0 ] int 
   731 ;;  axis            2   43[BANK0 ] int 
   732 ;;  cnt             2    0        int 
   733 ;;  ptr             1   62[BANK0 ] PTR unsigned char 
   734 ;;		 -> NULL(0), main@tmp(40), 
   735 ;; Return value:  Size  Location     Type
   736 ;;                  1    wreg      void 
   737 ;; Registers used:
   738 ;;		wreg, fsr0l, fsr0h, status,2, status,0, btemp+1, pclath, cstack
   739 ;; Tracked objects:
   740 ;;		On entry : B00/0
   741 ;;		On exit  : 0/0
   742 ;;		Unchanged: 0/0
   743 ;; Data sizes:     COMMON   BANK0   BANK1   BANK2
   744 ;;      Params:         0       0       0       0
   745 ;;      Locals:         0      68       0       0
   746 ;;      Temps:          0       1       0       0
   747 ;;      Totals:         0      69       0       0
   748 ;;Total ram usage:       69 bytes
   749 ;; Hardware stack levels required when called: 4
   750 ;; This function calls:
   751 ;;		___awdiv
   752 ;;		___wmul
   753 ;;		_atoi
   754 ;;		_gets
   755 ;;		_initUART
   756 ;;		_printf
   757 ;;		_strcmp
   758 ;;		_strstr
   759 ;;		_strtok
   760 ;; This function is called by:
   761 ;;		Startup code after reset
   762 ;; This function uses a non-reentrant model
   763 ;;
   764                           
   765     00DF                     _main:	
   766                           ;psect for function _main
   767                           
   768     00DF                     l1977:	
   769                           ;incstack = 0
   770                           ; Regs used in _main: [wreg-fsr0h+status,2+status,0+btemp+1+pclath+cstack]
   771                           
   772                           
   773                           ;main.c: 57: PORTA = 0x00;
   774     00DF  1283               	bcf	3,5	;RP0=0, select bank0
   775     00E0  1303               	bcf	3,6	;RP1=0, select bank0
   776     00E1  0185               	clrf	5	;volatile
   777                           
   778                           ;main.c: 58: PORTB = 0x00;
   779     00E2  0186               	clrf	6	;volatile
   780                           
   781                           ;main.c: 59: TRISA = 0b00000000;
   782     00E3  1683               	bsf	3,5	;RP0=1, select bank1
   783     00E4  1303               	bcf	3,6	;RP1=0, select bank1
   784     00E5  0185               	clrf	5	;volatile
   785     00E6                     l1979:
   786                           
   787                           ;main.c: 60: TRISB = 0b00000011;
   788     00E6  3003               	movlw	3
   789     00E7  0086               	movwf	6	;volatile
   790     00E8                     l1981:
   791                           
   792                           ;main.c: 61: CMCON = 0b00000111;
   793     00E8  3007               	movlw	7
   794     00E9  1283               	bcf	3,5	;RP0=0, select bank0
   795     00EA  1303               	bcf	3,6	;RP1=0, select bank0
   796     00EB  009F               	movwf	31	;volatile
   797     00EC                     l1983:
   798                           
   799                           ;main.c: 63: initUART();
   800     00EC  158A  253A  118A   	fcall	_initUART
   801     00EF                     l1985:
   802     00EF                     l1987:
   803     00EF                     l1989:
   804     00EF                     l1991:
   805                           
   806                           ;main.c: 69: int dist = 10;
   807     00EF  300A               	movlw	10
   808     00F0  1283               	bcf	3,5	;RP0=0, select bank0
   809     00F1  1303               	bcf	3,6	;RP1=0, select bank0
   810     00F2  00E1               	movwf	main@dist
   811     00F3  3000               	movlw	0
   812     00F4  00E2               	movwf	main@dist+1
   813     00F5                     l1993:
   814                           
   815                           ;main.c: 70: int intvl = 20;
   816     00F5  3014               	movlw	20
   817     00F6  00E3               	movwf	main@intvl
   818     00F7  3000               	movlw	0
   819     00F8  00E4               	movwf	main@intvl+1
   820     00F9                     l1995:
   821                           
   822                           ;main.c: 71: int axis = 0;
   823     00F9  01CB               	clrf	main@axis
   824     00FA  01CC               	clrf	main@axis+1
   825     00FB                     l1997:
   826                           
   827                           ;main.c: 72: char rcmd[4];;main.c: 73: char rps_cmd[6];;main.c: 74: int mx_spd = 20250;
   828     00FB  301A               	movlw	26
   829     00FC  00CD               	movwf	main@mx_spd
   830     00FD  304F               	movlw	79
   831     00FE  00CE               	movwf	main@mx_spd+1
   832     00FF                     l1999:
   833                           
   834                           ;main.c: 81: rcmd[0] = 'Q';
   835     00FF  3051               	movlw	81
   836     0100  1283               	bcf	3,5	;RP0=0, select bank0
   837     0101  1303               	bcf	3,6	;RP1=0, select bank0
   838     0102  00DA               	movwf	main@rcmd
   839     0103                     l2001:
   840                           
   841                           ;main.c: 82: rcmd[1] = 'Q';
   842     0103  3051               	movlw	81
   843     0104  00DB               	movwf	main@rcmd+1
   844     0105                     l2003:
   845                           
   846                           ;main.c: 83: rcmd[2] = 'Q';
   847     0105  3051               	movlw	81
   848     0106  00DC               	movwf	main@rcmd+2
   849     0107                     l2005:
   850                           
   851                           ;main.c: 84: rcmd[3] = '\0';
   852     0107  01DD               	clrf	main@rcmd+3
   853     0108                     l2007:
   854                           
   855                           ;main.c: 86: tmp[0] = 'Q';
   856     0108  3051               	movlw	81
   857     0109  00A3               	movwf	main@tmp
   858     010A                     l2009:
   859                           
   860                           ;main.c: 87: tmp[1] = 'Q';
   861     010A  3051               	movlw	81
   862     010B  00A4               	movwf	main@tmp+1
   863     010C                     l2011:
   864                           
   865                           ;main.c: 88: tmp[2] = 'Q';
   866     010C  3051               	movlw	81
   867     010D  00A5               	movwf	main@tmp+2
   868     010E                     l2013:
   869                           
   870                           ;main.c: 89: tmp[3] = 'Q';
   871     010E  3051               	movlw	81
   872     010F  00A6               	movwf	main@tmp+3
   873     0110                     l2015:
   874                           
   875                           ;main.c: 90: tmp[4] = '\0';
   876     0110  01A7               	clrf	main@tmp+4
   877     0111                     l2017:
   878                           
   879                           ;main.c: 92: gets(tmp);
   880     0111  3023               	movlw	(low (main@tmp| 0))& (0+255)
   881     0112  158A  2518  118A   	fcall	_gets
   882     0115                     l2019:
   883                           
   884                           ;main.c: 95: rcmd[0] = tmp[1];
   885     0115  1283               	bcf	3,5	;RP0=0, select bank0
   886     0116  1303               	bcf	3,6	;RP1=0, select bank0
   887     0117  0824               	movf	main@tmp+1,w
   888     0118  00DA               	movwf	main@rcmd
   889     0119                     l2021:
   890                           
   891                           ;main.c: 96: rcmd[1] = tmp[2];
   892     0119  0825               	movf	main@tmp+2,w
   893     011A  00DB               	movwf	main@rcmd+1
   894     011B                     l2023:
   895                           
   896                           ;main.c: 97: rcmd[2] = tmp[3];
   897     011B  0826               	movf	main@tmp+3,w
   898     011C  00DC               	movwf	main@rcmd+2
   899     011D                     l2025:
   900                           
   901                           ;main.c: 98: rcmd[3] = '\0';
   902     011D  01DD               	clrf	main@rcmd+3
   903     011E                     l2027:
   904                           
   905                           ;main.c: 100: axis = atoi(tmp[4]);
   906     011E  0827               	movf	low ((main@tmp| 0+4)),w
   907     011F  00F6               	movwf	atoi@s
   908     0120  3000               	movlw	0
   909     0121  1D03               	btfss	3,2
   910     0122  3080               	movlw	128
   911     0123  00F7               	movwf	atoi@s+1
   912     0124  118A  204F  118A   	fcall	_atoi
   913     0127  0877               	movf	?_atoi+1,w
   914     0128  1283               	bcf	3,5	;RP0=0, select bank0
   915     0129  1303               	bcf	3,6	;RP1=0, select bank0
   916     012A  00CC               	movwf	main@axis+1
   917     012B  0876               	movf	?_atoi,w
   918     012C  00CB               	movwf	main@axis
   919     012D                     l2029:
   920                           
   921                           ;main.c: 102: enum command cmd;;main.c: 104: cmd = VER;
   922     012D  3005               	movlw	5
   923     012E  00D9               	movwf	main@cmd
   924     012F                     l2031:
   925                           
   926                           ;main.c: 106: if(strcmp(rcmd,"RPS") == 0) {
   927     012F  306F               	movlw	(low ((STR_1-__stringbase)| (0+32768)))& (0+255)
   928     0130  00F0               	movwf	strcmp@s2
   929     0131  305A               	movlw	(low (main@rcmd| 0))& (0+255)
   930     0132  158A  25BA  118A   	fcall	_strcmp
   931     0135  0870               	movf	?_strcmp,w
   932     0136  0471               	iorwf	?_strcmp+1,w
   933     0137  1D03               	btfss	3,2
   934     0138  293A               	goto	u1601
   935     0139  293B               	goto	u1600
   936     013A                     u1601:
   937     013A  293F               	goto	l2035
   938     013B                     u1600:
   939     013B                     l2033:
   940                           
   941                           ;main.c: 107: cmd = RPS;
   942     013B  1283               	bcf	3,5	;RP0=0, select bank0
   943     013C  1303               	bcf	3,6	;RP1=0, select bank0
   944     013D  01D9               	clrf	main@cmd
   945                           
   946                           ;main.c: 108: }else if(strcmp(rcmd,"WTB") == 0){
   947     013E  29A9               	goto	l2061
   948     013F                     l2035:
   949     013F  305B               	movlw	(low ((STR_2-__stringbase)| (0+32768)))& (0+255)
   950     0140  00F0               	movwf	strcmp@s2
   951     0141  305A               	movlw	(low (main@rcmd| 0))& (0+255)
   952     0142  158A  25BA  118A   	fcall	_strcmp
   953     0145  0870               	movf	?_strcmp,w
   954     0146  0471               	iorwf	?_strcmp+1,w
   955     0147  1D03               	btfss	3,2
   956     0148  294A               	goto	u1611
   957     0149  294B               	goto	u1610
   958     014A                     u1611:
   959     014A  2950               	goto	l2039
   960     014B                     u1610:
   961     014B                     l2037:
   962                           
   963                           ;main.c: 109: cmd = WTB;
   964     014B  1283               	bcf	3,5	;RP0=0, select bank0
   965     014C  1303               	bcf	3,6	;RP1=0, select bank0
   966     014D  01D9               	clrf	main@cmd
   967     014E  0AD9               	incf	main@cmd,f
   968                           
   969                           ;main.c: 110: }else if(strcmp(rcmd,"OSC") == 0){
   970     014F  29A9               	goto	l2061
   971     0150                     l2039:
   972     0150  305F               	movlw	(low ((STR_3-__stringbase)| (0+32768)))& (0+255)
   973     0151  00F0               	movwf	strcmp@s2
   974     0152  305A               	movlw	(low (main@rcmd| 0))& (0+255)
   975     0153  158A  25BA  118A   	fcall	_strcmp
   976     0156  0870               	movf	?_strcmp,w
   977     0157  0471               	iorwf	?_strcmp+1,w
   978     0158  1D03               	btfss	3,2
   979     0159  295B               	goto	u1621
   980     015A  295C               	goto	u1620
   981     015B                     u1621:
   982     015B  2961               	goto	l2043
   983     015C                     u1620:
   984     015C                     l2041:
   985                           
   986                           ;main.c: 111: cmd = OSC;
   987     015C  3002               	movlw	2
   988     015D  1283               	bcf	3,5	;RP0=0, select bank0
   989     015E  1303               	bcf	3,6	;RP1=0, select bank0
   990     015F  00D9               	movwf	main@cmd
   991                           
   992                           ;main.c: 112: }else if(strcmp(rcmd,"NTD") == 0){
   993     0160  29A9               	goto	l2061
   994     0161                     l2043:
   995     0161  3063               	movlw	(low ((STR_4-__stringbase)| (0+32768)))& (0+255)
   996     0162  00F0               	movwf	strcmp@s2
   997     0163  305A               	movlw	(low (main@rcmd| 0))& (0+255)
   998     0164  158A  25BA  118A   	fcall	_strcmp
   999     0167  0870               	movf	?_strcmp,w
  1000     0168  0471               	iorwf	?_strcmp+1,w
  1001     0169  1D03               	btfss	3,2
  1002     016A  296C               	goto	u1631
  1003     016B  296D               	goto	u1630
  1004     016C                     u1631:
  1005     016C  2972               	goto	l2047
  1006     016D                     u1630:
  1007     016D                     l2045:
  1008                           
  1009                           ;main.c: 113: cmd = NTD;
  1010     016D  3003               	movlw	3
  1011     016E  1283               	bcf	3,5	;RP0=0, select bank0
  1012     016F  1303               	bcf	3,6	;RP1=0, select bank0
  1013     0170  00D9               	movwf	main@cmd
  1014                           
  1015                           ;main.c: 114: }else if(strcmp(rcmd,"NDO") == 0){
  1016     0171  29A9               	goto	l2061
  1017     0172                     l2047:
  1018     0172  3067               	movlw	(low ((STR_5-__stringbase)| (0+32768)))& (0+255)
  1019     0173  00F0               	movwf	strcmp@s2
  1020     0174  305A               	movlw	(low (main@rcmd| 0))& (0+255)
  1021     0175  158A  25BA  118A   	fcall	_strcmp
  1022     0178  0870               	movf	?_strcmp,w
  1023     0179  0471               	iorwf	?_strcmp+1,w
  1024     017A  1D03               	btfss	3,2
  1025     017B  297D               	goto	u1641
  1026     017C  297E               	goto	u1640
  1027     017D                     u1641:
  1028     017D  2983               	goto	l2051
  1029     017E                     u1640:
  1030     017E                     l2049:
  1031                           
  1032                           ;main.c: 115: cmd = NDO;
  1033     017E  3004               	movlw	4
  1034     017F  1283               	bcf	3,5	;RP0=0, select bank0
  1035     0180  1303               	bcf	3,6	;RP1=0, select bank0
  1036     0181  00D9               	movwf	main@cmd
  1037                           
  1038                           ;main.c: 116: }else if(strcmp(rcmd,"VER") == 0){
  1039     0182  29A9               	goto	l2061
  1040     0183                     l2051:
  1041     0183  306B               	movlw	(low ((STR_6-__stringbase)| (0+32768)))& (0+255)
  1042     0184  00F0               	movwf	strcmp@s2
  1043     0185  305A               	movlw	(low (main@rcmd| 0))& (0+255)
  1044     0186  158A  25BA  118A   	fcall	_strcmp
  1045     0189  0870               	movf	?_strcmp,w
  1046     018A  0471               	iorwf	?_strcmp+1,w
  1047     018B  1D03               	btfss	3,2
  1048     018C  298E               	goto	u1651
  1049     018D  298F               	goto	u1650
  1050     018E                     u1651:
  1051     018E  2994               	goto	l2055
  1052     018F                     u1650:
  1053     018F                     l2053:
  1054                           
  1055                           ;main.c: 117: cmd = VER;
  1056     018F  3005               	movlw	5
  1057     0190  1283               	bcf	3,5	;RP0=0, select bank0
  1058     0191  1303               	bcf	3,6	;RP1=0, select bank0
  1059     0192  00D9               	movwf	main@cmd
  1060                           
  1061                           ;main.c: 118: }else if(strcmp(rcmd,"STS") == 0){
  1062     0193  29A9               	goto	l2061
  1063     0194                     l2055:
  1064     0194  3073               	movlw	(low ((STR_7-__stringbase)| (0+32768)))& (0+255)
  1065     0195  00F0               	movwf	strcmp@s2
  1066     0196  305A               	movlw	(low (main@rcmd| 0))& (0+255)
  1067     0197  158A  25BA  118A   	fcall	_strcmp
  1068     019A  0870               	movf	?_strcmp,w
  1069     019B  0471               	iorwf	?_strcmp+1,w
  1070     019C  1D03               	btfss	3,2
  1071     019D  299F               	goto	u1661
  1072     019E  29A0               	goto	u1660
  1073     019F                     u1661:
  1074     019F  29A5               	goto	l2059
  1075     01A0                     u1660:
  1076     01A0                     l2057:
  1077                           
  1078                           ;main.c: 119: cmd = STS;
  1079     01A0  3006               	movlw	6
  1080     01A1  1283               	bcf	3,5	;RP0=0, select bank0
  1081     01A2  1303               	bcf	3,6	;RP1=0, select bank0
  1082     01A3  00D9               	movwf	main@cmd
  1083                           
  1084                           ;main.c: 120: }else{
  1085     01A4  29A9               	goto	l2061
  1086     01A5                     l2059:
  1087                           
  1088                           ;main.c: 121: cmd = NON;
  1089     01A5  3007               	movlw	7
  1090     01A6  1283               	bcf	3,5	;RP0=0, select bank0
  1091     01A7  1303               	bcf	3,6	;RP1=0, select bank0
  1092     01A8  00D9               	movwf	main@cmd
  1093     01A9                     l2061:
  1094                           
  1095                           ;main.c: 122: };main.c: 124: ptr = strtok(tmp, "/");
  1096     01A9  3077               	movlw	(low ((STR_8-__stringbase)| (0+32768)))& (0+255)
  1097     01AA  00FD               	movwf	strtok@s2
  1098     01AB  3023               	movlw	(low (main@tmp| 0))& (0+255)
  1099     01AC  158A  264A  118A   	fcall	_strtok
  1100     01AF  1283               	bcf	3,5	;RP0=0, select bank0
  1101     01B0  1303               	bcf	3,6	;RP1=0, select bank0
  1102     01B1  00DE               	movwf	main@ptr
  1103     01B2                     l2063:
  1104                           
  1105                           ;main.c: 127: rps_cmd[0]='\0';
  1106     01B2  01D1               	clrf	main@rps_cmd
  1107     01B3                     l2065:
  1108                           
  1109                           ;main.c: 128: rps_cmd[1]='\0';
  1110     01B3  01D2               	clrf	main@rps_cmd+1
  1111     01B4                     l2067:
  1112                           
  1113                           ;main.c: 129: rps_cmd[2]='\0';
  1114     01B4  01D3               	clrf	main@rps_cmd+2
  1115     01B5                     l2069:
  1116                           
  1117                           ;main.c: 130: rps_cmd[3]='\0';
  1118     01B5  01D4               	clrf	main@rps_cmd+3
  1119     01B6                     l2071:
  1120                           
  1121                           ;main.c: 132: int i;;main.c: 133: for (i = 0; ptr[i] != '\0'; i++) {
  1122     01B6  01D7               	clrf	main@i
  1123     01B7  01D8               	clrf	main@i+1
  1124     01B8  29CB               	goto	l2077
  1125     01B9                     l2073:
  1126                           
  1127                           ;main.c: 134: rps_cmd[i] = ptr[i];
  1128     01B9  0857               	movf	main@i,w
  1129     01BA  075E               	addwf	main@ptr,w
  1130     01BB  00A2               	movwf	??_main
  1131     01BC  0822               	movf	??_main,w
  1132     01BD  0084               	movwf	4
  1133     01BE  0800               	movf	0,w
  1134     01BF  00FF               	movwf	btemp+1
  1135     01C0  0857               	movf	main@i,w
  1136     01C1  3E51               	addlw	(low (main@rps_cmd| 0))& (0+255)
  1137     01C2  0084               	movwf	4
  1138     01C3  087F               	movf	btemp+1,w
  1139     01C4  0080               	movwf	0
  1140     01C5                     l2075:
  1141     01C5  3001               	movlw	1
  1142     01C6  07D7               	addwf	main@i,f
  1143     01C7  1803               	skipnc
  1144     01C8  0AD8               	incf	main@i+1,f
  1145     01C9  3000               	movlw	0
  1146     01CA  07D8               	addwf	main@i+1,f
  1147     01CB                     l2077:
  1148     01CB  0857               	movf	main@i,w
  1149     01CC  075E               	addwf	main@ptr,w
  1150     01CD  00A2               	movwf	??_main
  1151     01CE  0822               	movf	??_main,w
  1152     01CF  0084               	movwf	4
  1153     01D0  1383               	bcf	3,7	;select IRP bank0
  1154     01D1  0800               	movf	0,w
  1155     01D2  1D03               	btfss	3,2
  1156     01D3  29D5               	goto	u1671
  1157     01D4  29D6               	goto	u1670
  1158     01D5                     u1671:
  1159     01D5  29B9               	goto	l2073
  1160     01D6                     u1670:
  1161     01D6                     l2079:
  1162                           
  1163                           ;main.c: 135: };main.c: 137: printf("tmp = %s\r\n", rps_cmd);
  1164     01D6  3051               	movlw	(low (main@rps_cmd| 0))& (0+255)
  1165     01D7  00F1               	movwf	?_printf
  1166     01D8  3010               	movlw	(low ((STR_9-__stringbase)| (0+32768)))& (0+255)
  1167     01D9  158A  2736  118A   	fcall	_printf
  1168                           
  1169                           ;main.c: 141: switch(cmd){
  1170     01DC  2FDE               	goto	l2315
  1171     01DD                     l2081:
  1172                           
  1173                           ;main.c: 144: ptr = strtok((0), "/");
  1174     01DD  3077               	movlw	(low ((STR_8-__stringbase)| (0+32768)))& (0+255)
  1175     01DE  00FD               	movwf	strtok@s2
  1176     01DF  3000               	movlw	0
  1177     01E0  158A  264A  118A   	fcall	_strtok
  1178     01E3  1283               	bcf	3,5	;RP0=0, select bank0
  1179     01E4  1303               	bcf	3,6	;RP1=0, select bank0
  1180     01E5  00DE               	movwf	main@ptr
  1181                           
  1182                           ;main.c: 145: ptr = strtok((0), "/");
  1183     01E6  3077               	movlw	(low ((STR_8-__stringbase)| (0+32768)))& (0+255)
  1184     01E7  00FD               	movwf	strtok@s2
  1185     01E8  3000               	movlw	0
  1186     01E9  158A  264A  118A   	fcall	_strtok
  1187     01EC  1283               	bcf	3,5	;RP0=0, select bank0
  1188     01ED  1303               	bcf	3,6	;RP1=0, select bank0
  1189     01EE  00DE               	movwf	main@ptr
  1190                           
  1191                           ;main.c: 146: ptr = strtok((0), "/");
  1192     01EF  3077               	movlw	(low ((STR_8-__stringbase)| (0+32768)))& (0+255)
  1193     01F0  00FD               	movwf	strtok@s2
  1194     01F1  3000               	movlw	0
  1195     01F2  158A  264A  118A   	fcall	_strtok
  1196     01F5  1283               	bcf	3,5	;RP0=0, select bank0
  1197     01F6  1303               	bcf	3,6	;RP1=0, select bank0
  1198     01F7  00DE               	movwf	main@ptr
  1199                           
  1200                           ;main.c: 147: ptr = strtok((0), "/");
  1201     01F8  3077               	movlw	(low ((STR_8-__stringbase)| (0+32768)))& (0+255)
  1202     01F9  00FD               	movwf	strtok@s2
  1203     01FA  3000               	movlw	0
  1204     01FB  158A  264A  118A   	fcall	_strtok
  1205     01FE  1283               	bcf	3,5	;RP0=0, select bank0
  1206     01FF  1303               	bcf	3,6	;RP1=0, select bank0
  1207     0200  00DE               	movwf	main@ptr
  1208     0201                     l2083:
  1209                           
  1210                           ;main.c: 148: if(ptr != (0)) {
  1211     0201  085E               	movf	main@ptr,w
  1212     0202  1903               	btfsc	3,2
  1213     0203  2A05               	goto	u1681
  1214     0204  2A06               	goto	u1680
  1215     0205                     u1681:
  1216     0205  2A13               	goto	l65
  1217     0206                     u1680:
  1218     0206                     l2085:
  1219                           
  1220                           ;main.c: 149: dist = atoi(ptr);
  1221     0206  085E               	movf	main@ptr,w
  1222     0207  00F6               	movwf	atoi@s
  1223     0208  3000               	movlw	0
  1224     0209  00F7               	movwf	atoi@s+1
  1225     020A  118A  204F  118A   	fcall	_atoi
  1226     020D  0877               	movf	?_atoi+1,w
  1227     020E  1283               	bcf	3,5	;RP0=0, select bank0
  1228     020F  1303               	bcf	3,6	;RP1=0, select bank0
  1229     0210  00E2               	movwf	main@dist+1
  1230     0211  0876               	movf	?_atoi,w
  1231     0212  00E1               	movwf	main@dist
  1232     0213                     l65:
  1233                           
  1234                           ;main.c: 150: };main.c: 152: if(strstr(rps_cmd,"RPS1") != (0)){
  1235     0213  3051               	movlw	(low (main@rps_cmd| 0))& (0+255)
  1236     0214  00FA               	movwf	strstr@s1
  1237     0215  3000               	movlw	0
  1238     0216  00FB               	movwf	strstr@s1+1
  1239     0217  304C               	movlw	(low ((STR_14-__stringbase)| (0+32768)))& (0+255)
  1240     0218  00FC               	movwf	strstr@s2
  1241     0219  118A  2003  118A   	fcall	_strstr
  1242     021C  087A               	movf	?_strstr,w
  1243     021D  047B               	iorwf	?_strstr+1,w
  1244     021E  1903               	btfsc	3,2
  1245     021F  2A21               	goto	u1691
  1246     0220  2A22               	goto	u1690
  1247     0221                     u1691:
  1248     0221  2AEE               	goto	l2115
  1249     0222                     u1690:
  1250     0222                     l2087:
  1251                           
  1252                           ;main.c: 153: if (dist > 0){
  1253     0222  1283               	bcf	3,5	;RP0=0, select bank0
  1254     0223  1303               	bcf	3,6	;RP1=0, select bank0
  1255     0224  0862               	movf	main@dist+1,w
  1256     0225  3A80               	xorlw	128
  1257     0226  00FF               	movwf	btemp+1
  1258     0227  3080               	movlw	128
  1259     0228  027F               	subwf	btemp+1,w
  1260     0229  1D03               	skipz
  1261     022A  2A2D               	goto	u1705
  1262     022B  3001               	movlw	1
  1263     022C  0261               	subwf	main@dist,w
  1264     022D                     u1705:
  1265     022D  1C03               	skipc
  1266     022E  2A30               	goto	u1701
  1267     022F  2A31               	goto	u1700
  1268     0230                     u1701:
  1269     0230  2A87               	goto	l2101
  1270     0231                     u1700:
  1271     0231                     l2089:
  1272                           
  1273                           ;main.c: 154: for(k = 0 ; k < dist ; k++){
  1274     0231  1283               	bcf	3,5	;RP0=0, select bank0
  1275     0232  1303               	bcf	3,6	;RP1=0, select bank0
  1276     0233  01DF               	clrf	main@k
  1277     0234  01E0               	clrf	main@k+1
  1278     0235  2A78               	goto	l68
  1279     0236                     l69:
  1280                           
  1281                           ;main.c: 155: RB4 = 1;
  1282     0236  1283               	bcf	3,5	;RP0=0, select bank0
  1283     0237  1303               	bcf	3,6	;RP1=0, select bank0
  1284     0238  1606               	bsf	6,4	;volatile
  1285     0239                     l2091:
  1286                           
  1287                           ;main.c: 156: for(j = 0 ; j < intvl ; j++){
  1288     0239  01E5               	clrf	main@j
  1289     023A  01E6               	clrf	main@j+1
  1290     023B  2A45               	goto	l70
  1291     023C                     l71:
  1292                           
  1293                           ;main.c: 157: _delay((unsigned long)((1)*(4000000/4000000.0)));
  1294     023C  0000               	nop
  1295     023D                     l2093:
  1296     023D  3001               	movlw	1
  1297     023E  1283               	bcf	3,5	;RP0=0, select bank0
  1298     023F  1303               	bcf	3,6	;RP1=0, select bank0
  1299     0240  07E5               	addwf	main@j,f
  1300     0241  1803               	skipnc
  1301     0242  0AE6               	incf	main@j+1,f
  1302     0243  3000               	movlw	0
  1303     0244  07E6               	addwf	main@j+1,f
  1304     0245                     l70:
  1305     0245  0866               	movf	main@j+1,w
  1306     0246  3A80               	xorlw	128
  1307     0247  00A2               	movwf	??_main
  1308     0248  0864               	movf	main@intvl+1,w
  1309     0249  3A80               	xorlw	128
  1310     024A  0222               	subwf	??_main,w
  1311     024B  1D03               	skipz
  1312     024C  2A4F               	goto	u1715
  1313     024D  0863               	movf	main@intvl,w
  1314     024E  0265               	subwf	main@j,w
  1315     024F                     u1715:
  1316     024F  1C03               	skipc
  1317     0250  2A52               	goto	u1711
  1318     0251  2A53               	goto	u1710
  1319     0252                     u1711:
  1320     0252  2A3C               	goto	l71
  1321     0253                     u1710:
  1322     0253                     l72:
  1323                           
  1324                           ;main.c: 158: };main.c: 159: RB4 = 0;
  1325     0253  1283               	bcf	3,5	;RP0=0, select bank0
  1326     0254  1303               	bcf	3,6	;RP1=0, select bank0
  1327     0255  1206               	bcf	6,4	;volatile
  1328     0256                     l2095:
  1329                           
  1330                           ;main.c: 160: for(j = 0 ; j < intvl ; j++){
  1331     0256  01E5               	clrf	main@j
  1332     0257  01E6               	clrf	main@j+1
  1333     0258  2A62               	goto	l73
  1334     0259                     l74:
  1335                           
  1336                           ;main.c: 161: _delay((unsigned long)((1)*(4000000/4000000.0)));
  1337     0259  0000               	nop
  1338     025A                     l2097:
  1339     025A  3001               	movlw	1
  1340     025B  1283               	bcf	3,5	;RP0=0, select bank0
  1341     025C  1303               	bcf	3,6	;RP1=0, select bank0
  1342     025D  07E5               	addwf	main@j,f
  1343     025E  1803               	skipnc
  1344     025F  0AE6               	incf	main@j+1,f
  1345     0260  3000               	movlw	0
  1346     0261  07E6               	addwf	main@j+1,f
  1347     0262                     l73:
  1348     0262  0866               	movf	main@j+1,w
  1349     0263  3A80               	xorlw	128
  1350     0264  00A2               	movwf	??_main
  1351     0265  0864               	movf	main@intvl+1,w
  1352     0266  3A80               	xorlw	128
  1353     0267  0222               	subwf	??_main,w
  1354     0268  1D03               	skipz
  1355     0269  2A6C               	goto	u1725
  1356     026A  0863               	movf	main@intvl,w
  1357     026B  0265               	subwf	main@j,w
  1358     026C                     u1725:
  1359     026C  1C03               	skipc
  1360     026D  2A6F               	goto	u1721
  1361     026E  2A70               	goto	u1720
  1362     026F                     u1721:
  1363     026F  2A59               	goto	l74
  1364     0270                     u1720:
  1365     0270                     l2099:
  1366     0270  3001               	movlw	1
  1367     0271  1283               	bcf	3,5	;RP0=0, select bank0
  1368     0272  1303               	bcf	3,6	;RP1=0, select bank0
  1369     0273  07DF               	addwf	main@k,f
  1370     0274  1803               	skipnc
  1371     0275  0AE0               	incf	main@k+1,f
  1372     0276  3000               	movlw	0
  1373     0277  07E0               	addwf	main@k+1,f
  1374     0278                     l68:
  1375     0278  0860               	movf	main@k+1,w
  1376     0279  3A80               	xorlw	128
  1377     027A  00A2               	movwf	??_main
  1378     027B  0862               	movf	main@dist+1,w
  1379     027C  3A80               	xorlw	128
  1380     027D  0222               	subwf	??_main,w
  1381     027E  1D03               	skipz
  1382     027F  2A82               	goto	u1735
  1383     0280  0861               	movf	main@dist,w
  1384     0281  025F               	subwf	main@k,w
  1385     0282                     u1735:
  1386     0282  1C03               	skipc
  1387     0283  2A85               	goto	u1731
  1388     0284  2A86               	goto	u1730
  1389     0285                     u1731:
  1390     0285  2A36               	goto	l69
  1391     0286                     u1730:
  1392     0286  28FF               	goto	l1999
  1393     0287                     l2101:
  1394                           
  1395                           ;main.c: 165: dist *= -1;
  1396     0287  30FF               	movlw	255
  1397     0288  00F0               	movwf	___wmul@multiplier
  1398     0289  30FF               	movlw	255
  1399     028A  00F1               	movwf	___wmul@multiplier+1
  1400     028B  1283               	bcf	3,5	;RP0=0, select bank0
  1401     028C  1303               	bcf	3,6	;RP1=0, select bank0
  1402     028D  0862               	movf	main@dist+1,w
  1403     028E  00F3               	movwf	___wmul@multiplicand+1
  1404     028F  0861               	movf	main@dist,w
  1405     0290  00F2               	movwf	___wmul@multiplicand
  1406     0291  158A  2570  118A   	fcall	___wmul
  1407     0294  0871               	movf	?___wmul+1,w
  1408     0295  1283               	bcf	3,5	;RP0=0, select bank0
  1409     0296  1303               	bcf	3,6	;RP1=0, select bank0
  1410     0297  00E2               	movwf	main@dist+1
  1411     0298  0870               	movf	?___wmul,w
  1412     0299  00E1               	movwf	main@dist
  1413     029A                     l2103:
  1414                           
  1415                           ;main.c: 166: for(k = 0 ; k < dist ; k++){
  1416     029A  01DF               	clrf	main@k
  1417     029B  01E0               	clrf	main@k+1
  1418     029C  2ADF               	goto	l78
  1419     029D                     l79:
  1420                           
  1421                           ;main.c: 167: RB5 = 1;
  1422     029D  1283               	bcf	3,5	;RP0=0, select bank0
  1423     029E  1303               	bcf	3,6	;RP1=0, select bank0
  1424     029F  1686               	bsf	6,5	;volatile
  1425     02A0                     l2105:
  1426                           
  1427                           ;main.c: 168: for(j = 0 ; j < intvl ; j++){
  1428     02A0  01E5               	clrf	main@j
  1429     02A1  01E6               	clrf	main@j+1
  1430     02A2  2AAC               	goto	l80
  1431     02A3                     l81:
  1432                           
  1433                           ;main.c: 169: _delay((unsigned long)((1)*(4000000/4000000.0)));
  1434     02A3  0000               	nop
  1435     02A4                     l2107:
  1436     02A4  3001               	movlw	1
  1437     02A5  1283               	bcf	3,5	;RP0=0, select bank0
  1438     02A6  1303               	bcf	3,6	;RP1=0, select bank0
  1439     02A7  07E5               	addwf	main@j,f
  1440     02A8  1803               	skipnc
  1441     02A9  0AE6               	incf	main@j+1,f
  1442     02AA  3000               	movlw	0
  1443     02AB  07E6               	addwf	main@j+1,f
  1444     02AC                     l80:
  1445     02AC  0866               	movf	main@j+1,w
  1446     02AD  3A80               	xorlw	128
  1447     02AE  00A2               	movwf	??_main
  1448     02AF  0864               	movf	main@intvl+1,w
  1449     02B0  3A80               	xorlw	128
  1450     02B1  0222               	subwf	??_main,w
  1451     02B2  1D03               	skipz
  1452     02B3  2AB6               	goto	u1745
  1453     02B4  0863               	movf	main@intvl,w
  1454     02B5  0265               	subwf	main@j,w
  1455     02B6                     u1745:
  1456     02B6  1C03               	skipc
  1457     02B7  2AB9               	goto	u1741
  1458     02B8  2ABA               	goto	u1740
  1459     02B9                     u1741:
  1460     02B9  2AA3               	goto	l81
  1461     02BA                     u1740:
  1462     02BA                     l82:
  1463                           
  1464                           ;main.c: 170: };main.c: 171: RB5 = 0;
  1465     02BA  1283               	bcf	3,5	;RP0=0, select bank0
  1466     02BB  1303               	bcf	3,6	;RP1=0, select bank0
  1467     02BC  1286               	bcf	6,5	;volatile
  1468     02BD                     l2109:
  1469                           
  1470                           ;main.c: 172: for(j = 0 ; j < intvl ; j++){
  1471     02BD  01E5               	clrf	main@j
  1472     02BE  01E6               	clrf	main@j+1
  1473     02BF  2AC9               	goto	l83
  1474     02C0                     l84:
  1475                           
  1476                           ;main.c: 173: _delay((unsigned long)((1)*(4000000/4000000.0)));
  1477     02C0  0000               	nop
  1478     02C1                     l2111:
  1479     02C1  3001               	movlw	1
  1480     02C2  1283               	bcf	3,5	;RP0=0, select bank0
  1481     02C3  1303               	bcf	3,6	;RP1=0, select bank0
  1482     02C4  07E5               	addwf	main@j,f
  1483     02C5  1803               	skipnc
  1484     02C6  0AE6               	incf	main@j+1,f
  1485     02C7  3000               	movlw	0
  1486     02C8  07E6               	addwf	main@j+1,f
  1487     02C9                     l83:
  1488     02C9  0866               	movf	main@j+1,w
  1489     02CA  3A80               	xorlw	128
  1490     02CB  00A2               	movwf	??_main
  1491     02CC  0864               	movf	main@intvl+1,w
  1492     02CD  3A80               	xorlw	128
  1493     02CE  0222               	subwf	??_main,w
  1494     02CF  1D03               	skipz
  1495     02D0  2AD3               	goto	u1755
  1496     02D1  0863               	movf	main@intvl,w
  1497     02D2  0265               	subwf	main@j,w
  1498     02D3                     u1755:
  1499     02D3  1C03               	skipc
  1500     02D4  2AD6               	goto	u1751
  1501     02D5  2AD7               	goto	u1750
  1502     02D6                     u1751:
  1503     02D6  2AC0               	goto	l84
  1504     02D7                     u1750:
  1505     02D7                     l2113:
  1506     02D7  3001               	movlw	1
  1507     02D8  1283               	bcf	3,5	;RP0=0, select bank0
  1508     02D9  1303               	bcf	3,6	;RP1=0, select bank0
  1509     02DA  07DF               	addwf	main@k,f
  1510     02DB  1803               	skipnc
  1511     02DC  0AE0               	incf	main@k+1,f
  1512     02DD  3000               	movlw	0
  1513     02DE  07E0               	addwf	main@k+1,f
  1514     02DF                     l78:
  1515     02DF  0860               	movf	main@k+1,w
  1516     02E0  3A80               	xorlw	128
  1517     02E1  00A2               	movwf	??_main
  1518     02E2  0862               	movf	main@dist+1,w
  1519     02E3  3A80               	xorlw	128
  1520     02E4  0222               	subwf	??_main,w
  1521     02E5  1D03               	skipz
  1522     02E6  2AE9               	goto	u1765
  1523     02E7  0861               	movf	main@dist,w
  1524     02E8  025F               	subwf	main@k,w
  1525     02E9                     u1765:
  1526     02E9  1C03               	skipc
  1527     02EA  2AEC               	goto	u1761
  1528     02EB  2AED               	goto	u1760
  1529     02EC                     u1761:
  1530     02EC  2A9D               	goto	l79
  1531     02ED                     u1760:
  1532     02ED  28FF               	goto	l1999
  1533     02EE                     l2115:
  1534                           
  1535                           ;main.c: 179: else if(strstr(rps_cmd,"RPS2") != (0)){
  1536     02EE  3051               	movlw	(low (main@rps_cmd| 0))& (0+255)
  1537     02EF  00FA               	movwf	strstr@s1
  1538     02F0  3000               	movlw	0
  1539     02F1  00FB               	movwf	strstr@s1+1
  1540     02F2  3051               	movlw	(low ((STR_15-__stringbase)| (0+32768)))& (0+255)
  1541     02F3  00FC               	movwf	strstr@s2
  1542     02F4  118A  2003  118A   	fcall	_strstr
  1543     02F7  087A               	movf	?_strstr,w
  1544     02F8  047B               	iorwf	?_strstr+1,w
  1545     02F9  1903               	btfsc	3,2
  1546     02FA  2AFC               	goto	u1771
  1547     02FB  2AFD               	goto	u1770
  1548     02FC                     u1771:
  1549     02FC  2BC9               	goto	l2145
  1550     02FD                     u1770:
  1551     02FD                     l2117:
  1552                           
  1553                           ;main.c: 180: if (dist > 0){
  1554     02FD  1283               	bcf	3,5	;RP0=0, select bank0
  1555     02FE  1303               	bcf	3,6	;RP1=0, select bank0
  1556     02FF  0862               	movf	main@dist+1,w
  1557     0300  3A80               	xorlw	128
  1558     0301  00FF               	movwf	btemp+1
  1559     0302  3080               	movlw	128
  1560     0303  027F               	subwf	btemp+1,w
  1561     0304  1D03               	skipz
  1562     0305  2B08               	goto	u1785
  1563     0306  3001               	movlw	1
  1564     0307  0261               	subwf	main@dist,w
  1565     0308                     u1785:
  1566     0308  1C03               	skipc
  1567     0309  2B0B               	goto	u1781
  1568     030A  2B0C               	goto	u1780
  1569     030B                     u1781:
  1570     030B  2B62               	goto	l2131
  1571     030C                     u1780:
  1572     030C                     l2119:
  1573                           
  1574                           ;main.c: 181: for(k = 0 ; k < dist ; k++){
  1575     030C  1283               	bcf	3,5	;RP0=0, select bank0
  1576     030D  1303               	bcf	3,6	;RP1=0, select bank0
  1577     030E  01DF               	clrf	main@k
  1578     030F  01E0               	clrf	main@k+1
  1579     0310  2B53               	goto	l90
  1580     0311                     l91:
  1581                           
  1582                           ;main.c: 182: RA2 = 1;
  1583     0311  1283               	bcf	3,5	;RP0=0, select bank0
  1584     0312  1303               	bcf	3,6	;RP1=0, select bank0
  1585     0313  1505               	bsf	5,2	;volatile
  1586     0314                     l2121:
  1587                           
  1588                           ;main.c: 183: for(j = 0 ; j < intvl ; j++){
  1589     0314  01E5               	clrf	main@j
  1590     0315  01E6               	clrf	main@j+1
  1591     0316  2B20               	goto	l92
  1592     0317                     l93:
  1593                           
  1594                           ;main.c: 184: _delay((unsigned long)((1)*(4000000/4000000.0)));
  1595     0317  0000               	nop
  1596     0318                     l2123:
  1597     0318  3001               	movlw	1
  1598     0319  1283               	bcf	3,5	;RP0=0, select bank0
  1599     031A  1303               	bcf	3,6	;RP1=0, select bank0
  1600     031B  07E5               	addwf	main@j,f
  1601     031C  1803               	skipnc
  1602     031D  0AE6               	incf	main@j+1,f
  1603     031E  3000               	movlw	0
  1604     031F  07E6               	addwf	main@j+1,f
  1605     0320                     l92:
  1606     0320  0866               	movf	main@j+1,w
  1607     0321  3A80               	xorlw	128
  1608     0322  00A2               	movwf	??_main
  1609     0323  0864               	movf	main@intvl+1,w
  1610     0324  3A80               	xorlw	128
  1611     0325  0222               	subwf	??_main,w
  1612     0326  1D03               	skipz
  1613     0327  2B2A               	goto	u1795
  1614     0328  0863               	movf	main@intvl,w
  1615     0329  0265               	subwf	main@j,w
  1616     032A                     u1795:
  1617     032A  1C03               	skipc
  1618     032B  2B2D               	goto	u1791
  1619     032C  2B2E               	goto	u1790
  1620     032D                     u1791:
  1621     032D  2B17               	goto	l93
  1622     032E                     u1790:
  1623     032E                     l94:
  1624                           
  1625                           ;main.c: 185: };main.c: 186: RA2 = 0;
  1626     032E  1283               	bcf	3,5	;RP0=0, select bank0
  1627     032F  1303               	bcf	3,6	;RP1=0, select bank0
  1628     0330  1105               	bcf	5,2	;volatile
  1629     0331                     l2125:
  1630                           
  1631                           ;main.c: 187: for(j = 0 ; j < intvl ; j++){
  1632     0331  01E5               	clrf	main@j
  1633     0332  01E6               	clrf	main@j+1
  1634     0333  2B3D               	goto	l95
  1635     0334                     l96:
  1636                           
  1637                           ;main.c: 188: _delay((unsigned long)((1)*(4000000/4000000.0)));
  1638     0334  0000               	nop
  1639     0335                     l2127:
  1640     0335  3001               	movlw	1
  1641     0336  1283               	bcf	3,5	;RP0=0, select bank0
  1642     0337  1303               	bcf	3,6	;RP1=0, select bank0
  1643     0338  07E5               	addwf	main@j,f
  1644     0339  1803               	skipnc
  1645     033A  0AE6               	incf	main@j+1,f
  1646     033B  3000               	movlw	0
  1647     033C  07E6               	addwf	main@j+1,f
  1648     033D                     l95:
  1649     033D  0866               	movf	main@j+1,w
  1650     033E  3A80               	xorlw	128
  1651     033F  00A2               	movwf	??_main
  1652     0340  0864               	movf	main@intvl+1,w
  1653     0341  3A80               	xorlw	128
  1654     0342  0222               	subwf	??_main,w
  1655     0343  1D03               	skipz
  1656     0344  2B47               	goto	u1805
  1657     0345  0863               	movf	main@intvl,w
  1658     0346  0265               	subwf	main@j,w
  1659     0347                     u1805:
  1660     0347  1C03               	skipc
  1661     0348  2B4A               	goto	u1801
  1662     0349  2B4B               	goto	u1800
  1663     034A                     u1801:
  1664     034A  2B34               	goto	l96
  1665     034B                     u1800:
  1666     034B                     l2129:
  1667     034B  3001               	movlw	1
  1668     034C  1283               	bcf	3,5	;RP0=0, select bank0
  1669     034D  1303               	bcf	3,6	;RP1=0, select bank0
  1670     034E  07DF               	addwf	main@k,f
  1671     034F  1803               	skipnc
  1672     0350  0AE0               	incf	main@k+1,f
  1673     0351  3000               	movlw	0
  1674     0352  07E0               	addwf	main@k+1,f
  1675     0353                     l90:
  1676     0353  0860               	movf	main@k+1,w
  1677     0354  3A80               	xorlw	128
  1678     0355  00A2               	movwf	??_main
  1679     0356  0862               	movf	main@dist+1,w
  1680     0357  3A80               	xorlw	128
  1681     0358  0222               	subwf	??_main,w
  1682     0359  1D03               	skipz
  1683     035A  2B5D               	goto	u1815
  1684     035B  0861               	movf	main@dist,w
  1685     035C  025F               	subwf	main@k,w
  1686     035D                     u1815:
  1687     035D  1C03               	skipc
  1688     035E  2B60               	goto	u1811
  1689     035F  2B61               	goto	u1810
  1690     0360                     u1811:
  1691     0360  2B11               	goto	l91
  1692     0361                     u1810:
  1693     0361  28FF               	goto	l1999
  1694     0362                     l2131:
  1695                           
  1696                           ;main.c: 192: dist *= -1;
  1697     0362  30FF               	movlw	255
  1698     0363  00F0               	movwf	___wmul@multiplier
  1699     0364  30FF               	movlw	255
  1700     0365  00F1               	movwf	___wmul@multiplier+1
  1701     0366  1283               	bcf	3,5	;RP0=0, select bank0
  1702     0367  1303               	bcf	3,6	;RP1=0, select bank0
  1703     0368  0862               	movf	main@dist+1,w
  1704     0369  00F3               	movwf	___wmul@multiplicand+1
  1705     036A  0861               	movf	main@dist,w
  1706     036B  00F2               	movwf	___wmul@multiplicand
  1707     036C  158A  2570  118A   	fcall	___wmul
  1708     036F  0871               	movf	?___wmul+1,w
  1709     0370  1283               	bcf	3,5	;RP0=0, select bank0
  1710     0371  1303               	bcf	3,6	;RP1=0, select bank0
  1711     0372  00E2               	movwf	main@dist+1
  1712     0373  0870               	movf	?___wmul,w
  1713     0374  00E1               	movwf	main@dist
  1714     0375                     l2133:
  1715                           
  1716                           ;main.c: 193: for(k = 0 ; k < dist ; k++){
  1717     0375  01DF               	clrf	main@k
  1718     0376  01E0               	clrf	main@k+1
  1719     0377  2BBA               	goto	l100
  1720     0378                     l101:
  1721                           
  1722                           ;main.c: 194: RA3 = 1;
  1723     0378  1283               	bcf	3,5	;RP0=0, select bank0
  1724     0379  1303               	bcf	3,6	;RP1=0, select bank0
  1725     037A  1585               	bsf	5,3	;volatile
  1726     037B                     l2135:
  1727                           
  1728                           ;main.c: 195: for(j = 0 ; j < intvl ; j++){
  1729     037B  01E5               	clrf	main@j
  1730     037C  01E6               	clrf	main@j+1
  1731     037D  2B87               	goto	l102
  1732     037E                     l103:
  1733                           
  1734                           ;main.c: 196: _delay((unsigned long)((1)*(4000000/4000000.0)));
  1735     037E  0000               	nop
  1736     037F                     l2137:
  1737     037F  3001               	movlw	1
  1738     0380  1283               	bcf	3,5	;RP0=0, select bank0
  1739     0381  1303               	bcf	3,6	;RP1=0, select bank0
  1740     0382  07E5               	addwf	main@j,f
  1741     0383  1803               	skipnc
  1742     0384  0AE6               	incf	main@j+1,f
  1743     0385  3000               	movlw	0
  1744     0386  07E6               	addwf	main@j+1,f
  1745     0387                     l102:
  1746     0387  0866               	movf	main@j+1,w
  1747     0388  3A80               	xorlw	128
  1748     0389  00A2               	movwf	??_main
  1749     038A  0864               	movf	main@intvl+1,w
  1750     038B  3A80               	xorlw	128
  1751     038C  0222               	subwf	??_main,w
  1752     038D  1D03               	skipz
  1753     038E  2B91               	goto	u1825
  1754     038F  0863               	movf	main@intvl,w
  1755     0390  0265               	subwf	main@j,w
  1756     0391                     u1825:
  1757     0391  1C03               	skipc
  1758     0392  2B94               	goto	u1821
  1759     0393  2B95               	goto	u1820
  1760     0394                     u1821:
  1761     0394  2B7E               	goto	l103
  1762     0395                     u1820:
  1763     0395                     l104:
  1764                           
  1765                           ;main.c: 197: };main.c: 198: RA3 = 0;
  1766     0395  1283               	bcf	3,5	;RP0=0, select bank0
  1767     0396  1303               	bcf	3,6	;RP1=0, select bank0
  1768     0397  1185               	bcf	5,3	;volatile
  1769     0398                     l2139:
  1770                           
  1771                           ;main.c: 199: for(j = 0 ; j < intvl ; j++){
  1772     0398  01E5               	clrf	main@j
  1773     0399  01E6               	clrf	main@j+1
  1774     039A  2BA4               	goto	l105
  1775     039B                     l106:
  1776                           
  1777                           ;main.c: 200: _delay((unsigned long)((1)*(4000000/4000000.0)));
  1778     039B  0000               	nop
  1779     039C                     l2141:
  1780     039C  3001               	movlw	1
  1781     039D  1283               	bcf	3,5	;RP0=0, select bank0
  1782     039E  1303               	bcf	3,6	;RP1=0, select bank0
  1783     039F  07E5               	addwf	main@j,f
  1784     03A0  1803               	skipnc
  1785     03A1  0AE6               	incf	main@j+1,f
  1786     03A2  3000               	movlw	0
  1787     03A3  07E6               	addwf	main@j+1,f
  1788     03A4                     l105:
  1789     03A4  0866               	movf	main@j+1,w
  1790     03A5  3A80               	xorlw	128
  1791     03A6  00A2               	movwf	??_main
  1792     03A7  0864               	movf	main@intvl+1,w
  1793     03A8  3A80               	xorlw	128
  1794     03A9  0222               	subwf	??_main,w
  1795     03AA  1D03               	skipz
  1796     03AB  2BAE               	goto	u1835
  1797     03AC  0863               	movf	main@intvl,w
  1798     03AD  0265               	subwf	main@j,w
  1799     03AE                     u1835:
  1800     03AE  1C03               	skipc
  1801     03AF  2BB1               	goto	u1831
  1802     03B0  2BB2               	goto	u1830
  1803     03B1                     u1831:
  1804     03B1  2B9B               	goto	l106
  1805     03B2                     u1830:
  1806     03B2                     l2143:
  1807     03B2  3001               	movlw	1
  1808     03B3  1283               	bcf	3,5	;RP0=0, select bank0
  1809     03B4  1303               	bcf	3,6	;RP1=0, select bank0
  1810     03B5  07DF               	addwf	main@k,f
  1811     03B6  1803               	skipnc
  1812     03B7  0AE0               	incf	main@k+1,f
  1813     03B8  3000               	movlw	0
  1814     03B9  07E0               	addwf	main@k+1,f
  1815     03BA                     l100:
  1816     03BA  0860               	movf	main@k+1,w
  1817     03BB  3A80               	xorlw	128
  1818     03BC  00A2               	movwf	??_main
  1819     03BD  0862               	movf	main@dist+1,w
  1820     03BE  3A80               	xorlw	128
  1821     03BF  0222               	subwf	??_main,w
  1822     03C0  1D03               	skipz
  1823     03C1  2BC4               	goto	u1845
  1824     03C2  0861               	movf	main@dist,w
  1825     03C3  025F               	subwf	main@k,w
  1826     03C4                     u1845:
  1827     03C4  1C03               	skipc
  1828     03C5  2BC7               	goto	u1841
  1829     03C6  2BC8               	goto	u1840
  1830     03C7                     u1841:
  1831     03C7  2B78               	goto	l101
  1832     03C8                     u1840:
  1833     03C8  28FF               	goto	l1999
  1834     03C9                     l2145:
  1835                           
  1836                           ;main.c: 206: else if(strstr(rps_cmd,"RPS3") != (0)){
  1837     03C9  3051               	movlw	(low (main@rps_cmd| 0))& (0+255)
  1838     03CA  00FA               	movwf	strstr@s1
  1839     03CB  3000               	movlw	0
  1840     03CC  00FB               	movwf	strstr@s1+1
  1841     03CD  3056               	movlw	(low ((STR_16-__stringbase)| (0+32768)))& (0+255)
  1842     03CE  00FC               	movwf	strstr@s2
  1843     03CF  118A  2003  118A   	fcall	_strstr
  1844     03D2  087A               	movf	?_strstr,w
  1845     03D3  047B               	iorwf	?_strstr+1,w
  1846     03D4  1903               	btfsc	3,2
  1847     03D5  2BD7               	goto	u1851
  1848     03D6  2BD8               	goto	u1850
  1849     03D7                     u1851:
  1850     03D7  2FF7               	goto	l131
  1851     03D8                     u1850:
  1852     03D8                     l2147:
  1853                           
  1854                           ;main.c: 207: if (dist > 0){
  1855     03D8  1283               	bcf	3,5	;RP0=0, select bank0
  1856     03D9  1303               	bcf	3,6	;RP1=0, select bank0
  1857     03DA  0862               	movf	main@dist+1,w
  1858     03DB  3A80               	xorlw	128
  1859     03DC  00FF               	movwf	btemp+1
  1860     03DD  3080               	movlw	128
  1861     03DE  027F               	subwf	btemp+1,w
  1862     03DF  1D03               	skipz
  1863     03E0  2BE3               	goto	u1865
  1864     03E1  3001               	movlw	1
  1865     03E2  0261               	subwf	main@dist,w
  1866     03E3                     u1865:
  1867     03E3  1C03               	skipc
  1868     03E4  2BE6               	goto	u1861
  1869     03E5  2BE7               	goto	u1860
  1870     03E6                     u1861:
  1871     03E6  2C3D               	goto	l2161
  1872     03E7                     u1860:
  1873     03E7                     l2149:
  1874                           
  1875                           ;main.c: 208: for(k = 0 ; k < dist ; k++){
  1876     03E7  1283               	bcf	3,5	;RP0=0, select bank0
  1877     03E8  1303               	bcf	3,6	;RP1=0, select bank0
  1878     03E9  01DF               	clrf	main@k
  1879     03EA  01E0               	clrf	main@k+1
  1880     03EB  2C2E               	goto	l112
  1881     03EC                     l113:
  1882                           
  1883                           ;main.c: 209: RA0 = 1;
  1884     03EC  1283               	bcf	3,5	;RP0=0, select bank0
  1885     03ED  1303               	bcf	3,6	;RP1=0, select bank0
  1886     03EE  1405               	bsf	5,0	;volatile
  1887     03EF                     l2151:
  1888                           
  1889                           ;main.c: 210: for(j = 0 ; j < intvl ; j++){
  1890     03EF  01E5               	clrf	main@j
  1891     03F0  01E6               	clrf	main@j+1
  1892     03F1  2BFB               	goto	l114
  1893     03F2                     l115:
  1894                           
  1895                           ;main.c: 211: _delay((unsigned long)((1)*(4000000/4000000.0)));
  1896     03F2  0000               	nop
  1897     03F3                     l2153:
  1898     03F3  3001               	movlw	1
  1899     03F4  1283               	bcf	3,5	;RP0=0, select bank0
  1900     03F5  1303               	bcf	3,6	;RP1=0, select bank0
  1901     03F6  07E5               	addwf	main@j,f
  1902     03F7  1803               	skipnc
  1903     03F8  0AE6               	incf	main@j+1,f
  1904     03F9  3000               	movlw	0
  1905     03FA  07E6               	addwf	main@j+1,f
  1906     03FB                     l114:
  1907     03FB  0866               	movf	main@j+1,w
  1908     03FC  3A80               	xorlw	128
  1909     03FD  00A2               	movwf	??_main
  1910     03FE  0864               	movf	main@intvl+1,w
  1911     03FF  3A80               	xorlw	128
  1912     0400  0222               	subwf	??_main,w
  1913     0401  1D03               	skipz
  1914     0402  2C05               	goto	u1875
  1915     0403  0863               	movf	main@intvl,w
  1916     0404  0265               	subwf	main@j,w
  1917     0405                     u1875:
  1918     0405  1C03               	skipc
  1919     0406  2C08               	goto	u1871
  1920     0407  2C09               	goto	u1870
  1921     0408                     u1871:
  1922     0408  2BF2               	goto	l115
  1923     0409                     u1870:
  1924     0409                     l116:
  1925                           
  1926                           ;main.c: 212: };main.c: 213: RA0 = 0;
  1927     0409  1283               	bcf	3,5	;RP0=0, select bank0
  1928     040A  1303               	bcf	3,6	;RP1=0, select bank0
  1929     040B  1005               	bcf	5,0	;volatile
  1930     040C                     l2155:
  1931                           
  1932                           ;main.c: 214: for(j = 0 ; j < intvl ; j++){
  1933     040C  01E5               	clrf	main@j
  1934     040D  01E6               	clrf	main@j+1
  1935     040E  2C18               	goto	l117
  1936     040F                     l118:
  1937                           
  1938                           ;main.c: 215: _delay((unsigned long)((1)*(4000000/4000000.0)));
  1939     040F  0000               	nop
  1940     0410                     l2157:
  1941     0410  3001               	movlw	1
  1942     0411  1283               	bcf	3,5	;RP0=0, select bank0
  1943     0412  1303               	bcf	3,6	;RP1=0, select bank0
  1944     0413  07E5               	addwf	main@j,f
  1945     0414  1803               	skipnc
  1946     0415  0AE6               	incf	main@j+1,f
  1947     0416  3000               	movlw	0
  1948     0417  07E6               	addwf	main@j+1,f
  1949     0418                     l117:
  1950     0418  0866               	movf	main@j+1,w
  1951     0419  3A80               	xorlw	128
  1952     041A  00A2               	movwf	??_main
  1953     041B  0864               	movf	main@intvl+1,w
  1954     041C  3A80               	xorlw	128
  1955     041D  0222               	subwf	??_main,w
  1956     041E  1D03               	skipz
  1957     041F  2C22               	goto	u1885
  1958     0420  0863               	movf	main@intvl,w
  1959     0421  0265               	subwf	main@j,w
  1960     0422                     u1885:
  1961     0422  1C03               	skipc
  1962     0423  2C25               	goto	u1881
  1963     0424  2C26               	goto	u1880
  1964     0425                     u1881:
  1965     0425  2C0F               	goto	l118
  1966     0426                     u1880:
  1967     0426                     l2159:
  1968     0426  3001               	movlw	1
  1969     0427  1283               	bcf	3,5	;RP0=0, select bank0
  1970     0428  1303               	bcf	3,6	;RP1=0, select bank0
  1971     0429  07DF               	addwf	main@k,f
  1972     042A  1803               	skipnc
  1973     042B  0AE0               	incf	main@k+1,f
  1974     042C  3000               	movlw	0
  1975     042D  07E0               	addwf	main@k+1,f
  1976     042E                     l112:
  1977     042E  0860               	movf	main@k+1,w
  1978     042F  3A80               	xorlw	128
  1979     0430  00A2               	movwf	??_main
  1980     0431  0862               	movf	main@dist+1,w
  1981     0432  3A80               	xorlw	128
  1982     0433  0222               	subwf	??_main,w
  1983     0434  1D03               	skipz
  1984     0435  2C38               	goto	u1895
  1985     0436  0861               	movf	main@dist,w
  1986     0437  025F               	subwf	main@k,w
  1987     0438                     u1895:
  1988     0438  1C03               	skipc
  1989     0439  2C3B               	goto	u1891
  1990     043A  2C3C               	goto	u1890
  1991     043B                     u1891:
  1992     043B  2BEC               	goto	l113
  1993     043C                     u1890:
  1994     043C  28FF               	goto	l1999
  1995     043D                     l2161:
  1996                           
  1997                           ;main.c: 219: dist *= -1;
  1998     043D  30FF               	movlw	255
  1999     043E  00F0               	movwf	___wmul@multiplier
  2000     043F  30FF               	movlw	255
  2001     0440  00F1               	movwf	___wmul@multiplier+1
  2002     0441  1283               	bcf	3,5	;RP0=0, select bank0
  2003     0442  1303               	bcf	3,6	;RP1=0, select bank0
  2004     0443  0862               	movf	main@dist+1,w
  2005     0444  00F3               	movwf	___wmul@multiplicand+1
  2006     0445  0861               	movf	main@dist,w
  2007     0446  00F2               	movwf	___wmul@multiplicand
  2008     0447  158A  2570  118A   	fcall	___wmul
  2009     044A  0871               	movf	?___wmul+1,w
  2010     044B  1283               	bcf	3,5	;RP0=0, select bank0
  2011     044C  1303               	bcf	3,6	;RP1=0, select bank0
  2012     044D  00E2               	movwf	main@dist+1
  2013     044E  0870               	movf	?___wmul,w
  2014     044F  00E1               	movwf	main@dist
  2015     0450                     l2163:
  2016                           
  2017                           ;main.c: 220: for(k = 0 ; k < dist ; k++){
  2018     0450  01DF               	clrf	main@k
  2019     0451  01E0               	clrf	main@k+1
  2020     0452  2C95               	goto	l122
  2021     0453                     l123:
  2022                           
  2023                           ;main.c: 221: RA1 = 1;
  2024     0453  1283               	bcf	3,5	;RP0=0, select bank0
  2025     0454  1303               	bcf	3,6	;RP1=0, select bank0
  2026     0455  1485               	bsf	5,1	;volatile
  2027     0456                     l2165:
  2028                           
  2029                           ;main.c: 222: for(j = 0 ; j < intvl ; j++){
  2030     0456  01E5               	clrf	main@j
  2031     0457  01E6               	clrf	main@j+1
  2032     0458  2C62               	goto	l124
  2033     0459                     l125:
  2034                           
  2035                           ;main.c: 223: _delay((unsigned long)((1)*(4000000/4000000.0)));
  2036     0459  0000               	nop
  2037     045A                     l2167:
  2038     045A  3001               	movlw	1
  2039     045B  1283               	bcf	3,5	;RP0=0, select bank0
  2040     045C  1303               	bcf	3,6	;RP1=0, select bank0
  2041     045D  07E5               	addwf	main@j,f
  2042     045E  1803               	skipnc
  2043     045F  0AE6               	incf	main@j+1,f
  2044     0460  3000               	movlw	0
  2045     0461  07E6               	addwf	main@j+1,f
  2046     0462                     l124:
  2047     0462  0866               	movf	main@j+1,w
  2048     0463  3A80               	xorlw	128
  2049     0464  00A2               	movwf	??_main
  2050     0465  0864               	movf	main@intvl+1,w
  2051     0466  3A80               	xorlw	128
  2052     0467  0222               	subwf	??_main,w
  2053     0468  1D03               	skipz
  2054     0469  2C6C               	goto	u1905
  2055     046A  0863               	movf	main@intvl,w
  2056     046B  0265               	subwf	main@j,w
  2057     046C                     u1905:
  2058     046C  1C03               	skipc
  2059     046D  2C6F               	goto	u1901
  2060     046E  2C70               	goto	u1900
  2061     046F                     u1901:
  2062     046F  2C59               	goto	l125
  2063     0470                     u1900:
  2064     0470                     l126:
  2065                           
  2066                           ;main.c: 224: };main.c: 225: RA1 = 0;
  2067     0470  1283               	bcf	3,5	;RP0=0, select bank0
  2068     0471  1303               	bcf	3,6	;RP1=0, select bank0
  2069     0472  1085               	bcf	5,1	;volatile
  2070     0473                     l2169:
  2071                           
  2072                           ;main.c: 226: for(j = 0 ; j < intvl ; j++){
  2073     0473  01E5               	clrf	main@j
  2074     0474  01E6               	clrf	main@j+1
  2075     0475  2C7F               	goto	l127
  2076     0476                     l128:
  2077                           
  2078                           ;main.c: 227: _delay((unsigned long)((1)*(4000000/4000000.0)));
  2079     0476  0000               	nop
  2080     0477                     l2171:
  2081     0477  3001               	movlw	1
  2082     0478  1283               	bcf	3,5	;RP0=0, select bank0
  2083     0479  1303               	bcf	3,6	;RP1=0, select bank0
  2084     047A  07E5               	addwf	main@j,f
  2085     047B  1803               	skipnc
  2086     047C  0AE6               	incf	main@j+1,f
  2087     047D  3000               	movlw	0
  2088     047E  07E6               	addwf	main@j+1,f
  2089     047F                     l127:
  2090     047F  0866               	movf	main@j+1,w
  2091     0480  3A80               	xorlw	128
  2092     0481  00A2               	movwf	??_main
  2093     0482  0864               	movf	main@intvl+1,w
  2094     0483  3A80               	xorlw	128
  2095     0484  0222               	subwf	??_main,w
  2096     0485  1D03               	skipz
  2097     0486  2C89               	goto	u1915
  2098     0487  0863               	movf	main@intvl,w
  2099     0488  0265               	subwf	main@j,w
  2100     0489                     u1915:
  2101     0489  1C03               	skipc
  2102     048A  2C8C               	goto	u1911
  2103     048B  2C8D               	goto	u1910
  2104     048C                     u1911:
  2105     048C  2C76               	goto	l128
  2106     048D                     u1910:
  2107     048D                     l2173:
  2108     048D  3001               	movlw	1
  2109     048E  1283               	bcf	3,5	;RP0=0, select bank0
  2110     048F  1303               	bcf	3,6	;RP1=0, select bank0
  2111     0490  07DF               	addwf	main@k,f
  2112     0491  1803               	skipnc
  2113     0492  0AE0               	incf	main@k+1,f
  2114     0493  3000               	movlw	0
  2115     0494  07E0               	addwf	main@k+1,f
  2116     0495                     l122:
  2117     0495  0860               	movf	main@k+1,w
  2118     0496  3A80               	xorlw	128
  2119     0497  00A2               	movwf	??_main
  2120     0498  0862               	movf	main@dist+1,w
  2121     0499  3A80               	xorlw	128
  2122     049A  0222               	subwf	??_main,w
  2123     049B  1D03               	skipz
  2124     049C  2C9F               	goto	u1925
  2125     049D  0861               	movf	main@dist,w
  2126     049E  025F               	subwf	main@k,w
  2127     049F                     u1925:
  2128     049F  1C03               	skipc
  2129     04A0  2CA2               	goto	u1921
  2130     04A1  2CA3               	goto	u1920
  2131     04A2                     u1921:
  2132     04A2  2C53               	goto	l123
  2133     04A3                     u1920:
  2134     04A3  28FF               	goto	l1999
  2135     04A4                     l2175:
  2136                           
  2137                           ;main.c: 239: ptr = strtok((0), "/");
  2138     04A4  3077               	movlw	(low ((STR_8-__stringbase)| (0+32768)))& (0+255)
  2139     04A5  00FD               	movwf	strtok@s2
  2140     04A6  3000               	movlw	0
  2141     04A7  158A  264A  118A   	fcall	_strtok
  2142     04AA  1283               	bcf	3,5	;RP0=0, select bank0
  2143     04AB  1303               	bcf	3,6	;RP1=0, select bank0
  2144     04AC  00DE               	movwf	main@ptr
  2145                           
  2146                           ;main.c: 240: ptr = strtok((0), "/");
  2147     04AD  3077               	movlw	(low ((STR_8-__stringbase)| (0+32768)))& (0+255)
  2148     04AE  00FD               	movwf	strtok@s2
  2149     04AF  3000               	movlw	0
  2150     04B0  158A  264A  118A   	fcall	_strtok
  2151     04B3  1283               	bcf	3,5	;RP0=0, select bank0
  2152     04B4  1303               	bcf	3,6	;RP1=0, select bank0
  2153     04B5  00DE               	movwf	main@ptr
  2154                           
  2155                           ;main.c: 241: ptr = strtok((0), "/");
  2156     04B6  3077               	movlw	(low ((STR_8-__stringbase)| (0+32768)))& (0+255)
  2157     04B7  00FD               	movwf	strtok@s2
  2158     04B8  3000               	movlw	0
  2159     04B9  158A  264A  118A   	fcall	_strtok
  2160     04BC  1283               	bcf	3,5	;RP0=0, select bank0
  2161     04BD  1303               	bcf	3,6	;RP1=0, select bank0
  2162     04BE  00DE               	movwf	main@ptr
  2163     04BF                     l2177:
  2164                           
  2165                           ;main.c: 242: if(ptr != (0)) {
  2166     04BF  085E               	movf	main@ptr,w
  2167     04C0  1903               	btfsc	3,2
  2168     04C1  2CC3               	goto	u1931
  2169     04C2  2CC4               	goto	u1930
  2170     04C3                     u1931:
  2171     04C3  2CD1               	goto	l2181
  2172     04C4                     u1930:
  2173     04C4                     l2179:
  2174                           
  2175                           ;main.c: 243: set_spd = atoi(ptr);
  2176     04C4  085E               	movf	main@ptr,w
  2177     04C5  00F6               	movwf	atoi@s
  2178     04C6  3000               	movlw	0
  2179     04C7  00F7               	movwf	atoi@s+1
  2180     04C8  118A  204F  118A   	fcall	_atoi
  2181     04CB  0877               	movf	?_atoi+1,w
  2182     04CC  1283               	bcf	3,5	;RP0=0, select bank0
  2183     04CD  1303               	bcf	3,6	;RP1=0, select bank0
  2184     04CE  00D0               	movwf	main@set_spd+1
  2185     04CF  0876               	movf	?_atoi,w
  2186     04D0  00CF               	movwf	main@set_spd
  2187     04D1                     l2181:
  2188                           
  2189                           ;main.c: 244: };main.c: 245: intvl = mx_spd / set_spd;
  2190     04D1  0850               	movf	main@set_spd+1,w
  2191     04D2  00F1               	movwf	___awdiv@divisor+1
  2192     04D3  084F               	movf	main@set_spd,w
  2193     04D4  00F0               	movwf	___awdiv@divisor
  2194     04D5  084E               	movf	main@mx_spd+1,w
  2195     04D6  00F3               	movwf	___awdiv@dividend+1
  2196     04D7  084D               	movf	main@mx_spd,w
  2197     04D8  00F2               	movwf	___awdiv@dividend
  2198     04D9  158A  2799  118A   	fcall	___awdiv
  2199     04DC  0871               	movf	?___awdiv+1,w
  2200     04DD  1283               	bcf	3,5	;RP0=0, select bank0
  2201     04DE  1303               	bcf	3,6	;RP1=0, select bank0
  2202     04DF  00E4               	movwf	main@intvl+1
  2203     04E0  0870               	movf	?___awdiv,w
  2204     04E1  00E3               	movwf	main@intvl
  2205     04E2                     l2183:
  2206                           
  2207                           ;main.c: 246: if (intvl == 0){
  2208     04E2  0863               	movf	main@intvl,w
  2209     04E3  0464               	iorwf	main@intvl+1,w
  2210     04E4  1D03               	btfss	3,2
  2211     04E5  2CE7               	goto	u1941
  2212     04E6  2CE8               	goto	u1940
  2213     04E7                     u1941:
  2214     04E7  2CEC               	goto	l2187
  2215     04E8                     u1940:
  2216     04E8                     l2185:
  2217                           
  2218                           ;main.c: 247: intvl = 1;
  2219     04E8  3001               	movlw	1
  2220     04E9  00E3               	movwf	main@intvl
  2221     04EA  3000               	movlw	0
  2222     04EB  00E4               	movwf	main@intvl+1
  2223     04EC                     l2187:
  2224                           
  2225                           ;main.c: 248: };main.c: 249: printf("C\tWTB\r\n");
  2226     04EC  3025               	movlw	(low ((STR_20-__stringbase)| (0+32768)))& (0+255)
  2227     04ED  158A  2736  118A   	fcall	_printf
  2228                           
  2229                           ;main.c: 251: break;
  2230     04F0  28FF               	goto	l1999
  2231     04F1                     l2189:
  2232                           
  2233                           ;main.c: 254: ptr = strtok((0), "/");
  2234     04F1  3077               	movlw	(low ((STR_8-__stringbase)| (0+32768)))& (0+255)
  2235     04F2  00FD               	movwf	strtok@s2
  2236     04F3  3000               	movlw	0
  2237     04F4  158A  264A  118A   	fcall	_strtok
  2238     04F7  1283               	bcf	3,5	;RP0=0, select bank0
  2239     04F8  1303               	bcf	3,6	;RP1=0, select bank0
  2240     04F9  00DE               	movwf	main@ptr
  2241                           
  2242                           ;main.c: 255: ptr = strtok((0), "/");
  2243     04FA  3077               	movlw	(low ((STR_8-__stringbase)| (0+32768)))& (0+255)
  2244     04FB  00FD               	movwf	strtok@s2
  2245     04FC  3000               	movlw	0
  2246     04FD  158A  264A  118A   	fcall	_strtok
  2247     0500  1283               	bcf	3,5	;RP0=0, select bank0
  2248     0501  1303               	bcf	3,6	;RP1=0, select bank0
  2249     0502  00DE               	movwf	main@ptr
  2250                           
  2251                           ;main.c: 256: ptr = strtok((0), "/");
  2252     0503  3077               	movlw	(low ((STR_8-__stringbase)| (0+32768)))& (0+255)
  2253     0504  00FD               	movwf	strtok@s2
  2254     0505  3000               	movlw	0
  2255     0506  158A  264A  118A   	fcall	_strtok
  2256     0509  1283               	bcf	3,5	;RP0=0, select bank0
  2257     050A  1303               	bcf	3,6	;RP1=0, select bank0
  2258     050B  00DE               	movwf	main@ptr
  2259                           
  2260                           ;main.c: 257: ptr = strtok((0), "/");
  2261     050C  3077               	movlw	(low ((STR_8-__stringbase)| (0+32768)))& (0+255)
  2262     050D  00FD               	movwf	strtok@s2
  2263     050E  3000               	movlw	0
  2264     050F  158A  264A  118A   	fcall	_strtok
  2265     0512  1283               	bcf	3,5	;RP0=0, select bank0
  2266     0513  1303               	bcf	3,6	;RP1=0, select bank0
  2267     0514  00DE               	movwf	main@ptr
  2268                           
  2269                           ;main.c: 258: ptr = strtok((0), "/");
  2270     0515  3077               	movlw	(low ((STR_8-__stringbase)| (0+32768)))& (0+255)
  2271     0516  00FD               	movwf	strtok@s2
  2272     0517  3000               	movlw	0
  2273     0518  158A  264A  118A   	fcall	_strtok
  2274     051B  1283               	bcf	3,5	;RP0=0, select bank0
  2275     051C  1303               	bcf	3,6	;RP1=0, select bank0
  2276     051D  00DE               	movwf	main@ptr
  2277     051E                     l2191:
  2278                           
  2279                           ;main.c: 259: if(ptr != (0)) {
  2280     051E  085E               	movf	main@ptr,w
  2281     051F  1903               	btfsc	3,2
  2282     0520  2D22               	goto	u1951
  2283     0521  2D23               	goto	u1950
  2284     0522                     u1951:
  2285     0522  2D30               	goto	l2195
  2286     0523                     u1950:
  2287     0523                     l2193:
  2288                           
  2289                           ;main.c: 260: dist = atoi(ptr);
  2290     0523  085E               	movf	main@ptr,w
  2291     0524  00F6               	movwf	atoi@s
  2292     0525  3000               	movlw	0
  2293     0526  00F7               	movwf	atoi@s+1
  2294     0527  118A  204F  118A   	fcall	_atoi
  2295     052A  0877               	movf	?_atoi+1,w
  2296     052B  1283               	bcf	3,5	;RP0=0, select bank0
  2297     052C  1303               	bcf	3,6	;RP1=0, select bank0
  2298     052D  00E2               	movwf	main@dist+1
  2299     052E  0876               	movf	?_atoi,w
  2300     052F  00E1               	movwf	main@dist
  2301     0530                     l2195:
  2302                           
  2303                           ;main.c: 261: };main.c: 264: if (dist > 0){
  2304     0530  0862               	movf	main@dist+1,w
  2305     0531  3A80               	xorlw	128
  2306     0532  00FF               	movwf	btemp+1
  2307     0533  3080               	movlw	128
  2308     0534  027F               	subwf	btemp+1,w
  2309     0535  1D03               	skipz
  2310     0536  2D39               	goto	u1965
  2311     0537  3001               	movlw	1
  2312     0538  0261               	subwf	main@dist,w
  2313     0539                     u1965:
  2314     0539  1C03               	skipc
  2315     053A  2D3C               	goto	u1961
  2316     053B  2D3D               	goto	u1960
  2317     053C                     u1961:
  2318     053C  2DE8               	goto	l2221
  2319     053D                     u1960:
  2320     053D                     l2197:
  2321                           
  2322                           ;main.c: 265: for(k = 0 ; k < dist ; k++){
  2323     053D  1283               	bcf	3,5	;RP0=0, select bank0
  2324     053E  1303               	bcf	3,6	;RP1=0, select bank0
  2325     053F  01DF               	clrf	main@k
  2326     0540  01E0               	clrf	main@k+1
  2327     0541  2D84               	goto	l138
  2328     0542                     l139:
  2329                           
  2330                           ;main.c: 266: RA0 = 1;
  2331     0542  1283               	bcf	3,5	;RP0=0, select bank0
  2332     0543  1303               	bcf	3,6	;RP1=0, select bank0
  2333     0544  1405               	bsf	5,0	;volatile
  2334     0545                     l2199:
  2335                           
  2336                           ;main.c: 267: for(j = 0 ; j < intvl ; j++){
  2337     0545  01E5               	clrf	main@j
  2338     0546  01E6               	clrf	main@j+1
  2339     0547  2D51               	goto	l140
  2340     0548                     l141:
  2341                           
  2342                           ;main.c: 268: _delay((unsigned long)((1)*(4000000/4000000.0)));
  2343     0548  0000               	nop
  2344     0549                     l2201:
  2345     0549  3001               	movlw	1
  2346     054A  1283               	bcf	3,5	;RP0=0, select bank0
  2347     054B  1303               	bcf	3,6	;RP1=0, select bank0
  2348     054C  07E5               	addwf	main@j,f
  2349     054D  1803               	skipnc
  2350     054E  0AE6               	incf	main@j+1,f
  2351     054F  3000               	movlw	0
  2352     0550  07E6               	addwf	main@j+1,f
  2353     0551                     l140:
  2354     0551  0866               	movf	main@j+1,w
  2355     0552  3A80               	xorlw	128
  2356     0553  00A2               	movwf	??_main
  2357     0554  0864               	movf	main@intvl+1,w
  2358     0555  3A80               	xorlw	128
  2359     0556  0222               	subwf	??_main,w
  2360     0557  1D03               	skipz
  2361     0558  2D5B               	goto	u1975
  2362     0559  0863               	movf	main@intvl,w
  2363     055A  0265               	subwf	main@j,w
  2364     055B                     u1975:
  2365     055B  1C03               	skipc
  2366     055C  2D5E               	goto	u1971
  2367     055D  2D5F               	goto	u1970
  2368     055E                     u1971:
  2369     055E  2D48               	goto	l141
  2370     055F                     u1970:
  2371     055F                     l142:
  2372                           
  2373                           ;main.c: 269: };main.c: 270: RA0 = 0;
  2374     055F  1283               	bcf	3,5	;RP0=0, select bank0
  2375     0560  1303               	bcf	3,6	;RP1=0, select bank0
  2376     0561  1005               	bcf	5,0	;volatile
  2377     0562                     l2203:
  2378                           
  2379                           ;main.c: 271: for(j = 0 ; j < intvl ; j++){
  2380     0562  01E5               	clrf	main@j
  2381     0563  01E6               	clrf	main@j+1
  2382     0564  2D6E               	goto	l143
  2383     0565                     l144:
  2384                           
  2385                           ;main.c: 272: _delay((unsigned long)((1)*(4000000/4000000.0)));
  2386     0565  0000               	nop
  2387     0566                     l2205:
  2388     0566  3001               	movlw	1
  2389     0567  1283               	bcf	3,5	;RP0=0, select bank0
  2390     0568  1303               	bcf	3,6	;RP1=0, select bank0
  2391     0569  07E5               	addwf	main@j,f
  2392     056A  1803               	skipnc
  2393     056B  0AE6               	incf	main@j+1,f
  2394     056C  3000               	movlw	0
  2395     056D  07E6               	addwf	main@j+1,f
  2396     056E                     l143:
  2397     056E  0866               	movf	main@j+1,w
  2398     056F  3A80               	xorlw	128
  2399     0570  00A2               	movwf	??_main
  2400     0571  0864               	movf	main@intvl+1,w
  2401     0572  3A80               	xorlw	128
  2402     0573  0222               	subwf	??_main,w
  2403     0574  1D03               	skipz
  2404     0575  2D78               	goto	u1985
  2405     0576  0863               	movf	main@intvl,w
  2406     0577  0265               	subwf	main@j,w
  2407     0578                     u1985:
  2408     0578  1C03               	skipc
  2409     0579  2D7B               	goto	u1981
  2410     057A  2D7C               	goto	u1980
  2411     057B                     u1981:
  2412     057B  2D65               	goto	l144
  2413     057C                     u1980:
  2414     057C                     l2207:
  2415     057C  3001               	movlw	1
  2416     057D  1283               	bcf	3,5	;RP0=0, select bank0
  2417     057E  1303               	bcf	3,6	;RP1=0, select bank0
  2418     057F  07DF               	addwf	main@k,f
  2419     0580  1803               	skipnc
  2420     0581  0AE0               	incf	main@k+1,f
  2421     0582  3000               	movlw	0
  2422     0583  07E0               	addwf	main@k+1,f
  2423     0584                     l138:
  2424     0584  0860               	movf	main@k+1,w
  2425     0585  3A80               	xorlw	128
  2426     0586  00A2               	movwf	??_main
  2427     0587  0862               	movf	main@dist+1,w
  2428     0588  3A80               	xorlw	128
  2429     0589  0222               	subwf	??_main,w
  2430     058A  1D03               	skipz
  2431     058B  2D8E               	goto	u1995
  2432     058C  0861               	movf	main@dist,w
  2433     058D  025F               	subwf	main@k,w
  2434     058E                     u1995:
  2435     058E  1C03               	skipc
  2436     058F  2D91               	goto	u1991
  2437     0590  2D92               	goto	u1990
  2438     0591                     u1991:
  2439     0591  2D42               	goto	l139
  2440     0592                     u1990:
  2441     0592                     l2209:
  2442                           
  2443                           ;main.c: 273: };main.c: 274: };main.c: 275: for(k = 0 ; k < dist ; k++){
  2444     0592  1283               	bcf	3,5	;RP0=0, select bank0
  2445     0593  1303               	bcf	3,6	;RP1=0, select bank0
  2446     0594  01DF               	clrf	main@k
  2447     0595  01E0               	clrf	main@k+1
  2448     0596  2DD9               	goto	l147
  2449     0597                     l148:
  2450                           
  2451                           ;main.c: 276: RA1 = 1;
  2452     0597  1283               	bcf	3,5	;RP0=0, select bank0
  2453     0598  1303               	bcf	3,6	;RP1=0, select bank0
  2454     0599  1485               	bsf	5,1	;volatile
  2455     059A                     l2211:
  2456                           
  2457                           ;main.c: 277: for(j = 0 ; j < intvl ; j++){
  2458     059A  01E5               	clrf	main@j
  2459     059B  01E6               	clrf	main@j+1
  2460     059C  2DA6               	goto	l149
  2461     059D                     l150:
  2462                           
  2463                           ;main.c: 278: _delay((unsigned long)((1)*(4000000/4000000.0)));
  2464     059D  0000               	nop
  2465     059E                     l2213:
  2466     059E  3001               	movlw	1
  2467     059F  1283               	bcf	3,5	;RP0=0, select bank0
  2468     05A0  1303               	bcf	3,6	;RP1=0, select bank0
  2469     05A1  07E5               	addwf	main@j,f
  2470     05A2  1803               	skipnc
  2471     05A3  0AE6               	incf	main@j+1,f
  2472     05A4  3000               	movlw	0
  2473     05A5  07E6               	addwf	main@j+1,f
  2474     05A6                     l149:
  2475     05A6  0866               	movf	main@j+1,w
  2476     05A7  3A80               	xorlw	128
  2477     05A8  00A2               	movwf	??_main
  2478     05A9  0864               	movf	main@intvl+1,w
  2479     05AA  3A80               	xorlw	128
  2480     05AB  0222               	subwf	??_main,w
  2481     05AC  1D03               	skipz
  2482     05AD  2DB0               	goto	u2005
  2483     05AE  0863               	movf	main@intvl,w
  2484     05AF  0265               	subwf	main@j,w
  2485     05B0                     u2005:
  2486     05B0  1C03               	skipc
  2487     05B1  2DB3               	goto	u2001
  2488     05B2  2DB4               	goto	u2000
  2489     05B3                     u2001:
  2490     05B3  2D9D               	goto	l150
  2491     05B4                     u2000:
  2492     05B4                     l151:
  2493                           
  2494                           ;main.c: 279: };main.c: 280: RA1 = 0;
  2495     05B4  1283               	bcf	3,5	;RP0=0, select bank0
  2496     05B5  1303               	bcf	3,6	;RP1=0, select bank0
  2497     05B6  1085               	bcf	5,1	;volatile
  2498     05B7                     l2215:
  2499                           
  2500                           ;main.c: 281: for(j = 0 ; j < intvl ; j++){
  2501     05B7  01E5               	clrf	main@j
  2502     05B8  01E6               	clrf	main@j+1
  2503     05B9  2DC3               	goto	l152
  2504     05BA                     l153:
  2505                           
  2506                           ;main.c: 282: _delay((unsigned long)((1)*(4000000/4000000.0)));
  2507     05BA  0000               	nop
  2508     05BB                     l2217:
  2509     05BB  3001               	movlw	1
  2510     05BC  1283               	bcf	3,5	;RP0=0, select bank0
  2511     05BD  1303               	bcf	3,6	;RP1=0, select bank0
  2512     05BE  07E5               	addwf	main@j,f
  2513     05BF  1803               	skipnc
  2514     05C0  0AE6               	incf	main@j+1,f
  2515     05C1  3000               	movlw	0
  2516     05C2  07E6               	addwf	main@j+1,f
  2517     05C3                     l152:
  2518     05C3  0866               	movf	main@j+1,w
  2519     05C4  3A80               	xorlw	128
  2520     05C5  00A2               	movwf	??_main
  2521     05C6  0864               	movf	main@intvl+1,w
  2522     05C7  3A80               	xorlw	128
  2523     05C8  0222               	subwf	??_main,w
  2524     05C9  1D03               	skipz
  2525     05CA  2DCD               	goto	u2015
  2526     05CB  0863               	movf	main@intvl,w
  2527     05CC  0265               	subwf	main@j,w
  2528     05CD                     u2015:
  2529     05CD  1C03               	skipc
  2530     05CE  2DD0               	goto	u2011
  2531     05CF  2DD1               	goto	u2010
  2532     05D0                     u2011:
  2533     05D0  2DBA               	goto	l153
  2534     05D1                     u2010:
  2535     05D1                     l2219:
  2536     05D1  3001               	movlw	1
  2537     05D2  1283               	bcf	3,5	;RP0=0, select bank0
  2538     05D3  1303               	bcf	3,6	;RP1=0, select bank0
  2539     05D4  07DF               	addwf	main@k,f
  2540     05D5  1803               	skipnc
  2541     05D6  0AE0               	incf	main@k+1,f
  2542     05D7  3000               	movlw	0
  2543     05D8  07E0               	addwf	main@k+1,f
  2544     05D9                     l147:
  2545     05D9  0860               	movf	main@k+1,w
  2546     05DA  3A80               	xorlw	128
  2547     05DB  00A2               	movwf	??_main
  2548     05DC  0862               	movf	main@dist+1,w
  2549     05DD  3A80               	xorlw	128
  2550     05DE  0222               	subwf	??_main,w
  2551     05DF  1D03               	skipz
  2552     05E0  2DE3               	goto	u2025
  2553     05E1  0861               	movf	main@dist,w
  2554     05E2  025F               	subwf	main@k,w
  2555     05E3                     u2025:
  2556     05E3  1C03               	skipc
  2557     05E4  2DE6               	goto	u2021
  2558     05E5  2DE7               	goto	u2020
  2559     05E6                     u2021:
  2560     05E6  2D97               	goto	l148
  2561     05E7                     u2020:
  2562     05E7  2EA3               	goto	l2247
  2563     05E8                     l2221:
  2564                           
  2565                           ;main.c: 286: dist *= -1;
  2566     05E8  30FF               	movlw	255
  2567     05E9  00F0               	movwf	___wmul@multiplier
  2568     05EA  30FF               	movlw	255
  2569     05EB  00F1               	movwf	___wmul@multiplier+1
  2570     05EC  1283               	bcf	3,5	;RP0=0, select bank0
  2571     05ED  1303               	bcf	3,6	;RP1=0, select bank0
  2572     05EE  0862               	movf	main@dist+1,w
  2573     05EF  00F3               	movwf	___wmul@multiplicand+1
  2574     05F0  0861               	movf	main@dist,w
  2575     05F1  00F2               	movwf	___wmul@multiplicand
  2576     05F2  158A  2570  118A   	fcall	___wmul
  2577     05F5  0871               	movf	?___wmul+1,w
  2578     05F6  1283               	bcf	3,5	;RP0=0, select bank0
  2579     05F7  1303               	bcf	3,6	;RP1=0, select bank0
  2580     05F8  00E2               	movwf	main@dist+1
  2581     05F9  0870               	movf	?___wmul,w
  2582     05FA  00E1               	movwf	main@dist
  2583     05FB                     l2223:
  2584                           
  2585                           ;main.c: 287: for(k = 0 ; k < dist ; k++){
  2586     05FB  01DF               	clrf	main@k
  2587     05FC  01E0               	clrf	main@k+1
  2588     05FD  2E40               	goto	l157
  2589     05FE                     l158:
  2590                           
  2591                           ;main.c: 288: RA1 = 1;
  2592     05FE  1283               	bcf	3,5	;RP0=0, select bank0
  2593     05FF  1303               	bcf	3,6	;RP1=0, select bank0
  2594     0600  1485               	bsf	5,1	;volatile
  2595     0601                     l2225:
  2596                           
  2597                           ;main.c: 289: for(j = 0 ; j < intvl ; j++){
  2598     0601  01E5               	clrf	main@j
  2599     0602  01E6               	clrf	main@j+1
  2600     0603  2E0D               	goto	l159
  2601     0604                     l160:
  2602                           
  2603                           ;main.c: 290: _delay((unsigned long)((1)*(4000000/4000000.0)));
  2604     0604  0000               	nop
  2605     0605                     l2227:
  2606     0605  3001               	movlw	1
  2607     0606  1283               	bcf	3,5	;RP0=0, select bank0
  2608     0607  1303               	bcf	3,6	;RP1=0, select bank0
  2609     0608  07E5               	addwf	main@j,f
  2610     0609  1803               	skipnc
  2611     060A  0AE6               	incf	main@j+1,f
  2612     060B  3000               	movlw	0
  2613     060C  07E6               	addwf	main@j+1,f
  2614     060D                     l159:
  2615     060D  0866               	movf	main@j+1,w
  2616     060E  3A80               	xorlw	128
  2617     060F  00A2               	movwf	??_main
  2618     0610  0864               	movf	main@intvl+1,w
  2619     0611  3A80               	xorlw	128
  2620     0612  0222               	subwf	??_main,w
  2621     0613  1D03               	skipz
  2622     0614  2E17               	goto	u2035
  2623     0615  0863               	movf	main@intvl,w
  2624     0616  0265               	subwf	main@j,w
  2625     0617                     u2035:
  2626     0617  1C03               	skipc
  2627     0618  2E1A               	goto	u2031
  2628     0619  2E1B               	goto	u2030
  2629     061A                     u2031:
  2630     061A  2E04               	goto	l160
  2631     061B                     u2030:
  2632     061B                     l161:
  2633                           
  2634                           ;main.c: 291: };main.c: 292: RA1 = 0;
  2635     061B  1283               	bcf	3,5	;RP0=0, select bank0
  2636     061C  1303               	bcf	3,6	;RP1=0, select bank0
  2637     061D  1085               	bcf	5,1	;volatile
  2638     061E                     l2229:
  2639                           
  2640                           ;main.c: 293: for(j = 0 ; j < intvl ; j++){
  2641     061E  01E5               	clrf	main@j
  2642     061F  01E6               	clrf	main@j+1
  2643     0620  2E2A               	goto	l162
  2644     0621                     l163:
  2645                           
  2646                           ;main.c: 294: _delay((unsigned long)((1)*(4000000/4000000.0)));
  2647     0621  0000               	nop
  2648     0622                     l2231:
  2649     0622  3001               	movlw	1
  2650     0623  1283               	bcf	3,5	;RP0=0, select bank0
  2651     0624  1303               	bcf	3,6	;RP1=0, select bank0
  2652     0625  07E5               	addwf	main@j,f
  2653     0626  1803               	skipnc
  2654     0627  0AE6               	incf	main@j+1,f
  2655     0628  3000               	movlw	0
  2656     0629  07E6               	addwf	main@j+1,f
  2657     062A                     l162:
  2658     062A  0866               	movf	main@j+1,w
  2659     062B  3A80               	xorlw	128
  2660     062C  00A2               	movwf	??_main
  2661     062D  0864               	movf	main@intvl+1,w
  2662     062E  3A80               	xorlw	128
  2663     062F  0222               	subwf	??_main,w
  2664     0630  1D03               	skipz
  2665     0631  2E34               	goto	u2045
  2666     0632  0863               	movf	main@intvl,w
  2667     0633  0265               	subwf	main@j,w
  2668     0634                     u2045:
  2669     0634  1C03               	skipc
  2670     0635  2E37               	goto	u2041
  2671     0636  2E38               	goto	u2040
  2672     0637                     u2041:
  2673     0637  2E21               	goto	l163
  2674     0638                     u2040:
  2675     0638                     l2233:
  2676     0638  3001               	movlw	1
  2677     0639  1283               	bcf	3,5	;RP0=0, select bank0
  2678     063A  1303               	bcf	3,6	;RP1=0, select bank0
  2679     063B  07DF               	addwf	main@k,f
  2680     063C  1803               	skipnc
  2681     063D  0AE0               	incf	main@k+1,f
  2682     063E  3000               	movlw	0
  2683     063F  07E0               	addwf	main@k+1,f
  2684     0640                     l157:
  2685     0640  0860               	movf	main@k+1,w
  2686     0641  3A80               	xorlw	128
  2687     0642  00A2               	movwf	??_main
  2688     0643  0862               	movf	main@dist+1,w
  2689     0644  3A80               	xorlw	128
  2690     0645  0222               	subwf	??_main,w
  2691     0646  1D03               	skipz
  2692     0647  2E4A               	goto	u2055
  2693     0648  0861               	movf	main@dist,w
  2694     0649  025F               	subwf	main@k,w
  2695     064A                     u2055:
  2696     064A  1C03               	skipc
  2697     064B  2E4D               	goto	u2051
  2698     064C  2E4E               	goto	u2050
  2699     064D                     u2051:
  2700     064D  2DFE               	goto	l158
  2701     064E                     u2050:
  2702     064E                     l2235:
  2703                           
  2704                           ;main.c: 295: };main.c: 296: };main.c: 297: for(k = 0 ; k < dist ; k++){
  2705     064E  1283               	bcf	3,5	;RP0=0, select bank0
  2706     064F  1303               	bcf	3,6	;RP1=0, select bank0
  2707     0650  01DF               	clrf	main@k
  2708     0651  01E0               	clrf	main@k+1
  2709     0652  2E95               	goto	l166
  2710     0653                     l167:
  2711                           
  2712                           ;main.c: 298: RA0 = 1;
  2713     0653  1283               	bcf	3,5	;RP0=0, select bank0
  2714     0654  1303               	bcf	3,6	;RP1=0, select bank0
  2715     0655  1405               	bsf	5,0	;volatile
  2716     0656                     l2237:
  2717                           
  2718                           ;main.c: 299: for(j = 0 ; j < intvl ; j++){
  2719     0656  01E5               	clrf	main@j
  2720     0657  01E6               	clrf	main@j+1
  2721     0658  2E62               	goto	l168
  2722     0659                     l169:
  2723                           
  2724                           ;main.c: 300: _delay((unsigned long)((1)*(4000000/4000000.0)));
  2725     0659  0000               	nop
  2726     065A                     l2239:
  2727     065A  3001               	movlw	1
  2728     065B  1283               	bcf	3,5	;RP0=0, select bank0
  2729     065C  1303               	bcf	3,6	;RP1=0, select bank0
  2730     065D  07E5               	addwf	main@j,f
  2731     065E  1803               	skipnc
  2732     065F  0AE6               	incf	main@j+1,f
  2733     0660  3000               	movlw	0
  2734     0661  07E6               	addwf	main@j+1,f
  2735     0662                     l168:
  2736     0662  0866               	movf	main@j+1,w
  2737     0663  3A80               	xorlw	128
  2738     0664  00A2               	movwf	??_main
  2739     0665  0864               	movf	main@intvl+1,w
  2740     0666  3A80               	xorlw	128
  2741     0667  0222               	subwf	??_main,w
  2742     0668  1D03               	skipz
  2743     0669  2E6C               	goto	u2065
  2744     066A  0863               	movf	main@intvl,w
  2745     066B  0265               	subwf	main@j,w
  2746     066C                     u2065:
  2747     066C  1C03               	skipc
  2748     066D  2E6F               	goto	u2061
  2749     066E  2E70               	goto	u2060
  2750     066F                     u2061:
  2751     066F  2E59               	goto	l169
  2752     0670                     u2060:
  2753     0670                     l170:
  2754                           
  2755                           ;main.c: 301: };main.c: 302: RA0 = 0;
  2756     0670  1283               	bcf	3,5	;RP0=0, select bank0
  2757     0671  1303               	bcf	3,6	;RP1=0, select bank0
  2758     0672  1005               	bcf	5,0	;volatile
  2759     0673                     l2241:
  2760                           
  2761                           ;main.c: 303: for(j = 0 ; j < intvl ; j++){
  2762     0673  01E5               	clrf	main@j
  2763     0674  01E6               	clrf	main@j+1
  2764     0675  2E7F               	goto	l171
  2765     0676                     l172:
  2766                           
  2767                           ;main.c: 304: _delay((unsigned long)((1)*(4000000/4000000.0)));
  2768     0676  0000               	nop
  2769     0677                     l2243:
  2770     0677  3001               	movlw	1
  2771     0678  1283               	bcf	3,5	;RP0=0, select bank0
  2772     0679  1303               	bcf	3,6	;RP1=0, select bank0
  2773     067A  07E5               	addwf	main@j,f
  2774     067B  1803               	skipnc
  2775     067C  0AE6               	incf	main@j+1,f
  2776     067D  3000               	movlw	0
  2777     067E  07E6               	addwf	main@j+1,f
  2778     067F                     l171:
  2779     067F  0866               	movf	main@j+1,w
  2780     0680  3A80               	xorlw	128
  2781     0681  00A2               	movwf	??_main
  2782     0682  0864               	movf	main@intvl+1,w
  2783     0683  3A80               	xorlw	128
  2784     0684  0222               	subwf	??_main,w
  2785     0685  1D03               	skipz
  2786     0686  2E89               	goto	u2075
  2787     0687  0863               	movf	main@intvl,w
  2788     0688  0265               	subwf	main@j,w
  2789     0689                     u2075:
  2790     0689  1C03               	skipc
  2791     068A  2E8C               	goto	u2071
  2792     068B  2E8D               	goto	u2070
  2793     068C                     u2071:
  2794     068C  2E76               	goto	l172
  2795     068D                     u2070:
  2796     068D                     l2245:
  2797     068D  3001               	movlw	1
  2798     068E  1283               	bcf	3,5	;RP0=0, select bank0
  2799     068F  1303               	bcf	3,6	;RP1=0, select bank0
  2800     0690  07DF               	addwf	main@k,f
  2801     0691  1803               	skipnc
  2802     0692  0AE0               	incf	main@k+1,f
  2803     0693  3000               	movlw	0
  2804     0694  07E0               	addwf	main@k+1,f
  2805     0695                     l166:
  2806     0695  0860               	movf	main@k+1,w
  2807     0696  3A80               	xorlw	128
  2808     0697  00A2               	movwf	??_main
  2809     0698  0862               	movf	main@dist+1,w
  2810     0699  3A80               	xorlw	128
  2811     069A  0222               	subwf	??_main,w
  2812     069B  1D03               	skipz
  2813     069C  2E9F               	goto	u2085
  2814     069D  0861               	movf	main@dist,w
  2815     069E  025F               	subwf	main@k,w
  2816     069F                     u2085:
  2817     069F  1C03               	skipc
  2818     06A0  2EA2               	goto	u2081
  2819     06A1  2EA3               	goto	u2080
  2820     06A2                     u2081:
  2821     06A2  2E53               	goto	l167
  2822     06A3                     u2080:
  2823     06A3                     l2247:
  2824                           
  2825                           ;main.c: 305: };main.c: 306: };main.c: 307: };main.c: 310: printf("C\tOSC\r\n");
  2826     06A3  302D               	movlw	(low ((STR_26-__stringbase)| (0+32768)))& (0+255)
  2827     06A4  158A  2736  118A   	fcall	_printf
  2828                           
  2829                           ;main.c: 312: break;
  2830     06A7  28FF               	goto	l1999
  2831     06A8                     l2249:
  2832                           
  2833                           ;main.c: 316: dist = 10000;
  2834     06A8  3010               	movlw	16
  2835     06A9  00E1               	movwf	main@dist
  2836     06AA  3027               	movlw	39
  2837     06AB  00E2               	movwf	main@dist+1
  2838     06AC                     l2251:
  2839                           
  2840                           ;main.c: 317: for(k = 0 ; k < dist ; k++){
  2841     06AC  01DF               	clrf	main@k
  2842     06AD  01E0               	clrf	main@k+1
  2843     06AE  2EF6               	goto	l176
  2844     06AF                     l177:
  2845                           
  2846                           ;main.c: 318: RA0 = 1;
  2847     06AF  1283               	bcf	3,5	;RP0=0, select bank0
  2848     06B0  1303               	bcf	3,6	;RP1=0, select bank0
  2849     06B1  1405               	bsf	5,0	;volatile
  2850     06B2                     l2253:
  2851                           
  2852                           ;main.c: 319: for(j = 0 ; j < intvl ; j++){
  2853     06B2  01E5               	clrf	main@j
  2854     06B3  01E6               	clrf	main@j+1
  2855     06B4  2EBE               	goto	l178
  2856     06B5                     l179:
  2857                           
  2858                           ;main.c: 320: _delay((unsigned long)((1)*(4000000/4000000.0)));
  2859     06B5  0000               	nop
  2860     06B6                     l2255:
  2861     06B6  3001               	movlw	1
  2862     06B7  1283               	bcf	3,5	;RP0=0, select bank0
  2863     06B8  1303               	bcf	3,6	;RP1=0, select bank0
  2864     06B9  07E5               	addwf	main@j,f
  2865     06BA  1803               	skipnc
  2866     06BB  0AE6               	incf	main@j+1,f
  2867     06BC  3000               	movlw	0
  2868     06BD  07E6               	addwf	main@j+1,f
  2869     06BE                     l178:
  2870     06BE  0866               	movf	main@j+1,w
  2871     06BF  3A80               	xorlw	128
  2872     06C0  00A2               	movwf	??_main
  2873     06C1  0864               	movf	main@intvl+1,w
  2874     06C2  3A80               	xorlw	128
  2875     06C3  0222               	subwf	??_main,w
  2876     06C4  1D03               	skipz
  2877     06C5  2EC8               	goto	u2095
  2878     06C6  0863               	movf	main@intvl,w
  2879     06C7  0265               	subwf	main@j,w
  2880     06C8                     u2095:
  2881     06C8  1C03               	skipc
  2882     06C9  2ECB               	goto	u2091
  2883     06CA  2ECC               	goto	u2090
  2884     06CB                     u2091:
  2885     06CB  2EB5               	goto	l179
  2886     06CC                     u2090:
  2887     06CC                     l180:
  2888                           
  2889                           ;main.c: 321: };main.c: 322: RA0 = 0;
  2890     06CC  1283               	bcf	3,5	;RP0=0, select bank0
  2891     06CD  1303               	bcf	3,6	;RP1=0, select bank0
  2892     06CE  1005               	bcf	5,0	;volatile
  2893     06CF                     l2257:
  2894                           
  2895                           ;main.c: 323: for(j = 0 ; j < intvl ; j++){
  2896     06CF  01E5               	clrf	main@j
  2897     06D0  01E6               	clrf	main@j+1
  2898     06D1  2EDB               	goto	l181
  2899     06D2                     l182:
  2900                           
  2901                           ;main.c: 324: _delay((unsigned long)((1)*(4000000/4000000.0)));
  2902     06D2  0000               	nop
  2903     06D3                     l2259:
  2904     06D3  3001               	movlw	1
  2905     06D4  1283               	bcf	3,5	;RP0=0, select bank0
  2906     06D5  1303               	bcf	3,6	;RP1=0, select bank0
  2907     06D6  07E5               	addwf	main@j,f
  2908     06D7  1803               	skipnc
  2909     06D8  0AE6               	incf	main@j+1,f
  2910     06D9  3000               	movlw	0
  2911     06DA  07E6               	addwf	main@j+1,f
  2912     06DB                     l181:
  2913     06DB  0866               	movf	main@j+1,w
  2914     06DC  3A80               	xorlw	128
  2915     06DD  00A2               	movwf	??_main
  2916     06DE  0864               	movf	main@intvl+1,w
  2917     06DF  3A80               	xorlw	128
  2918     06E0  0222               	subwf	??_main,w
  2919     06E1  1D03               	skipz
  2920     06E2  2EE5               	goto	u2105
  2921     06E3  0863               	movf	main@intvl,w
  2922     06E4  0265               	subwf	main@j,w
  2923     06E5                     u2105:
  2924     06E5  1C03               	skipc
  2925     06E6  2EE8               	goto	u2101
  2926     06E7  2EE9               	goto	u2100
  2927     06E8                     u2101:
  2928     06E8  2ED2               	goto	l182
  2929     06E9                     u2100:
  2930     06E9                     l183:
  2931                           
  2932                           ;main.c: 325: };main.c: 327: if(RB0 == 0){
  2933     06E9  1283               	bcf	3,5	;RP0=0, select bank0
  2934     06EA  1303               	bcf	3,6	;RP1=0, select bank0
  2935     06EB  1806               	btfsc	6,0	;volatile
  2936     06EC  2EEE               	goto	u2111
  2937     06ED  2EEF               	goto	u2110
  2938     06EE                     u2111:
  2939     06EE  2EF0               	goto	l2263
  2940     06EF                     u2110:
  2941     06EF  2F04               	goto	l2265
  2942     06F0                     l2263:
  2943     06F0  3001               	movlw	1
  2944     06F1  07DF               	addwf	main@k,f
  2945     06F2  1803               	skipnc
  2946     06F3  0AE0               	incf	main@k+1,f
  2947     06F4  3000               	movlw	0
  2948     06F5  07E0               	addwf	main@k+1,f
  2949     06F6                     l176:
  2950     06F6  0860               	movf	main@k+1,w
  2951     06F7  3A80               	xorlw	128
  2952     06F8  00A2               	movwf	??_main
  2953     06F9  0862               	movf	main@dist+1,w
  2954     06FA  3A80               	xorlw	128
  2955     06FB  0222               	subwf	??_main,w
  2956     06FC  1D03               	skipz
  2957     06FD  2F00               	goto	u2125
  2958     06FE  0861               	movf	main@dist,w
  2959     06FF  025F               	subwf	main@k,w
  2960     0700                     u2125:
  2961     0700  1C03               	skipc
  2962     0701  2F03               	goto	u2121
  2963     0702  2F04               	goto	u2120
  2964     0703                     u2121:
  2965     0703  2EAF               	goto	l177
  2966     0704                     u2120:
  2967     0704                     l2265:
  2968                           
  2969                           ;main.c: 330: };main.c: 332: };main.c: 335: printf("C\tNTD\r\n");
  2970     0704  3035               	movlw	(low ((STR_27-__stringbase)| (0+32768)))& (0+255)
  2971     0705  158A  2736  118A   	fcall	_printf
  2972                           
  2973                           ;main.c: 337: break;
  2974     0708  28FF               	goto	l1999
  2975     0709                     l2267:
  2976                           
  2977                           ;main.c: 341: ptr = strtok((0), "/");
  2978     0709  3077               	movlw	(low ((STR_8-__stringbase)| (0+32768)))& (0+255)
  2979     070A  00FD               	movwf	strtok@s2
  2980     070B  3000               	movlw	0
  2981     070C  158A  264A  118A   	fcall	_strtok
  2982     070F  1283               	bcf	3,5	;RP0=0, select bank0
  2983     0710  1303               	bcf	3,6	;RP1=0, select bank0
  2984     0711  00DE               	movwf	main@ptr
  2985     0712                     l2269:
  2986                           
  2987                           ;main.c: 342: if(ptr != (0)) {
  2988     0712  085E               	movf	main@ptr,w
  2989     0713  1903               	btfsc	3,2
  2990     0714  2F16               	goto	u2131
  2991     0715  2F17               	goto	u2130
  2992     0716                     u2131:
  2993     0716  2F24               	goto	l2273
  2994     0717                     u2130:
  2995     0717                     l2271:
  2996                           
  2997                           ;main.c: 343: dist = atoi(ptr);
  2998     0717  085E               	movf	main@ptr,w
  2999     0718  00F6               	movwf	atoi@s
  3000     0719  3000               	movlw	0
  3001     071A  00F7               	movwf	atoi@s+1
  3002     071B  118A  204F  118A   	fcall	_atoi
  3003     071E  0877               	movf	?_atoi+1,w
  3004     071F  1283               	bcf	3,5	;RP0=0, select bank0
  3005     0720  1303               	bcf	3,6	;RP1=0, select bank0
  3006     0721  00E2               	movwf	main@dist+1
  3007     0722  0876               	movf	?_atoi,w
  3008     0723  00E1               	movwf	main@dist
  3009     0724                     l2273:
  3010                           
  3011                           ;main.c: 344: };main.c: 347: for(k = 0 ; k < 10000 ; k++){
  3012     0724  01DF               	clrf	main@k
  3013     0725  01E0               	clrf	main@k+1
  3014     0726                     l188:
  3015                           
  3016                           ;main.c: 348: RA0 = 1;
  3017     0726  1283               	bcf	3,5	;RP0=0, select bank0
  3018     0727  1303               	bcf	3,6	;RP1=0, select bank0
  3019     0728  1405               	bsf	5,0	;volatile
  3020     0729                     l2279:
  3021                           
  3022                           ;main.c: 349: for(j = 0 ; j < intvl ; j++){
  3023     0729  01E5               	clrf	main@j
  3024     072A  01E6               	clrf	main@j+1
  3025     072B  2F35               	goto	l190
  3026     072C                     l191:
  3027                           
  3028                           ;main.c: 350: _delay((unsigned long)((1)*(4000000/4000000.0)));
  3029     072C  0000               	nop
  3030     072D                     l2281:
  3031     072D  3001               	movlw	1
  3032     072E  1283               	bcf	3,5	;RP0=0, select bank0
  3033     072F  1303               	bcf	3,6	;RP1=0, select bank0
  3034     0730  07E5               	addwf	main@j,f
  3035     0731  1803               	skipnc
  3036     0732  0AE6               	incf	main@j+1,f
  3037     0733  3000               	movlw	0
  3038     0734  07E6               	addwf	main@j+1,f
  3039     0735                     l190:
  3040     0735  0866               	movf	main@j+1,w
  3041     0736  3A80               	xorlw	128
  3042     0737  00A2               	movwf	??_main
  3043     0738  0864               	movf	main@intvl+1,w
  3044     0739  3A80               	xorlw	128
  3045     073A  0222               	subwf	??_main,w
  3046     073B  1D03               	skipz
  3047     073C  2F3F               	goto	u2145
  3048     073D  0863               	movf	main@intvl,w
  3049     073E  0265               	subwf	main@j,w
  3050     073F                     u2145:
  3051     073F  1C03               	skipc
  3052     0740  2F42               	goto	u2141
  3053     0741  2F43               	goto	u2140
  3054     0742                     u2141:
  3055     0742  2F2C               	goto	l191
  3056     0743                     u2140:
  3057     0743                     l192:
  3058                           
  3059                           ;main.c: 351: };main.c: 352: RA0 = 0;
  3060     0743  1283               	bcf	3,5	;RP0=0, select bank0
  3061     0744  1303               	bcf	3,6	;RP1=0, select bank0
  3062     0745  1005               	bcf	5,0	;volatile
  3063     0746                     l2283:
  3064                           
  3065                           ;main.c: 353: for(j = 0 ; j < intvl ; j++){
  3066     0746  01E5               	clrf	main@j
  3067     0747  01E6               	clrf	main@j+1
  3068     0748  2F52               	goto	l193
  3069     0749                     l194:
  3070                           
  3071                           ;main.c: 354: _delay((unsigned long)((1)*(4000000/4000000.0)));
  3072     0749  0000               	nop
  3073     074A                     l2285:
  3074     074A  3001               	movlw	1
  3075     074B  1283               	bcf	3,5	;RP0=0, select bank0
  3076     074C  1303               	bcf	3,6	;RP1=0, select bank0
  3077     074D  07E5               	addwf	main@j,f
  3078     074E  1803               	skipnc
  3079     074F  0AE6               	incf	main@j+1,f
  3080     0750  3000               	movlw	0
  3081     0751  07E6               	addwf	main@j+1,f
  3082     0752                     l193:
  3083     0752  0866               	movf	main@j+1,w
  3084     0753  3A80               	xorlw	128
  3085     0754  00A2               	movwf	??_main
  3086     0755  0864               	movf	main@intvl+1,w
  3087     0756  3A80               	xorlw	128
  3088     0757  0222               	subwf	??_main,w
  3089     0758  1D03               	skipz
  3090     0759  2F5C               	goto	u2155
  3091     075A  0863               	movf	main@intvl,w
  3092     075B  0265               	subwf	main@j,w
  3093     075C                     u2155:
  3094     075C  1C03               	skipc
  3095     075D  2F5F               	goto	u2151
  3096     075E  2F60               	goto	u2150
  3097     075F                     u2151:
  3098     075F  2F49               	goto	l194
  3099     0760                     u2150:
  3100     0760                     l195:
  3101                           
  3102                           ;main.c: 355: };main.c: 357: if(RB0 == 0){
  3103     0760  1283               	bcf	3,5	;RP0=0, select bank0
  3104     0761  1303               	bcf	3,6	;RP1=0, select bank0
  3105     0762  1806               	btfsc	6,0	;volatile
  3106     0763  2F65               	goto	u2161
  3107     0764  2F66               	goto	u2160
  3108     0765                     u2161:
  3109     0765  2F67               	goto	l2289
  3110     0766                     u2160:
  3111     0766  2F7A               	goto	l2293
  3112     0767                     l2289:
  3113     0767  3001               	movlw	1
  3114     0768  07DF               	addwf	main@k,f
  3115     0769  1803               	skipnc
  3116     076A  0AE0               	incf	main@k+1,f
  3117     076B  3000               	movlw	0
  3118     076C  07E0               	addwf	main@k+1,f
  3119     076D                     l2291:
  3120     076D  0860               	movf	main@k+1,w
  3121     076E  3A80               	xorlw	128
  3122     076F  00FF               	movwf	btemp+1
  3123     0770  30A7               	movlw	167
  3124     0771  027F               	subwf	btemp+1,w
  3125     0772  1D03               	skipz
  3126     0773  2F76               	goto	u2175
  3127     0774  3010               	movlw	16
  3128     0775  025F               	subwf	main@k,w
  3129     0776                     u2175:
  3130     0776  1C03               	skipc
  3131     0777  2F79               	goto	u2171
  3132     0778  2F7A               	goto	u2170
  3133     0779                     u2171:
  3134     0779  2F26               	goto	l188
  3135     077A                     u2170:
  3136     077A                     l2293:
  3137                           
  3138                           ;main.c: 360: };main.c: 362: };main.c: 364: for(k = 0 ; k < dist ; k++){
  3139     077A  1283               	bcf	3,5	;RP0=0, select bank0
  3140     077B  1303               	bcf	3,6	;RP1=0, select bank0
  3141     077C  01DF               	clrf	main@k
  3142     077D  01E0               	clrf	main@k+1
  3143     077E  2FC1               	goto	l197
  3144     077F                     l198:
  3145                           
  3146                           ;main.c: 365: RA1 = 1;
  3147     077F  1283               	bcf	3,5	;RP0=0, select bank0
  3148     0780  1303               	bcf	3,6	;RP1=0, select bank0
  3149     0781  1485               	bsf	5,1	;volatile
  3150     0782                     l2295:
  3151                           
  3152                           ;main.c: 366: for(j = 0 ; j < intvl ; j++){
  3153     0782  01E5               	clrf	main@j
  3154     0783  01E6               	clrf	main@j+1
  3155     0784  2F8E               	goto	l199
  3156     0785                     l200:
  3157                           
  3158                           ;main.c: 367: _delay((unsigned long)((1)*(4000000/4000000.0)));
  3159     0785  0000               	nop
  3160     0786                     l2297:
  3161     0786  3001               	movlw	1
  3162     0787  1283               	bcf	3,5	;RP0=0, select bank0
  3163     0788  1303               	bcf	3,6	;RP1=0, select bank0
  3164     0789  07E5               	addwf	main@j,f
  3165     078A  1803               	skipnc
  3166     078B  0AE6               	incf	main@j+1,f
  3167     078C  3000               	movlw	0
  3168     078D  07E6               	addwf	main@j+1,f
  3169     078E                     l199:
  3170     078E  0866               	movf	main@j+1,w
  3171     078F  3A80               	xorlw	128
  3172     0790  00A2               	movwf	??_main
  3173     0791  0864               	movf	main@intvl+1,w
  3174     0792  3A80               	xorlw	128
  3175     0793  0222               	subwf	??_main,w
  3176     0794  1D03               	skipz
  3177     0795  2F98               	goto	u2185
  3178     0796  0863               	movf	main@intvl,w
  3179     0797  0265               	subwf	main@j,w
  3180     0798                     u2185:
  3181     0798  1C03               	skipc
  3182     0799  2F9B               	goto	u2181
  3183     079A  2F9C               	goto	u2180
  3184     079B                     u2181:
  3185     079B  2F85               	goto	l200
  3186     079C                     u2180:
  3187     079C                     l201:
  3188                           
  3189                           ;main.c: 368: };main.c: 369: RA1 = 0;
  3190     079C  1283               	bcf	3,5	;RP0=0, select bank0
  3191     079D  1303               	bcf	3,6	;RP1=0, select bank0
  3192     079E  1085               	bcf	5,1	;volatile
  3193     079F                     l2299:
  3194                           
  3195                           ;main.c: 370: for(j = 0 ; j < intvl ; j++){
  3196     079F  01E5               	clrf	main@j
  3197     07A0  01E6               	clrf	main@j+1
  3198     07A1  2FAB               	goto	l202
  3199     07A2                     l203:
  3200                           
  3201                           ;main.c: 371: _delay((unsigned long)((1)*(4000000/4000000.0)));
  3202     07A2  0000               	nop
  3203     07A3                     l2301:
  3204     07A3  3001               	movlw	1
  3205     07A4  1283               	bcf	3,5	;RP0=0, select bank0
  3206     07A5  1303               	bcf	3,6	;RP1=0, select bank0
  3207     07A6  07E5               	addwf	main@j,f
  3208     07A7  1803               	skipnc
  3209     07A8  0AE6               	incf	main@j+1,f
  3210     07A9  3000               	movlw	0
  3211     07AA  07E6               	addwf	main@j+1,f
  3212     07AB                     l202:
  3213     07AB  0866               	movf	main@j+1,w
  3214     07AC  3A80               	xorlw	128
  3215     07AD  00A2               	movwf	??_main
  3216     07AE  0864               	movf	main@intvl+1,w
  3217     07AF  3A80               	xorlw	128
  3218     07B0  0222               	subwf	??_main,w
  3219     07B1  1D03               	skipz
  3220     07B2  2FB5               	goto	u2195
  3221     07B3  0863               	movf	main@intvl,w
  3222     07B4  0265               	subwf	main@j,w
  3223     07B5                     u2195:
  3224     07B5  1C03               	skipc
  3225     07B6  2FB8               	goto	u2191
  3226     07B7  2FB9               	goto	u2190
  3227     07B8                     u2191:
  3228     07B8  2FA2               	goto	l203
  3229     07B9                     u2190:
  3230     07B9                     l2303:
  3231     07B9  3001               	movlw	1
  3232     07BA  1283               	bcf	3,5	;RP0=0, select bank0
  3233     07BB  1303               	bcf	3,6	;RP1=0, select bank0
  3234     07BC  07DF               	addwf	main@k,f
  3235     07BD  1803               	skipnc
  3236     07BE  0AE0               	incf	main@k+1,f
  3237     07BF  3000               	movlw	0
  3238     07C0  07E0               	addwf	main@k+1,f
  3239     07C1                     l197:
  3240     07C1  0860               	movf	main@k+1,w
  3241     07C2  3A80               	xorlw	128
  3242     07C3  00A2               	movwf	??_main
  3243     07C4  0862               	movf	main@dist+1,w
  3244     07C5  3A80               	xorlw	128
  3245     07C6  0222               	subwf	??_main,w
  3246     07C7  1D03               	skipz
  3247     07C8  2FCB               	goto	u2205
  3248     07C9  0861               	movf	main@dist,w
  3249     07CA  025F               	subwf	main@k,w
  3250     07CB                     u2205:
  3251     07CB  1C03               	skipc
  3252     07CC  2FCE               	goto	u2201
  3253     07CD  2FCF               	goto	u2200
  3254     07CE                     u2201:
  3255     07CE  2F7F               	goto	l198
  3256     07CF                     u2200:
  3257     07CF                     l2305:
  3258                           
  3259                           ;main.c: 372: };main.c: 373: };main.c: 377: printf("C\tNDO\r\n");
  3260     07CF  303D               	movlw	(low ((STR_29-__stringbase)| (0+32768)))& (0+255)
  3261     07D0  158A  2736  118A   	fcall	_printf
  3262                           
  3263                           ;main.c: 378: break;
  3264     07D3  28FF               	goto	l1999
  3265     07D4                     l2307:
  3266                           
  3267                           ;main.c: 381: printf("C\tREADY\r\n");
  3268     07D4  301B               	movlw	(low ((STR_30-__stringbase)| (0+32768)))& (0+255)
  3269     07D5  158A  2736  118A   	fcall	_printf
  3270                           
  3271                           ;main.c: 382: break;
  3272     07D8  28FF               	goto	l1999
  3273     07D9                     l2309:
  3274     07D9                     l2311:
  3275                           
  3276                           ;main.c: 385: printf("C\tVERSION 10\r\n");
  3277     07D9  3001               	movlw	(low ((STR_31-__stringbase)| (0+32768)))& (0+255)
  3278     07DA  158A  2736  118A   	fcall	_printf
  3279                           
  3280                           ;main.c: 386: break;
  3281     07DD  28FF               	goto	l1999
  3282     07DE                     l2315:
  3283     07DE  1283               	bcf	3,5	;RP0=0, select bank0
  3284     07DF  1303               	bcf	3,6	;RP1=0, select bank0
  3285     07E0  0859               	movf	main@cmd,w
  3286                           
  3287                           ; Switch size 1, requested type "simple"
  3288                           ; Number of cases is 7, Range of values is 0 to 6
  3289                           ; switch strategies available:
  3290                           ; Name         Instructions Cycles
  3291                           ; direct_byte           21     7 (fixed)
  3292                           ; simple_byte           22    12 (average)
  3293                           ; jumptable            260     6 (fixed)
  3294                           ;	Chosen strategy is simple_byte
  3295     07E1  3A00               	xorlw	0	; case 0
  3296     07E2  1903               	skipnz
  3297     07E3  29DD               	goto	l2081
  3298     07E4  3A01               	xorlw	1	; case 1
  3299     07E5  1903               	skipnz
  3300     07E6  2CA4               	goto	l2175
  3301     07E7  3A03               	xorlw	3	; case 2
  3302     07E8  1903               	skipnz
  3303     07E9  2CF1               	goto	l2189
  3304     07EA  3A01               	xorlw	1	; case 3
  3305     07EB  1903               	skipnz
  3306     07EC  2EA8               	goto	l2249
  3307     07ED  3A07               	xorlw	7	; case 4
  3308     07EE  1903               	skipnz
  3309     07EF  2F09               	goto	l2267
  3310     07F0  3A01               	xorlw	1	; case 5
  3311     07F1  1903               	skipnz
  3312     07F2  2FD9               	goto	l2309
  3313     07F3  3A03               	xorlw	3	; case 6
  3314     07F4  1903               	skipnz
  3315     07F5  2FD4               	goto	l2307
  3316     07F6  28FF               	goto	l1999
  3317     07F7                     l131:
  3318     07F7  28FF               	goto	l1999
  3319     07F8  118A  2800         	ljmp	start
  3320     07FA                     __end_of_main:
  3321                           
  3322                           	psect	text1
  3323     0E4A                     __ptext1:	
  3324 ;; *************** function _strtok *****************
  3325 ;; Defined at:
  3326 ;;		line 8 in file "C:\Program Files\Microchip\xc8\v2.41\pic\sources\c90\common\strtok.c"
  3327 ;; Parameters:    Size  Location     Type
  3328 ;;  s1              1    wreg     PTR unsigned char 
  3329 ;;		 -> NULL(0), main@tmp(40), 
  3330 ;;  s2              1   13[COMMON] PTR const unsigned char 
  3331 ;;		 -> STR_28(2), STR_25(2), STR_24(2), STR_23(2), 
  3332 ;;		 -> STR_22(2), STR_21(2), STR_19(2), STR_18(2), 
  3333 ;;		 -> STR_17(2), STR_13(2), STR_12(2), STR_11(2), 
  3334 ;;		 -> STR_10(2), STR_8(2), 
  3335 ;; Auto vars:     Size  Location     Type
  3336 ;;  s1              1    0[BANK0 ] PTR unsigned char 
  3337 ;;		 -> NULL(0), main@tmp(40), 
  3338 ;; Return value:  Size  Location     Type
  3339 ;;                  1    wreg      PTR unsigned char 
  3340 ;; Registers used:
  3341 ;;		wreg, fsr0l, fsr0h, status,2, status,0, btemp+1, pclath, cstack
  3342 ;; Tracked objects:
  3343 ;;		On entry : 0/0
  3344 ;;		On exit  : 0/0
  3345 ;;		Unchanged: 0/0
  3346 ;; Data sizes:     COMMON   BANK0   BANK1   BANK2
  3347 ;;      Params:         1       0       0       0
  3348 ;;      Locals:         0       1       0       0
  3349 ;;      Temps:          0       0       0       0
  3350 ;;      Totals:         1       1       0       0
  3351 ;;Total ram usage:        2 bytes
  3352 ;; Hardware stack levels used: 1
  3353 ;; Hardware stack levels required when called: 3
  3354 ;; This function calls:
  3355 ;;		_strcspn
  3356 ;;		_strspn
  3357 ;; This function is called by:
  3358 ;;		_main
  3359 ;; This function uses a non-reentrant model
  3360 ;;
  3361                           
  3362     0E4A                     _strtok:	
  3363                           ;psect for function _strtok
  3364                           
  3365                           
  3366                           ;incstack = 0
  3367                           ; Regs used in _strtok: [wreg-fsr0h+status,2+status,0+btemp+1+pclath+cstack]
  3368                           ;strtok@s1 stored from wreg
  3369     0E4A  1283               	bcf	3,5	;RP0=0, select bank0
  3370     0E4B  1303               	bcf	3,6	;RP1=0, select bank0
  3371     0E4C  00A0               	movwf	strtok@s1
  3372     0E4D                     l1857:
  3373     0E4D  0820               	movf	strtok@s1,w
  3374     0E4E  1D03               	btfss	3,2
  3375     0E4F  2E51               	goto	u1391
  3376     0E50  2E52               	goto	u1390
  3377     0E51                     u1391:
  3378     0E51  2E54               	goto	l1861
  3379     0E52                     u1390:
  3380     0E52                     l1859:
  3381     0E52  0867               	movf	strtok@sp,w
  3382     0E53  00A0               	movwf	strtok@s1
  3383     0E54                     l1861:
  3384     0E54  0820               	movf	strtok@s1,w
  3385     0E55  1D03               	btfss	3,2
  3386     0E56  2E58               	goto	u1401
  3387     0E57  2E59               	goto	u1400
  3388     0E58                     u1401:
  3389     0E58  2E5B               	goto	l1867
  3390     0E59                     u1400:
  3391     0E59                     l1863:
  3392     0E59  3000               	movlw	0
  3393     0E5A  2E8F               	goto	l900
  3394     0E5B                     l1867:
  3395     0E5B  087D               	movf	strtok@s2,w
  3396     0E5C  00F6               	movwf	strspn@s2
  3397     0E5D  0820               	movf	strtok@s1,w
  3398     0E5E  158A  2617  158A   	fcall	_strspn
  3399     0E61  0876               	movf	?_strspn,w
  3400     0E62  00FF               	movwf	btemp+1
  3401     0E63  087F               	movf	btemp+1,w
  3402     0E64  1283               	bcf	3,5	;RP0=0, select bank0
  3403     0E65  1303               	bcf	3,6	;RP1=0, select bank0
  3404     0E66  07A0               	addwf	strtok@s1,f
  3405     0E67                     l1869:
  3406     0E67  0820               	movf	strtok@s1,w
  3407     0E68  0084               	movwf	4
  3408     0E69  1383               	bcf	3,7	;select IRP bank0
  3409     0E6A  0800               	movf	0,w
  3410     0E6B  1D03               	btfss	3,2
  3411     0E6C  2E6E               	goto	u1411
  3412     0E6D  2E6F               	goto	u1410
  3413     0E6E                     u1411:
  3414     0E6E  2E72               	goto	l1875
  3415     0E6F                     u1410:
  3416     0E6F                     l1871:
  3417     0E6F  01E7               	clrf	strtok@sp
  3418     0E70  3000               	movlw	0
  3419     0E71  2E8F               	goto	l900
  3420     0E72                     l1875:
  3421     0E72  087D               	movf	strtok@s2,w
  3422     0E73  00F6               	movwf	strcspn@s2
  3423     0E74  0820               	movf	strtok@s1,w
  3424     0E75  158A  25E4  158A   	fcall	_strcspn
  3425     0E78  0876               	movf	?_strcspn,w
  3426     0E79  1283               	bcf	3,5	;RP0=0, select bank0
  3427     0E7A  1303               	bcf	3,6	;RP1=0, select bank0
  3428     0E7B  0720               	addwf	strtok@s1,w
  3429     0E7C  00E7               	movwf	strtok@sp
  3430     0E7D                     l1877:
  3431     0E7D  0867               	movf	strtok@sp,w
  3432     0E7E  0084               	movwf	4
  3433     0E7F  1383               	bcf	3,7	;select IRP bank0
  3434     0E80  0800               	movf	0,w
  3435     0E81  1903               	btfsc	3,2
  3436     0E82  2E84               	goto	u1421
  3437     0E83  2E85               	goto	u1420
  3438     0E84                     u1421:
  3439     0E84  2E8D               	goto	l1883
  3440     0E85                     u1420:
  3441     0E85                     l1879:
  3442     0E85  0867               	movf	strtok@sp,w
  3443     0E86  0084               	movwf	4
  3444     0E87  0180               	clrf	0
  3445     0E88                     l1881:
  3446     0E88  3001               	movlw	1
  3447     0E89  00FF               	movwf	btemp+1
  3448     0E8A  087F               	movf	btemp+1,w
  3449     0E8B  07E7               	addwf	strtok@sp,f
  3450     0E8C  2E8E               	goto	l1885
  3451     0E8D                     l1883:
  3452     0E8D  01E7               	clrf	strtok@sp
  3453     0E8E                     l1885:
  3454     0E8E  0820               	movf	strtok@s1,w
  3455     0E8F                     l900:
  3456     0E8F  0008               	return
  3457     0E90                     __end_of_strtok:
  3458                           
  3459                           	psect	text2
  3460     0E17                     __ptext2:	
  3461 ;; *************** function _strspn *****************
  3462 ;; Defined at:
  3463 ;;		line 4 in file "C:\Program Files\Microchip\xc8\v2.41\pic\sources\c90\common\strspn.c"
  3464 ;; Parameters:    Size  Location     Type
  3465 ;;  s1              1    wreg     PTR const unsigned char 
  3466 ;;		 -> NULL(0), main@tmp(40), 
  3467 ;;  s2              1    6[COMMON] PTR const unsigned char 
  3468 ;;		 -> STR_28(2), STR_25(2), STR_24(2), STR_23(2), 
  3469 ;;		 -> STR_22(2), STR_21(2), STR_19(2), STR_18(2), 
  3470 ;;		 -> STR_17(2), STR_13(2), STR_12(2), STR_11(2), 
  3471 ;;		 -> STR_10(2), STR_8(2), 
  3472 ;; Auto vars:     Size  Location     Type
  3473 ;;  s1              1   12[COMMON] PTR const unsigned char 
  3474 ;;		 -> NULL(0), main@tmp(40), 
  3475 ;;  i               2   10[COMMON] unsigned int 
  3476 ;; Return value:  Size  Location     Type
  3477 ;;                  2    6[COMMON] unsigned int 
  3478 ;; Registers used:
  3479 ;;		wreg, fsr0l, fsr0h, status,2, status,0, btemp+1, pclath, cstack
  3480 ;; Tracked objects:
  3481 ;;		On entry : 0/0
  3482 ;;		On exit  : 0/0
  3483 ;;		Unchanged: 0/0
  3484 ;; Data sizes:     COMMON   BANK0   BANK1   BANK2
  3485 ;;      Params:         2       0       0       0
  3486 ;;      Locals:         3       0       0       0
  3487 ;;      Temps:          2       0       0       0
  3488 ;;      Totals:         7       0       0       0
  3489 ;;Total ram usage:        7 bytes
  3490 ;; Hardware stack levels used: 1
  3491 ;; Hardware stack levels required when called: 2
  3492 ;; This function calls:
  3493 ;;		_strchr
  3494 ;; This function is called by:
  3495 ;;		_strtok
  3496 ;; This function uses a non-reentrant model
  3497 ;;
  3498                           
  3499     0E17                     _strspn:	
  3500                           ;psect for function _strspn
  3501                           
  3502                           
  3503                           ;incstack = 0
  3504                           ; Regs used in _strspn: [wreg-fsr0h+status,2+status,0+btemp+1+pclath+cstack]
  3505                           ;strspn@s1 stored from wreg
  3506     0E17  00FC               	movwf	strspn@s1
  3507     0E18                     l1777:
  3508     0E18  01FA               	clrf	strspn@i
  3509     0E19  01FB               	clrf	strspn@i+1
  3510     0E1A  2E25               	goto	l1781
  3511     0E1B                     l1779:
  3512     0E1B  3001               	movlw	1
  3513     0E1C  00FF               	movwf	btemp+1
  3514     0E1D  087F               	movf	btemp+1,w
  3515     0E1E  07FC               	addwf	strspn@s1,f
  3516     0E1F  3001               	movlw	1
  3517     0E20  07FA               	addwf	strspn@i,f
  3518     0E21  1803               	skipnc
  3519     0E22  0AFB               	incf	strspn@i+1,f
  3520     0E23  3000               	movlw	0
  3521     0E24  07FB               	addwf	strspn@i+1,f
  3522     0E25                     l1781:
  3523     0E25  087C               	movf	strspn@s1,w
  3524     0E26  0084               	movwf	4
  3525     0E27  1383               	bcf	3,7	;select IRP bank0
  3526     0E28  0800               	movf	0,w
  3527     0E29  1903               	btfsc	3,2
  3528     0E2A  2E2C               	goto	u1271
  3529     0E2B  2E2D               	goto	u1270
  3530     0E2C                     u1271:
  3531     0E2C  2E45               	goto	l1785
  3532     0E2D                     u1270:
  3533     0E2D                     l1783:
  3534     0E2D  0876               	movf	strspn@s2,w
  3535     0E2E  00F0               	movwf	strchr@ptr
  3536     0E2F  3000               	movlw	0
  3537     0E30  1D03               	btfss	3,2
  3538     0E31  3080               	movlw	128
  3539     0E32  00F1               	movwf	strchr@ptr+1
  3540     0E33  087C               	movf	strspn@s1,w
  3541     0E34  0084               	movwf	4
  3542     0E35  0800               	movf	0,w
  3543     0E36  00F8               	movwf	??_strspn
  3544     0E37  01F9               	clrf	??_strspn+1
  3545     0E38  0878               	movf	??_strspn,w
  3546     0E39  00F2               	movwf	strchr@chr
  3547     0E3A  0879               	movf	??_strspn+1,w
  3548     0E3B  00F3               	movwf	strchr@chr+1
  3549     0E3C  158A  2595  158A   	fcall	_strchr
  3550     0E3F  0870               	movf	?_strchr,w
  3551     0E40  0471               	iorwf	?_strchr+1,w
  3552     0E41  1D03               	btfss	3,2
  3553     0E42  2E44               	goto	u1281
  3554     0E43  2E45               	goto	u1280
  3555     0E44                     u1281:
  3556     0E44  2E1B               	goto	l1779
  3557     0E45                     u1280:
  3558     0E45                     l1785:
  3559     0E45  087B               	movf	strspn@i+1,w
  3560     0E46  00F7               	movwf	?_strspn+1
  3561     0E47  087A               	movf	strspn@i,w
  3562     0E48  00F6               	movwf	?_strspn
  3563     0E49                     l923:
  3564     0E49  0008               	return
  3565     0E4A                     __end_of_strspn:
  3566                           
  3567                           	psect	text3
  3568     0DE4                     __ptext3:	
  3569 ;; *************** function _strcspn *****************
  3570 ;; Defined at:
  3571 ;;		line 4 in file "C:\Program Files\Microchip\xc8\v2.41\pic\sources\c90\common\strcspn.c"
  3572 ;; Parameters:    Size  Location     Type
  3573 ;;  s1              1    wreg     PTR const unsigned char 
  3574 ;;		 -> NULL(0), main@tmp(40), 
  3575 ;;  s2              1    6[COMMON] PTR const unsigned char 
  3576 ;;		 -> STR_28(2), STR_25(2), STR_24(2), STR_23(2), 
  3577 ;;		 -> STR_22(2), STR_21(2), STR_19(2), STR_18(2), 
  3578 ;;		 -> STR_17(2), STR_13(2), STR_12(2), STR_11(2), 
  3579 ;;		 -> STR_10(2), STR_8(2), 
  3580 ;; Auto vars:     Size  Location     Type
  3581 ;;  s1              1   12[COMMON] PTR const unsigned char 
  3582 ;;		 -> NULL(0), main@tmp(40), 
  3583 ;;  i               2   10[COMMON] unsigned int 
  3584 ;; Return value:  Size  Location     Type
  3585 ;;                  2    6[COMMON] unsigned int 
  3586 ;; Registers used:
  3587 ;;		wreg, fsr0l, fsr0h, status,2, status,0, btemp+1, pclath, cstack
  3588 ;; Tracked objects:
  3589 ;;		On entry : 0/0
  3590 ;;		On exit  : 0/0
  3591 ;;		Unchanged: 0/0
  3592 ;; Data sizes:     COMMON   BANK0   BANK1   BANK2
  3593 ;;      Params:         2       0       0       0
  3594 ;;      Locals:         3       0       0       0
  3595 ;;      Temps:          2       0       0       0
  3596 ;;      Totals:         7       0       0       0
  3597 ;;Total ram usage:        7 bytes
  3598 ;; Hardware stack levels used: 1
  3599 ;; Hardware stack levels required when called: 2
  3600 ;; This function calls:
  3601 ;;		_strchr
  3602 ;; This function is called by:
  3603 ;;		_strtok
  3604 ;; This function uses a non-reentrant model
  3605 ;;
  3606                           
  3607     0DE4                     _strcspn:	
  3608                           ;psect for function _strcspn
  3609                           
  3610                           
  3611                           ;incstack = 0
  3612                           ; Regs used in _strcspn: [wreg-fsr0h+status,2+status,0+btemp+1+pclath+cstack]
  3613                           ;strcspn@s1 stored from wreg
  3614     0DE4  00FC               	movwf	strcspn@s1
  3615     0DE5                     l1789:
  3616     0DE5  01FA               	clrf	strcspn@i
  3617     0DE6  01FB               	clrf	strcspn@i+1
  3618     0DE7  2DF2               	goto	l1793
  3619     0DE8                     l1791:
  3620     0DE8  3001               	movlw	1
  3621     0DE9  00FF               	movwf	btemp+1
  3622     0DEA  087F               	movf	btemp+1,w
  3623     0DEB  07FC               	addwf	strcspn@s1,f
  3624     0DEC  3001               	movlw	1
  3625     0DED  07FA               	addwf	strcspn@i,f
  3626     0DEE  1803               	skipnc
  3627     0DEF  0AFB               	incf	strcspn@i+1,f
  3628     0DF0  3000               	movlw	0
  3629     0DF1  07FB               	addwf	strcspn@i+1,f
  3630     0DF2                     l1793:
  3631     0DF2  087C               	movf	strcspn@s1,w
  3632     0DF3  0084               	movwf	4
  3633     0DF4  1383               	bcf	3,7	;select IRP bank0
  3634     0DF5  0800               	movf	0,w
  3635     0DF6  1903               	btfsc	3,2
  3636     0DF7  2DF9               	goto	u1291
  3637     0DF8  2DFA               	goto	u1290
  3638     0DF9                     u1291:
  3639     0DF9  2E12               	goto	l1797
  3640     0DFA                     u1290:
  3641     0DFA                     l1795:
  3642     0DFA  0876               	movf	strcspn@s2,w
  3643     0DFB  00F0               	movwf	strchr@ptr
  3644     0DFC  3000               	movlw	0
  3645     0DFD  1D03               	btfss	3,2
  3646     0DFE  3080               	movlw	128
  3647     0DFF  00F1               	movwf	strchr@ptr+1
  3648     0E00  087C               	movf	strcspn@s1,w
  3649     0E01  0084               	movwf	4
  3650     0E02  0800               	movf	0,w
  3651     0E03  00F8               	movwf	??_strcspn
  3652     0E04  01F9               	clrf	??_strcspn+1
  3653     0E05  0878               	movf	??_strcspn,w
  3654     0E06  00F2               	movwf	strchr@chr
  3655     0E07  0879               	movf	??_strcspn+1,w
  3656     0E08  00F3               	movwf	strchr@chr+1
  3657     0E09  158A  2595  158A   	fcall	_strchr
  3658     0E0C  0870               	movf	?_strchr,w
  3659     0E0D  0471               	iorwf	?_strchr+1,w
  3660     0E0E  1903               	btfsc	3,2
  3661     0E0F  2E11               	goto	u1301
  3662     0E10  2E12               	goto	u1300
  3663     0E11                     u1301:
  3664     0E11  2DE8               	goto	l1791
  3665     0E12                     u1300:
  3666     0E12                     l1797:
  3667     0E12  087B               	movf	strcspn@i+1,w
  3668     0E13  00F7               	movwf	?_strcspn+1
  3669     0E14  087A               	movf	strcspn@i,w
  3670     0E15  00F6               	movwf	?_strcspn
  3671     0E16                     l913:
  3672     0E16  0008               	return
  3673     0E17                     __end_of_strcspn:
  3674                           
  3675                           	psect	text4
  3676     0003                     __ptext4:	
  3677 ;; *************** function _strstr *****************
  3678 ;; Defined at:
  3679 ;;		line 4 in file "C:\Program Files\Microchip\xc8\v2.41\pic\sources\c90\common\strstr.c"
  3680 ;; Parameters:    Size  Location     Type
  3681 ;;  s1              2   10[COMMON] PTR const unsigned char 
  3682 ;;		 -> STR_28(2), STR_25(2), STR_24(2), STR_23(2), 
  3683 ;;		 -> STR_22(2), STR_21(2), STR_19(2), STR_18(2), 
  3684 ;;		 -> STR_17(2), STR_13(2), STR_12(2), STR_11(2), 
  3685 ;;		 -> STR_10(2), NULL(0), main@rps_cmd(6), STR_8(2), 
  3686 ;;  s2              1   12[COMMON] PTR const unsigned char 
  3687 ;;		 -> STR_16(5), STR_15(5), STR_14(5), 
  3688 ;; Auto vars:     Size  Location     Type
  3689 ;;		None
  3690 ;; Return value:  Size  Location     Type
  3691 ;;                  2   10[COMMON] PTR unsigned char 
  3692 ;; Registers used:
  3693 ;;		wreg, fsr0l, fsr0h, status,2, status,0, btemp+1, pclath, cstack
  3694 ;; Tracked objects:
  3695 ;;		On entry : 0/0
  3696 ;;		On exit  : 0/0
  3697 ;;		Unchanged: 0/0
  3698 ;; Data sizes:     COMMON   BANK0   BANK1   BANK2
  3699 ;;      Params:         3       0       0       0
  3700 ;;      Locals:         0       0       0       0
  3701 ;;      Temps:          0       2       0       0
  3702 ;;      Totals:         3       2       0       0
  3703 ;;Total ram usage:        5 bytes
  3704 ;; Hardware stack levels used: 1
  3705 ;; Hardware stack levels required when called: 2
  3706 ;; This function calls:
  3707 ;;		_strchr
  3708 ;;		_strlen
  3709 ;;		_strncmp
  3710 ;; This function is called by:
  3711 ;;		_main
  3712 ;; This function uses a non-reentrant model
  3713 ;;
  3714                           
  3715     0003                     _strstr:	
  3716                           ;psect for function _strstr
  3717                           
  3718     0003                     l1917:	
  3719                           ;incstack = 0
  3720                           ; Regs used in _strstr: [wreg-fsr0h+status,2+status,0+btemp+1+pclath+cstack]
  3721                           
  3722     0003  2838               	goto	l1925
  3723     0004                     l1919:
  3724     0004  087A               	movf	strstr@s1,w
  3725     0005  00F4               	movwf	strncmp@s1
  3726     0006  087B               	movf	strstr@s1+1,w
  3727     0007  00F5               	movwf	strncmp@s1+1
  3728     0008  087C               	movf	strstr@s2,w
  3729     0009  00F6               	movwf	strncmp@s2
  3730     000A  087C               	movf	strstr@s2,w
  3731     000B  158A  2557  118A   	fcall	_strlen
  3732     000E  0871               	movf	?_strlen+1,w
  3733     000F  00F8               	movwf	strncmp@len+1
  3734     0010  0870               	movf	?_strlen,w
  3735     0011  00F7               	movwf	strncmp@len
  3736     0012  158A  2690  118A   	fcall	_strncmp
  3737     0015  0874               	movf	?_strncmp,w
  3738     0016  0475               	iorwf	?_strncmp+1,w
  3739     0017  1D03               	btfss	3,2
  3740     0018  281A               	goto	u1471
  3741     0019  281B               	goto	u1470
  3742     001A                     u1471:
  3743     001A  281C               	goto	l1923
  3744     001B                     u1470:
  3745     001B                     l1921:
  3746     001B  284E               	goto	l865
  3747     001C                     l1923:
  3748     001C  087A               	movf	strstr@s1,w
  3749     001D  3E01               	addlw	1
  3750     001E  00F0               	movwf	strchr@ptr
  3751     001F  087B               	movf	strstr@s1+1,w
  3752     0020  1803               	skipnc
  3753     0021  3E01               	addlw	1
  3754     0022  3E00               	addlw	0
  3755     0023  00F1               	movwf	strchr@ptr+1
  3756     0024  087C               	movf	strstr@s2,w
  3757     0025  0084               	movwf	4
  3758     0026  158A  200A  118A   	fcall	stringdir
  3759     0029  1283               	bcf	3,5	;RP0=0, select bank0
  3760     002A  1303               	bcf	3,6	;RP1=0, select bank0
  3761     002B  00A0               	movwf	??_strstr
  3762     002C  01A1               	clrf	??_strstr+1
  3763     002D  0820               	movf	??_strstr,w
  3764     002E  00F2               	movwf	strchr@chr
  3765     002F  0821               	movf	??_strstr+1,w
  3766     0030  00F3               	movwf	strchr@chr+1
  3767     0031  158A  2595  118A   	fcall	_strchr
  3768     0034  0870               	movf	?_strchr,w
  3769     0035  00FA               	movwf	strstr@s1
  3770     0036  0871               	movf	?_strchr+1,w
  3771     0037  00FB               	movwf	strstr@s1+1
  3772     0038                     l1925:
  3773     0038  087A               	movf	strstr@s1,w
  3774     0039  047B               	iorwf	strstr@s1+1,w
  3775     003A  1903               	btfsc	3,2
  3776     003B  283D               	goto	u1481
  3777     003C  283E               	goto	u1480
  3778     003D                     u1481:
  3779     003D  284C               	goto	l1929
  3780     003E                     u1480:
  3781     003E                     l1927:
  3782     003E  087B               	movf	strstr@s1+1,w
  3783     003F  1283               	bcf	3,5	;RP0=0, select bank0
  3784     0040  1303               	bcf	3,6	;RP1=0, select bank0
  3785     0041  00FF               	movwf	btemp+1
  3786     0042  087A               	movf	strstr@s1,w
  3787     0043  0084               	movwf	4
  3788     0044  158A  2000  118A   	fcall	stringtab
  3789     0047  3A00               	xorlw	0
  3790     0048  1D03               	skipz
  3791     0049  284B               	goto	u1491
  3792     004A  284C               	goto	u1490
  3793     004B                     u1491:
  3794     004B  2804               	goto	l1919
  3795     004C                     u1490:
  3796     004C                     l1929:
  3797     004C  01FA               	clrf	?_strstr
  3798     004D  01FB               	clrf	?_strstr+1
  3799     004E                     l865:
  3800     004E  0008               	return
  3801     004F                     __end_of_strstr:
  3802                           
  3803                           	psect	text5
  3804     0E90                     __ptext5:	
  3805 ;; *************** function _strncmp *****************
  3806 ;; Defined at:
  3807 ;;		line 4 in file "C:\Program Files\Microchip\xc8\v2.41\pic\sources\c90\common\strncmp.c"
  3808 ;; Parameters:    Size  Location     Type
  3809 ;;  s1              2    4[COMMON] PTR const unsigned char 
  3810 ;;		 -> STR_28(2), STR_25(2), STR_24(2), STR_23(2), 
  3811 ;;		 -> STR_22(2), STR_21(2), STR_19(2), STR_18(2), 
  3812 ;;		 -> STR_17(2), STR_13(2), STR_12(2), STR_11(2), 
  3813 ;;		 -> STR_10(2), NULL(0), main@rps_cmd(6), STR_8(2), 
  3814 ;;  s2              1    6[COMMON] PTR const unsigned char 
  3815 ;;		 -> STR_16(5), STR_15(5), STR_14(5), 
  3816 ;;  len             2    7[COMMON] unsigned int 
  3817 ;; Auto vars:     Size  Location     Type
  3818 ;;		None
  3819 ;; Return value:  Size  Location     Type
  3820 ;;                  2    4[COMMON] int 
  3821 ;; Registers used:
  3822 ;;		wreg, fsr0l, fsr0h, status,2, status,0, btemp+1, pclath
  3823 ;; Tracked objects:
  3824 ;;		On entry : 0/0
  3825 ;;		On exit  : 0/0
  3826 ;;		Unchanged: 0/0
  3827 ;; Data sizes:     COMMON   BANK0   BANK1   BANK2
  3828 ;;      Params:         5       0       0       0
  3829 ;;      Locals:         0       0       0       0
  3830 ;;      Temps:          1       0       0       0
  3831 ;;      Totals:         6       0       0       0
  3832 ;;Total ram usage:        6 bytes
  3833 ;; Hardware stack levels used: 2
  3834 ;; This function calls:
  3835 ;;		Nothing
  3836 ;; This function is called by:
  3837 ;;		_strstr
  3838 ;; This function uses a non-reentrant model
  3839 ;;
  3840                           
  3841     0E90                     _strncmp:	
  3842                           ;psect for function _strncmp
  3843                           
  3844     0E90                     l1757:	
  3845                           ;incstack = 0
  3846                           ; Regs used in _strncmp: [wreg-fsr0h+status,2+status,0+btemp+1+pclath]
  3847                           
  3848     0E90  2ECE               	goto	l1771
  3849     0E91                     l1759:
  3850     0E91  0875               	movf	strncmp@s1+1,w
  3851     0E92  1283               	bcf	3,5	;RP0=0, select bank0
  3852     0E93  1303               	bcf	3,6	;RP1=0, select bank0
  3853     0E94  00FF               	movwf	btemp+1
  3854     0E95  0874               	movf	strncmp@s1,w
  3855     0E96  0084               	movwf	4
  3856     0E97  158A  2000  158A   	fcall	stringtab
  3857     0E9A  3A00               	xorlw	0
  3858     0E9B  1903               	skipnz
  3859     0E9C  2E9E               	goto	u1241
  3860     0E9D  2E9F               	goto	u1240
  3861     0E9E                     u1241:
  3862     0E9E  2EB1               	goto	l1763
  3863     0E9F                     u1240:
  3864     0E9F                     l1761:
  3865     0E9F  0876               	movf	strncmp@s2,w
  3866     0EA0  0084               	movwf	4
  3867     0EA1  158A  200A  158A   	fcall	stringdir
  3868     0EA4  00F9               	movwf	??_strncmp
  3869     0EA5  0875               	movf	strncmp@s1+1,w
  3870     0EA6  00FF               	movwf	btemp+1
  3871     0EA7  0874               	movf	strncmp@s1,w
  3872     0EA8  0084               	movwf	4
  3873     0EA9  158A  2000  158A   	fcall	stringtab
  3874     0EAC  0679               	xorwf	??_strncmp,w
  3875     0EAD  1903               	skipnz
  3876     0EAE  2EB0               	goto	u1251
  3877     0EAF  2EB1               	goto	u1250
  3878     0EB0                     u1251:
  3879     0EB0  2EC4               	goto	l1767
  3880     0EB1                     u1250:
  3881     0EB1                     l1763:
  3882     0EB1  0875               	movf	strncmp@s1+1,w
  3883     0EB2  00FF               	movwf	btemp+1
  3884     0EB3  0874               	movf	strncmp@s1,w
  3885     0EB4  0084               	movwf	4
  3886     0EB5  158A  2000  158A   	fcall	stringtab
  3887     0EB8  00F9               	movwf	??_strncmp
  3888     0EB9  0876               	movf	strncmp@s2,w
  3889     0EBA  0084               	movwf	4
  3890     0EBB  158A  200A  158A   	fcall	stringdir
  3891     0EBE  0279               	subwf	??_strncmp,w
  3892     0EBF  00F4               	movwf	?_strncmp
  3893     0EC0  01F5               	clrf	?_strncmp+1
  3894     0EC1  1C03               	skipc
  3895     0EC2  03F5               	decf	?_strncmp+1,f
  3896     0EC3  2EDE               	goto	l888
  3897     0EC4                     l1767:
  3898     0EC4  3001               	movlw	1
  3899     0EC5  07F4               	addwf	strncmp@s1,f
  3900     0EC6  1803               	skipnc
  3901     0EC7  0AF5               	incf	strncmp@s1+1,f
  3902     0EC8  3000               	movlw	0
  3903     0EC9  07F5               	addwf	strncmp@s1+1,f
  3904     0ECA                     l1769:
  3905     0ECA  3001               	movlw	1
  3906     0ECB  00FF               	movwf	btemp+1
  3907     0ECC  087F               	movf	btemp+1,w
  3908     0ECD  07F6               	addwf	strncmp@s2,f
  3909     0ECE                     l1771:
  3910     0ECE  3001               	movlw	1
  3911     0ECF  02F7               	subwf	strncmp@len,f
  3912     0ED0  3000               	movlw	0
  3913     0ED1  1C03               	skipc
  3914     0ED2  03F8               	decf	strncmp@len+1,f
  3915     0ED3  02F8               	subwf	strncmp@len+1,f
  3916     0ED4  0A77               	incf	strncmp@len,w
  3917     0ED5  1D03               	skipz
  3918     0ED6  2EDB               	goto	u1261
  3919     0ED7  0A78               	incf	strncmp@len+1,w
  3920     0ED8  1D03               	btfss	3,2
  3921     0ED9  2EDB               	goto	u1261
  3922     0EDA  2EDC               	goto	u1260
  3923     0EDB                     u1261:
  3924     0EDB  2E91               	goto	l1759
  3925     0EDC                     u1260:
  3926     0EDC                     l1773:
  3927     0EDC  01F4               	clrf	?_strncmp
  3928     0EDD  01F5               	clrf	?_strncmp+1
  3929     0EDE                     l888:
  3930     0EDE  0008               	return
  3931     0EDF                     __end_of_strncmp:
  3932                           
  3933                           	psect	text6
  3934     0D57                     __ptext6:	
  3935 ;; *************** function _strlen *****************
  3936 ;; Defined at:
  3937 ;;		line 4 in file "C:\Program Files\Microchip\xc8\v2.41\pic\sources\c90\common\strlen.c"
  3938 ;; Parameters:    Size  Location     Type
  3939 ;;  s               1    wreg     PTR const unsigned char 
  3940 ;;		 -> STR_16(5), STR_15(5), STR_14(5), 
  3941 ;; Auto vars:     Size  Location     Type
  3942 ;;  s               1    2[COMMON] PTR const unsigned char 
  3943 ;;		 -> STR_16(5), STR_15(5), STR_14(5), 
  3944 ;;  cp              1    3[COMMON] PTR const unsigned char 
  3945 ;;		 -> STR_16(5), STR_15(5), STR_14(5), 
  3946 ;; Return value:  Size  Location     Type
  3947 ;;                  2    0[COMMON] unsigned int 
  3948 ;; Registers used:
  3949 ;;		wreg, fsr0l, fsr0h, status,2, status,0, btemp+1, pclath
  3950 ;; Tracked objects:
  3951 ;;		On entry : 0/0
  3952 ;;		On exit  : 0/0
  3953 ;;		Unchanged: 0/0
  3954 ;; Data sizes:     COMMON   BANK0   BANK1   BANK2
  3955 ;;      Params:         2       0       0       0
  3956 ;;      Locals:         2       0       0       0
  3957 ;;      Temps:          0       0       0       0
  3958 ;;      Totals:         4       0       0       0
  3959 ;;Total ram usage:        4 bytes
  3960 ;; Hardware stack levels used: 2
  3961 ;; This function calls:
  3962 ;;		Nothing
  3963 ;; This function is called by:
  3964 ;;		_strstr
  3965 ;; This function uses a non-reentrant model
  3966 ;;
  3967                           
  3968     0D57                     _strlen:	
  3969                           ;psect for function _strlen
  3970                           
  3971                           
  3972                           ;incstack = 0
  3973                           ; Regs used in _strlen: [wreg-fsr0h+status,2+status,0+btemp+1+pclath]
  3974                           ;strlen@s stored from wreg
  3975     0D57  00F2               	movwf	strlen@s
  3976     0D58                     l1747:
  3977     0D58  0872               	movf	strlen@s,w
  3978     0D59  00F3               	movwf	strlen@cp
  3979     0D5A  2D5F               	goto	l1751
  3980     0D5B                     l1749:
  3981     0D5B  3001               	movlw	1
  3982     0D5C  00FF               	movwf	btemp+1
  3983     0D5D  087F               	movf	btemp+1,w
  3984     0D5E  07F3               	addwf	strlen@cp,f
  3985     0D5F                     l1751:
  3986     0D5F  0873               	movf	strlen@cp,w
  3987     0D60  0084               	movwf	4
  3988     0D61  158A  200A  158A   	fcall	stringdir
  3989     0D64  3A00               	xorlw	0
  3990     0D65  1D03               	skipz
  3991     0D66  2D68               	goto	u1231
  3992     0D67  2D69               	goto	u1230
  3993     0D68                     u1231:
  3994     0D68  2D5B               	goto	l1749
  3995     0D69                     u1230:
  3996     0D69                     l1753:
  3997     0D69  0872               	movf	strlen@s,w
  3998     0D6A  0273               	subwf	strlen@cp,w
  3999     0D6B  00F0               	movwf	?_strlen
  4000     0D6C  01F1               	clrf	?_strlen+1
  4001     0D6D  1BF0               	btfsc	?_strlen,7
  4002     0D6E  03F1               	decf	?_strlen+1,f
  4003     0D6F                     l880:
  4004     0D6F  0008               	return
  4005     0D70                     __end_of_strlen:
  4006                           
  4007                           	psect	text7
  4008     0D95                     __ptext7:	
  4009 ;; *************** function _strchr *****************
  4010 ;; Defined at:
  4011 ;;		line 4 in file "C:\Program Files\Microchip\xc8\v2.41\pic\sources\c90\common\strchr.c"
  4012 ;; Parameters:    Size  Location     Type
  4013 ;;  ptr             2    0[COMMON] PTR const unsigned char 
  4014 ;;		 -> STR_28(2), STR_25(2), STR_24(2), STR_23(2), 
  4015 ;;		 -> STR_22(2), STR_21(2), STR_19(2), STR_18(2), 
  4016 ;;		 -> STR_17(2), STR_13(2), STR_12(2), STR_11(2), 
  4017 ;;		 -> STR_10(2), NULL(0), main@rps_cmd(6), STR_8(2), 
  4018 ;;  chr             2    2[COMMON] int 
  4019 ;; Auto vars:     Size  Location     Type
  4020 ;;		None
  4021 ;; Return value:  Size  Location     Type
  4022 ;;                  2    0[COMMON] PTR unsigned char 
  4023 ;; Registers used:
  4024 ;;		wreg, fsr0l, fsr0h, status,2, btemp+1, pclath
  4025 ;; Tracked objects:
  4026 ;;		On entry : 0/0
  4027 ;;		On exit  : 0/0
  4028 ;;		Unchanged: 0/0
  4029 ;; Data sizes:     COMMON   BANK0   BANK1   BANK2
  4030 ;;      Params:         4       0       0       0
  4031 ;;      Locals:         0       0       0       0
  4032 ;;      Temps:          2       0       0       0
  4033 ;;      Totals:         6       0       0       0
  4034 ;;Total ram usage:        6 bytes
  4035 ;; Hardware stack levels used: 2
  4036 ;; This function calls:
  4037 ;;		Nothing
  4038 ;; This function is called by:
  4039 ;;		_strstr
  4040 ;;		_strcspn
  4041 ;;		_strspn
  4042 ;; This function uses a non-reentrant model
  4043 ;;
  4044                           
  4045     0D95                     _strchr:	
  4046                           ;psect for function _strchr
  4047                           
  4048     0D95                     l871:	
  4049                           ;incstack = 0
  4050                           ; Regs used in _strchr: [wreg-fsr0h+status,2+btemp+1+pclath]
  4051                           
  4052     0D95                     l1677:
  4053     0D95  0871               	movf	strchr@ptr+1,w
  4054     0D96  1283               	bcf	3,5	;RP0=0, select bank0
  4055     0D97  1303               	bcf	3,6	;RP1=0, select bank0
  4056     0D98  00FF               	movwf	btemp+1
  4057     0D99  0870               	movf	strchr@ptr,w
  4058     0D9A  0084               	movwf	4
  4059     0D9B  158A  2000  158A   	fcall	stringtab
  4060     0D9E  0672               	xorwf	strchr@chr,w
  4061     0D9F  1D03               	skipz
  4062     0DA0  2DA2               	goto	u1131
  4063     0DA1  2DA3               	goto	u1130
  4064     0DA2                     u1131:
  4065     0DA2  2DA4               	goto	l1681
  4066     0DA3                     u1130:
  4067     0DA3                     l1679:
  4068     0DA3  2DB9               	goto	l873
  4069     0DA4                     l1681:
  4070     0DA4  0871               	movf	strchr@ptr+1,w
  4071     0DA5  00F5               	movwf	??_strchr+1
  4072     0DA6  0870               	movf	strchr@ptr,w
  4073     0DA7  00F4               	movwf	??_strchr
  4074     0DA8  0AF0               	incf	strchr@ptr,f
  4075     0DA9  1903               	skipnz
  4076     0DAA  0AF1               	incf	strchr@ptr+1,f
  4077     0DAB  0875               	movf	??_strchr+1,w
  4078     0DAC  00FF               	movwf	btemp+1
  4079     0DAD  0874               	movf	??_strchr,w
  4080     0DAE  0084               	movwf	4
  4081     0DAF  158A  2000  158A   	fcall	stringtab
  4082     0DB2  3A00               	xorlw	0
  4083     0DB3  1D03               	skipz
  4084     0DB4  2DB6               	goto	u1141
  4085     0DB5  2DB7               	goto	u1140
  4086     0DB6                     u1141:
  4087     0DB6  2D95               	goto	l871
  4088     0DB7                     u1140:
  4089     0DB7                     l1683:
  4090     0DB7  01F0               	clrf	?_strchr
  4091     0DB8  01F1               	clrf	?_strchr+1
  4092     0DB9                     l873:
  4093     0DB9  0008               	return
  4094     0DBA                     __end_of_strchr:
  4095                           
  4096                           	psect	text8
  4097     0DBA                     __ptext8:	
  4098 ;; *************** function _strcmp *****************
  4099 ;; Defined at:
  4100 ;;		line 33 in file "C:\Program Files\Microchip\xc8\v2.41\pic\sources\c90\common\strcmp.c"
  4101 ;; Parameters:    Size  Location     Type
  4102 ;;  s1              1    wreg     PTR const unsigned char 
  4103 ;;		 -> main@rcmd(4), 
  4104 ;;  s2              1    0[COMMON] PTR const unsigned char 
  4105 ;;		 -> STR_7(4), STR_6(4), STR_5(4), STR_4(4), 
  4106 ;;		 -> STR_3(4), STR_2(4), STR_1(4), 
  4107 ;; Auto vars:     Size  Location     Type
  4108 ;;  s1              1    5[COMMON] PTR const unsigned char 
  4109 ;;		 -> main@rcmd(4), 
  4110 ;;  r               1    4[COMMON] char 
  4111 ;; Return value:  Size  Location     Type
  4112 ;;                  2    0[COMMON] int 
  4113 ;; Registers used:
  4114 ;;		wreg, fsr0l, fsr0h, status,2, status,0, btemp+1, pclath
  4115 ;; Tracked objects:
  4116 ;;		On entry : 0/0
  4117 ;;		On exit  : 0/0
  4118 ;;		Unchanged: 0/0
  4119 ;; Data sizes:     COMMON   BANK0   BANK1   BANK2
  4120 ;;      Params:         2       0       0       0
  4121 ;;      Locals:         2       0       0       0
  4122 ;;      Temps:          2       0       0       0
  4123 ;;      Totals:         6       0       0       0
  4124 ;;Total ram usage:        6 bytes
  4125 ;; Hardware stack levels used: 2
  4126 ;; This function calls:
  4127 ;;		Nothing
  4128 ;; This function is called by:
  4129 ;;		_main
  4130 ;; This function uses a non-reentrant model
  4131 ;;
  4132                           
  4133     0DBA                     _strcmp:	
  4134                           ;psect for function _strcmp
  4135                           
  4136                           
  4137                           ;incstack = 0
  4138                           ; Regs used in _strcmp: [wreg-fsr0h+status,2+status,0+btemp+1+pclath]
  4139                           ;strcmp@s1 stored from wreg
  4140     0DBA  00F5               	movwf	strcmp@s1
  4141     0DBB                     l1843:
  4142     0DBB  2DC4               	goto	l1849
  4143     0DBC                     l1845:
  4144     0DBC  3001               	movlw	1
  4145     0DBD  00FF               	movwf	btemp+1
  4146     0DBE  087F               	movf	btemp+1,w
  4147     0DBF  07F5               	addwf	strcmp@s1,f
  4148     0DC0                     l1847:
  4149     0DC0  3001               	movlw	1
  4150     0DC1  00FF               	movwf	btemp+1
  4151     0DC2  087F               	movf	btemp+1,w
  4152     0DC3  07F0               	addwf	strcmp@s2,f
  4153     0DC4                     l1849:
  4154     0DC4  0870               	movf	strcmp@s2,w
  4155     0DC5  0084               	movwf	4
  4156     0DC6  158A  200A  158A   	fcall	stringdir
  4157     0DC9  00F2               	movwf	??_strcmp
  4158     0DCA  0875               	movf	strcmp@s1,w
  4159     0DCB  0084               	movwf	4
  4160     0DCC  1383               	bcf	3,7	;select IRP bank0
  4161     0DCD  0800               	movf	0,w
  4162     0DCE  00F3               	movwf	??_strcmp+1
  4163     0DCF  0872               	movf	??_strcmp,w
  4164     0DD0  0273               	subwf	??_strcmp+1,w
  4165     0DD1  00F4               	movwf	strcmp@r
  4166     0DD2  0874               	movf	strcmp@r,w
  4167     0DD3  1D03               	btfss	3,2
  4168     0DD4  2DD6               	goto	u1371
  4169     0DD5  2DD7               	goto	u1370
  4170     0DD6                     u1371:
  4171     0DD6  2DDE               	goto	l1853
  4172     0DD7                     u1370:
  4173     0DD7                     l1851:
  4174     0DD7  0875               	movf	strcmp@s1,w
  4175     0DD8  0084               	movwf	4
  4176     0DD9  0800               	movf	0,w
  4177     0DDA  1D03               	btfss	3,2
  4178     0DDB  2DDD               	goto	u1381
  4179     0DDC  2DDE               	goto	u1380
  4180     0DDD                     u1381:
  4181     0DDD  2DBC               	goto	l1845
  4182     0DDE                     u1380:
  4183     0DDE                     l1853:
  4184     0DDE  0874               	movf	strcmp@r,w
  4185     0DDF  00F0               	movwf	?_strcmp
  4186     0DE0  01F1               	clrf	?_strcmp+1
  4187     0DE1  1BF0               	btfsc	?_strcmp,7
  4188     0DE2  03F1               	decf	?_strcmp+1,f
  4189     0DE3                     l853:
  4190     0DE3  0008               	return
  4191     0DE4                     __end_of_strcmp:
  4192                           
  4193                           	psect	text9
  4194     0F36                     __ptext9:	
  4195 ;; *************** function _printf *****************
  4196 ;; Defined at:
  4197 ;;		line 477 in file "C:\Program Files\Microchip\xc8\v2.41\pic\sources\c90\common\doprnt.c"
  4198 ;; Parameters:    Size  Location     Type
  4199 ;;  f               1    wreg     PTR const unsigned char 
  4200 ;;		 -> STR_31(15), STR_30(10), STR_29(8), STR_27(8), 
  4201 ;;		 -> STR_26(8), STR_20(8), STR_9(11), 
  4202 ;; Auto vars:     Size  Location     Type
  4203 ;;  f               1    6[COMMON] PTR const unsigned char 
  4204 ;;		 -> STR_31(15), STR_30(10), STR_29(8), STR_27(8), 
  4205 ;;		 -> STR_26(8), STR_20(8), STR_9(11), 
  4206 ;;  tmpval          4    0        struct .
  4207 ;;  cp              2    4[COMMON] PTR const unsigned char 
  4208 ;;		 -> STR_32(7), ?_printf(2), main@rps_cmd(6), 
  4209 ;;  len             2    0        unsigned int 
  4210 ;;  val             2    0        unsigned int 
  4211 ;;  c               1    3[COMMON] unsigned char 
  4212 ;;  ap              1    2[COMMON] PTR void [1]
  4213 ;;		 -> ?_printf(2), 
  4214 ;;  flag            1    0        unsigned char 
  4215 ;;  prec            1    0        char 
  4216 ;; Return value:  Size  Location     Type
  4217 ;;                  2    1[COMMON] int 
  4218 ;; Registers used:
  4219 ;;		wreg, fsr0l, fsr0h, status,2, status,0, btemp+1, pclath, cstack
  4220 ;; Tracked objects:
  4221 ;;		On entry : 0/0
  4222 ;;		On exit  : 0/0
  4223 ;;		Unchanged: 0/0
  4224 ;; Data sizes:     COMMON   BANK0   BANK1   BANK2
  4225 ;;      Params:         1       0       0       0
  4226 ;;      Locals:         5       0       0       0
  4227 ;;      Temps:          0       0       0       0
  4228 ;;      Totals:         6       0       0       0
  4229 ;;Total ram usage:        6 bytes
  4230 ;; Hardware stack levels used: 1
  4231 ;; Hardware stack levels required when called: 1
  4232 ;; This function calls:
  4233 ;;		_putch
  4234 ;; This function is called by:
  4235 ;;		_main
  4236 ;; This function uses a non-reentrant model
  4237 ;;
  4238                           
  4239     0F36                     _printf:	
  4240                           ;psect for function _printf
  4241                           
  4242                           
  4243                           ;incstack = 0
  4244                           ; Regs used in _printf: [wreg-fsr0h+status,2+status,0+btemp+1+pclath+cstack]
  4245                           ;printf@f stored from wreg
  4246     0F36  00F6               	movwf	printf@f
  4247     0F37                     l1889:
  4248                           
  4249                           ;doprnt.c: 479: va_list ap;;doprnt.c: 512: char c;;doprnt.c: 521: signed char prec;;dopr
      +                          nt.c: 525: unsigned char flag;;doprnt.c: 540: union {;doprnt.c: 541: unsigned long vd;;d
      +                          oprnt.c: 542: double integ;;doprnt.c: 543: } tmpval;;doprnt.c: 545: unsigned int val;;do
      +                          prnt.c: 546: unsigned len;;doprnt.c: 547: const char * cp;;doprnt.c: 550: *ap = __va_sta
      +                          rt();
  4250     0F37  3071               	movlw	(low (?_printf| 0))& (0+255)
  4251     0F38  00F2               	movwf	printf@ap
  4252                           
  4253                           ;doprnt.c: 553: while((c = *f++)) {
  4254     0F39  2F8A               	goto	l1915
  4255     0F3A                     l1891:
  4256                           
  4257                           ;doprnt.c: 555: if(c != '%')
  4258     0F3A  3025               	movlw	37
  4259     0F3B  0673               	xorwf	printf@c,w
  4260     0F3C  1903               	btfsc	3,2
  4261     0F3D  2F3F               	goto	u1431
  4262     0F3E  2F40               	goto	u1430
  4263     0F3F                     u1431:
  4264     0F3F  2F45               	goto	l1895
  4265     0F40                     u1430:
  4266     0F40                     l1893:
  4267                           
  4268                           ;doprnt.c: 557: {;doprnt.c: 558: (putch(c) );
  4269     0F40  0873               	movf	printf@c,w
  4270     0F41  158A  2526  158A   	fcall	_putch
  4271                           
  4272                           ;doprnt.c: 559: continue;
  4273     0F44  2F8A               	goto	l1915
  4274     0F45                     l1895:
  4275                           
  4276                           ;doprnt.c: 661: switch(c = *f++) {
  4277     0F45  2F7A               	goto	l1913
  4278     0F46                     l1897:
  4279                           
  4280                           ;doprnt.c: 760: cp = (*(const char * *)__va_arg((*(const char * **)ap), (const char *)0)
      +                          );
  4281     0F46  0872               	movf	printf@ap,w
  4282     0F47  0084               	movwf	4
  4283     0F48  0800               	movf	0,w
  4284     0F49  00F4               	movwf	printf@cp
  4285     0F4A  3000               	movlw	0
  4286     0F4B  00F5               	movwf	printf@cp+1
  4287     0F4C                     l1899:
  4288     0F4C  3001               	movlw	1
  4289     0F4D  00FF               	movwf	btemp+1
  4290     0F4E  087F               	movf	btemp+1,w
  4291     0F4F  07F2               	addwf	printf@ap,f
  4292     0F50                     l1901:
  4293                           
  4294                           ;doprnt.c: 766: if(!cp)
  4295     0F50  0874               	movf	printf@cp,w
  4296     0F51  0475               	iorwf	printf@cp+1,w
  4297     0F52  1D03               	btfss	3,2
  4298     0F53  2F55               	goto	u1441
  4299     0F54  2F56               	goto	u1440
  4300     0F55                     u1441:
  4301     0F55  2F6B               	goto	l1909
  4302     0F56                     u1440:
  4303     0F56                     l1903:
  4304                           
  4305                           ;doprnt.c: 767: cp = "(null)";
  4306     0F56  3045               	movlw	(low ((STR_32-__stringbase)| (0+32768)))& (0+255)
  4307     0F57  00F4               	movwf	printf@cp
  4308     0F58  3080               	movlw	128
  4309     0F59  00F5               	movwf	printf@cp+1
  4310     0F5A  2F6B               	goto	l1909
  4311     0F5B                     l1905:
  4312                           
  4313                           ;doprnt.c: 804: (putch(*cp++) );
  4314     0F5B  0875               	movf	printf@cp+1,w
  4315     0F5C  00FF               	movwf	btemp+1
  4316     0F5D  0874               	movf	printf@cp,w
  4317     0F5E  0084               	movwf	4
  4318     0F5F  158A  2000  158A   	fcall	stringtab
  4319     0F62  158A  2526  158A   	fcall	_putch
  4320     0F65                     l1907:
  4321     0F65  3001               	movlw	1
  4322     0F66  07F4               	addwf	printf@cp,f
  4323     0F67  1803               	skipnc
  4324     0F68  0AF5               	incf	printf@cp+1,f
  4325     0F69  3000               	movlw	0
  4326     0F6A  07F5               	addwf	printf@cp+1,f
  4327     0F6B                     l1909:
  4328     0F6B  0875               	movf	printf@cp+1,w
  4329     0F6C  1283               	bcf	3,5	;RP0=0, select bank0
  4330     0F6D  1303               	bcf	3,6	;RP1=0, select bank0
  4331     0F6E  00FF               	movwf	btemp+1
  4332     0F6F  0874               	movf	printf@cp,w
  4333     0F70  0084               	movwf	4
  4334     0F71  158A  2000  158A   	fcall	stringtab
  4335     0F74  3A00               	xorlw	0
  4336     0F75  1D03               	skipz
  4337     0F76  2F78               	goto	u1451
  4338     0F77  2F79               	goto	u1450
  4339     0F78                     u1451:
  4340     0F78  2F5B               	goto	l1905
  4341     0F79                     u1450:
  4342     0F79  2F8A               	goto	l1915
  4343     0F7A                     l1913:
  4344     0F7A  3001               	movlw	1
  4345     0F7B  07F6               	addwf	printf@f,f
  4346     0F7C  30FF               	movlw	-1
  4347     0F7D  0776               	addwf	printf@f,w
  4348     0F7E  0084               	movwf	4
  4349     0F7F  158A  200A  158A   	fcall	stringdir
  4350     0F82  00F3               	movwf	printf@c
  4351                           
  4352                           ; Switch size 1, requested type "simple"
  4353                           ; Number of cases is 2, Range of values is 0 to 115
  4354                           ; switch strategies available:
  4355                           ; Name         Instructions Cycles
  4356                           ; simple_byte            7     4 (average)
  4357                           ; direct_byte          239     7 (fixed)
  4358                           ; jumptable            260     6 (fixed)
  4359                           ;	Chosen strategy is simple_byte
  4360     0F83  3A00               	xorlw	0	; case 0
  4361     0F84  1903               	skipnz
  4362     0F85  2F98               	goto	l348
  4363     0F86  3A73               	xorlw	115	; case 115
  4364     0F87  1903               	skipnz
  4365     0F88  2F46               	goto	l1897
  4366     0F89  2F8A               	goto	l1915
  4367     0F8A                     l1915:
  4368     0F8A  3001               	movlw	1
  4369     0F8B  07F6               	addwf	printf@f,f
  4370     0F8C  30FF               	movlw	-1
  4371     0F8D  0776               	addwf	printf@f,w
  4372     0F8E  0084               	movwf	4
  4373     0F8F  158A  200A  158A   	fcall	stringdir
  4374     0F92  00F3               	movwf	printf@c
  4375     0F93  0873               	movf	printf@c,w
  4376     0F94  1D03               	btfss	3,2
  4377     0F95  2F97               	goto	u1461
  4378     0F96  2F98               	goto	u1460
  4379     0F97                     u1461:
  4380     0F97  2F3A               	goto	l1891
  4381     0F98                     u1460:
  4382     0F98                     l348:
  4383     0F98  0008               	return
  4384     0F99                     __end_of_printf:
  4385                           
  4386                           	psect	text10
  4387     0D3A                     __ptext10:	
  4388 ;; *************** function _initUART *****************
  4389 ;; Defined at:
  4390 ;;		line 6 in file "uart.c"
  4391 ;; Parameters:    Size  Location     Type
  4392 ;;		None
  4393 ;; Auto vars:     Size  Location     Type
  4394 ;;		None
  4395 ;; Return value:  Size  Location     Type
  4396 ;;                  1    wreg      void 
  4397 ;; Registers used:
  4398 ;;		wreg
  4399 ;; Tracked objects:
  4400 ;;		On entry : 0/0
  4401 ;;		On exit  : 0/0
  4402 ;;		Unchanged: 0/0
  4403 ;; Data sizes:     COMMON   BANK0   BANK1   BANK2
  4404 ;;      Params:         0       0       0       0
  4405 ;;      Locals:         0       0       0       0
  4406 ;;      Temps:          0       0       0       0
  4407 ;;      Totals:         0       0       0       0
  4408 ;;Total ram usage:        0 bytes
  4409 ;; Hardware stack levels used: 1
  4410 ;; This function calls:
  4411 ;;		Nothing
  4412 ;; This function is called by:
  4413 ;;		_main
  4414 ;; This function uses a non-reentrant model
  4415 ;;
  4416                           
  4417     0D3A                     _initUART:	
  4418                           ;psect for function _initUART
  4419                           
  4420     0D3A                     l1801:	
  4421                           ;incstack = 0
  4422                           ; Regs used in _initUART: [wreg]
  4423                           
  4424                           
  4425                           ;uart.c: 8: SPBRG = ((unsigned char)(((4000000 / 16) / 9600) - 1));
  4426     0D3A  3019               	movlw	25
  4427     0D3B  1683               	bsf	3,5	;RP0=1, select bank1
  4428     0D3C  1303               	bcf	3,6	;RP1=0, select bank1
  4429     0D3D  0099               	movwf	25	;volatile
  4430                           
  4431                           ;uart.c: 9: TXSTA = (0x00 | 0x04 | 0x20);
  4432     0D3E  3024               	movlw	36
  4433     0D3F  0098               	movwf	24	;volatile
  4434                           
  4435                           ;uart.c: 10: RCSTA = (0x00 | 0x90);
  4436     0D40  3090               	movlw	144
  4437     0D41  1283               	bcf	3,5	;RP0=0, select bank0
  4438     0D42  1303               	bcf	3,6	;RP1=0, select bank0
  4439     0D43  0098               	movwf	24	;volatile
  4440     0D44                     l228:
  4441     0D44  0008               	return
  4442     0D45                     __end_of_initUART:
  4443                           
  4444                           	psect	text11
  4445     0D18                     __ptext11:	
  4446 ;; *************** function _gets *****************
  4447 ;; Defined at:
  4448 ;;		line 10 in file "C:\Program Files\Microchip\xc8\v2.41\pic\sources\c90\common\gets.c"
  4449 ;; Parameters:    Size  Location     Type
  4450 ;;  s               1    wreg     PTR unsigned char 
  4451 ;;		 -> main@tmp(40), 
  4452 ;; Auto vars:     Size  Location     Type
  4453 ;;  s               1    8[COMMON] PTR unsigned char 
  4454 ;;		 -> main@tmp(40), 
  4455 ;; Return value:  Size  Location     Type
  4456 ;;                  1    wreg      PTR unsigned char 
  4457 ;; Registers used:
  4458 ;;		wreg, fsr0l, fsr0h, status,2, status,0, btemp+1, pclath, cstack
  4459 ;; Tracked objects:
  4460 ;;		On entry : 0/0
  4461 ;;		On exit  : 0/0
  4462 ;;		Unchanged: 0/0
  4463 ;; Data sizes:     COMMON   BANK0   BANK1   BANK2
  4464 ;;      Params:         0       0       0       0
  4465 ;;      Locals:         1       0       0       0
  4466 ;;      Temps:          0       0       0       0
  4467 ;;      Totals:         1       0       0       0
  4468 ;;Total ram usage:        1 bytes
  4469 ;; Hardware stack levels used: 1
  4470 ;; Hardware stack levels required when called: 3
  4471 ;; This function calls:
  4472 ;;		_cgets
  4473 ;; This function is called by:
  4474 ;;		_main
  4475 ;; This function uses a non-reentrant model
  4476 ;;
  4477                           
  4478     0D18                     _gets:	
  4479                           ;psect for function _gets
  4480                           
  4481                           
  4482                           ;incstack = 0
  4483                           ; Regs used in _gets: [wreg-fsr0h+status,2+status,0+btemp+1+pclath+cstack]
  4484                           ;gets@s stored from wreg
  4485     0D18  00F8               	movwf	gets@s
  4486     0D19                     l1803:
  4487                           
  4488                           ;	Return value of _gets is never used
  4489     0D19  0878               	movf	gets@s,w
  4490     0D1A  158A  26DF  158A   	fcall	_cgets
  4491     0D1D                     l820:
  4492     0D1D  0008               	return
  4493     0D1E                     __end_of_gets:
  4494                           
  4495                           	psect	text12
  4496     0EDF                     __ptext12:	
  4497 ;; *************** function _cgets *****************
  4498 ;; Defined at:
  4499 ;;		line 4 in file "C:\Program Files\Microchip\xc8\v2.41\pic\sources\c90\common\cgets.c"
  4500 ;; Parameters:    Size  Location     Type
  4501 ;;  s               1    wreg     PTR unsigned char 
  4502 ;;		 -> main@tmp(40), 
  4503 ;; Auto vars:     Size  Location     Type
  4504 ;;  s               1    6[COMMON] PTR unsigned char 
  4505 ;;		 -> main@tmp(40), 
  4506 ;;  c               2    4[COMMON] int 
  4507 ;;  s1              1    7[COMMON] PTR unsigned char 
  4508 ;;		 -> main@tmp(40), 
  4509 ;; Return value:  Size  Location     Type
  4510 ;;                  1    wreg      PTR unsigned char 
  4511 ;; Registers used:
  4512 ;;		wreg, fsr0l, fsr0h, status,2, status,0, btemp+1, pclath, cstack
  4513 ;; Tracked objects:
  4514 ;;		On entry : 0/0
  4515 ;;		On exit  : 0/0
  4516 ;;		Unchanged: 0/0
  4517 ;; Data sizes:     COMMON   BANK0   BANK1   BANK2
  4518 ;;      Params:         0       0       0       0
  4519 ;;      Locals:         4       0       0       0
  4520 ;;      Temps:          2       0       0       0
  4521 ;;      Totals:         6       0       0       0
  4522 ;;Total ram usage:        6 bytes
  4523 ;; Hardware stack levels used: 1
  4524 ;; Hardware stack levels required when called: 2
  4525 ;; This function calls:
  4526 ;;		_getche
  4527 ;;		_putch
  4528 ;; This function is called by:
  4529 ;;		_gets
  4530 ;; This function uses a non-reentrant model
  4531 ;;
  4532                           
  4533     0EDF                     _cgets:	
  4534                           ;psect for function _cgets
  4535                           
  4536                           
  4537                           ;incstack = 0
  4538                           ; Regs used in _cgets: [wreg-fsr0h+status,2+status,0+btemp+1+pclath+cstack]
  4539                           ;cgets@s stored from wreg
  4540     0EDF  00F6               	movwf	cgets@s
  4541     0EE0                     l1713:
  4542     0EE0  0876               	movf	cgets@s,w
  4543     0EE1  00F7               	movwf	cgets@s1
  4544     0EE2  2F19               	goto	l1741
  4545     0EE3                     l1715:
  4546     0EE3  0876               	movf	cgets@s,w
  4547     0EE4  0677               	xorwf	cgets@s1,w
  4548     0EE5  1D03               	skipz
  4549     0EE6  2EE8               	goto	u1211
  4550     0EE7  2EE9               	goto	u1210
  4551     0EE8                     u1211:
  4552     0EE8  2EEA               	goto	l1719
  4553     0EE9                     u1210:
  4554     0EE9  2F19               	goto	l1741
  4555     0EEA                     l1719:
  4556     0EEA  3020               	movlw	32
  4557     0EEB  158A  2526  158A   	fcall	_putch
  4558     0EEE  3008               	movlw	8
  4559     0EEF  158A  2526  158A   	fcall	_putch
  4560     0EF2                     l1721:
  4561     0EF2  3001               	movlw	1
  4562     0EF3  02F7               	subwf	cgets@s1,f
  4563     0EF4  2F19               	goto	l1741
  4564     0EF5                     l1723:
  4565     0EF5  3008               	movlw	8
  4566     0EF6  158A  2526  158A   	fcall	_putch
  4567     0EF9  3020               	movlw	32
  4568     0EFA  158A  2526  158A   	fcall	_putch
  4569     0EFD  3008               	movlw	8
  4570     0EFE  158A  2526  158A   	fcall	_putch
  4571     0F01                     l1725:
  4572     0F01  3001               	movlw	1
  4573     0F02  02F7               	subwf	cgets@s1,f
  4574     0F03                     l1727:
  4575     0F03  0877               	movf	cgets@s1,w
  4576     0F04  0276               	subwf	cgets@s,w
  4577     0F05  1C03               	skipc
  4578     0F06  2F08               	goto	u1221
  4579     0F07  2F09               	goto	u1220
  4580     0F08                     u1221:
  4581     0F08  2EF5               	goto	l1723
  4582     0F09                     u1220:
  4583     0F09  2F19               	goto	l1741
  4584     0F0A                     l1729:
  4585     0F0A  0877               	movf	cgets@s1,w
  4586     0F0B  0084               	movwf	4
  4587     0F0C  1383               	bcf	3,7	;select IRP bank0
  4588     0F0D  0180               	clrf	0
  4589     0F0E                     l1731:
  4590     0F0E  0876               	movf	cgets@s,w
  4591     0F0F  2F35               	goto	l838
  4592     0F10                     l1735:
  4593     0F10  0877               	movf	cgets@s1,w
  4594     0F11  0084               	movwf	4
  4595     0F12  0874               	movf	cgets@c,w
  4596     0F13  1383               	bcf	3,7	;select IRP bank0
  4597     0F14  0080               	movwf	0
  4598     0F15                     l1737:
  4599     0F15  3001               	movlw	1
  4600     0F16  00FF               	movwf	btemp+1
  4601     0F17  087F               	movf	btemp+1,w
  4602     0F18  07F7               	addwf	cgets@s1,f
  4603     0F19                     l1741:
  4604     0F19  158A  2530  158A   	fcall	_getche
  4605     0F1C  00F2               	movwf	??_cgets
  4606     0F1D  01F3               	clrf	??_cgets+1
  4607     0F1E  0872               	movf	??_cgets,w
  4608     0F1F  00F4               	movwf	cgets@c
  4609     0F20  0873               	movf	??_cgets+1,w
  4610     0F21  00F5               	movwf	cgets@c+1
  4611                           
  4612                           ; Switch on 2 bytes has been partitioned into a top level switch of size 1, and 1 sub-sw
      +                          itches
  4613                           ; Switch size 1, requested type "simple"
  4614                           ; Number of cases is 1, Range of values is 0 to 0
  4615                           ; switch strategies available:
  4616                           ; Name         Instructions Cycles
  4617                           ; simple_byte            4     3 (average)
  4618                           ; direct_byte            9     7 (fixed)
  4619                           ; jumptable            260     6 (fixed)
  4620                           ;	Chosen strategy is simple_byte
  4621     0F22  0875               	movf	cgets@c+1,w
  4622     0F23  3A00               	xorlw	0	; case 0
  4623     0F24  1903               	skipnz
  4624     0F25  2F27               	goto	l2337
  4625     0F26  2F10               	goto	l1735
  4626     0F27                     l2337:
  4627                           
  4628                           ; Switch size 1, requested type "simple"
  4629                           ; Number of cases is 4, Range of values is 8 to 21
  4630                           ; switch strategies available:
  4631                           ; Name         Instructions Cycles
  4632                           ; simple_byte           13     7 (average)
  4633                           ; direct_byte           38    10 (fixed)
  4634                           ; jumptable            263     9 (fixed)
  4635                           ;	Chosen strategy is simple_byte
  4636     0F27  0874               	movf	cgets@c,w
  4637     0F28  3A08               	xorlw	8	; case 8
  4638     0F29  1903               	skipnz
  4639     0F2A  2EE3               	goto	l1715
  4640     0F2B  3A02               	xorlw	2	; case 10
  4641     0F2C  1903               	skipnz
  4642     0F2D  2F0A               	goto	l1729
  4643     0F2E  3A07               	xorlw	7	; case 13
  4644     0F2F  1903               	skipnz
  4645     0F30  2F0A               	goto	l1729
  4646     0F31  3A18               	xorlw	24	; case 21
  4647     0F32  1903               	skipnz
  4648     0F33  2F03               	goto	l1727
  4649     0F34  2F10               	goto	l1735
  4650     0F35                     l838:
  4651     0F35  0008               	return
  4652     0F36                     __end_of_cgets:
  4653                           
  4654                           	psect	text13
  4655     0D30                     __ptext13:	
  4656 ;; *************** function _getche *****************
  4657 ;; Defined at:
  4658 ;;		line 28 in file "uart.c"
  4659 ;; Parameters:    Size  Location     Type
  4660 ;;		None
  4661 ;; Auto vars:     Size  Location     Type
  4662 ;;  c               1    1[COMMON] unsigned char 
  4663 ;; Return value:  Size  Location     Type
  4664 ;;                  1    wreg      unsigned char 
  4665 ;; Registers used:
  4666 ;;		wreg, status,2, status,0, pclath, cstack
  4667 ;; Tracked objects:
  4668 ;;		On entry : 0/0
  4669 ;;		On exit  : 0/0
  4670 ;;		Unchanged: 0/0
  4671 ;; Data sizes:     COMMON   BANK0   BANK1   BANK2
  4672 ;;      Params:         0       0       0       0
  4673 ;;      Locals:         1       0       0       0
  4674 ;;      Temps:          0       0       0       0
  4675 ;;      Totals:         1       0       0       0
  4676 ;;Total ram usage:        1 bytes
  4677 ;; Hardware stack levels used: 1
  4678 ;; Hardware stack levels required when called: 1
  4679 ;; This function calls:
  4680 ;;		_getch
  4681 ;;		_putch
  4682 ;; This function is called by:
  4683 ;;		_cgets
  4684 ;; This function uses a non-reentrant model
  4685 ;;
  4686                           
  4687     0D30                     _getche:	
  4688                           ;psect for function _getche
  4689                           
  4690     0D30                     l1669:	
  4691                           ;incstack = 0
  4692                           ; Regs used in _getche: [wreg+status,2+status,0+pclath+cstack]
  4693                           
  4694                           
  4695                           ;uart.c: 30: unsigned char c;;uart.c: 32: c = getch();
  4696     0D30  158A  251E  158A   	fcall	_getch
  4697     0D33  00F1               	movwf	getche@c
  4698     0D34                     l1671:
  4699                           
  4700                           ;uart.c: 33: putch(c);
  4701     0D34  0871               	movf	getche@c,w
  4702     0D35  158A  2526  158A   	fcall	_putch
  4703     0D38                     l1673:
  4704                           
  4705                           ;uart.c: 35: return c;
  4706     0D38  0871               	movf	getche@c,w
  4707     0D39                     l243:
  4708     0D39  0008               	return
  4709     0D3A                     __end_of_getche:
  4710                           
  4711                           	psect	text14
  4712     0D26                     __ptext14:	
  4713 ;; *************** function _putch *****************
  4714 ;; Defined at:
  4715 ;;		line 13 in file "uart.c"
  4716 ;; Parameters:    Size  Location     Type
  4717 ;;  byte            1    wreg     unsigned char 
  4718 ;; Auto vars:     Size  Location     Type
  4719 ;;  byte            1    0[COMMON] unsigned char 
  4720 ;; Return value:  Size  Location     Type
  4721 ;;                  1    wreg      void 
  4722 ;; Registers used:
  4723 ;;		wreg
  4724 ;; Tracked objects:
  4725 ;;		On entry : 0/0
  4726 ;;		On exit  : 0/0
  4727 ;;		Unchanged: 0/0
  4728 ;; Data sizes:     COMMON   BANK0   BANK1   BANK2
  4729 ;;      Params:         0       0       0       0
  4730 ;;      Locals:         1       0       0       0
  4731 ;;      Temps:          0       0       0       0
  4732 ;;      Totals:         1       0       0       0
  4733 ;;Total ram usage:        1 bytes
  4734 ;; Hardware stack levels used: 1
  4735 ;; This function calls:
  4736 ;;		Nothing
  4737 ;; This function is called by:
  4738 ;;		_getche
  4739 ;;		_printf
  4740 ;;		_cgets
  4741 ;; This function uses a non-reentrant model
  4742 ;;
  4743                           
  4744     0D26                     _putch:	
  4745                           ;psect for function _putch
  4746                           
  4747                           
  4748                           ;incstack = 0
  4749                           ; Regs used in _putch: [wreg]
  4750                           ;putch@byte stored from wreg
  4751     0D26  00F0               	movwf	putch@byte
  4752     0D27                     l1659:
  4753     0D27                     l231:	
  4754                           ;uart.c: 15: while(!TXIF){
  4755                           
  4756     0D27  1283               	bcf	3,5	;RP0=0, select bank0
  4757     0D28  1303               	bcf	3,6	;RP1=0, select bank0
  4758     0D29  1E0C               	btfss	12,4	;volatile
  4759     0D2A  2D2C               	goto	u1111
  4760     0D2B  2D2D               	goto	u1110
  4761     0D2C                     u1111:
  4762     0D2C  2D27               	goto	l231
  4763     0D2D                     u1110:
  4764     0D2D                     l1661:
  4765                           
  4766                           ;uart.c: 16: };uart.c: 17: TXREG = byte;
  4767     0D2D  0870               	movf	putch@byte,w
  4768     0D2E  0099               	movwf	25	;volatile
  4769     0D2F                     l234:
  4770     0D2F  0008               	return
  4771     0D30                     __end_of_putch:
  4772                           
  4773                           	psect	text15
  4774     0D1E                     __ptext15:	
  4775 ;; *************** function _getch *****************
  4776 ;; Defined at:
  4777 ;;		line 20 in file "uart.c"
  4778 ;; Parameters:    Size  Location     Type
  4779 ;;		None
  4780 ;; Auto vars:     Size  Location     Type
  4781 ;;		None
  4782 ;; Return value:  Size  Location     Type
  4783 ;;                  1    wreg      unsigned char 
  4784 ;; Registers used:
  4785 ;;		wreg
  4786 ;; Tracked objects:
  4787 ;;		On entry : 0/0
  4788 ;;		On exit  : 0/0
  4789 ;;		Unchanged: 0/0
  4790 ;; Data sizes:     COMMON   BANK0   BANK1   BANK2
  4791 ;;      Params:         0       0       0       0
  4792 ;;      Locals:         0       0       0       0
  4793 ;;      Temps:          0       0       0       0
  4794 ;;      Totals:         0       0       0       0
  4795 ;;Total ram usage:        0 bytes
  4796 ;; Hardware stack levels used: 1
  4797 ;; This function calls:
  4798 ;;		Nothing
  4799 ;; This function is called by:
  4800 ;;		_getche
  4801 ;; This function uses a non-reentrant model
  4802 ;;
  4803                           
  4804     0D1E                     _getch:	
  4805                           ;psect for function _getch
  4806                           
  4807     0D1E                     l1663:	
  4808                           ;incstack = 0
  4809                           ; Regs used in _getch: [wreg]
  4810                           
  4811     0D1E                     l237:	
  4812                           ;uart.c: 22: while(!RCIF){
  4813                           
  4814     0D1E  1283               	bcf	3,5	;RP0=0, select bank0
  4815     0D1F  1303               	bcf	3,6	;RP1=0, select bank0
  4816     0D20  1E8C               	btfss	12,5	;volatile
  4817     0D21  2D23               	goto	u1121
  4818     0D22  2D24               	goto	u1120
  4819     0D23                     u1121:
  4820     0D23  2D1E               	goto	l237
  4821     0D24                     u1120:
  4822     0D24                     l1665:
  4823                           
  4824                           ;uart.c: 23: };uart.c: 25: return RCREG;
  4825     0D24  081A               	movf	26,w	;volatile
  4826     0D25                     l240:
  4827     0D25  0008               	return
  4828     0D26                     __end_of_getch:
  4829                           
  4830                           	psect	text16
  4831     004F                     __ptext16:	
  4832 ;; *************** function _atoi *****************
  4833 ;; Defined at:
  4834 ;;		line 5 in file "C:\Program Files\Microchip\xc8\v2.41\pic\sources\c90\common\atoi.c"
  4835 ;; Parameters:    Size  Location     Type
  4836 ;;  s               2    6[COMMON] PTR const unsigned char 
  4837 ;;		 -> NULL(0), ROM(4096), main@tmp(40), 
  4838 ;; Auto vars:     Size  Location     Type
  4839 ;;  a               2   11[COMMON] int 
  4840 ;;  sign            1   10[COMMON] unsigned char 
  4841 ;; Return value:  Size  Location     Type
  4842 ;;                  2    6[COMMON] int 
  4843 ;; Registers used:
  4844 ;;		wreg, fsr0l, fsr0h, status,2, status,0, btemp+1, pclath, cstack
  4845 ;; Tracked objects:
  4846 ;;		On entry : 0/0
  4847 ;;		On exit  : 0/0
  4848 ;;		Unchanged: 0/0
  4849 ;; Data sizes:     COMMON   BANK0   BANK1   BANK2
  4850 ;;      Params:         2       0       0       0
  4851 ;;      Locals:         3       0       0       0
  4852 ;;      Temps:          2       0       0       0
  4853 ;;      Totals:         7       0       0       0
  4854 ;;Total ram usage:        7 bytes
  4855 ;; Hardware stack levels used: 1
  4856 ;; Hardware stack levels required when called: 1
  4857 ;; This function calls:
  4858 ;;		___wmul
  4859 ;;		_isdigit
  4860 ;; This function is called by:
  4861 ;;		_main
  4862 ;; This function uses a non-reentrant model
  4863 ;;
  4864                           
  4865     004F                     _atoi:	
  4866                           ;psect for function _atoi
  4867                           
  4868     004F                     l1807:	
  4869                           ;incstack = 0
  4870                           ; Regs used in _atoi: [wreg-fsr0h+status,2+status,0+btemp+1+pclath+cstack]
  4871                           
  4872     004F  2856               	goto	l1811
  4873     0050                     l1809:
  4874     0050  3001               	movlw	1
  4875     0051  07F6               	addwf	atoi@s,f
  4876     0052  1803               	skipnc
  4877     0053  0AF7               	incf	atoi@s+1,f
  4878     0054  3000               	movlw	0
  4879     0055  07F7               	addwf	atoi@s+1,f
  4880     0056                     l1811:
  4881     0056  0877               	movf	atoi@s+1,w
  4882     0057  1283               	bcf	3,5	;RP0=0, select bank0
  4883     0058  1303               	bcf	3,6	;RP1=0, select bank0
  4884     0059  00FF               	movwf	btemp+1
  4885     005A  0876               	movf	atoi@s,w
  4886     005B  0084               	movwf	4
  4887     005C  158A  2000  118A   	fcall	stringtab
  4888     005F  3A20               	xorlw	32
  4889     0060  1903               	skipnz
  4890     0061  2863               	goto	u1311
  4891     0062  2864               	goto	u1310
  4892     0063                     u1311:
  4893     0063  2850               	goto	l1809
  4894     0064                     u1310:
  4895     0064                     l1813:
  4896     0064  0877               	movf	atoi@s+1,w
  4897     0065  00FF               	movwf	btemp+1
  4898     0066  0876               	movf	atoi@s,w
  4899     0067  0084               	movwf	4
  4900     0068  158A  2000  118A   	fcall	stringtab
  4901     006B  3A09               	xorlw	9
  4902     006C  1903               	skipnz
  4903     006D  286F               	goto	u1321
  4904     006E  2870               	goto	u1320
  4905     006F                     u1321:
  4906     006F  2850               	goto	l1809
  4907     0070                     u1320:
  4908     0070                     l1815:
  4909     0070  01FB               	clrf	atoi@a
  4910     0071  01FC               	clrf	atoi@a+1
  4911     0072  01FA               	clrf	atoi@sign
  4912     0073                     l1817:
  4913     0073  0877               	movf	atoi@s+1,w
  4914     0074  00FF               	movwf	btemp+1
  4915     0075  0876               	movf	atoi@s,w
  4916     0076  0084               	movwf	4
  4917     0077  158A  2000  118A   	fcall	stringtab
  4918     007A  3A2D               	xorlw	45
  4919     007B  1D03               	skipz
  4920     007C  287E               	goto	u1331
  4921     007D  287F               	goto	u1330
  4922     007E                     u1331:
  4923     007E  288A               	goto	l1823
  4924     007F                     u1330:
  4925     007F                     l1819:
  4926     007F  3001               	movlw	1
  4927     0080  00FF               	movwf	btemp+1
  4928     0081  087F               	movf	btemp+1,w
  4929     0082  07FA               	addwf	atoi@sign,f
  4930     0083                     l1821:
  4931     0083  3001               	movlw	1
  4932     0084  07F6               	addwf	atoi@s,f
  4933     0085  1803               	skipnc
  4934     0086  0AF7               	incf	atoi@s+1,f
  4935     0087  3000               	movlw	0
  4936     0088  07F7               	addwf	atoi@s+1,f
  4937     0089  28BB               	goto	l1831
  4938     008A                     l1823:
  4939     008A  0877               	movf	atoi@s+1,w
  4940     008B  00FF               	movwf	btemp+1
  4941     008C  0876               	movf	atoi@s,w
  4942     008D  0084               	movwf	4
  4943     008E  158A  2000  118A   	fcall	stringtab
  4944     0091  3A2B               	xorlw	43
  4945     0092  1D03               	skipz
  4946     0093  2895               	goto	u1341
  4947     0094  2896               	goto	u1340
  4948     0095                     u1341:
  4949     0095  28BB               	goto	l1831
  4950     0096                     u1340:
  4951     0096  2883               	goto	l1821
  4952     0097                     l1827:
  4953     0097  087C               	movf	atoi@a+1,w
  4954     0098  00F1               	movwf	___wmul@multiplier+1
  4955     0099  087B               	movf	atoi@a,w
  4956     009A  00F0               	movwf	___wmul@multiplier
  4957     009B  300A               	movlw	10
  4958     009C  00F2               	movwf	___wmul@multiplicand
  4959     009D  3000               	movlw	0
  4960     009E  00F3               	movwf	___wmul@multiplicand+1
  4961     009F  158A  2570  118A   	fcall	___wmul
  4962     00A2  0877               	movf	atoi@s+1,w
  4963     00A3  1283               	bcf	3,5	;RP0=0, select bank0
  4964     00A4  1303               	bcf	3,6	;RP1=0, select bank0
  4965     00A5  00FF               	movwf	btemp+1
  4966     00A6  0876               	movf	atoi@s,w
  4967     00A7  0084               	movwf	4
  4968     00A8  158A  2000  118A   	fcall	stringtab
  4969     00AB  0770               	addwf	?___wmul,w
  4970     00AC  00F8               	movwf	??_atoi
  4971     00AD  3000               	movlw	0
  4972     00AE  1803               	skipnc
  4973     00AF  3001               	movlw	1
  4974     00B0  0771               	addwf	?___wmul+1,w
  4975     00B1  00F9               	movwf	??_atoi+1
  4976     00B2  0878               	movf	??_atoi,w
  4977     00B3  3ED0               	addlw	208
  4978     00B4  00FB               	movwf	atoi@a
  4979     00B5  0879               	movf	??_atoi+1,w
  4980     00B6  1803               	skipnc
  4981     00B7  3E01               	addlw	1
  4982     00B8  3EFF               	addlw	255
  4983     00B9  00FC               	movwf	atoi@a+1
  4984     00BA  2883               	goto	l1821
  4985     00BB                     l1831:
  4986     00BB  0877               	movf	atoi@s+1,w
  4987     00BC  00FF               	movwf	btemp+1
  4988     00BD  0876               	movf	atoi@s,w
  4989     00BE  0084               	movwf	4
  4990     00BF  158A  2000  118A   	fcall	stringtab
  4991     00C2  158A  2545  118A   	fcall	_isdigit
  4992     00C5  1803               	btfsc	3,0
  4993     00C6  28C8               	goto	u1351
  4994     00C7  28C9               	goto	u1350
  4995     00C8                     u1351:
  4996     00C8  2897               	goto	l1827
  4997     00C9                     u1350:
  4998     00C9                     l1833:
  4999     00C9  087A               	movf	atoi@sign,w
  5000     00CA  1903               	btfsc	3,2
  5001     00CB  28CD               	goto	u1361
  5002     00CC  28CE               	goto	u1360
  5003     00CD                     u1361:
  5004     00CD  28DA               	goto	l1839
  5005     00CE                     u1360:
  5006     00CE                     l1835:
  5007     00CE  097B               	comf	atoi@a,w
  5008     00CF  00F8               	movwf	??_atoi
  5009     00D0  097C               	comf	atoi@a+1,w
  5010     00D1  00F9               	movwf	??_atoi+1
  5011     00D2  0AF8               	incf	??_atoi,f
  5012     00D3  1903               	skipnz
  5013     00D4  0AF9               	incf	??_atoi+1,f
  5014     00D5  0878               	movf	??_atoi,w
  5015     00D6  00F6               	movwf	?_atoi
  5016     00D7  0879               	movf	??_atoi+1,w
  5017     00D8  00F7               	movwf	?_atoi+1
  5018     00D9  28DE               	goto	l815
  5019     00DA                     l1839:
  5020     00DA  087C               	movf	atoi@a+1,w
  5021     00DB  00F7               	movwf	?_atoi+1
  5022     00DC  087B               	movf	atoi@a,w
  5023     00DD  00F6               	movwf	?_atoi
  5024     00DE                     l815:
  5025     00DE  0008               	return
  5026     00DF                     __end_of_atoi:
  5027                           
  5028                           	psect	text17
  5029     0D45                     __ptext17:	
  5030 ;; *************** function _isdigit *****************
  5031 ;; Defined at:
  5032 ;;		line 8 in file "C:\Program Files\Microchip\xc8\v2.41\pic\sources\c90\common\isdigit.c"
  5033 ;; Parameters:    Size  Location     Type
  5034 ;;  c               1    wreg     unsigned char 
  5035 ;; Auto vars:     Size  Location     Type
  5036 ;;  c               1    1[COMMON] unsigned char 
  5037 ;; Return value:  Size  Location     Type
  5038 ;;		None               void
  5039 ;; Registers used:
  5040 ;;		wreg, status,2, status,0
  5041 ;; Tracked objects:
  5042 ;;		On entry : 0/0
  5043 ;;		On exit  : 0/0
  5044 ;;		Unchanged: 0/0
  5045 ;; Data sizes:     COMMON   BANK0   BANK1   BANK2
  5046 ;;      Params:         0       0       0       0
  5047 ;;      Locals:         2       0       0       0
  5048 ;;      Temps:          0       0       0       0
  5049 ;;      Totals:         2       0       0       0
  5050 ;;Total ram usage:        2 bytes
  5051 ;; Hardware stack levels used: 1
  5052 ;; This function calls:
  5053 ;;		Nothing
  5054 ;; This function is called by:
  5055 ;;		_atoi
  5056 ;; This function uses a non-reentrant model
  5057 ;;
  5058                           
  5059     0D45                     _isdigit:	
  5060                           ;psect for function _isdigit
  5061                           
  5062                           
  5063                           ;incstack = 0
  5064                           ; Regs used in _isdigit: [wreg+status,2+status,0]
  5065                           ;isdigit@c stored from wreg
  5066     0D45  00F1               	movwf	isdigit@c
  5067     0D46                     l1701:
  5068     0D46  01F0               	clrf	_isdigit$639
  5069     0D47                     l1703:
  5070     0D47  303A               	movlw	58
  5071     0D48  0271               	subwf	isdigit@c,w
  5072     0D49  1803               	skipnc
  5073     0D4A  2D4C               	goto	u1191
  5074     0D4B  2D4D               	goto	u1190
  5075     0D4C                     u1191:
  5076     0D4C  2D55               	goto	l1709
  5077     0D4D                     u1190:
  5078     0D4D                     l1705:
  5079     0D4D  3030               	movlw	48
  5080     0D4E  0271               	subwf	isdigit@c,w
  5081     0D4F  1C03               	skipc
  5082     0D50  2D52               	goto	u1201
  5083     0D51  2D53               	goto	u1200
  5084     0D52                     u1201:
  5085     0D52  2D55               	goto	l1709
  5086     0D53                     u1200:
  5087     0D53                     l1707:
  5088     0D53  01F0               	clrf	_isdigit$639
  5089     0D54  0AF0               	incf	_isdigit$639,f
  5090     0D55                     l1709:
  5091     0D55  0C70               	rrf	_isdigit$639,w
  5092     0D56                     l845:
  5093     0D56  0008               	return
  5094     0D57                     __end_of_isdigit:
  5095                           
  5096                           	psect	text18
  5097     0D70                     __ptext18:	
  5098 ;; *************** function ___wmul *****************
  5099 ;; Defined at:
  5100 ;;		line 15 in file "C:\Program Files\Microchip\xc8\v2.41\pic\sources\c90\common\Umul16.c"
  5101 ;; Parameters:    Size  Location     Type
  5102 ;;  multiplier      2    0[COMMON] unsigned int 
  5103 ;;  multiplicand    2    2[COMMON] unsigned int 
  5104 ;; Auto vars:     Size  Location     Type
  5105 ;;  product         2    4[COMMON] unsigned int 
  5106 ;; Return value:  Size  Location     Type
  5107 ;;                  2    0[COMMON] unsigned int 
  5108 ;; Registers used:
  5109 ;;		wreg, status,2, status,0
  5110 ;; Tracked objects:
  5111 ;;		On entry : 0/0
  5112 ;;		On exit  : 0/0
  5113 ;;		Unchanged: 0/0
  5114 ;; Data sizes:     COMMON   BANK0   BANK1   BANK2
  5115 ;;      Params:         4       0       0       0
  5116 ;;      Locals:         2       0       0       0
  5117 ;;      Temps:          0       0       0       0
  5118 ;;      Totals:         6       0       0       0
  5119 ;;Total ram usage:        6 bytes
  5120 ;; Hardware stack levels used: 1
  5121 ;; This function calls:
  5122 ;;		Nothing
  5123 ;; This function is called by:
  5124 ;;		_main
  5125 ;;		_atoi
  5126 ;; This function uses a non-reentrant model
  5127 ;;
  5128                           
  5129     0D70                     ___wmul:	
  5130                           ;psect for function ___wmul
  5131                           
  5132     0D70                     l1687:	
  5133                           ;incstack = 0
  5134                           ; Regs used in ___wmul: [wreg+status,2+status,0]
  5135                           
  5136     0D70  01F4               	clrf	___wmul@product
  5137     0D71  01F5               	clrf	___wmul@product+1
  5138     0D72                     l1689:
  5139     0D72  1C70               	btfss	___wmul@multiplier,0
  5140     0D73  2D75               	goto	u1151
  5141     0D74  2D76               	goto	u1150
  5142     0D75                     u1151:
  5143     0D75  2D7C               	goto	l352
  5144     0D76                     u1150:
  5145     0D76                     l1691:
  5146     0D76  0872               	movf	___wmul@multiplicand,w
  5147     0D77  07F4               	addwf	___wmul@product,f
  5148     0D78  1803               	skipnc
  5149     0D79  0AF5               	incf	___wmul@product+1,f
  5150     0D7A  0873               	movf	___wmul@multiplicand+1,w
  5151     0D7B  07F5               	addwf	___wmul@product+1,f
  5152     0D7C                     l352:
  5153     0D7C  3001               	movlw	1
  5154     0D7D                     u1165:
  5155     0D7D  1003               	clrc
  5156     0D7E  0DF2               	rlf	___wmul@multiplicand,f
  5157     0D7F  0DF3               	rlf	___wmul@multiplicand+1,f
  5158     0D80  3EFF               	addlw	-1
  5159     0D81  1D03               	skipz
  5160     0D82  2D7D               	goto	u1165
  5161     0D83                     l1693:
  5162     0D83  3001               	movlw	1
  5163     0D84                     u1175:
  5164     0D84  1003               	clrc
  5165     0D85  0CF1               	rrf	___wmul@multiplier+1,f
  5166     0D86  0CF0               	rrf	___wmul@multiplier,f
  5167     0D87  3EFF               	addlw	-1
  5168     0D88  1D03               	skipz
  5169     0D89  2D84               	goto	u1175
  5170     0D8A                     l1695:
  5171     0D8A  0870               	movf	___wmul@multiplier,w
  5172     0D8B  0471               	iorwf	___wmul@multiplier+1,w
  5173     0D8C  1D03               	btfss	3,2
  5174     0D8D  2D8F               	goto	u1181
  5175     0D8E  2D90               	goto	u1180
  5176     0D8F                     u1181:
  5177     0D8F  2D72               	goto	l1689
  5178     0D90                     u1180:
  5179     0D90                     l1697:
  5180     0D90  0875               	movf	___wmul@product+1,w
  5181     0D91  00F1               	movwf	?___wmul+1
  5182     0D92  0874               	movf	___wmul@product,w
  5183     0D93  00F0               	movwf	?___wmul
  5184     0D94                     l354:
  5185     0D94  0008               	return
  5186     0D95                     __end_of___wmul:
  5187                           
  5188                           	psect	text19
  5189     0F99                     __ptext19:	
  5190 ;; *************** function ___awdiv *****************
  5191 ;; Defined at:
  5192 ;;		line 5 in file "C:\Program Files\Microchip\xc8\v2.41\pic\sources\c90\common\awdiv.c"
  5193 ;; Parameters:    Size  Location     Type
  5194 ;;  divisor         2    0[COMMON] int 
  5195 ;;  dividend        2    2[COMMON] int 
  5196 ;; Auto vars:     Size  Location     Type
  5197 ;;  quotient        2    6[COMMON] int 
  5198 ;;  sign            1    5[COMMON] unsigned char 
  5199 ;;  counter         1    4[COMMON] unsigned char 
  5200 ;; Return value:  Size  Location     Type
  5201 ;;                  2    0[COMMON] int 
  5202 ;; Registers used:
  5203 ;;		wreg, status,2, status,0, btemp+1
  5204 ;; Tracked objects:
  5205 ;;		On entry : 0/0
  5206 ;;		On exit  : 0/0
  5207 ;;		Unchanged: 0/0
  5208 ;; Data sizes:     COMMON   BANK0   BANK1   BANK2
  5209 ;;      Params:         4       0       0       0
  5210 ;;      Locals:         4       0       0       0
  5211 ;;      Temps:          0       0       0       0
  5212 ;;      Totals:         8       0       0       0
  5213 ;;Total ram usage:        8 bytes
  5214 ;; Hardware stack levels used: 1
  5215 ;; This function calls:
  5216 ;;		Nothing
  5217 ;; This function is called by:
  5218 ;;		_main
  5219 ;; This function uses a non-reentrant model
  5220 ;;
  5221                           
  5222     0F99                     ___awdiv:	
  5223                           ;psect for function ___awdiv
  5224                           
  5225     0F99                     l1933:	
  5226                           ;incstack = 0
  5227                           ; Regs used in ___awdiv: [wreg+status,2+status,0+btemp+1]
  5228                           
  5229     0F99  01F5               	clrf	___awdiv@sign
  5230     0F9A                     l1935:
  5231     0F9A  1FF1               	btfss	___awdiv@divisor+1,7
  5232     0F9B  2F9D               	goto	u1501
  5233     0F9C  2F9E               	goto	u1500
  5234     0F9D                     u1501:
  5235     0F9D  2FA5               	goto	l1941
  5236     0F9E                     u1500:
  5237     0F9E                     l1937:
  5238     0F9E  09F0               	comf	___awdiv@divisor,f
  5239     0F9F  09F1               	comf	___awdiv@divisor+1,f
  5240     0FA0  0AF0               	incf	___awdiv@divisor,f
  5241     0FA1  1903               	skipnz
  5242     0FA2  0AF1               	incf	___awdiv@divisor+1,f
  5243     0FA3                     l1939:
  5244     0FA3  01F5               	clrf	___awdiv@sign
  5245     0FA4  0AF5               	incf	___awdiv@sign,f
  5246     0FA5                     l1941:
  5247     0FA5  1FF3               	btfss	___awdiv@dividend+1,7
  5248     0FA6  2FA8               	goto	u1511
  5249     0FA7  2FA9               	goto	u1510
  5250     0FA8                     u1511:
  5251     0FA8  2FB2               	goto	l1947
  5252     0FA9                     u1510:
  5253     0FA9                     l1943:
  5254     0FA9  09F2               	comf	___awdiv@dividend,f
  5255     0FAA  09F3               	comf	___awdiv@dividend+1,f
  5256     0FAB  0AF2               	incf	___awdiv@dividend,f
  5257     0FAC  1903               	skipnz
  5258     0FAD  0AF3               	incf	___awdiv@dividend+1,f
  5259     0FAE                     l1945:
  5260     0FAE  3001               	movlw	1
  5261     0FAF  00FF               	movwf	btemp+1
  5262     0FB0  087F               	movf	btemp+1,w
  5263     0FB1  06F5               	xorwf	___awdiv@sign,f
  5264     0FB2                     l1947:
  5265     0FB2  01F6               	clrf	___awdiv@quotient
  5266     0FB3  01F7               	clrf	___awdiv@quotient+1
  5267     0FB4                     l1949:
  5268     0FB4  0870               	movf	___awdiv@divisor,w
  5269     0FB5  0471               	iorwf	___awdiv@divisor+1,w
  5270     0FB6  1903               	btfsc	3,2
  5271     0FB7  2FB9               	goto	u1521
  5272     0FB8  2FBA               	goto	u1520
  5273     0FB9                     u1521:
  5274     0FB9  2FF1               	goto	l1969
  5275     0FBA                     u1520:
  5276     0FBA                     l1951:
  5277     0FBA  01F4               	clrf	___awdiv@counter
  5278     0FBB  0AF4               	incf	___awdiv@counter,f
  5279     0FBC  2FC8               	goto	l1957
  5280     0FBD                     l1953:
  5281     0FBD  3001               	movlw	1
  5282     0FBE                     u1535:
  5283     0FBE  1003               	clrc
  5284     0FBF  0DF0               	rlf	___awdiv@divisor,f
  5285     0FC0  0DF1               	rlf	___awdiv@divisor+1,f
  5286     0FC1  3EFF               	addlw	-1
  5287     0FC2  1D03               	skipz
  5288     0FC3  2FBE               	goto	u1535
  5289     0FC4                     l1955:
  5290     0FC4  3001               	movlw	1
  5291     0FC5  00FF               	movwf	btemp+1
  5292     0FC6  087F               	movf	btemp+1,w
  5293     0FC7  07F4               	addwf	___awdiv@counter,f
  5294     0FC8                     l1957:
  5295     0FC8  1FF1               	btfss	___awdiv@divisor+1,7
  5296     0FC9  2FCB               	goto	u1541
  5297     0FCA  2FCC               	goto	u1540
  5298     0FCB                     u1541:
  5299     0FCB  2FBD               	goto	l1953
  5300     0FCC                     u1540:
  5301     0FCC                     l1959:
  5302     0FCC  3001               	movlw	1
  5303     0FCD                     u1555:
  5304     0FCD  1003               	clrc
  5305     0FCE  0DF6               	rlf	___awdiv@quotient,f
  5306     0FCF  0DF7               	rlf	___awdiv@quotient+1,f
  5307     0FD0  3EFF               	addlw	-1
  5308     0FD1  1D03               	skipz
  5309     0FD2  2FCD               	goto	u1555
  5310     0FD3  0871               	movf	___awdiv@divisor+1,w
  5311     0FD4  0273               	subwf	___awdiv@dividend+1,w
  5312     0FD5  1D03               	skipz
  5313     0FD6  2FD9               	goto	u1565
  5314     0FD7  0870               	movf	___awdiv@divisor,w
  5315     0FD8  0272               	subwf	___awdiv@dividend,w
  5316     0FD9                     u1565:
  5317     0FD9  1C03               	skipc
  5318     0FDA  2FDC               	goto	u1561
  5319     0FDB  2FDD               	goto	u1560
  5320     0FDC                     u1561:
  5321     0FDC  2FE4               	goto	l1965
  5322     0FDD                     u1560:
  5323     0FDD                     l1961:
  5324     0FDD  0870               	movf	___awdiv@divisor,w
  5325     0FDE  02F2               	subwf	___awdiv@dividend,f
  5326     0FDF  0871               	movf	___awdiv@divisor+1,w
  5327     0FE0  1C03               	skipc
  5328     0FE1  03F3               	decf	___awdiv@dividend+1,f
  5329     0FE2  02F3               	subwf	___awdiv@dividend+1,f
  5330     0FE3                     l1963:
  5331     0FE3  1476               	bsf	___awdiv@quotient,0
  5332     0FE4                     l1965:
  5333     0FE4  3001               	movlw	1
  5334     0FE5                     u1575:
  5335     0FE5  1003               	clrc
  5336     0FE6  0CF1               	rrf	___awdiv@divisor+1,f
  5337     0FE7  0CF0               	rrf	___awdiv@divisor,f
  5338     0FE8  3EFF               	addlw	-1
  5339     0FE9  1D03               	skipz
  5340     0FEA  2FE5               	goto	u1575
  5341     0FEB                     l1967:
  5342     0FEB  3001               	movlw	1
  5343     0FEC  02F4               	subwf	___awdiv@counter,f
  5344     0FED  1D03               	btfss	3,2
  5345     0FEE  2FF0               	goto	u1581
  5346     0FEF  2FF1               	goto	u1580
  5347     0FF0                     u1581:
  5348     0FF0  2FCC               	goto	l1959
  5349     0FF1                     u1580:
  5350     0FF1                     l1969:
  5351     0FF1  0875               	movf	___awdiv@sign,w
  5352     0FF2  1903               	btfsc	3,2
  5353     0FF3  2FF5               	goto	u1591
  5354     0FF4  2FF6               	goto	u1590
  5355     0FF5                     u1591:
  5356     0FF5  2FFB               	goto	l1973
  5357     0FF6                     u1590:
  5358     0FF6                     l1971:
  5359     0FF6  09F6               	comf	___awdiv@quotient,f
  5360     0FF7  09F7               	comf	___awdiv@quotient+1,f
  5361     0FF8  0AF6               	incf	___awdiv@quotient,f
  5362     0FF9  1903               	skipnz
  5363     0FFA  0AF7               	incf	___awdiv@quotient+1,f
  5364     0FFB                     l1973:
  5365     0FFB  0877               	movf	___awdiv@quotient+1,w
  5366     0FFC  00F1               	movwf	?___awdiv+1
  5367     0FFD  0876               	movf	___awdiv@quotient,w
  5368     0FFE  00F0               	movwf	?___awdiv
  5369     0FFF                     l505:
  5370     0FFF  0008               	return
  5371     1000                     __end_of___awdiv:
  5372     007E                     btemp	set	126	;btemp
  5373     007E                     wtemp0	set	126
  5374                           
  5375                           	psect	idloc
  5376                           
  5377                           ;Config register IDLOC0 @ 0x2000
  5378                           ;	unspecified, using default values
  5379     2000                     	org	8192
  5380     2000  3FFF               	dw	16383
  5381                           
  5382                           ;Config register IDLOC1 @ 0x2001
  5383                           ;	unspecified, using default values
  5384     2001                     	org	8193
  5385     2001  3FFF               	dw	16383
  5386                           
  5387                           ;Config register IDLOC2 @ 0x2002
  5388                           ;	unspecified, using default values
  5389     2002                     	org	8194
  5390     2002  3FFF               	dw	16383
  5391                           
  5392                           ;Config register IDLOC3 @ 0x2003
  5393                           ;	unspecified, using default values
  5394     2003                     	org	8195
  5395     2003  3FFF               	dw	16383
  5396                           
  5397                           	psect	config
  5398                           
  5399                           ;Config register CONFIG @ 0x2007
  5400                           ;	Oscillator Selection bits
  5401                           ;	FOSC = INTOSCIO, INTOSC oscillator: I/O function on RA6/OSC2/CLKOUT pin, I/O function 
      +                          on RA7/OSC1/CLKIN
  5402                           ;	Watchdog Timer Enable bit
  5403                           ;	WDTE = OFF, WDT disabled
  5404                           ;	Power-up Timer Enable bit
  5405                           ;	PWRTE = OFF, PWRT disabled
  5406                           ;	RA5/MCLR/VPP Pin Function Select bit
  5407                           ;	MCLRE = ON, RA5/MCLR/VPP pin function is MCLR
  5408                           ;	Brown-out Detect Enable bit
  5409                           ;	BOREN = ON, BOD enabled
  5410                           ;	Low-Voltage Programming Enable bit
  5411                           ;	LVP = OFF, RB4/PGM pin has digital I/O function, HV on MCLR must be used for programmi
      +                          ng
  5412                           ;	Data EE Memory Code Protection bit
  5413                           ;	CPD = OFF, Data memory code protection off
  5414                           ;	Flash Program Memory Code Protection bit
  5415                           ;	CP = OFF, Code protection off
  5416     2007                     	org	8199
  5417     2007  3F78               	dw	16248

Data Sizes:
    Strings     120
    Constant    0
    Data        0
    BSS         1
    Persistent  0
    Stack       0

Auto Spaces:
    Space          Size  Autos    Used
    COMMON           14     14      14
    BANK0            80     71      72
    BANK1            80      0       0
    BANK2            80      0       0

Pointer List with Targets:

    strspn@s2	PTR const unsigned char  size(1) Largest target is 2
		 -> STR_28(CODE[2]), STR_25(CODE[2]), STR_24(CODE[2]), STR_23(CODE[2]), 
		 -> STR_22(CODE[2]), STR_21(CODE[2]), STR_19(CODE[2]), STR_18(CODE[2]), 
		 -> STR_17(CODE[2]), STR_13(CODE[2]), STR_12(CODE[2]), STR_11(CODE[2]), 
		 -> STR_10(CODE[2]), STR_8(CODE[2]), 

    strspn@s1	PTR const unsigned char  size(1) Largest target is 40
		 -> NULL(NULL[0]), main@tmp(BANK0[40]), 

    strcspn@s2	PTR const unsigned char  size(1) Largest target is 2
		 -> STR_28(CODE[2]), STR_25(CODE[2]), STR_24(CODE[2]), STR_23(CODE[2]), 
		 -> STR_22(CODE[2]), STR_21(CODE[2]), STR_19(CODE[2]), STR_18(CODE[2]), 
		 -> STR_17(CODE[2]), STR_13(CODE[2]), STR_12(CODE[2]), STR_11(CODE[2]), 
		 -> STR_10(CODE[2]), STR_8(CODE[2]), 

    strcspn@s1	PTR const unsigned char  size(1) Largest target is 40
		 -> NULL(NULL[0]), main@tmp(BANK0[40]), 

    strtok@s2	PTR const unsigned char  size(1) Largest target is 2
		 -> STR_28(CODE[2]), STR_25(CODE[2]), STR_24(CODE[2]), STR_23(CODE[2]), 
		 -> STR_22(CODE[2]), STR_21(CODE[2]), STR_19(CODE[2]), STR_18(CODE[2]), 
		 -> STR_17(CODE[2]), STR_13(CODE[2]), STR_12(CODE[2]), STR_11(CODE[2]), 
		 -> STR_10(CODE[2]), STR_8(CODE[2]), 

    strtok@sp	PTR unsigned char  size(1) Largest target is 40
		 -> NULL(NULL[0]), main@tmp(BANK0[40]), 

    strtok@s1	PTR unsigned char  size(1) Largest target is 40
		 -> NULL(NULL[0]), main@tmp(BANK0[40]), 

    strncmp@s2	PTR const unsigned char  size(1) Largest target is 5
		 -> STR_16(CODE[5]), STR_15(CODE[5]), STR_14(CODE[5]), 

    strncmp@s1	PTR const unsigned char  size(2) Largest target is 6
		 -> STR_28(CODE[2]), STR_25(CODE[2]), STR_24(CODE[2]), STR_23(CODE[2]), 
		 -> STR_22(CODE[2]), STR_21(CODE[2]), STR_19(CODE[2]), STR_18(CODE[2]), 
		 -> STR_17(CODE[2]), STR_13(CODE[2]), STR_12(CODE[2]), STR_11(CODE[2]), 
		 -> STR_10(CODE[2]), NULL(NULL[0]), main@rps_cmd(BANK0[6]), STR_8(CODE[2]), 

    strlen@s	PTR const unsigned char  size(1) Largest target is 5
		 -> STR_16(CODE[5]), STR_15(CODE[5]), STR_14(CODE[5]), 

    strlen@cp	PTR const unsigned char  size(1) Largest target is 5
		 -> STR_16(CODE[5]), STR_15(CODE[5]), STR_14(CODE[5]), 

    strchr@ptr	PTR const unsigned char  size(2) Largest target is 6
		 -> STR_28(CODE[2]), STR_25(CODE[2]), STR_24(CODE[2]), STR_23(CODE[2]), 
		 -> STR_22(CODE[2]), STR_21(CODE[2]), STR_19(CODE[2]), STR_18(CODE[2]), 
		 -> STR_17(CODE[2]), STR_13(CODE[2]), STR_12(CODE[2]), STR_11(CODE[2]), 
		 -> STR_10(CODE[2]), NULL(NULL[0]), main@rps_cmd(BANK0[6]), STR_8(CODE[2]), 

    sp__strchr	PTR unsigned char  size(2) Largest target is 6
		 -> STR_28(CODE[2]), STR_25(CODE[2]), STR_24(CODE[2]), STR_23(CODE[2]), 
		 -> STR_22(CODE[2]), STR_21(CODE[2]), STR_19(CODE[2]), STR_18(CODE[2]), 
		 -> STR_17(CODE[2]), STR_13(CODE[2]), STR_12(CODE[2]), STR_11(CODE[2]), 
		 -> STR_10(CODE[2]), NULL(NULL[0]), main@rps_cmd(BANK0[6]), STR_8(CODE[2]), 

    strstr@s2	PTR const unsigned char  size(1) Largest target is 5
		 -> STR_16(CODE[5]), STR_15(CODE[5]), STR_14(CODE[5]), 

    strstr@s1	PTR const unsigned char  size(2) Largest target is 6
		 -> STR_28(CODE[2]), STR_25(CODE[2]), STR_24(CODE[2]), STR_23(CODE[2]), 
		 -> STR_22(CODE[2]), STR_21(CODE[2]), STR_19(CODE[2]), STR_18(CODE[2]), 
		 -> STR_17(CODE[2]), STR_13(CODE[2]), STR_12(CODE[2]), STR_11(CODE[2]), 
		 -> STR_10(CODE[2]), NULL(NULL[0]), main@rps_cmd(BANK0[6]), STR_8(CODE[2]), 

    strcmp@s2	PTR const unsigned char  size(1) Largest target is 4
		 -> STR_7(CODE[4]), STR_6(CODE[4]), STR_5(CODE[4]), STR_4(CODE[4]), 
		 -> STR_3(CODE[4]), STR_2(CODE[4]), STR_1(CODE[4]), 

    strcmp@s1	PTR const unsigned char  size(1) Largest target is 4
		 -> main@rcmd(BANK0[4]), 

    cgets@s	PTR unsigned char  size(1) Largest target is 40
		 -> main@tmp(BANK0[40]), 

    cgets@s1	PTR unsigned char  size(1) Largest target is 40
		 -> main@tmp(BANK0[40]), 

    sp__cgets	PTR unsigned char  size(1) Largest target is 40
		 -> main@tmp(BANK0[40]), 

    gets@s	PTR unsigned char  size(1) Largest target is 40
		 -> main@tmp(BANK0[40]), 

    atoi@s	PTR const unsigned char  size(2) Largest target is 4096
		 -> NULL(NULL[0]), ROM(CODE[4096]), main@tmp(BANK0[40]), 

    printf@f	PTR const unsigned char  size(1) Largest target is 15
		 -> STR_31(CODE[15]), STR_30(CODE[10]), STR_29(CODE[8]), STR_27(CODE[8]), 
		 -> STR_26(CODE[8]), STR_20(CODE[8]), STR_9(CODE[11]), 

    printf@cp	PTR const unsigned char  size(2) Largest target is 7
		 -> STR_32(CODE[7]), ?_printf(COMMON[2]), main@rps_cmd(BANK0[6]), 

    printf@ap	PTR void [1] size(1) Largest target is 2
		 -> ?_printf(COMMON[2]), 

    sp__strstr	PTR unsigned char  size(2) Largest target is 6
		 -> STR_28(CODE[2]), STR_25(CODE[2]), STR_24(CODE[2]), STR_23(CODE[2]), 
		 -> STR_22(CODE[2]), STR_21(CODE[2]), STR_19(CODE[2]), STR_18(CODE[2]), 
		 -> STR_17(CODE[2]), STR_13(CODE[2]), STR_12(CODE[2]), STR_11(CODE[2]), 
		 -> STR_10(CODE[2]), NULL(NULL[0]), main@rps_cmd(BANK0[6]), STR_8(CODE[2]), 

    sp__strtok	PTR unsigned char  size(1) Largest target is 40
		 -> NULL(NULL[0]), main@tmp(BANK0[40]), 

    main@ptr	PTR unsigned char  size(1) Largest target is 40
		 -> NULL(NULL[0]), main@tmp(BANK0[40]), 

    sp__gets	PTR unsigned char  size(1) Largest target is 40
		 -> main@tmp(BANK0[40]), 


Critical Paths under _main in COMMON

    _main->_strtok
    _strtok->_strcspn
    _strtok->_strspn
    _strspn->_strchr
    _strcspn->_strchr
    _strstr->_strncmp
    _strncmp->_strlen
    _printf->_putch
    _gets->_cgets
    _cgets->_getche
    _getche->_putch
    _atoi->___wmul

Critical Paths under _main in BANK0

    _main->_strstr

Critical Paths under _main in BANK1

    None.

Critical Paths under _main in BANK2

    None.

Call Graph Tables:

 ---------------------------------------------------------------------------------
 (Depth) Function   	        Calls       Base Space   Used Autos Params    Refs
 ---------------------------------------------------------------------------------
 (0) _main                                                71    71      0   12516
                                              2 BANK0     69    69      0
                            ___awdiv
                             ___wmul
                               _atoi
                               _gets
                           _initUART
                             _printf
                             _strcmp
                             _strstr
                             _strtok
 ---------------------------------------------------------------------------------
 (1) _strtok                                               2     1      1    3214
                                             13 COMMON     1     0      1
                                              0 BANK0      1     1      0
                            _strcspn
                             _strspn
 ---------------------------------------------------------------------------------
 (2) _strspn                                               7     5      2     744
                                              6 COMMON     7     5      2
                             _strchr
 ---------------------------------------------------------------------------------
 (2) _strcspn                                              7     5      2     744
                                              6 COMMON     7     5      2
                             _strchr
 ---------------------------------------------------------------------------------
 (1) _strstr                                               5     2      3    1662
                                             10 COMMON     3     0      3
                                              0 BANK0      2     2      0
                             _strchr
                             _strlen
                            _strncmp
 ---------------------------------------------------------------------------------
 (3) _strncmp                                              6     1      5     362
                                              4 COMMON     6     1      5
                             _strlen (ARG)
 ---------------------------------------------------------------------------------
 (3) _strlen                                               4     2      2     123
                                              0 COMMON     4     2      2
 ---------------------------------------------------------------------------------
 (4) _strchr                                               6     2      4     544
                                              0 COMMON     6     2      4
 ---------------------------------------------------------------------------------
 (2) _strcmp                                               6     4      2     854
                                              0 COMMON     6     4      2
 ---------------------------------------------------------------------------------
 (1) _printf                                              16    15      1     437
                                              1 COMMON     6     5      1
                              _putch
 ---------------------------------------------------------------------------------
 (1) _initUART                                             0     0      0       0
 ---------------------------------------------------------------------------------
 (1) _gets                                                 1     1      0     380
                                              8 COMMON     1     1      0
                              _cgets
 ---------------------------------------------------------------------------------
 (2) _cgets                                                6     6      0     325
                                              2 COMMON     6     6      0
                             _getche
                              _putch
 ---------------------------------------------------------------------------------
 (3) _getche                                               1     1      0      67
                                              1 COMMON     1     1      0
                              _getch
                              _putch
 ---------------------------------------------------------------------------------
 (2) _putch                                                1     1      0      22
                                              0 COMMON     1     1      0
 ---------------------------------------------------------------------------------
 (4) _getch                                                0     0      0       0
 ---------------------------------------------------------------------------------
 (1) _atoi                                                 7     5      2    1528
                                              6 COMMON     7     5      2
                             ___wmul
                            _isdigit
 ---------------------------------------------------------------------------------
 (2) _isdigit                                              2     2      0      68
                                              0 COMMON     2     2      0
 ---------------------------------------------------------------------------------
 (2) ___wmul                                               6     2      4     852
                                              0 COMMON     6     2      4
 ---------------------------------------------------------------------------------
 (1) ___awdiv                                              8     4      4     452
                                              0 COMMON     8     4      4
 ---------------------------------------------------------------------------------
 Estimated maximum stack depth 4
 ---------------------------------------------------------------------------------

 Call Graph Graphs:

 _main (ROOT)
   ___awdiv
   ___wmul
   _atoi
     ___wmul
     _isdigit
   _gets
     _cgets
       _getche
         _getch
         _putch
       _putch
   _initUART
   _printf
     _putch
   _strcmp
   _strstr
     _strchr
     _strlen
     _strncmp
       _strlen (ARG)
   _strtok
     _strcspn
       _strchr
     _strspn
       _strchr

 Address spaces:
Name               Size   Autos  Total    Cost      Usage
BITCOMMON            E      0       0       0        0.0%
EEDATA             100      0       0       0        0.0%
NULL                 0      0       0       0        0.0%
CODE                 0      0       0       0        0.0%
COMMON               E      E       E       1      100.0%
BITSFR0              0      0       0       1        0.0%
SFR0                 0      0       0       1        0.0%
BITSFR1              0      0       0       2        0.0%
SFR1                 0      0       0       2        0.0%
STACK                0      0       0       2        0.0%
BANK0               50     47      48       3       90.0%
BITBANK1            50      0       0       4        0.0%
BITSFR3              0      0       0       4        0.0%
SFR3                 0      0       0       4        0.0%
BANK1               50      0       0       5        0.0%
BITSFR2              0      0       0       5        0.0%
SFR2                 0      0       0       5        0.0%
BITBANK2            50      0       0       6        0.0%
BANK2               50      0       0       7        0.0%
ABS                  0      0      56       8        0.0%
BITBANK0            50      0       0       9        0.0%
DATA                 0      0      56      10        0.0%


Microchip Technology PIC Macro Assembler V2.41 build 20230208172133 
Symbol Table                                                                                   Wed Oct 18 11:49:39 2023

                      pc 0002                       l70 0245                       l71 023C  
                     l80 02AC                       l72 0253                       l81 02A3  
                     l73 0262                       l65 0213                       l90 0353  
                     l82 02BA                       l74 0259                       l91 0311  
                     l83 02C9                       l92 0320                       l84 02C0  
                     l68 0278                       l93 0317                       l69 0236  
                     l94 032E                       l78 02DF                       l95 033D  
                     l79 029D                       l96 0334             ___awdiv@sign 0075  
                     fsr 0004      ___wmul@multiplicand 0072                      l100 03BA  
                    l101 0378                      l102 0387                      l103 037E  
                    l200 0785                      l112 042E                      l104 0395  
                    l201 079C                      l113 03EC                      l105 03A4  
                    l202 07AB                      l122 0495                      l114 03FB  
                    l106 039B                      l203 07A2                      l123 0453  
                    l115 03F2                      l131 07F7                      l140 0551  
                    l124 0462                      l116 0409                      l141 0548  
                    l125 0459                      l117 0418                      l150 059D  
                    l142 055F                      l126 0470                      l118 040F  
                    l231 0D27                      l151 05B4                      l143 056E  
                    l127 047F                      l240 0D25                      l160 0604  
                    l152 05C3                      l144 0565                      l128 0476  
                    l161 061B                      l153 05BA                      l234 0D2F  
                    l170 0670                      l162 062A                      l138 0584  
                    l243 0D39                      l171 067F                      l163 0621  
                    l147 05D9                      l139 0542                      l228 0D44  
                    l180 06CC                      l172 0676                      l148 0597  
                    l237 0D1E                      l181 06DB                      l157 0640  
                    l149 05A6                      l190 0735                      l182 06D2  
                    l166 0695                      l158 05FE                      l191 072C  
                    l183 06E9                      l167 0653                      l159 060D  
                    l352 0D7C                      l192 0743                      l176 06F6  
                    l168 0662                      l505 0FFF                      l193 0752  
                    l177 06AF                      l169 0659                      l354 0D94  
                    l194 0749                      l178 06BE                      l195 0760  
                    l179 06B5                      l348 0F98                      l188 0726  
                    l197 07C1                      l198 077F                      l199 078E  
                    l820 0D1D                      l900 0E8F                      l815 00DE  
                    l913 0E16                      l923 0E49                      l845 0D56  
                    l853 0DE3                      l838 0F35                      l871 0D95  
                    l880 0D6F                      l873 0DB9                      l865 004E  
                    l888 0EDE                      _RA0 0028                      _RA1 0029  
                    _RA2 002A                      _RB0 0030                      _RA3 002B  
                    _RB4 0034                      _RB5 0035                      fsr0 0004  
                    indf 0000                     l2001 0103                     l2011 010C  
                   l2003 0105                     l2101 0287                     l2021 0119  
                   l2013 010E                     l2005 0107                     l2111 02C1  
                   l2103 029A                     l2031 012F                     l2023 011B  
                   l2015 0110                     l2007 0108                     l2201 0549  
                   l2121 0314                     l2113 02D7                     l2105 02A0  
                   l2041 015C                     l2033 013B                     l2025 011D  
                   l2017 0111                     l2009 010A                     l2211 059A  
                   l2203 0562                     l2123 0318                     l2131 0362  
                   l2107 02A4                     l2115 02EE                     l2051 0183  
                   l2043 0161                     l2035 013F                     l2027 011E  
                   l2019 0115                     l2301 07A3                     l2213 059E  
                   l2205 0566                     l2221 05E8                     l2141 039C  
                   l2133 0375                     l2125 0331                     l2117 02FD  
                   l2109 02BD                     l2053 018F                     l2045 016D  
                   l2037 014B                     l2061 01A9                     l2029 012D  
                   l2311 07D9                     l2303 07B9                     l2231 0622  
                   l2223 05FB                     l2215 05B7                     l2207 057C  
                   l2151 03EF                     l2143 03B2                     l2135 037B  
                   l2127 0335                     l2119 030C                     l2071 01B6  
                   l2063 01B2                     l2055 0194                     l2047 0172  
                   l2039 0150                     l2305 07CF                     l2241 0673  
                   l2233 0638                     l2225 0601                     l2217 05BB  
                   l2209 0592                     l2153 03F3                     l2161 043D  
                   l2137 037F                     l2129 034B                     l2145 03C9  
                   l2081 01DD                     l2073 01B9                     l2065 01B3  
                   l2057 01A0                     l2049 017E                     l2307 07D4  
                   l2251 06AC                     l2243 0677                     l2235 064E  
                   l2227 0605                     l2219 05D1                     l2171 0477  
                   l2163 0450                     l2155 040C                     l2147 03D8  
                   l2139 0398                     l2091 0239                     l2083 0201  
                   l2315 07DE                     l2075 01C5                     l2067 01B4  
                   l2059 01A5                     l1701 0D46                     l2309 07D9  
                   l2253 06B2                     l2245 068D                     l2237 0656  
                   l2229 061E                     l2181 04D1                     l2173 048D  
                   l2165 0456                     l2157 0410                     l2149 03E7  
                   l2093 023D                     l2085 0206                     l2077 01CB  
                   l2069 01B5                     l1703 0D47                     l2271 0717  
                   l2263 06F0                     l2255 06B6                     l2239 065A  
                   l2247 06A3                     l2191 051E                     l2183 04E2  
                   l2175 04A4                     l2167 045A                     l2159 0426  
                   l2095 0256                     l2087 0222                     l2079 01D6  
                   l1705 0D4D                     l2337 0F27                     l1721 0EF2  
                   l1713 0EE0                     l1801 0D3A                     l2281 072D  
                   l2273 0724                     l2265 0704                     l2257 06CF  
                   l2249 06A8                     l2193 0523                     l2185 04E8  
                   l2177 04BF                     l2169 0473                     l2097 025A  
                   l2089 0231                     l1707 0D53                     l1811 0056  
                   l1731 0F0E                     l1723 0EF5                     l1715 0EE3  
                   l1803 0D19                     l2291 076D                     l2283 0746  
                   l2267 0709                     l2259 06D3                     l2195 0530  
                   l2187 04EC                     l2179 04C4                     l2099 0270  
                   l1709 0D55                     l1821 0083                     l1813 0064  
                   l1661 0D2D                     l1725 0F01                     l1741 0F19  
                   l1901 0F50                     l2293 077A                     l2285 074A  
                   l2269 0712                     l2197 053D                     l2189 04F1  
                   l1831 00BB                     l1823 008A                     l1815 0070  
                   l1807 004F                     l1663 0D1E                     l1671 0D34  
                   l1735 0F10                     l1727 0F03                     l1719 0EEA  
                   l1903 0F56                     l1751 0D5F                     l2295 0782  
                   l2279 0729                     l2199 0545                     l1833 00C9  
                   l1817 0073                     l1809 0050                     l1665 0D24  
                   l1673 0D38                     l1737 0F15                     l1729 0F0A  
                   l1905 0F5B                     l1913 0F7A                     l1681 0DA4  
                   l1753 0D69                     l1761 0E9F                     l1921 001B  
                   l2297 0786                     l2289 0767                     l1691 0D76  
                   l1835 00CE                     l1827 0097                     l1819 007F  
                   l1659 0D27                     l1907 0F65                     l1915 0F8A  
                   l1851 0DD7                     l1843 0DBB                     l1683 0DB7  
                   l1747 0D58                     l1763 0EB1                     l1771 0ECE  
                   l1923 001C                     l2299 079F                     l1941 0FA5  
                   l1933 0F99                     l1693 0D83                     l1669 0D30  
                   l1909 0F6B                     l1853 0DDE                     l1845 0DBC  
                   l1677 0D95                     l1749 0D5B                     l1773 0EDC  
                   l1757 0E90                     l1925 0038                     l1917 0003  
                   l1781 0E25                     l1861 0E54                     l1951 0FBA  
                   l1943 0FA9                     l1935 0F9A                     l1695 0D8A  
                   l1687 0D70                     l1839 00DA                     l1847 0DC0  
                   l1679 0DA3                     l1767 0EC4                     l1759 0E91  
                   l1927 003E                     l1919 0004                     l1791 0DE8  
                   l1783 0E2D                     l1871 0E6F                     l1863 0E59  
                   l1961 0FDD                     l1953 0FBD                     l1945 0FAE  
                   l1937 0F9E                     l1697 0D90                     l1689 0D72  
                   l1849 0DC4                     l1769 0ECA                     l1929 004C  
                   l1793 0DF2                     l1785 0E45                     l1777 0E18  
                   l1881 0E88                     l1857 0E4D                     l1971 0FF6  
                   l1963 0FE3                     l1955 0FC4                     l1947 0FB2  
                   l1939 0FA3                     l1891 0F3A                     l1795 0DFA  
                   l1779 0E1B                     l1883 0E8D                     l1875 0E72  
                   l1867 0E5B                     l1859 0E52                     l1973 0FFB  
                   l1965 0FE4                     l1957 0FC8                     l1949 0FB4  
                   l1893 0F40                     l1797 0E12                     l1789 0DE5  
                   l1885 0E8E                     l1877 0E7D                     l1869 0E67  
                   l1981 00E8                     l1967 0FEB                     l1959 0FCC  
                   l1895 0F45                     l1879 0E85                     l1991 00EF  
                   l1983 00EC                     l1969 0FF1                     l1897 0F46  
                   l1889 0F37                     l1993 00F5                     l1985 00EF  
                   l1977 00DF                     l1899 0F4C                     l1995 00F9  
                   l1987 00EF                     l1979 00E6                     l1997 00FB  
                   l1989 00EF                     l1999 00FF                     STR_1 087E  
                   STR_2 086A                     STR_3 086E                     STR_4 0872  
                   STR_5 0876                     STR_6 087A                     STR_7 0882  
                   STR_8 0886                     STR_9 081F                     u1110 0D2D  
                   u1111 0D2C                     u1200 0D53                     u1120 0D24  
                   u2000 05B4                     u1201 0D52                     u1121 0D23  
                   u2001 05B3                     u1210 0EE9                     u1130 0DA3  
                   u2010 05D1                     u1211 0EE8                     u1131 0DA2  
                   u2011 05D0                     u1220 0F09                     u1140 0DB7  
                   u1300 0E12                     u2100 06E9                     u2020 05E7  
                   u1221 0F08                     u1141 0DB6                     u1301 0E11  
                   u2101 06E8                     u2021 05E6                     u2005 05B0  
                   u1150 0D76                     u1310 0064                     u1230 0D69  
                   u2110 06EF                     u2030 061B                     u1151 0D75  
                   u1311 0063                     u1231 0D68                     u2111 06EE  
                   u2031 061A                     u2015 05CD                     u1320 0070  
                   u1240 0E9F                     u1400 0E59                     u2200 07CF  
                   u2120 0704                     u2040 0638                     u1321 006F  
                   u1241 0E9E                     u1401 0E58                     u2201 07CE  
                   u2121 0703                     u2105 06E5                     u2041 0637  
                   u2025 05E3                     u1330 007F                     u1250 0EB1  
                   u1410 0E6F                     u2130 0717                     u2050 064E  
                   u1331 007E                     u1251 0EB0                     u1411 0E6E  
                   u2131 0716                     u2051 064D                     u2035 0617  
                   u1500 0F9E                     u1180 0D90                     u1340 0096  
                   u1260 0EDC                     u1420 0E85                     u2140 0743  
                   u2060 0670                     u1501 0F9D                     u1181 0D8F  
                   u1165 0D7D                     u1341 0095                     u1261 0EDB  
                   u1421 0E84                     u2205 07CB                     u2141 0742  
                   u2125 0700                     u2061 066F                     u2045 0634  
                   u1510 0FA9                     u1190 0D4D                     u1350 00C9  
                   u1430 0F40                     u1270 0E2D                     u2150 0760  
                   u2070 068D                     u1511 0FA8                     u1175 0D84  
                   u1191 0D4C                     u1351 00C8                     u1431 0F3F  
                   u1271 0E2C                     u2151 075F                     u2071 068C  
                   u2055 064A                     u1520 0FBA                     u1360 00CE  
                   u1440 0F56                     u1280 0E45                     u2160 0766  
                   u2080 06A3                     u1600 013B                     u1521 0FB9  
                   u1361 00CD                     u1441 0F55                     u1281 0E44  
                   u2161 0765                     u2145 073F                     u2081 06A2  
                   u2065 066C                     u1601 013A                     u1450 0F79  
                   u1370 0DD7                     u1290 0DFA                     u2170 077A  
                   u2090 06CC                     u1610 014B                     u1451 0F78  
                   u1371 0DD6                     u1291 0DF9                     u2171 0779  
                   u2155 075C                     u2091 06CB                     u2075 0689  
                   u1611 014A                     u1540 0FCC                     u1460 0F98  
                   u1380 0DDE                     u2180 079C                     u1700 0231  
                   u1620 015C                     u1541 0FCB                     u1461 0F97  
                   u1381 0DDD                     u2181 079B                     u2085 069F  
                   u1701 0230                     u1621 015B                     u1470 001B  
                   u1390 0E52                     u2190 07B9                     u1710 0253  
                   u1630 016D                     u1535 0FBE                     u1471 001A  
                   u1391 0E51                     u2191 07B8                     u2175 0776  
                   u2095 06C8                     u1711 0252                     u1631 016C  
                   u1560 0FDD                     u1480 003E                     u1800 034B  
                   u1720 0270                     u1640 017E                     u1561 0FDC  
                   u1481 003D                     u2185 0798                     u1801 034A  
                   u1721 026F                     u1705 022D                     u1641 017D  
                   u1490 004C                     u1810 0361                     u1730 0286  
                   u1650 018F                     u1555 0FCD                     u1491 004B  
                   u2195 07B5                     u1811 0360                     u1731 0285  
                   u1715 024F                     u1651 018E                     u1580 0FF1  
                   u1900 0470                     u1820 0395                     u1740 02BA  
                   u1660 01A0                     u1581 0FF0                     u1565 0FD9  
                   u1901 046F                     u1821 0394                     u1805 0347  
                   u1741 02B9                     u1725 026C                     u1661 019F  
                   u1590 0FF6                     u1910 048D                     u1830 03B2  
                   u1750 02D7                     u1670 01D6                     u1591 0FF5  
                   u1575 0FE5                     u1911 048C                     u1831 03B1  
                   u1815 035D                     u1751 02D6                     u1735 0282  
                   u1671 01D5                     u1920 04A3                     u1840 03C8  
                   u1760 02ED                     u1680 0206                     u1921 04A2  
                   u1905 046C                     u1841 03C7                     u1825 0391  
                   u1761 02EC                     u1745 02B6                     u1681 0205  
                   u1930 04C4                     u1850 03D8                     u1770 02FD  
                   u1690 0222                     u1931 04C3                     u1915 0489  
                   u1851 03D7                     u1835 03AE                     u1771 02FC  
                   u1755 02D3                     u1691 0221                     u1940 04E8  
                   u1860 03E7                     u1780 030C                     u1941 04E7  
                   u1925 049F                     u1861 03E6                     u1845 03C4  
                   u1781 030B                     u1765 02E9                     u1950 0523  
                   u1870 0409                     u1790 032E                     u1951 0522  
                   u1871 0408                     u1791 032D                     u1960 053D  
                   u1880 0426                     u1961 053C                     u1881 0425  
                   u1865 03E3                     u1785 0308                     u1970 055F  
                   u1890 043C                     u1971 055E                     u1891 043B  
                   u1875 0405                     u1795 032A                     u1980 057C  
                   u1981 057B                     u1965 0539                     u1885 0422  
                   u1990 0592                     u1991 0591                     u1975 055B  
                   u1895 0438                     u1985 0578                     u1995 058E  
                   _RCIF 0065                     _TXIF 0064                     _atoi 004F  
                   _gets 0D18                     _main 00DF              main@set_spd 004F  
                   btemp 007E              main@rps_cmd 0051                     start 0000  
                  ?_atoi 0076                    ?_gets 0070                    ?_main 0070  
        __end_of___awdiv 1000                    STR_10 0886                    STR_11 0886  
                  STR_12 0886                    STR_20 0834                    STR_21 0886  
                  STR_13 0886                    STR_22 0886                    STR_14 085B  
                  STR_30 082A                    STR_23 0886                    STR_15 0860  
                  STR_31 0810                    STR_24 0886                    STR_16 0865  
                  STR_32 0854                    STR_25 0886                    STR_17 0886  
                  STR_18 0886                    STR_26 083C                    STR_19 0886  
                  STR_27 0844                    STR_28 0886                    STR_29 084C  
                  _CMCON 001F          ___awdiv@divisor 0070          ___awdiv@counter 0074  
                  _RCREG 001A                    _RCSTA 0018                    _SPBRG 0099  
                  _PORTA 0005                    _PORTB 0006                    _TRISA 0085  
                  _TRISB 0086                    _TXREG 0019                    _TXSTA 0098  
                  _cgets 0EDF                    _getch 0D1E          __end_of_isdigit 0D57  
                  atoi@a 007B                    atoi@s 0076                    _putch 0D26  
                  gets@s 0078                    main@i 0057                    main@j 0065  
                  main@k 005F                    pclath 000A                    status 0003  
                  wtemp0 007E          __end_of_strcspn 0E17          __end_of_strncmp 0EDF  
        __initialization 07FA             __end_of_atoi 00DF             __end_of_gets 0D1E  
           __end_of_main 07FA                   ??_atoi 0078                   ??_gets 0078  
                 ??_main 0022                   ?_cgets 0070                   ?_getch 0070  
       ___awdiv@dividend 0072                   ?_putch 0070                   ___wmul 0D70  
              ??___awdiv 0074         __end_of_initUART 0D45                   _getche 0D30  
                 cgets@c 0074                   cgets@s 0076         ___awdiv@quotient 0076  
                 _printf 0F36                   _strchr 0D95                   _strcmp 0DBA  
                 _strlen 0D57                   _strtok 0E4A                   _strspn 0E17  
                 _strstr 0003                ??_isdigit 0070                ??_strcspn 0078  
              ??_strncmp 0079  __end_of__initialization 07FD           __pcstackCOMMON 0070  
          __end_of_cgets 0F36            __end_of_getch 0D26            __end_of_putch 0D30  
                ??_cgets 0072                  ??_getch 0070                  ??_putch 0070  
             __pbssBANK0 0067               __pmaintext 00DF                  ?___wmul 0070  
                ?_getche 0070                  ?_printf 0071                  ?_strchr 0070  
                ?_strcmp 0070                  ?_strlen 0070                  ?_strtok 007D  
                ?_strspn 0076                  ?_strstr 007A               __stringtab 0800  
              ?_initUART 0070                  ___awdiv 0F99                  __ptext1 0E4A  
                __ptext2 0E17                  __ptext3 0DE4                  __ptext4 0003  
                __ptext5 0E90                  __ptext6 0D57                  __ptext7 0D95  
                __ptext8 0DBA                  __ptext9 0F36                  _isdigit 0D45  
                cgets@s1 0077                  getche@c 0071                  main@cmd 0059  
                main@ptr 005E                  main@tmp 0023                  _strcspn 0DE4  
                _strncmp 0E90     end_of_initialization 07FD               ??_initUART 0070  
                printf@c 0073                  printf@f 0076                  strcmp@r 0074  
                strlen@s 0072                  strspn@i 007A               main@mx_spd 004D  
         __end_of___wmul 0D95           __end_of_getche 0D3A           __end_of_printf 0F99  
         __end_of_strchr 0DBA           __end_of_strcmp 0DE4           __end_of_strlen 0D70  
         __end_of_strtok 0E90           __end_of_strspn 0E4A           __end_of_strstr 004F  
    start_initialization 07FA                 ??___wmul 0074                 ??_getche 0071  
               ??_printf 0072                 ??_strchr 0074                 ??_strcmp 0072  
               ??_strlen 0072                 ??_strtok 007E                 ??_strspn 0078  
               ??_strstr 0020                ___latbits 0001            __pcstackBANK0 0020  
               ?___awdiv 0070                __pstrings 0800                 ?_isdigit 0070  
               ?_strcspn 0076                 ?_strncmp 0074           ___wmul@product 0074  
            __stringbase 080F        ___wmul@multiplier 0070                main@intvl 0063  
     __end_of__stringtab 0810              _isdigit$639 0070                 __ptext10 0D3A  
               __ptext11 0D18                 __ptext12 0EDF                 __ptext13 0D30  
               __ptext14 0D26                 __ptext15 0D1E                 __ptext16 004F  
               __ptext17 0D45                 __ptext18 0D70                 __ptext19 0F99  
               _initUART 0D3A               strncmp@len 0077                 atoi@sign 007A  
               main@dist 0061                 main@axis 004B                 main@rcmd 005A  
              putch@byte 0070                 isdigit@c 0071                strchr@chr 0072  
              strchr@ptr 0070                strcspn@s1 007C                strcspn@s2 0076  
              strncmp@s1 0074                strncmp@s2 0076                stringcode 080A  
               printf@ap 0072                 printf@cp 0074                 strcmp@s1 0075  
               strcmp@s2 0070                 strlen@cp 0073                 strcspn@i 007A  
               stringdir 080A                 stringtab 0800                 strtok@s1 0020  
               strtok@s2 007D                 strspn@s1 007C                 strspn@s2 0076  
               strtok@sp 0067                 strstr@s1 007A                 strstr@s2 007C  
