

Microchip MPLAB XC8 Assembler V2.50 build 20240725155939 
                                                                                               Wed Jan 07 16:10:08 2026

Microchip MPLAB XC8 C Compiler v2.50 (Free license) build 20240725155939 Og1 
     1                           	processor	16F1705
     2                           	pagewidth 120
     3                           	opt	flic
     4                           	psect	stringtext1,global,class=STRCODE,space=0,delta=2,noexec
     5                           	psect	stringtext2,global,class=STRCODE,space=0,delta=2,noexec
     6                           	psect	stringtext3,global,class=STRCODE,space=0,delta=2,noexec
     7                           	psect	stringtext4,global,class=STRCODE,space=0,delta=2,noexec
     8                           	psect	stringtext5,global,class=STRCODE,space=0,delta=2,noexec
     9                           	psect	stringtext6,global,class=STRCODE,space=0,delta=2,noexec
    10                           	psect	stringtext7,global,class=STRCODE,space=0,delta=2,noexec
    11                           	psect	stringtext8,global,class=STRCODE,space=0,delta=2,noexec
    12                           	psect	stringtext9,global,class=STRCODE,space=0,delta=2,noexec
    13                           	psect	stringtext10,global,class=STRCODE,space=0,delta=2,noexec
    14                           	psect	stringtext11,global,class=STRCODE,space=0,delta=2,noexec
    15                           	psect	stringtext12,global,class=STRCODE,space=0,delta=2,noexec
    16                           	psect	stringtext13,global,class=STRCODE,space=0,delta=2,noexec
    17                           	psect	stringtext14,global,class=STRCODE,space=0,delta=2,noexec
    18                           	psect	stringtext15,global,class=STRCODE,space=0,delta=2,noexec
    19                           	psect	stringtext16,global,class=STRCODE,space=0,delta=2,noexec
    20                           	psect	stringtext17,global,class=STRCODE,space=0,delta=2,noexec
    21                           	psect	stringtext18,global,class=STRCODE,space=0,delta=2,noexec
    22                           	psect	stringtext19,global,class=STRCODE,space=0,delta=2,noexec
    23                           	psect	stringtext20,global,class=STRCODE,space=0,delta=2,noexec
    24                           	psect	stringtext21,global,class=STRCODE,space=0,delta=2,noexec
    25                           	psect	stringtext22,global,class=STRCODE,space=0,delta=2,noexec
    26                           	psect	stringtext23,global,class=STRCODE,space=0,delta=2,noexec
    27                           	psect	stringtext24,global,class=STRCODE,space=0,delta=2,noexec
    28                           	psect	stringtext25,global,class=STRCODE,space=0,delta=2,noexec
    29                           	psect	stringtext26,global,class=STRCODE,space=0,delta=2,noexec
    30                           	psect	stringtext27,global,class=STRCODE,space=0,delta=2,noexec
    31                           	psect	stringtext28,global,class=STRCODE,space=0,delta=2,noexec
    32                           	psect	stringtext29,global,class=STRCODE,space=0,delta=2,noexec
    33                           	psect	stringtext30,global,class=STRCODE,space=0,delta=2,noexec
    34                           	psect	stringtext31,global,class=STRCODE,space=0,delta=2,noexec
    35                           	psect	stringtext32,global,class=STRCODE,space=0,delta=2,noexec
    36                           	psect	stringtext33,global,class=STRCODE,space=0,delta=2,noexec
    37                           	psect	stringtext34,global,class=STRCODE,space=0,delta=2,noexec
    38                           	psect	stringtext35,global,class=STRCODE,space=0,delta=2,noexec
    39                           	psect	stringtext36,global,class=STRCODE,space=0,delta=2,noexec
    40                           	psect	stringtext37,global,class=STRCODE,space=0,delta=2,noexec
    41                           	psect	stringtext38,global,class=STRCODE,space=0,delta=2,noexec
    42                           	psect	cinit,global,class=CODE,space=0,merge=1,delta=2
    43                           	psect	bssBANK1,global,class=BANK1,space=1,delta=1,noexec
    44                           	psect	clrtext,global,class=CODE,space=0,delta=2
    45                           	psect	cstackBANK1,global,class=BANK1,space=1,delta=1,noexec
    46                           	psect	cstackCOMMON,global,class=COMMON,space=1,delta=1,noexec
    47                           	psect	cstackBANK0,global,class=BANK0,space=1,delta=1,noexec
    48                           	psect	maintext,global,class=CODE,space=0,merge=1,split=1,delta=2
    49                           	psect	text1,local,class=CODE,space=0,merge=1,delta=2,group=3
    50                           	psect	text2,local,class=CODE,space=0,merge=1,delta=2,group=3
    51                           	psect	text3,local,class=CODE,space=0,merge=1,delta=2,group=3
    52                           	psect	text4,local,class=CODE,space=0,merge=1,delta=2,group=3
    53                           	psect	text5,local,class=CODE,space=0,merge=1,delta=2,group=3
    54                           	psect	text6,local,class=CODE,space=0,merge=1,delta=2
    55                           	psect	text7,local,class=CODE,space=0,merge=1,delta=2,group=2
    56                           	psect	text8,local,class=CODE,space=0,merge=1,delta=2,group=1
    57                           	psect	text9,local,class=CODE,space=0,merge=1,delta=2,group=2
    58                           	psect	text10,local,class=CODE,space=0,merge=1,delta=2,group=2
    59                           	psect	text11,local,class=CODE,space=0,merge=1,delta=2,group=3
    60                           	psect	text12,local,class=CODE,space=0,merge=1,delta=2,group=3
    61                           	psect	text13,local,class=CODE,space=0,merge=1,delta=2
    62                           	psect	text14,local,class=CODE,space=0,merge=1,delta=2
    63                           	psect	text15,local,class=CODE,space=0,merge=1,delta=2
    64                           	psect	text16,local,class=CODE,space=0,merge=1,delta=2,group=3
    65                           	psect	text17,local,class=CODE,space=0,merge=1,delta=2,group=3
    66                           	psect	text18,local,class=CODE,space=0,merge=1,delta=2,group=2
    67                           	psect	text19,local,class=CODE,space=0,merge=1,delta=2
    68                           	psect	text20,local,class=CODE,space=0,merge=1,delta=2
    69                           	psect	idloc,global,abs,ovrld,class=IDLOC,space=5,delta=2,noexec
    70                           	psect	config,global,abs,ovrld,class=CONFIG,space=4,delta=2,noexec
    71                           	psect	maintext_split_1,global,class=CODE,space=0,merge=1,split=1,delta=2
    72                           	psect	maintext_split_2,global,class=CODE,space=0,merge=1,split=1,delta=2
    73                           	dabs	1,0x620,48
    74                           	dabs	1,0x5A0,80
    75                           	dabs	1,0x520,80
    76                           	dabs	1,0x4A0,80
    77                           	dabs	1,0x464,12
    78                           	dabs	1,0x420,68
    79                           	dabs	1,0x3A0,80
    80                           	dabs	1,0x320,80
    81                           	dabs	1,0x2A0,80
    82                           	dabs	1,0x220,80
    83                           	dabs	1,0x1E4,12
    84                           	dabs	1,0x2134,0,_ap1_dat
    85                           	dabs	1,0x22C4,0,main@tmp
    86                           	dabs	1,0x7E,2
    87     0000                     
    88                           ; Generated 25/07/2024 GMT
    89                           ; 
    90                           ; Copyright © 2024, Microchip Technology Inc. and its subsidiaries ("Microchip")
    91                           ; All rights reserved.
    92                           ; 
    93                           ; This software is developed by Microchip Technology Inc. and its subsidiaries ("Microch
      +                          ip").
    94                           ; 
    95                           ; Redistribution and use in source and binary forms, with or without modification, are
    96                           ; permitted provided that the following conditions are met:
    97                           ; 
    98                           ;     1. Redistributions of source code must retain the above copyright notice, this lis
      +                          t of
    99                           ;        conditions and the following disclaimer.
   100                           ; 
   101                           ;     2. Redistributions in binary form must reproduce the above copyright notice, this 
      +                          list
   102                           ;        of conditions and the following disclaimer in the documentation and/or other
   103                           ;        materials provided with the distribution. Publication is not required when
   104                           ;        this file is used in an embedded application.
   105                           ; 
   106                           ;     3. Microchip's name may not be used to endorse or promote products derived from th
      +                          is
   107                           ;        software without specific prior written permission.
   108                           ; 
   109                           ; THIS SOFTWARE IS PROVIDED BY MICROCHIP "AS IS" AND ANY EXPRESS OR IMPLIED WARRANTIES,
   110                           ; INCLUDING, BUT NOT LIMITED TO, THE IMPLIED WARRANTIES OF MERCHANTABILITY AND FITNESS F
      +                          OR
   111                           ; PURPOSE ARE DISCLAIMED.  IN NO EVENT SHALL MICROCHIP BE LIABLE FOR ANY DIRECT, INDIREC
      +                          T,
   112                           ; INCIDENTAL, SPECIAL, EXEMPLARY, OR CONSEQUENTIAL DAMAGES (INCLUDING BUT NOT LIMITED TO
   113                           ; PROCUREMENT OF SUBSTITUTE GOODS OR SERVICES; LOSS OF USE, DATA OR PROFITS; OR BUSINESS
   114                           ; INTERRUPTION) HOWSOEVER CAUSED AND ON ANY THEORY OF LIABILITY, WHETHER IN CONTRACT, ST
      +                          RICT
   115                           ; LIABILITY, OR TORT (INCLUDING NEGLIGENCE OR OTHERWISE) ARISING IN ANY WAY OUT OF THE U
      +                          SE OF
   116                           ; THIS SOFTWARE, EVEN IF ADVISED OF THE POSSIBILITY OF SUCH DAMAGE.
   117                           ; 
   118                           ; 
   119                           ; Code-generator required, PIC16F1705 Definitions
   120                           ; 
   121                           ; SFR Addresses
   122     0008                     bsr             equ	8
   123     0005                     fsr0h           equ	5
   124     0004                     fsr0l           equ	4
   125     0007                     fsr1h           equ	7
   126     0006                     fsr1l           equ	6
   127     0000                     indf            equ	0
   128     0000                     indf0           equ	0
   129     0001                     indf1           equ	1
   130     000B                     intcon          equ	11
   131     0002                     pc              equ	2
   132     0002                     pcl             equ	2
   133     000A                     pclath          equ	10
   134     0003                     status          equ	3
   135     0009                     wreg            equ	9
   136     0000                     INDF0           equ	0	;# 
   137     0001                     INDF1           equ	1	;# 
   138     0002                     PCL             equ	2	;# 
   139     0003                     STATUS          equ	3	;# 
   140     0004                     FSR0L           equ	4	;# 
   141     0005                     FSR0H           equ	5	;# 
   142     0006                     FSR1L           equ	6	;# 
   143     0007                     FSR1H           equ	7	;# 
   144     0008                     BSR             equ	8	;# 
   145     0009                     WREG            equ	9	;# 
   146     000A                     PCLATH          equ	10	;# 
   147     000B                     INTCON          equ	11	;# 
   148     000C                     PORTA           equ	12	;# 
   149     000E                     PORTC           equ	14	;# 
   150     0011                     PIR1            equ	17	;# 
   151     0012                     PIR2            equ	18	;# 
   152     0013                     PIR3            equ	19	;# 
   153     0015                     TMR0            equ	21	;# 
   154     0016                     TMR1            equ	22	;# 
   155     0016                     TMR1L           equ	22	;# 
   156     0017                     TMR1H           equ	23	;# 
   157     0018                     T1CON           equ	24	;# 
   158     0019                     T1GCON          equ	25	;# 
   159     001A                     TMR2            equ	26	;# 
   160     001B                     PR2             equ	27	;# 
   161     001C                     T2CON           equ	28	;# 
   162     008C                     TRISA           equ	140	;# 
   163     008E                     TRISC           equ	142	;# 
   164     0091                     PIE1            equ	145	;# 
   165     0092                     PIE2            equ	146	;# 
   166     0093                     PIE3            equ	147	;# 
   167     0095                     OPTION_REG      equ	149	;# 
   168     0096                     PCON            equ	150	;# 
   169     0097                     WDTCON          equ	151	;# 
   170     0098                     OSCTUNE         equ	152	;# 
   171     0099                     OSCCON          equ	153	;# 
   172     009A                     OSCSTAT         equ	154	;# 
   173     009B                     ADRES           equ	155	;# 
   174     009B                     ADRESL          equ	155	;# 
   175     009C                     ADRESH          equ	156	;# 
   176     009D                     ADCON0          equ	157	;# 
   177     009E                     ADCON1          equ	158	;# 
   178     009F                     ADCON2          equ	159	;# 
   179     010C                     LATA            equ	268	;# 
   180     010E                     LATC            equ	270	;# 
   181     0111                     CM1CON0         equ	273	;# 
   182     0112                     CM1CON1         equ	274	;# 
   183     0113                     CM2CON0         equ	275	;# 
   184     0114                     CM2CON1         equ	276	;# 
   185     0115                     CMOUT           equ	277	;# 
   186     0116                     BORCON          equ	278	;# 
   187     0117                     FVRCON          equ	279	;# 
   188     0118                     DAC1CON0        equ	280	;# 
   189     0119                     DAC1CON1        equ	281	;# 
   190     011C                     ZCD1CON         equ	284	;# 
   191     018C                     ANSELA          equ	396	;# 
   192     018E                     ANSELC          equ	398	;# 
   193     0191                     PMADR           equ	401	;# 
   194     0191                     PMADRL          equ	401	;# 
   195     0192                     PMADRH          equ	402	;# 
   196     0193                     PMDAT           equ	403	;# 
   197     0193                     PMDATL          equ	403	;# 
   198     0194                     PMDATH          equ	404	;# 
   199     0195                     PMCON1          equ	405	;# 
   200     0196                     PMCON2          equ	406	;# 
   201     0197                     VREGCON         equ	407	;# 
   202     0199                     RC1REG          equ	409	;# 
   203     0199                     RCREG           equ	409	;# 
   204     0199                     RCREG1          equ	409	;# 
   205     019A                     TX1REG          equ	410	;# 
   206     019A                     TXREG1          equ	410	;# 
   207     019A                     TXREG           equ	410	;# 
   208     019B                     SP1BRG          equ	411	;# 
   209     019B                     SPBRG           equ	411	;# 
   210     019B                     SP1BRGL         equ	411	;# 
   211     019B                     SPBRG1          equ	411	;# 
   212     019B                     SPBRGL          equ	411	;# 
   213     019C                     SP1BRGH         equ	412	;# 
   214     019C                     SPBRGH          equ	412	;# 
   215     019C                     SPBRGH1         equ	412	;# 
   216     019D                     RC1STA          equ	413	;# 
   217     019D                     RCSTA1          equ	413	;# 
   218     019D                     RCSTA           equ	413	;# 
   219     019E                     TX1STA          equ	414	;# 
   220     019E                     TXSTA1          equ	414	;# 
   221     019E                     TXSTA           equ	414	;# 
   222     019F                     BAUD1CON        equ	415	;# 
   223     019F                     BAUDCON1        equ	415	;# 
   224     019F                     BAUDCTL1        equ	415	;# 
   225     019F                     BAUDCON         equ	415	;# 
   226     019F                     BAUDCTL         equ	415	;# 
   227     020C                     WPUA            equ	524	;# 
   228     020E                     WPUC            equ	526	;# 
   229     0211                     SSP1BUF         equ	529	;# 
   230     0211                     SSPBUF          equ	529	;# 
   231     0212                     SSP1ADD         equ	530	;# 
   232     0212                     SSPADD          equ	530	;# 
   233     0213                     SSP1MSK         equ	531	;# 
   234     0213                     SSPMSK          equ	531	;# 
   235     0214                     SSP1STAT        equ	532	;# 
   236     0214                     SSPSTAT         equ	532	;# 
   237     0215                     SSP1CON1        equ	533	;# 
   238     0215                     SSPCON          equ	533	;# 
   239     0215                     SSPCON1         equ	533	;# 
   240     0215                     SSP1CON         equ	533	;# 
   241     0216                     SSP1CON2        equ	534	;# 
   242     0216                     SSPCON2         equ	534	;# 
   243     0217                     SSP1CON3        equ	535	;# 
   244     0217                     SSPCON3         equ	535	;# 
   245     028C                     ODCONA          equ	652	;# 
   246     028E                     ODCONC          equ	654	;# 
   247     0291                     CCPR1           equ	657	;# 
   248     0291                     CCPR1L          equ	657	;# 
   249     0292                     CCPR1H          equ	658	;# 
   250     0293                     CCP1CON         equ	659	;# 
   251     0293                     ECCP1CON        equ	659	;# 
   252     0298                     CCPR2           equ	664	;# 
   253     0298                     CCPR2L          equ	664	;# 
   254     0299                     CCPR2H          equ	665	;# 
   255     029A                     CCP2CON         equ	666	;# 
   256     029A                     ECCP2CON        equ	666	;# 
   257     029E                     CCPTMRS         equ	670	;# 
   258     030C                     SLRCONA         equ	780	;# 
   259     030E                     SLRCONC         equ	782	;# 
   260     038C                     INLVLA          equ	908	;# 
   261     038E                     INLVLC          equ	910	;# 
   262     0391                     IOCAP           equ	913	;# 
   263     0392                     IOCAN           equ	914	;# 
   264     0393                     IOCAF           equ	915	;# 
   265     0397                     IOCCP           equ	919	;# 
   266     0398                     IOCCN           equ	920	;# 
   267     0399                     IOCCF           equ	921	;# 
   268     0415                     TMR4            equ	1045	;# 
   269     0416                     PR4             equ	1046	;# 
   270     0417                     T4CON           equ	1047	;# 
   271     041C                     TMR6            equ	1052	;# 
   272     041D                     PR6             equ	1053	;# 
   273     041E                     T6CON           equ	1054	;# 
   274     0511                     OPA1CON         equ	1297	;# 
   275     0515                     OPA2CON         equ	1301	;# 
   276     0617                     PWM3DCL         equ	1559	;# 
   277     0618                     PWM3DCH         equ	1560	;# 
   278     0619                     PWM3CON         equ	1561	;# 
   279     0619                     PWM3CON0        equ	1561	;# 
   280     061A                     PWM4DCL         equ	1562	;# 
   281     061B                     PWM4DCH         equ	1563	;# 
   282     061C                     PWM4CON         equ	1564	;# 
   283     061C                     PWM4CON0        equ	1564	;# 
   284     0691                     COG1PHR         equ	1681	;# 
   285     0692                     COG1PHF         equ	1682	;# 
   286     0693                     COG1BLKR        equ	1683	;# 
   287     0694                     COG1BLKF        equ	1684	;# 
   288     0695                     COG1DBR         equ	1685	;# 
   289     0696                     COG1DBF         equ	1686	;# 
   290     0697                     COG1CON0        equ	1687	;# 
   291     0698                     COG1CON1        equ	1688	;# 
   292     0699                     COG1RIS         equ	1689	;# 
   293     069A                     COG1RSIM        equ	1690	;# 
   294     069B                     COG1FIS         equ	1691	;# 
   295     069C                     COG1FSIM        equ	1692	;# 
   296     069D                     COG1ASD0        equ	1693	;# 
   297     069E                     COG1ASD1        equ	1694	;# 
   298     069F                     COG1STR         equ	1695	;# 
   299     0E0F                     PPSLOCK         equ	3599	;# 
   300     0E10                     INTPPS          equ	3600	;# 
   301     0E11                     T0CKIPPS        equ	3601	;# 
   302     0E12                     T1CKIPPS        equ	3602	;# 
   303     0E13                     T1GPPS          equ	3603	;# 
   304     0E14                     CCP1PPS         equ	3604	;# 
   305     0E15                     CCP2PPS         equ	3605	;# 
   306     0E17                     COGINPPS        equ	3607	;# 
   307     0E20                     SSPCLKPPS       equ	3616	;# 
   308     0E21                     SSPDATPPS       equ	3617	;# 
   309     0E22                     SSPSSPPS        equ	3618	;# 
   310     0E24                     RXPPS           equ	3620	;# 
   311     0E25                     CKPPS           equ	3621	;# 
   312     0E28                     CLCIN0PPS       equ	3624	;# 
   313     0E29                     CLCIN1PPS       equ	3625	;# 
   314     0E2A                     CLCIN2PPS       equ	3626	;# 
   315     0E2B                     CLCIN3PPS       equ	3627	;# 
   316     0E90                     RA0PPS          equ	3728	;# 
   317     0E91                     RA1PPS          equ	3729	;# 
   318     0E92                     RA2PPS          equ	3730	;# 
   319     0E94                     RA4PPS          equ	3732	;# 
   320     0E95                     RA5PPS          equ	3733	;# 
   321     0EA0                     RC0PPS          equ	3744	;# 
   322     0EA1                     RC1PPS          equ	3745	;# 
   323     0EA2                     RC2PPS          equ	3746	;# 
   324     0EA3                     RC3PPS          equ	3747	;# 
   325     0EA4                     RC4PPS          equ	3748	;# 
   326     0EA5                     RC5PPS          equ	3749	;# 
   327     0F0F                     CLCDATA         equ	3855	;# 
   328     0F10                     CLC1CON         equ	3856	;# 
   329     0F11                     CLC1POL         equ	3857	;# 
   330     0F12                     CLC1SEL0        equ	3858	;# 
   331     0F13                     CLC1SEL1        equ	3859	;# 
   332     0F14                     CLC1SEL2        equ	3860	;# 
   333     0F15                     CLC1SEL3        equ	3861	;# 
   334     0F16                     CLC1GLS0        equ	3862	;# 
   335     0F17                     CLC1GLS1        equ	3863	;# 
   336     0F18                     CLC1GLS2        equ	3864	;# 
   337     0F19                     CLC1GLS3        equ	3865	;# 
   338     0F1A                     CLC2CON         equ	3866	;# 
   339     0F1B                     CLC2POL         equ	3867	;# 
   340     0F1C                     CLC2SEL0        equ	3868	;# 
   341     0F1D                     CLC2SEL1        equ	3869	;# 
   342     0F1E                     CLC2SEL2        equ	3870	;# 
   343     0F1F                     CLC2SEL3        equ	3871	;# 
   344     0F20                     CLC2GLS0        equ	3872	;# 
   345     0F21                     CLC2GLS1        equ	3873	;# 
   346     0F22                     CLC2GLS2        equ	3874	;# 
   347     0F23                     CLC2GLS3        equ	3875	;# 
   348     0F24                     CLC3CON         equ	3876	;# 
   349     0F25                     CLC3POL         equ	3877	;# 
   350     0F26                     CLC3SEL0        equ	3878	;# 
   351     0F27                     CLC3SEL1        equ	3879	;# 
   352     0F28                     CLC3SEL2        equ	3880	;# 
   353     0F29                     CLC3SEL3        equ	3881	;# 
   354     0F2A                     CLC3GLS0        equ	3882	;# 
   355     0F2B                     CLC3GLS1        equ	3883	;# 
   356     0F2C                     CLC3GLS2        equ	3884	;# 
   357     0F2D                     CLC3GLS3        equ	3885	;# 
   358     0F9E                     ICDBK0H         equ	3998	;# 
   359     0FE4                     STATUS_SHAD     equ	4068	;# 
   360     0FE5                     WREG_SHAD       equ	4069	;# 
   361     0FE6                     BSR_SHAD        equ	4070	;# 
   362     0FE7                     PCLATH_SHAD     equ	4071	;# 
   363     0FE8                     FSR0L_SHAD      equ	4072	;# 
   364     0FE9                     FSR0H_SHAD      equ	4073	;# 
   365     0FEA                     FSR1L_SHAD      equ	4074	;# 
   366     0FEB                     FSR1H_SHAD      equ	4075	;# 
   367     0FED                     STKPTR          equ	4077	;# 
   368     0FEE                     TOSL            equ	4078	;# 
   369     0FEF                     TOSH            equ	4079	;# 
   370     0000                     INDF0           equ	0	;# 
   371     0001                     INDF1           equ	1	;# 
   372     0002                     PCL             equ	2	;# 
   373     0003                     STATUS          equ	3	;# 
   374     0004                     FSR0L           equ	4	;# 
   375     0005                     FSR0H           equ	5	;# 
   376     0006                     FSR1L           equ	6	;# 
   377     0007                     FSR1H           equ	7	;# 
   378     0008                     BSR             equ	8	;# 
   379     0009                     WREG            equ	9	;# 
   380     000A                     PCLATH          equ	10	;# 
   381     000B                     INTCON          equ	11	;# 
   382     000C                     PORTA           equ	12	;# 
   383     000E                     PORTC           equ	14	;# 
   384     0011                     PIR1            equ	17	;# 
   385     0012                     PIR2            equ	18	;# 
   386     0013                     PIR3            equ	19	;# 
   387     0015                     TMR0            equ	21	;# 
   388     0016                     TMR1            equ	22	;# 
   389     0016                     TMR1L           equ	22	;# 
   390     0017                     TMR1H           equ	23	;# 
   391     0018                     T1CON           equ	24	;# 
   392     0019                     T1GCON          equ	25	;# 
   393     001A                     TMR2            equ	26	;# 
   394     001B                     PR2             equ	27	;# 
   395     001C                     T2CON           equ	28	;# 
   396     008C                     TRISA           equ	140	;# 
   397     008E                     TRISC           equ	142	;# 
   398     0091                     PIE1            equ	145	;# 
   399     0092                     PIE2            equ	146	;# 
   400     0093                     PIE3            equ	147	;# 
   401     0095                     OPTION_REG      equ	149	;# 
   402     0096                     PCON            equ	150	;# 
   403     0097                     WDTCON          equ	151	;# 
   404     0098                     OSCTUNE         equ	152	;# 
   405     0099                     OSCCON          equ	153	;# 
   406     009A                     OSCSTAT         equ	154	;# 
   407     009B                     ADRES           equ	155	;# 
   408     009B                     ADRESL          equ	155	;# 
   409     009C                     ADRESH          equ	156	;# 
   410     009D                     ADCON0          equ	157	;# 
   411     009E                     ADCON1          equ	158	;# 
   412     009F                     ADCON2          equ	159	;# 
   413     010C                     LATA            equ	268	;# 
   414     010E                     LATC            equ	270	;# 
   415     0111                     CM1CON0         equ	273	;# 
   416     0112                     CM1CON1         equ	274	;# 
   417     0113                     CM2CON0         equ	275	;# 
   418     0114                     CM2CON1         equ	276	;# 
   419     0115                     CMOUT           equ	277	;# 
   420     0116                     BORCON          equ	278	;# 
   421     0117                     FVRCON          equ	279	;# 
   422     0118                     DAC1CON0        equ	280	;# 
   423     0119                     DAC1CON1        equ	281	;# 
   424     011C                     ZCD1CON         equ	284	;# 
   425     018C                     ANSELA          equ	396	;# 
   426     018E                     ANSELC          equ	398	;# 
   427     0191                     PMADR           equ	401	;# 
   428     0191                     PMADRL          equ	401	;# 
   429     0192                     PMADRH          equ	402	;# 
   430     0193                     PMDAT           equ	403	;# 
   431     0193                     PMDATL          equ	403	;# 
   432     0194                     PMDATH          equ	404	;# 
   433     0195                     PMCON1          equ	405	;# 
   434     0196                     PMCON2          equ	406	;# 
   435     0197                     VREGCON         equ	407	;# 
   436     0199                     RC1REG          equ	409	;# 
   437     0199                     RCREG           equ	409	;# 
   438     0199                     RCREG1          equ	409	;# 
   439     019A                     TX1REG          equ	410	;# 
   440     019A                     TXREG1          equ	410	;# 
   441     019A                     TXREG           equ	410	;# 
   442     019B                     SP1BRG          equ	411	;# 
   443     019B                     SPBRG           equ	411	;# 
   444     019B                     SP1BRGL         equ	411	;# 
   445     019B                     SPBRG1          equ	411	;# 
   446     019B                     SPBRGL          equ	411	;# 
   447     019C                     SP1BRGH         equ	412	;# 
   448     019C                     SPBRGH          equ	412	;# 
   449     019C                     SPBRGH1         equ	412	;# 
   450     019D                     RC1STA          equ	413	;# 
   451     019D                     RCSTA1          equ	413	;# 
   452     019D                     RCSTA           equ	413	;# 
   453     019E                     TX1STA          equ	414	;# 
   454     019E                     TXSTA1          equ	414	;# 
   455     019E                     TXSTA           equ	414	;# 
   456     019F                     BAUD1CON        equ	415	;# 
   457     019F                     BAUDCON1        equ	415	;# 
   458     019F                     BAUDCTL1        equ	415	;# 
   459     019F                     BAUDCON         equ	415	;# 
   460     019F                     BAUDCTL         equ	415	;# 
   461     020C                     WPUA            equ	524	;# 
   462     020E                     WPUC            equ	526	;# 
   463     0211                     SSP1BUF         equ	529	;# 
   464     0211                     SSPBUF          equ	529	;# 
   465     0212                     SSP1ADD         equ	530	;# 
   466     0212                     SSPADD          equ	530	;# 
   467     0213                     SSP1MSK         equ	531	;# 
   468     0213                     SSPMSK          equ	531	;# 
   469     0214                     SSP1STAT        equ	532	;# 
   470     0214                     SSPSTAT         equ	532	;# 
   471     0215                     SSP1CON1        equ	533	;# 
   472     0215                     SSPCON          equ	533	;# 
   473     0215                     SSPCON1         equ	533	;# 
   474     0215                     SSP1CON         equ	533	;# 
   475     0216                     SSP1CON2        equ	534	;# 
   476     0216                     SSPCON2         equ	534	;# 
   477     0217                     SSP1CON3        equ	535	;# 
   478     0217                     SSPCON3         equ	535	;# 
   479     028C                     ODCONA          equ	652	;# 
   480     028E                     ODCONC          equ	654	;# 
   481     0291                     CCPR1           equ	657	;# 
   482     0291                     CCPR1L          equ	657	;# 
   483     0292                     CCPR1H          equ	658	;# 
   484     0293                     CCP1CON         equ	659	;# 
   485     0293                     ECCP1CON        equ	659	;# 
   486     0298                     CCPR2           equ	664	;# 
   487     0298                     CCPR2L          equ	664	;# 
   488     0299                     CCPR2H          equ	665	;# 
   489     029A                     CCP2CON         equ	666	;# 
   490     029A                     ECCP2CON        equ	666	;# 
   491     029E                     CCPTMRS         equ	670	;# 
   492     030C                     SLRCONA         equ	780	;# 
   493     030E                     SLRCONC         equ	782	;# 
   494     038C                     INLVLA          equ	908	;# 
   495     038E                     INLVLC          equ	910	;# 
   496     0391                     IOCAP           equ	913	;# 
   497     0392                     IOCAN           equ	914	;# 
   498     0393                     IOCAF           equ	915	;# 
   499     0397                     IOCCP           equ	919	;# 
   500     0398                     IOCCN           equ	920	;# 
   501     0399                     IOCCF           equ	921	;# 
   502     0415                     TMR4            equ	1045	;# 
   503     0416                     PR4             equ	1046	;# 
   504     0417                     T4CON           equ	1047	;# 
   505     041C                     TMR6            equ	1052	;# 
   506     041D                     PR6             equ	1053	;# 
   507     041E                     T6CON           equ	1054	;# 
   508     0511                     OPA1CON         equ	1297	;# 
   509     0515                     OPA2CON         equ	1301	;# 
   510     0617                     PWM3DCL         equ	1559	;# 
   511     0618                     PWM3DCH         equ	1560	;# 
   512     0619                     PWM3CON         equ	1561	;# 
   513     0619                     PWM3CON0        equ	1561	;# 
   514     061A                     PWM4DCL         equ	1562	;# 
   515     061B                     PWM4DCH         equ	1563	;# 
   516     061C                     PWM4CON         equ	1564	;# 
   517     061C                     PWM4CON0        equ	1564	;# 
   518     0691                     COG1PHR         equ	1681	;# 
   519     0692                     COG1PHF         equ	1682	;# 
   520     0693                     COG1BLKR        equ	1683	;# 
   521     0694                     COG1BLKF        equ	1684	;# 
   522     0695                     COG1DBR         equ	1685	;# 
   523     0696                     COG1DBF         equ	1686	;# 
   524     0697                     COG1CON0        equ	1687	;# 
   525     0698                     COG1CON1        equ	1688	;# 
   526     0699                     COG1RIS         equ	1689	;# 
   527     069A                     COG1RSIM        equ	1690	;# 
   528     069B                     COG1FIS         equ	1691	;# 
   529     069C                     COG1FSIM        equ	1692	;# 
   530     069D                     COG1ASD0        equ	1693	;# 
   531     069E                     COG1ASD1        equ	1694	;# 
   532     069F                     COG1STR         equ	1695	;# 
   533     0E0F                     PPSLOCK         equ	3599	;# 
   534     0E10                     INTPPS          equ	3600	;# 
   535     0E11                     T0CKIPPS        equ	3601	;# 
   536     0E12                     T1CKIPPS        equ	3602	;# 
   537     0E13                     T1GPPS          equ	3603	;# 
   538     0E14                     CCP1PPS         equ	3604	;# 
   539     0E15                     CCP2PPS         equ	3605	;# 
   540     0E17                     COGINPPS        equ	3607	;# 
   541     0E20                     SSPCLKPPS       equ	3616	;# 
   542     0E21                     SSPDATPPS       equ	3617	;# 
   543     0E22                     SSPSSPPS        equ	3618	;# 
   544     0E24                     RXPPS           equ	3620	;# 
   545     0E25                     CKPPS           equ	3621	;# 
   546     0E28                     CLCIN0PPS       equ	3624	;# 
   547     0E29                     CLCIN1PPS       equ	3625	;# 
   548     0E2A                     CLCIN2PPS       equ	3626	;# 
   549     0E2B                     CLCIN3PPS       equ	3627	;# 
   550     0E90                     RA0PPS          equ	3728	;# 
   551     0E91                     RA1PPS          equ	3729	;# 
   552     0E92                     RA2PPS          equ	3730	;# 
   553     0E94                     RA4PPS          equ	3732	;# 
   554     0E95                     RA5PPS          equ	3733	;# 
   555     0EA0                     RC0PPS          equ	3744	;# 
   556     0EA1                     RC1PPS          equ	3745	;# 
   557     0EA2                     RC2PPS          equ	3746	;# 
   558     0EA3                     RC3PPS          equ	3747	;# 
   559     0EA4                     RC4PPS          equ	3748	;# 
   560     0EA5                     RC5PPS          equ	3749	;# 
   561     0F0F                     CLCDATA         equ	3855	;# 
   562     0F10                     CLC1CON         equ	3856	;# 
   563     0F11                     CLC1POL         equ	3857	;# 
   564     0F12                     CLC1SEL0        equ	3858	;# 
   565     0F13                     CLC1SEL1        equ	3859	;# 
   566     0F14                     CLC1SEL2        equ	3860	;# 
   567     0F15                     CLC1SEL3        equ	3861	;# 
   568     0F16                     CLC1GLS0        equ	3862	;# 
   569     0F17                     CLC1GLS1        equ	3863	;# 
   570     0F18                     CLC1GLS2        equ	3864	;# 
   571     0F19                     CLC1GLS3        equ	3865	;# 
   572     0F1A                     CLC2CON         equ	3866	;# 
   573     0F1B                     CLC2POL         equ	3867	;# 
   574     0F1C                     CLC2SEL0        equ	3868	;# 
   575     0F1D                     CLC2SEL1        equ	3869	;# 
   576     0F1E                     CLC2SEL2        equ	3870	;# 
   577     0F1F                     CLC2SEL3        equ	3871	;# 
   578     0F20                     CLC2GLS0        equ	3872	;# 
   579     0F21                     CLC2GLS1        equ	3873	;# 
   580     0F22                     CLC2GLS2        equ	3874	;# 
   581     0F23                     CLC2GLS3        equ	3875	;# 
   582     0F24                     CLC3CON         equ	3876	;# 
   583     0F25                     CLC3POL         equ	3877	;# 
   584     0F26                     CLC3SEL0        equ	3878	;# 
   585     0F27                     CLC3SEL1        equ	3879	;# 
   586     0F28                     CLC3SEL2        equ	3880	;# 
   587     0F29                     CLC3SEL3        equ	3881	;# 
   588     0F2A                     CLC3GLS0        equ	3882	;# 
   589     0F2B                     CLC3GLS1        equ	3883	;# 
   590     0F2C                     CLC3GLS2        equ	3884	;# 
   591     0F2D                     CLC3GLS3        equ	3885	;# 
   592     0F9E                     ICDBK0H         equ	3998	;# 
   593     0FE4                     STATUS_SHAD     equ	4068	;# 
   594     0FE5                     WREG_SHAD       equ	4069	;# 
   595     0FE6                     BSR_SHAD        equ	4070	;# 
   596     0FE7                     PCLATH_SHAD     equ	4071	;# 
   597     0FE8                     FSR0L_SHAD      equ	4072	;# 
   598     0FE9                     FSR0H_SHAD      equ	4073	;# 
   599     0FEA                     FSR1L_SHAD      equ	4074	;# 
   600     0FEB                     FSR1H_SHAD      equ	4075	;# 
   601     0FED                     STKPTR          equ	4077	;# 
   602     0FEE                     TOSL            equ	4078	;# 
   603     0FEF                     TOSH            equ	4079	;_ap1_dat
   604                           
   605                           	psect	stringtext1
   606     1000                     __pstringtext1:
   607     1000                     _dpowers:
   608     1000  3401               	retlw	1
   609     1001  3400               	retlw	0
   610     1002  340A               	retlw	10
   611     1003  3400               	retlw	0
   612     1004  3464               	retlw	100
   613     1005  3400               	retlw	0
   614     1006  34E8               	retlw	232
   615     1007  3403               	retlw	3
   616     1008  3410               	retlw	16
   617     1009  3427               	retlw	39
   618     100A                     __end_of_dpowers:
   619     000E                     _PORTC          set	14
   620     000C                     _PORTA          set	12
   621     008D                     _RCIF           set	141
   622     008C                     _TXIF           set	140
   623     009E                     _ADCON1         set	158
   624     009D                     _ADCON0         set	157
   625     008E                     _TRISC          set	142
   626     008C                     _TRISA          set	140
   627     0099                     _OSCCON         set	153
   628     009B                     _ADRESL         set	155
   629     009C                     _ADRESH         set	156
   630     009D                     _ADCON0bits     set	157
   631     0119                     _DAC1CON1       set	281
   632     0117                     _FVRCON         set	279
   633     019B                     _SPBRG          set	411
   634     0199                     _RCREG          set	409
   635     019A                     _TXREG          set	410
   636     019D                     _RCSTA          set	413
   637     019E                     _TXSTA          set	414
   638     018E                     _ANSELC         set	398
   639     018C                     _ANSELA         set	396
   640     019B                     _SP1BRGL        set	411
   641     019C                     _SP1BRGH        set	412
   642     019D                     _RC1STA         set	413
   643     019E                     _TX1STA         set	414
   644     0CFB                     _BRG16          set	3323
   645     0E24                     _RXPPS          set	3620
   646     0E90                     _RA0PPS         set	3728
   647     100A                     STR_60:
   648     100A  3446               	retlw	70	;'F'
   649     100B  344C               	retlw	76	;'L'
   650     100C  3441               	retlw	65	;'A'
   651     100D  3453               	retlw	83	;'S'
   652     100E  3445               	retlw	69	;'E'
   653     100F  3452               	retlw	82	;'R'
   654     1010  342D               	retlw	45	;'-'
   655     1011  3443               	retlw	67	;'C'
   656     1012  344F               	retlw	79	;'O'
   657     1013  344E               	retlw	78	;'N'
   658     1014  3454               	retlw	84	;'T'
   659     1015  3420               	retlw	32	;' '
   660     1016  3456               	retlw	86	;'V'
   661     1017  3445               	retlw	69	;'E'
   662     1018  3452               	retlw	82	;'R'
   663     1019  3453               	retlw	83	;'S'
   664     101A  3449               	retlw	73	;'I'
   665     101B  344F               	retlw	79	;'O'
   666     101C  344E               	retlw	78	;'N'
   667     101D  3420               	retlw	32	;' '
   668     101E  3431               	retlw	49	;'1'
   669     101F  342E               	retlw	46	;'.'
   670     1020  3431               	retlw	49	;'1'
   671     1021  3400               	retlw	0
   672                           
   673                           	psect	stringtext2
   674     1022                     __pstringtext2:
   675     1022                     STR_59:
   676     1022  3443               	retlw	67	;'C'
   677     1023  3409               	retlw	9
   678     1024  3441               	retlw	65	;'A'
   679     1025  3449               	retlw	73	;'I'
   680     1026  344E               	retlw	78	;'N'
   681     1027  3420               	retlw	32	;' '
   682     1028  343D               	retlw	61	;'='
   683     1029  3420               	retlw	32	;' '
   684     102A  3425               	retlw	37	;'%'
   685     102B  3475               	retlw	117	;'u'
   686     102C  340A               	retlw	10
   687     102D  3400               	retlw	0
   688                           
   689                           	psect	stringtext3
   690     102E                     __pstringtext3:
   691     102E                     STR_25:
   692     102E  3443               	retlw	67	;'C'
   693     102F  3409               	retlw	9
   694     1030  3453               	retlw	83	;'S'
   695     1031  3441               	retlw	65	;'A'
   696     1032  3431               	retlw	49	;'1'
   697     1033  340D               	retlw	13
   698     1034  340A               	retlw	10
   699     1035  3400               	retlw	0
   700                           
   701                           	psect	stringtext4
   702     1036                     __pstringtext4:
   703     1036                     STR_31:
   704     1036  3443               	retlw	67	;'C'
   705     1037  3409               	retlw	9
   706     1038  3453               	retlw	83	;'S'
   707     1039  3446               	retlw	70	;'F'
   708     103A  3431               	retlw	49	;'1'
   709     103B  340D               	retlw	13
   710     103C  340A               	retlw	10
   711     103D  3400               	retlw	0
   712                           
   713                           	psect	stringtext5
   714     103E                     __pstringtext5:
   715     103E                     STR_27:
   716     103E  3443               	retlw	67	;'C'
   717     103F  3409               	retlw	9
   718     1040  3453               	retlw	83	;'S'
   719     1041  3441               	retlw	65	;'A'
   720     1042  3432               	retlw	50	;'2'
   721     1043  340D               	retlw	13
   722     1044  340A               	retlw	10
   723     1045  3400               	retlw	0
   724                           
   725                           	psect	stringtext6
   726     1046                     __pstringtext6:
   727     1046                     STR_34:
   728     1046  3443               	retlw	67	;'C'
   729     1047  3409               	retlw	9
   730     1048  3453               	retlw	83	;'S'
   731     1049  3446               	retlw	70	;'F'
   732     104A  3432               	retlw	50	;'2'
   733     104B  340D               	retlw	13
   734     104C  340A               	retlw	10
   735     104D  3400               	retlw	0
   736                           
   737                           	psect	stringtext7
   738     104E                     __pstringtext7:
   739     104E                     STR_37:
   740     104E  3443               	retlw	67	;'C'
   741     104F  3409               	retlw	9
   742     1050  3453               	retlw	83	;'S'
   743     1051  3446               	retlw	70	;'F'
   744     1052  3433               	retlw	51	;'3'
   745     1053  340D               	retlw	13
   746     1054  340A               	retlw	10
   747     1055  3400               	retlw	0
   748                           
   749                           	psect	stringtext8
   750     1056                     __pstringtext8:
   751     1056                     STR_40:
   752     1056  3443               	retlw	67	;'C'
   753     1057  3409               	retlw	9
   754     1058  3453               	retlw	83	;'S'
   755     1059  3446               	retlw	70	;'F'
   756     105A  3434               	retlw	52	;'4'
   757     105B  340D               	retlw	13
   758     105C  340A               	retlw	10
   759     105D  3400               	retlw	0
   760                           
   761                           	psect	stringtext9
   762     105E                     __pstringtext9:
   763     105E                     STR_43:
   764     105E  3443               	retlw	67	;'C'
   765     105F  3409               	retlw	9
   766     1060  3453               	retlw	83	;'S'
   767     1061  3446               	retlw	70	;'F'
   768     1062  3435               	retlw	53	;'5'
   769     1063  340D               	retlw	13
   770     1064  340A               	retlw	10
   771     1065  3400               	retlw	0
   772                           
   773                           	psect	stringtext10
   774     1066                     __pstringtext10:
   775     1066                     STR_46:
   776     1066  3443               	retlw	67	;'C'
   777     1067  3409               	retlw	9
   778     1068  3453               	retlw	83	;'S'
   779     1069  3446               	retlw	70	;'F'
   780     106A  3436               	retlw	54	;'6'
   781     106B  340D               	retlw	13
   782     106C  340A               	retlw	10
   783     106D  3400               	retlw	0
   784                           
   785                           	psect	stringtext11
   786     106E                     __pstringtext11:
   787     106E                     STR_28:
   788     106E  3453               	retlw	83	;'S'
   789     106F  3441               	retlw	65	;'A'
   790     1070  3433               	retlw	51	;'3'
   791     1071  3420               	retlw	32	;' '
   792     1072  344F               	retlw	79	;'O'
   793     1073  344B               	retlw	75	;'K'
   794     1074  340A               	retlw	10
   795     1075  3400               	retlw	0
   796                           
   797                           	psect	stringtext12
   798     1076                     __pstringtext12:
   799     1076                     STR_61:
   800     1076  3428               	retlw	40	;'('
   801     1077  346E               	retlw	110	;'n'
   802     1078  3475               	retlw	117	;'u'
   803     1079  346C               	retlw	108	;'l'
   804     107A  346C               	retlw	108	;'l'
   805     107B  3429               	retlw	41	;')'
   806     107C  3400               	retlw	0
   807                           
   808                           	psect	stringtext13
   809     107D                     __pstringtext13:
   810     107D                     STR_58:
   811     107D  3443               	retlw	67	;'C'
   812     107E  3409               	retlw	9
   813     107F  3453               	retlw	83	;'S'
   814     1080  3449               	retlw	73	;'I'
   815     1081  344E               	retlw	78	;'N'
   816     1082  340A               	retlw	10
   817     1083  3400               	retlw	0
   818                           
   819                           	psect	stringtext14
   820     1084                     __pstringtext14:
   821     1084                     STR_56:
   822     1084  3443               	retlw	67	;'C'
   823     1085  3409               	retlw	9
   824     1086  344C               	retlw	76	;'L'
   825     1087  3445               	retlw	69	;'E'
   826     1088  3450               	retlw	80	;'P'
   827     1089  340A               	retlw	10
   828     108A  3400               	retlw	0
   829                           
   830                           	psect	stringtext15
   831     108B                     __pstringtext15:
   832     108B                     STR_24:
   833     108B  3425               	retlw	37	;'%'
   834     108C  3464               	retlw	100	;'d'
   835     108D  340A               	retlw	10
   836     108E  3400               	retlw	0
   837                           
   838                           	psect	stringtext16
   839     108F                     __pstringtext16:
   840     108F                     STR_1:
   841     108F  3425               	retlw	37	;'%'
   842     1090  3473               	retlw	115	;'s'
   843     1091  340A               	retlw	10
   844     1092  3400               	retlw	0
   845                           
   846                           	psect	stringtext17
   847     1093                     __pstringtext17:
   848     1093                     STR_3:
   849     1093  3453               	retlw	83	;'S'
   850     1094  3441               	retlw	65	;'A'
   851     1095  3431               	retlw	49	;'1'
   852     1096  3400               	retlw	0
   853                           
   854                           	psect	stringtext18
   855     1097                     __pstringtext18:
   856     1097                     STR_6:
   857     1097  3453               	retlw	83	;'S'
   858     1098  3446               	retlw	70	;'F'
   859     1099  3431               	retlw	49	;'1'
   860     109A  3400               	retlw	0
   861                           
   862                           	psect	stringtext19
   863     109B                     __pstringtext19:
   864     109B                     STR_4:
   865     109B  3453               	retlw	83	;'S'
   866     109C  3441               	retlw	65	;'A'
   867     109D  3432               	retlw	50	;'2'
   868     109E  3400               	retlw	0
   869                           
   870                           	psect	stringtext20
   871     109F                     __pstringtext20:
   872     109F                     STR_7:
   873     109F  3453               	retlw	83	;'S'
   874     10A0  3446               	retlw	70	;'F'
   875     10A1  3432               	retlw	50	;'2'
   876     10A2  3400               	retlw	0
   877                           
   878                           	psect	stringtext21
   879     10A3                     __pstringtext21:
   880     10A3                     STR_5:
   881     10A3  3453               	retlw	83	;'S'
   882     10A4  3441               	retlw	65	;'A'
   883     10A5  3433               	retlw	51	;'3'
   884     10A6  3400               	retlw	0
   885                           
   886                           	psect	stringtext22
   887     10A7                     __pstringtext22:
   888     10A7                     STR_8:
   889     10A7  3453               	retlw	83	;'S'
   890     10A8  3446               	retlw	70	;'F'
   891     10A9  3433               	retlw	51	;'3'
   892     10AA  3400               	retlw	0
   893                           
   894                           	psect	stringtext23
   895     10AB                     __pstringtext23:
   896     10AB                     STR_9:
   897     10AB  3453               	retlw	83	;'S'
   898     10AC  3446               	retlw	70	;'F'
   899     10AD  3434               	retlw	52	;'4'
   900     10AE  3400               	retlw	0
   901                           
   902                           	psect	stringtext24
   903     10AF                     __pstringtext24:
   904     10AF                     STR_10:
   905     10AF  3453               	retlw	83	;'S'
   906     10B0  3446               	retlw	70	;'F'
   907     10B1  3435               	retlw	53	;'5'
   908     10B2  3400               	retlw	0
   909                           
   910                           	psect	stringtext25
   911     10B3                     __pstringtext25:
   912     10B3                     STR_11:
   913     10B3  3453               	retlw	83	;'S'
   914     10B4  3446               	retlw	70	;'F'
   915     10B5  3436               	retlw	54	;'6'
   916     10B6  3400               	retlw	0
   917                           
   918                           	psect	stringtext26
   919     10B7                     __pstringtext26:
   920     10B7                     STR_13:
   921     10B7  344C               	retlw	76	;'L'
   922     10B8  3450               	retlw	80	;'P'
   923     10B9  3445               	retlw	69	;'E'
   924     10BA  3400               	retlw	0
   925                           
   926                           	psect	stringtext27
   927     10BB                     __pstringtext27:
   928     10BB                     STR_16:
   929     10BB  344C               	retlw	76	;'L'
   930     10BC  344F               	retlw	79	;'O'
   931     10BD  3446               	retlw	70	;'F'
   932     10BE  3400               	retlw	0
   933                           
   934                           	psect	stringtext28
   935     10BF                     __pstringtext28:
   936     10BF                     STR_20:
   937     10BF  3441               	retlw	65	;'A'
   938     10C0  3449               	retlw	73	;'I'
   939     10C1  344E               	retlw	78	;'N'
   940     10C2  3400               	retlw	0
   941                           
   942                           	psect	stringtext29
   943     10C3                     __pstringtext29:
   944     10C3                     STR_19:
   945     10C3  3453               	retlw	83	;'S'
   946     10C4  3449               	retlw	73	;'I'
   947     10C5  344E               	retlw	78	;'N'
   948     10C6  3400               	retlw	0
   949                           
   950                           	psect	stringtext30
   951     10C7                     __pstringtext30:
   952     10C7                     STR_15:
   953     10C7  344C               	retlw	76	;'L'
   954     10C8  344F               	retlw	79	;'O'
   955     10C9  344E               	retlw	78	;'N'
   956     10CA  3400               	retlw	0
   957                           
   958                           	psect	stringtext31
   959     10CB                     __pstringtext31:
   960     10CB                     STR_18:
   961     10CB  3453               	retlw	83	;'S'
   962     10CC  3450               	retlw	80	;'P'
   963     10CD  344F               	retlw	79	;'O'
   964     10CE  3400               	retlw	0
   965                           
   966                           	psect	stringtext32
   967     10CF                     __pstringtext32:
   968     10CF                     STR_12:
   969     10CF  344C               	retlw	76	;'L'
   970     10D0  3445               	retlw	69	;'E'
   971     10D1  3450               	retlw	80	;'P'
   972     10D2  3400               	retlw	0
   973                           
   974                           	psect	stringtext33
   975     10D3                     __pstringtext33:
   976     10D3                     STR_14:
   977     10D3  344C               	retlw	76	;'L'
   978     10D4  3444               	retlw	68	;'D'
   979     10D5  3452               	retlw	82	;'R'
   980     10D6  3400               	retlw	0
   981                           
   982                           	psect	stringtext34
   983     10D7                     __pstringtext34:
   984     10D7                     STR_21:
   985     10D7  3456               	retlw	86	;'V'
   986     10D8  3445               	retlw	69	;'E'
   987     10D9  3452               	retlw	82	;'R'
   988     10DA  3400               	retlw	0
   989                           
   990                           	psect	stringtext35
   991     10DB                     __pstringtext35:
   992     10DB                     STR_2:
   993     10DB  344C               	retlw	76	;'L'
   994     10DC  3444               	retlw	68	;'D'
   995     10DD  3453               	retlw	83	;'S'
   996     10DE  3400               	retlw	0
   997                           
   998                           	psect	stringtext36
   999     10DF                     __pstringtext36:
  1000     10DF                     STR_17:
  1001     10DF  3450               	retlw	80	;'P'
  1002     10E0  344C               	retlw	76	;'L'
  1003     10E1  3453               	retlw	83	;'S'
  1004     10E2  3400               	retlw	0
  1005                           
  1006                           	psect	stringtext37
  1007     10E3                     __pstringtext37:
  1008     10E3                     STR_22:
  1009     10E3  342F               	retlw	47	;'/'
  1010     10E4  3400               	retlw	0
  1011                           
  1012                           	psect	stringtext38
  1013     0000                     __pstringtext38:
  1014     10B4                     STR_55          equ	STR_11+1
  1015     10B0                     STR_54          equ	STR_10+1
  1016     10AC                     STR_53          equ	STR_9+1
  1017     10A8                     STR_52          equ	STR_8+1
  1018     10A0                     STR_51          equ	STR_7+1
  1019     109C                     STR_49          equ	STR_4+1
  1020     1098                     STR_50          equ	STR_6+1
  1021     1094                     STR_48          equ	STR_3+1
  1022     10E3                     STR_23          equ	STR_22
  1023     10E3                     STR_26          equ	STR_22
  1024     10E3                     STR_29          equ	STR_22
  1025     10E3                     STR_30          equ	STR_22
  1026     10E3                     STR_32          equ	STR_22
  1027     10E3                     STR_33          equ	STR_22
  1028     10E3                     STR_35          equ	STR_22
  1029     10E3                     STR_36          equ	STR_22
  1030     10E3                     STR_38          equ	STR_22
  1031     10E3                     STR_39          equ	STR_22
  1032     10E3                     STR_41          equ	STR_22
  1033     10E3                     STR_42          equ	STR_22
  1034     10E3                     STR_44          equ	STR_22
  1035     10E3                     STR_45          equ	STR_22
  1036     10E3                     STR_47          equ	STR_22
  1037     10E3                     STR_57          equ	STR_22
  1038                           
  1039                           	psect	cinit
  1040     07EB                     start_initialization:	
  1041                           ; #config settings
  1042                           
  1043     07EB                     __initialization:	;BIGRAM
  1044                           
  1045                           ; Clear objects allocated to BIGRAM
  1046     07EB  3034               	movlw	low (0+8500)
  1047     07EC  0084               	movwf	4
  1048     07ED  3021               	movlw	high (0+8500)
  1049     07EE  0085               	movwf	5
  1050     07EF  30BC               	movlw	188
  1051     07F0  00FE               	movwf	btemp
  1052     07F1  3002               	movlw	2
  1053     07F2  00FF               	movwf	btemp+1
  1054     07F3  318A  2207  3187   	fcall	clear_ram0
  1055                           
  1056                           ; Clear objects allocated to BANK1
  1057     07F6  0021               	movlb	1	; select bank1
  1058     07F7  01C4               	clrf	__pbssBANK1& (0+127)
  1059     07F8  01C5               	clrf	(__pbssBANK1+1)& (0+127)
  1060     07F9  01C6               	clrf	(__pbssBANK1+2)& (0+127)
  1061     07FA  01C7               	clrf	(__pbssBANK1+3)& (0+127)
  1062     07FB  01C8               	clrf	(__pbssBANK1+4)& (0+127)
  1063     07FC  01C9               	clrf	(__pbssBANK1+5)& (0+127)
  1064     07FD                     end_of_initialization:	
  1065                           ;End of C runtime variable initialization code
  1066                           
  1067     07FD                     __end_of__initialization:
  1068     07FD  0020               	movlb	0
  1069     07FE  318D  2DD4         	ljmp	_main	;jump to C main() function
  1070                           
  1071                           	psect	bssBANK1
  1072     00C4                     __pbssBANK1:
  1073     00C4                     _ap2_dat:
  1074     00C4                     	ds	4
  1075     00C8                     strtok@sp:
  1076     00C8                     	ds	2
  1077                           
  1078                           	psect	clrtext
  1079     0A07                     clear_ram0:	
  1080                           ;	Called with FSR0 containing the base address, and
  1081                           ;	btemp/btemp+1 has the size to clear
  1082                           
  1083     0A07  0064               	clrwdt	;clear the watchdog before getting into this loop
  1084     0A08                     clrloop0:
  1085     0A08  0180               	clrf	0	;clear RAM location pointed to by FSR
  1086     0A09  3101               	addfsr 0,1
  1087     0A0A  3001               	movlw	1
  1088     0A0B  02FE               	subwf	btemp,f
  1089     0A0C  3000               	movlw	0
  1090     0A0D  3BFF               	subwfb	btemp+1,f
  1091     0A0E  087F               	movf	btemp+1,w
  1092     0A0F  047E               	iorwf	btemp,w
  1093     0A10  1D03               	skipz
  1094     0A11  2A08               	goto	clrloop0	;have we reached the end yet?
  1095     0A12  3400               	retlw	0	;all done for this memory range, return
  1096                           
  1097                           	psect	cstackBANK1
  1098     00A0                     __pcstackBANK1:
  1099     00A0                     main@num_ap1:
  1100                           
  1101                           ; 2 bytes @ 0x0
  1102     00A0                     	ds	2
  1103     00A2                     main@num_ap2:
  1104                           
  1105                           ; 2 bytes @ 0x2
  1106     00A2                     	ds	2
  1107     00A4                     main@max_v:
  1108                           
  1109                           ; 2 bytes @ 0x4
  1110     00A4                     	ds	2
  1111     00A6                     main@i:
  1112                           
  1113                           ; 2 bytes @ 0x6
  1114     00A6                     	ds	2
  1115     00A8                     main@i_206:
  1116                           
  1117                           ; 2 bytes @ 0x8
  1118     00A8                     	ds	2
  1119     00AA                     main@k:
  1120                           
  1121                           ; 2 bytes @ 0xA
  1122     00AA                     	ds	2
  1123     00AC                     main@i_232:
  1124                           
  1125                           ; 2 bytes @ 0xC
  1126     00AC                     	ds	2
  1127     00AE                     main@i_234:
  1128                           
  1129                           ; 2 bytes @ 0xE
  1130     00AE                     	ds	2
  1131     00B0                     main@k_254:
  1132                           
  1133                           ; 2 bytes @ 0x10
  1134     00B0                     	ds	2
  1135     00B2                     main@i_255:
  1136                           
  1137                           ; 2 bytes @ 0x12
  1138     00B2                     	ds	2
  1139     00B4                     main@i_256:
  1140                           
  1141                           ; 2 bytes @ 0x14
  1142     00B4                     	ds	2
  1143     00B6                     main@k_262:
  1144                           
  1145                           ; 2 bytes @ 0x16
  1146     00B6                     	ds	2
  1147     00B8                     main@v_cnt:
  1148                           
  1149                           ; 2 bytes @ 0x18
  1150     00B8                     	ds	2
  1151     00BA                     main@i_207:
  1152                           
  1153                           ; 2 bytes @ 0x1A
  1154     00BA                     	ds	2
  1155     00BC                     main@i_201:
  1156                           
  1157                           ; 2 bytes @ 0x1C
  1158     00BC                     	ds	2
  1159     00BE                     main@rcmd:
  1160                           
  1161                           ; 4 bytes @ 0x1E
  1162     00BE                     	ds	4
  1163     00C2                     main@ptr:
  1164                           
  1165                           ; 2 bytes @ 0x22
  1166     00C2                     	ds	2
  1167                           
  1168                           	psect	cstackCOMMON
  1169     0070                     __pcstackCOMMON:
  1170     0070                     ?_isdigit:
  1171     0070                     ?_PICinit:	
  1172                           ; 1 bit 
  1173                           
  1174     0070                     ?_main:	
  1175                           ; 1 bytes @ 0x0
  1176                           
  1177     0070                     ?_putch:	
  1178                           ; 1 bytes @ 0x0
  1179                           
  1180     0070                     ?_getch:	
  1181                           ; 1 bytes @ 0x0
  1182                           
  1183     0070                     ?_getche:	
  1184                           ; 1 bytes @ 0x0
  1185                           
  1186     0070                     ?_strcmp:	
  1187                           ; 1 bytes @ 0x0
  1188                           
  1189     0070                     ?_strchr:	
  1190                           ; 2 bytes @ 0x0
  1191                           
  1192     0070                     ?_AD_convert:	
  1193                           ; 2 bytes @ 0x0
  1194                           
  1195     0070                     ?___wmul:	
  1196                           ; 2 bytes @ 0x0
  1197                           
  1198     0070                     ?___lwdiv:	
  1199                           ; 2 bytes @ 0x0
  1200                           
  1201     0070                     ?___lldiv:	
  1202                           ; 2 bytes @ 0x0
  1203                           
  1204     0070                     AD_convert@channel:	
  1205                           ; 4 bytes @ 0x0
  1206                           
  1207     0070                     putch@byte:	
  1208                           ; 1 bytes @ 0x0
  1209                           
  1210     0070                     _isdigit$645:	
  1211                           ; 1 bytes @ 0x0
  1212                           
  1213     0070                     ___wmul@multiplier:	
  1214                           ; 1 bytes @ 0x0
  1215                           
  1216     0070                     ___lwdiv@divisor:	
  1217                           ; 2 bytes @ 0x0
  1218                           
  1219     0070                     strcmp@s1:	
  1220                           ; 2 bytes @ 0x0
  1221                           
  1222     0070                     strchr@ptr:	
  1223                           ; 2 bytes @ 0x0
  1224                           
  1225     0070                     ___lldiv@divisor:	
  1226                           ; 2 bytes @ 0x0
  1227                           
  1228     0070                     ??_isdigit:	
  1229                           ; 4 bytes @ 0x0
  1230                           
  1231     0070                     ??_PICinit:	
  1232                           ; 1 bytes @ 0x0
  1233                           
  1234     0070                     ??_putch:	
  1235                           ; 1 bytes @ 0x0
  1236                           
  1237     0070                     ??_getch:	
  1238                           ; 1 bytes @ 0x0
  1239                           
  1240                           
  1241                           ; 1 bytes @ 0x0
  1242     0070                     	ds	1
  1243     0071                     getche@c:
  1244     0071                     isdigit@c:	
  1245                           ; 1 bytes @ 0x1
  1246                           
  1247     0071                     ??_getche:	
  1248                           ; 1 bytes @ 0x1
  1249                           
  1250                           
  1251                           ; 1 bytes @ 0x1
  1252     0071                     	ds	1
  1253     0072                     ?_cgets:
  1254     0072                     ___wmul@multiplicand:	
  1255                           ; 2 bytes @ 0x2
  1256                           
  1257     0072                     ___lwdiv@dividend:	
  1258                           ; 2 bytes @ 0x2
  1259                           
  1260     0072                     cgets@s:	
  1261                           ; 2 bytes @ 0x2
  1262                           
  1263     0072                     strcmp@s2:	
  1264                           ; 2 bytes @ 0x2
  1265                           
  1266     0072                     strchr@chr:	
  1267                           ; 2 bytes @ 0x2
  1268                           
  1269     0072                     ??_AD_convert:	
  1270                           ; 2 bytes @ 0x2
  1271                           
  1272                           
  1273                           ; 1 bytes @ 0x2
  1274     0072                     	ds	2
  1275     0074                     strcmp@r:
  1276     0074                     ___wmul@product:	
  1277                           ; 1 bytes @ 0x4
  1278                           
  1279     0074                     ___lwdiv@quotient:	
  1280                           ; 2 bytes @ 0x4
  1281                           
  1282     0074                     ___lldiv@dividend:	
  1283                           ; 2 bytes @ 0x4
  1284                           
  1285     0074                     ??_strcmp:	
  1286                           ; 4 bytes @ 0x4
  1287                           
  1288     0074                     ??_cgets:	
  1289                           ; 1 bytes @ 0x4
  1290                           
  1291     0074                     ??_strchr:	
  1292                           ; 1 bytes @ 0x4
  1293                           
  1294     0074                     ??___wmul:	
  1295                           ; 1 bytes @ 0x4
  1296                           
  1297     0074                     ??___lwdiv:	
  1298                           ; 1 bytes @ 0x4
  1299                           
  1300                           
  1301                           ; 1 bytes @ 0x4
  1302     0074                     	ds	2
  1303     0076                     ?_atoi:
  1304     0076                     ___lwdiv@counter:	
  1305                           ; 2 bytes @ 0x6
  1306                           
  1307     0076                     atoi@s:	
  1308                           ; 1 bytes @ 0x6
  1309                           
  1310     0076                     cgets@c:	
  1311                           ; 2 bytes @ 0x6
  1312                           
  1313                           
  1314                           ; 2 bytes @ 0x6
  1315     0076                     	ds	1
  1316     0077                     ?_strspn:
  1317     0077                     ?_strcspn:	
  1318                           ; 2 bytes @ 0x7
  1319                           
  1320     0077                     ?___lwmod:	
  1321                           ; 2 bytes @ 0x7
  1322                           
  1323     0077                     ___lwmod@divisor:	
  1324                           ; 2 bytes @ 0x7
  1325                           
  1326     0077                     strcspn@s1:	
  1327                           ; 2 bytes @ 0x7
  1328                           
  1329     0077                     strspn@s1:	
  1330                           ; 2 bytes @ 0x7
  1331                           
  1332                           
  1333                           ; 2 bytes @ 0x7
  1334     0077                     	ds	1
  1335     0078                     cgets@s1:
  1336     0078                     ___lldiv@quotient:	
  1337                           ; 2 bytes @ 0x8
  1338                           
  1339     0078                     ??_atoi:	
  1340                           ; 4 bytes @ 0x8
  1341                           
  1342     0078                     ??___lldiv:	
  1343                           ; 1 bytes @ 0x8
  1344                           
  1345                           
  1346                           ; 1 bytes @ 0x8
  1347     0078                     	ds	1
  1348     0079                     ___lwmod@dividend:
  1349     0079                     strcspn@s2:	
  1350                           ; 2 bytes @ 0x9
  1351                           
  1352     0079                     strspn@s2:	
  1353                           ; 2 bytes @ 0x9
  1354                           
  1355                           
  1356                           ; 2 bytes @ 0x9
  1357     0079                     	ds	1
  1358     007A                     ?_gets:
  1359     007A                     atoi@sign:	
  1360                           ; 2 bytes @ 0xA
  1361                           
  1362     007A                     gets@s:	
  1363                           ; 1 bytes @ 0xA
  1364                           
  1365                           
  1366                           ; 2 bytes @ 0xA
  1367     007A                     	ds	1
  1368     007B                     ___lwmod@counter:
  1369     007B                     atoi@a:	
  1370                           ; 1 bytes @ 0xB
  1371                           
  1372     007B                     ??_strspn:	
  1373                           ; 2 bytes @ 0xB
  1374                           
  1375     007B                     ??_strcspn:	
  1376                           ; 1 bytes @ 0xB
  1377                           
  1378     007B                     ??___lwmod:	
  1379                           ; 1 bytes @ 0xB
  1380                           
  1381                           
  1382                           ; 1 bytes @ 0xB
  1383     007B                     	ds	1
  1384     007C                     ___lldiv@counter:
  1385     007C                     ??_gets:	
  1386                           ; 1 bytes @ 0xC
  1387                           
  1388                           
  1389                           ; 1 bytes @ 0xC
  1390     007C                     	ds	1
  1391     007D                     ??_strtok:
  1392                           
  1393                           	psect	cstackBANK0
  1394     0020                     __pcstackBANK0:	
  1395                           ; 1 bytes @ 0xD
  1396                           
  1397     0020                     ?_serial_init:
  1398     0020                     ?_printf:	
  1399                           ; 1 bytes @ 0x0
  1400                           
  1401     0020                     printf@f:	
  1402                           ; 2 bytes @ 0x0
  1403                           
  1404     0020                     strcspn@i:	
  1405                           ; 2 bytes @ 0x0
  1406                           
  1407     0020                     strspn@i:	
  1408                           ; 2 bytes @ 0x0
  1409                           
  1410     0020                     serial_init@BR:	
  1411                           ; 2 bytes @ 0x0
  1412                           
  1413                           
  1414                           ; 4 bytes @ 0x0
  1415     0020                     	ds	2
  1416     0022                     ?_strtok:
  1417     0022                     strtok@s1:	
  1418                           ; 2 bytes @ 0x2
  1419                           
  1420                           
  1421                           ; 2 bytes @ 0x2
  1422     0022                     	ds	2
  1423     0024                     strtok@s2:
  1424     0024                     ??_printf:	
  1425                           ; 2 bytes @ 0x4
  1426                           
  1427     0024                     ??_serial_init:	
  1428                           ; 1 bytes @ 0x4
  1429                           
  1430                           
  1431                           ; 1 bytes @ 0x4
  1432     0024                     	ds	4
  1433     0028                     printf@prec:
  1434     0028                     serial_init@X:	
  1435                           ; 1 bytes @ 0x8
  1436                           
  1437                           
  1438                           ; 2 bytes @ 0x8
  1439     0028                     	ds	1
  1440     0029                     printf@flag:
  1441                           
  1442                           ; 1 bytes @ 0x9
  1443     0029                     	ds	1
  1444     002A                     printf@cp:
  1445                           
  1446                           ; 2 bytes @ 0xA
  1447     002A                     	ds	2
  1448     002C                     printf@ap:
  1449                           
  1450                           ; 2 bytes @ 0xC
  1451     002C                     	ds	2
  1452     002E                     printf@val:
  1453                           
  1454                           ; 2 bytes @ 0xE
  1455     002E                     	ds	2
  1456     0030                     printf@c:
  1457                           
  1458                           ; 1 bytes @ 0x10
  1459     0030                     	ds	1
  1460     0031                     ??_main:
  1461                           
  1462                           ; 1 bytes @ 0x11
  1463     0031                     	ds	4
  1464     0035                     main@num_ap1_cnt:
  1465                           
  1466                           ; 2 bytes @ 0x15
  1467     0035                     	ds	2
  1468     0037                     main@num_ap2_cnt:
  1469                           
  1470                           ; 2 bytes @ 0x17
  1471     0037                     	ds	2
  1472     0039                     main@val:
  1473                           
  1474                           ; 2 bytes @ 0x19
  1475     0039                     	ds	2
  1476     003B                     main@i_236:
  1477                           
  1478                           ; 2 bytes @ 0x1B
  1479     003B                     	ds	2
  1480     003D                     main@i_238:
  1481                           
  1482                           ; 2 bytes @ 0x1D
  1483     003D                     	ds	2
  1484     003F                     main@i_240:
  1485                           
  1486                           ; 2 bytes @ 0x1F
  1487     003F                     	ds	2
  1488     0041                     main@i_242:
  1489                           
  1490                           ; 2 bytes @ 0x21
  1491     0041                     	ds	2
  1492     0043                     main@i_244:
  1493                           
  1494                           ; 2 bytes @ 0x23
  1495     0043                     	ds	2
  1496     0045                     main@i_246:
  1497                           
  1498                           ; 2 bytes @ 0x25
  1499     0045                     	ds	2
  1500     0047                     main@i_248:
  1501                           
  1502                           ; 2 bytes @ 0x27
  1503     0047                     	ds	2
  1504     0049                     main@i_249:
  1505                           
  1506                           ; 2 bytes @ 0x29
  1507     0049                     	ds	2
  1508     004B                     main@i_250:
  1509                           
  1510                           ; 2 bytes @ 0x2B
  1511     004B                     	ds	2
  1512     004D                     main@i_251:
  1513                           
  1514                           ; 2 bytes @ 0x2D
  1515     004D                     	ds	2
  1516     004F                     main@i_252:
  1517                           
  1518                           ; 2 bytes @ 0x2F
  1519     004F                     	ds	2
  1520     0051                     main@i_253:
  1521                           
  1522                           ; 2 bytes @ 0x31
  1523     0051                     	ds	2
  1524     0053                     main@k_259:
  1525                           
  1526                           ; 2 bytes @ 0x33
  1527     0053                     	ds	2
  1528     0055                     main@k_260:
  1529                           
  1530                           ; 2 bytes @ 0x35
  1531     0055                     	ds	2
  1532     0057                     main@fp1_time:
  1533                           
  1534                           ; 2 bytes @ 0x37
  1535     0057                     	ds	2
  1536     0059                     main@fp1_amp:
  1537                           
  1538                           ; 2 bytes @ 0x39
  1539     0059                     	ds	2
  1540     005B                     main@fp2_time:
  1541                           
  1542                           ; 2 bytes @ 0x3B
  1543     005B                     	ds	2
  1544     005D                     main@fp2_amp:
  1545                           
  1546                           ; 2 bytes @ 0x3D
  1547     005D                     	ds	2
  1548     005F                     main@fp3_time:
  1549                           
  1550                           ; 2 bytes @ 0x3F
  1551     005F                     	ds	2
  1552     0061                     main@fp3_amp:
  1553                           
  1554                           ; 2 bytes @ 0x41
  1555     0061                     	ds	2
  1556     0063                     main@fp4_time:
  1557                           
  1558                           ; 2 bytes @ 0x43
  1559     0063                     	ds	2
  1560     0065                     main@fp4_amp:
  1561                           
  1562                           ; 2 bytes @ 0x45
  1563     0065                     	ds	2
  1564     0067                     main@fp5_time:
  1565                           
  1566                           ; 2 bytes @ 0x47
  1567     0067                     	ds	2
  1568     0069                     main@fp5_amp:
  1569                           
  1570                           ; 2 bytes @ 0x49
  1571     0069                     	ds	2
  1572     006B                     main@fp6_time:
  1573                           
  1574                           ; 2 bytes @ 0x4B
  1575     006B                     	ds	2
  1576     006D                     main@fp6_amp:
  1577                           
  1578                           ; 2 bytes @ 0x4D
  1579     006D                     	ds	2
  1580     006F                     main@cmd:
  1581                           
  1582                           ; 1 bytes @ 0x4F
  1583     006F                     	ds	1
  1584                           
  1585                           	psect	maintext
  1586     0DD4                     __pmaintext:	
  1587 ;;
  1588 ;;Main: autosize = 0, tempsize = 4, incstack = 0, save=0
  1589 ;;
  1590 ;; *************** function _main *****************
  1591 ;; Defined at:
  1592 ;;		line 118 in file "main.c"
  1593 ;; Parameters:    Size  Location     Type
  1594 ;;		None
  1595 ;; Auto vars:     Size  Location     Type
  1596 ;;  i               2   37[BANK0 ] int 
  1597 ;;  i               2   35[BANK0 ] int 
  1598 ;;  i               2   33[BANK0 ] int 
  1599 ;;  i               2   31[BANK0 ] int 
  1600 ;;  i               2   29[BANK0 ] int 
  1601 ;;  i               2   27[BANK0 ] int 
  1602 ;;  i               2   14[BANK1 ] int 
  1603 ;;  i               2   12[BANK1 ] int 
  1604 ;;  i               2   20[BANK1 ] int 
  1605 ;;  i               2   18[BANK1 ] int 
  1606 ;;  k               2   22[BANK1 ] int 
  1607 ;;  k               2   53[BANK0 ] int 
  1608 ;;  k               2   51[BANK0 ] int 
  1609 ;;  k               2   16[BANK1 ] int 
  1610 ;;  i               2   49[BANK0 ] int 
  1611 ;;  i               2   47[BANK0 ] int 
  1612 ;;  i               2   45[BANK0 ] int 
  1613 ;;  i               2   43[BANK0 ] int 
  1614 ;;  i               2   41[BANK0 ] int 
  1615 ;;  i               2   39[BANK0 ] int 
  1616 ;;  k               2   10[BANK1 ] int 
  1617 ;;  i               2   26[BANK1 ] int 
  1618 ;;  i               2    8[BANK1 ] int 
  1619 ;;  i               2   28[BANK1 ] int 
  1620 ;;  i               2    6[BANK1 ] int 
  1621 ;;  v_cnt           2   24[BANK1 ] int 
  1622 ;;  cmd             1   79[BANK0 ] enum E4276
  1623 ;;  rcmd            4   30[BANK1 ] unsigned char [4]
  1624 ;;  ptr             2   34[BANK1 ] PTR unsigned char 
  1625 ;;		 -> NULL(0), main@tmp(300), 
  1626 ;;  max_v           2    4[BANK1 ] int 
  1627 ;;  num_ap2         2    2[BANK1 ] int 
  1628 ;;  num_ap1         2    0[BANK1 ] int 
  1629 ;;  fp6_amp         2   77[BANK0 ] int 
  1630 ;;  fp6_time        2   75[BANK0 ] int 
  1631 ;;  fp5_amp         2   73[BANK0 ] int 
  1632 ;;  fp5_time        2   71[BANK0 ] int 
  1633 ;;  fp4_amp         2   69[BANK0 ] int 
  1634 ;;  fp4_time        2   67[BANK0 ] int 
  1635 ;;  fp3_amp         2   65[BANK0 ] int 
  1636 ;;  fp3_time        2   63[BANK0 ] int 
  1637 ;;  fp2_amp         2   61[BANK0 ] int 
  1638 ;;  fp2_time        2   59[BANK0 ] int 
  1639 ;;  fp1_amp         2   57[BANK0 ] int 
  1640 ;;  fp1_time        2   55[BANK0 ] int 
  1641 ;;  val             2   25[BANK0 ] unsigned int 
  1642 ;;  num_ap2_cnt     2   23[BANK0 ] int 
  1643 ;;  num_ap1_cnt     2   21[BANK0 ] int 
  1644 ;; Return value:  Size  Location     Type
  1645 ;;                  1    wreg      void 
  1646 ;; Registers used:
  1647 ;;		wreg, fsr0l, fsr0h, fsr1l, fsr1h, status,2, status,0, pclath, cstack
  1648 ;; Tracked objects:
  1649 ;;		On entry : B1F/0
  1650 ;;		On exit  : 0/0
  1651 ;;		Unchanged: 0/0
  1652 ;; Data sizes:     COMMON   BANK0   BANK1   BANK2   BANK3   BANK4   BANK5   BANK6   BANK7   BANK8   BANK9  BANK10  BANK1
      +1  BANK12
  1653 ;;      Params:         0       0       0       0       0       0       0       0       0       0       0       0       
      +0       0
  1654 ;;      Locals:         0      59      36       0       0       0       0       0       0       0       0       0       
      +0       0
  1655 ;;      Temps:          0       4       0       0       0       0       0       0       0       0       0       0       
      +0       0
  1656 ;;      Totals:         0      63      36       0       0       0       0       0       0       0       0       0       
      +0       0
  1657 ;;Total ram usage:       99 bytes
  1658 ;; Hardware stack levels required when called: 4
  1659 ;; This function calls:
  1660 ;;		_AD_convert
  1661 ;;		_PICinit
  1662 ;;		_atoi
  1663 ;;		_gets
  1664 ;;		_printf
  1665 ;;		_serial_init
  1666 ;;		_strcmp
  1667 ;;		_strtok
  1668 ;; This function is called by:
  1669 ;;		Startup code after reset
  1670 ;; This function uses a non-reentrant model
  1671 ;;
  1672                           
  1673     0DD4                     _main:	
  1674                           ;psect for function _main
  1675                           
  1676     0DD4                     l2188:	
  1677                           ;incstack = 0
  1678                           ; Regs used in _main: [wreg-fsr1h+status,2+status,0+pclath+cstack]
  1679                           
  1680                           
  1681                           ;main.c: 120: static char tmp[300];;main.c: 121: char rcmd[4];;main.c: 122: int fp1_time
      +                          ;;main.c: 123: int fp1_amp;;main.c: 124: int fp2_time;;main.c: 125: int fp2_amp;;main.c:
      +                           126: int fp3_time;;main.c: 127: int fp3_amp;;main.c: 128: int fp4_time;;main.c: 129: in
      +                          t fp4_amp;;main.c: 130: int fp5_time;;main.c: 131: int fp5_amp;;main.c: 132: int fp6_tim
      +                          e;;main.c: 133: int fp6_amp;;main.c: 135: int num_ap1 = 300;
  1682     0DD4  302C               	movlw	44
  1683     0DD5  0021               	movlb	1	; select bank1
  1684     0DD6  00A0               	movwf	main@num_ap1^(0+128)
  1685     0DD7  3001               	movlw	1
  1686     0DD8  00A1               	movwf	(main@num_ap1^(0+128)+1)
  1687                           
  1688                           ;main.c: 136: int num_ap2 = 20;
  1689     0DD9  3014               	movlw	20
  1690     0DDA  00A2               	movwf	main@num_ap2^(0+128)
  1691     0DDB  3000               	movlw	0
  1692     0DDC  00A3               	movwf	(main@num_ap2^(0+128)+1)
  1693     0DDD                     l2190:
  1694                           
  1695                           ;main.c: 137: int num_ap1_cnt = 0;
  1696     0DDD  0020               	movlb	0	; select bank0
  1697     0DDE  01B5               	clrf	main@num_ap1_cnt
  1698     0DDF  01B6               	clrf	main@num_ap1_cnt+1
  1699     0DE0                     l2192:
  1700                           
  1701                           ;main.c: 138: int num_ap2_cnt = 0;
  1702     0DE0  01B7               	clrf	main@num_ap2_cnt
  1703     0DE1  01B8               	clrf	main@num_ap2_cnt+1
  1704     0DE2                     l2194:
  1705                           
  1706                           ;main.c: 140: int max_v;;main.c: 142: unsigned int val;;main.c: 144: char *ptr;;main.c: 
      +                          146: PICinit();
  1707     0DE2  318A  2225  318D   	fcall	_PICinit
  1708     0DE5                     l2196:
  1709                           
  1710                           ;main.c: 149: RA0PPS = 0x14;
  1711     0DE5  3014               	movlw	20
  1712     0DE6  003D               	movlb	29	; select bank29
  1713     0DE7  0090               	movwf	16	;volatile
  1714     0DE8                     l2198:
  1715                           
  1716                           ;main.c: 150: RXPPS = 0x01;
  1717     0DE8  3001               	movlw	1
  1718     0DE9  003C               	movlb	28	; select bank28
  1719     0DEA  00A4               	movwf	36	;volatile
  1720                           
  1721                           ;main.c: 152: serial_init(9600);
  1722     0DEB  3000               	movlw	0
  1723     0DEC  0020               	movlb	0	; select bank0
  1724     0DED  00A3               	movwf	serial_init@BR+3
  1725     0DEE  3000               	movlw	0
  1726     0DEF  00A2               	movwf	serial_init@BR+2
  1727     0DF0  3025               	movlw	37
  1728     0DF1  00A1               	movwf	serial_init@BR+1
  1729     0DF2  3080               	movlw	128
  1730     0DF3  00A0               	movwf	serial_init@BR
  1731     0DF4  318B  2341  318D   	fcall	_serial_init
  1732     0DF7                     l2200:
  1733                           
  1734                           ;main.c: 156: DAC1CON1 = 0 ;
  1735     0DF7  0022               	movlb	2	; select bank2
  1736     0DF8  0199               	clrf	25	;volatile
  1737     0DF9                     l2202:
  1738                           
  1739                           ;main.c: 158: rcmd[0] = 'Q';
  1740     0DF9  3051               	movlw	81
  1741     0DFA  0021               	movlb	1	; select bank1
  1742     0DFB  00BE               	movwf	main@rcmd^(0+128)
  1743     0DFC                     l2204:
  1744                           
  1745                           ;main.c: 159: rcmd[1] = 'Q';
  1746     0DFC  3051               	movlw	81
  1747     0DFD  00BF               	movwf	(main@rcmd^(0+128)+1)
  1748     0DFE                     l2206:
  1749                           
  1750                           ;main.c: 160: rcmd[2] = 'Q';
  1751     0DFE  3051               	movlw	81
  1752     0DFF  00C0               	movwf	(main@rcmd^(0+128)+2)
  1753     0E00                     l2208:
  1754                           
  1755                           ;main.c: 161: rcmd[3] = '\0';
  1756     0E00  01C1               	clrf	(main@rcmd^(0+128)+3)
  1757     0E01                     l2210:
  1758                           
  1759                           ;main.c: 163: tmp[0] = 'Q';
  1760     0E01  30C4               	movlw	196
  1761     0E02  0086               	movwf	6
  1762     0E03  3022               	movlw	34
  1763     0E04  0087               	movwf	7
  1764     0E05  3051               	movlw	81
  1765     0E06  3FC0               	movwi [0]fsr1
  1766     0E07                     l2212:
  1767                           
  1768                           ;main.c: 164: tmp[1] = 'Q';
  1769     0E07  30C4               	movlw	196
  1770     0E08  0086               	movwf	6
  1771     0E09  3022               	movlw	34
  1772     0E0A  0087               	movwf	7
  1773     0E0B  3141               	addfsr 1,1
  1774     0E0C  3051               	movlw	81
  1775     0E0D  0081               	movwf	1
  1776     0E0E                     l2214:
  1777                           
  1778                           ;main.c: 165: tmp[2] = 'Q';
  1779     0E0E  30C4               	movlw	196
  1780     0E0F  0086               	movwf	6
  1781     0E10  3022               	movlw	34
  1782     0E11  0087               	movwf	7
  1783     0E12  3142               	addfsr 1,2
  1784     0E13  3051               	movlw	81
  1785     0E14  0081               	movwf	1
  1786     0E15                     l2216:
  1787                           
  1788                           ;main.c: 166: tmp[3] = '\0';
  1789     0E15  30C4               	movlw	196
  1790     0E16  0086               	movwf	6
  1791     0E17  3022               	movlw	34
  1792     0E18  0087               	movwf	7
  1793     0E19  3143               	addfsr 1,3
  1794     0E1A  0181               	clrf	1
  1795     0E1B                     l2218:
  1796                           
  1797                           ;main.c: 168: gets(tmp);
  1798     0E1B  30C4               	movlw	196
  1799     0E1C  00FA               	movwf	gets@s
  1800     0E1D  3022               	movlw	34
  1801     0E1E  00FB               	movwf	gets@s+1
  1802     0E1F  3189  21EB  318D   	fcall	_gets
  1803     0E22                     l2220:
  1804                           
  1805                           ;main.c: 169: printf("%s\n", tmp);
  1806     0E22  308F               	movlw	low (STR_1| (0+32768))
  1807     0E23  0020               	movlb	0	; select bank0
  1808     0E24  00A0               	movwf	printf@f
  1809     0E25  3090               	movlw	high (STR_1| (0+32768))
  1810     0E26  00A1               	movwf	printf@f+1
  1811     0E27  30C4               	movlw	196
  1812     0E28  00A2               	movwf	low ((?_printf| 0+2))
  1813     0E29  3022               	movlw	34
  1814     0E2A  00A3               	movwf	(low ((?_printf| 0+2))+1)
  1815     0E2B  318C  24D3  318D   	fcall	_printf
  1816     0E2E                     l2222:
  1817                           
  1818                           ;main.c: 171: rcmd[0] = tmp[1];
  1819     0E2E  30C4               	movlw	196
  1820     0E2F  0086               	movwf	6
  1821     0E30  3022               	movlw	34
  1822     0E31  0087               	movwf	7
  1823     0E32  3141               	addfsr 1,1
  1824     0E33  0801               	movf	1,w
  1825     0E34  0021               	movlb	1	; select bank1
  1826     0E35  00BE               	movwf	main@rcmd^(0+128)
  1827     0E36                     l2224:
  1828                           
  1829                           ;main.c: 172: rcmd[1] = tmp[2];
  1830     0E36  30C4               	movlw	196
  1831     0E37  0086               	movwf	6
  1832     0E38  3022               	movlw	34
  1833     0E39  0087               	movwf	7
  1834     0E3A  3142               	addfsr 1,2
  1835     0E3B  0801               	movf	1,w
  1836     0E3C  00BF               	movwf	(main@rcmd^(0+128)+1)
  1837     0E3D                     l2226:
  1838                           
  1839                           ;main.c: 173: rcmd[2] = tmp[3];
  1840     0E3D  30C4               	movlw	196
  1841     0E3E  0086               	movwf	6
  1842     0E3F  3022               	movlw	34
  1843     0E40  0087               	movwf	7
  1844     0E41  3143               	addfsr 1,3
  1845     0E42  0801               	movf	1,w
  1846     0E43  00C0               	movwf	(main@rcmd^(0+128)+2)
  1847     0E44                     l2228:
  1848                           
  1849                           ;main.c: 174: rcmd[3] = '\0';
  1850     0E44  01C1               	clrf	(main@rcmd^(0+128)+3)
  1851     0E45                     l2230:
  1852                           
  1853                           ;main.c: 177: enum command cmd;;main.c: 181: if(strcmp(rcmd,"LDS") == 0) {
  1854     0E45  30BE               	movlw	low main@rcmd
  1855     0E46  00F0               	movwf	strcmp@s1
  1856     0E47  3000               	movlw	high main@rcmd
  1857     0E48  00F1               	movwf	strcmp@s1+1
  1858     0E49  30DB               	movlw	low (STR_2| (0+32768))
  1859     0E4A  00F2               	movwf	strcmp@s2
  1860     0E4B  3090               	movlw	high (STR_2| (0+32768))
  1861     0E4C  00F3               	movwf	strcmp@s2+1
  1862     0E4D  318A  227F  318D   	fcall	_strcmp
  1863     0E50  0870               	movf	?_strcmp,w
  1864     0E51  0471               	iorwf	?_strcmp+1,w
  1865     0E52  1D03               	btfss	3,2
  1866     0E53  2E55               	goto	u1931
  1867     0E54  2E56               	goto	u1930
  1868     0E55                     u1931:
  1869     0E55  2E5B               	goto	l2234
  1870     0E56                     u1930:
  1871     0E56                     l2232:
  1872                           
  1873                           ;main.c: 182: cmd = LDS;
  1874     0E56  300A               	movlw	10
  1875     0E57  0020               	movlb	0	; select bank0
  1876     0E58  00EF               	movwf	main@cmd
  1877     0E59                     L1:
  1878                           
  1879                           ;main.c: 183: }else if(strcmp(rcmd,"SA1") == 0){
  1880     0E59  318F  2FEA         	goto	l2310
  1881     0E5B                     l2234:
  1882     0E5B  30BE               	movlw	low main@rcmd
  1883     0E5C  00F0               	movwf	strcmp@s1
  1884     0E5D  3000               	movlw	high main@rcmd
  1885     0E5E  00F1               	movwf	strcmp@s1+1
  1886     0E5F  3093               	movlw	low (STR_3| (0+32768))
  1887     0E60  00F2               	movwf	strcmp@s2
  1888     0E61  3090               	movlw	high (STR_3| (0+32768))
  1889     0E62  00F3               	movwf	strcmp@s2+1
  1890     0E63  318A  227F  318D   	fcall	_strcmp
  1891     0E66  0870               	movf	?_strcmp,w
  1892     0E67  0471               	iorwf	?_strcmp+1,w
  1893     0E68  1D03               	btfss	3,2
  1894     0E69  2E6B               	goto	u1941
  1895     0E6A  2E6C               	goto	u1940
  1896     0E6B                     u1941:
  1897     0E6B  2E6F               	goto	l2238
  1898     0E6C                     u1940:
  1899     0E6C                     l2236:
  1900                           
  1901                           ;main.c: 184: cmd = SA1;
  1902     0E6C  0020               	movlb	0	; select bank0
  1903     0E6D  01EF               	clrf	main@cmd
  1904                           
  1905                           ;main.c: 185: }else if(strcmp(rcmd,"SA2") == 0){
  1906     0E6E  2E59               	goto	L1
  1907     0E6F                     l2238:
  1908     0E6F  30BE               	movlw	low main@rcmd
  1909     0E70  00F0               	movwf	strcmp@s1
  1910     0E71  3000               	movlw	high main@rcmd
  1911     0E72  00F1               	movwf	strcmp@s1+1
  1912     0E73  309B               	movlw	low (STR_4| (0+32768))
  1913     0E74  00F2               	movwf	strcmp@s2
  1914     0E75  3090               	movlw	high (STR_4| (0+32768))
  1915     0E76  00F3               	movwf	strcmp@s2+1
  1916     0E77  318A  227F  318D   	fcall	_strcmp
  1917     0E7A  0870               	movf	?_strcmp,w
  1918     0E7B  0471               	iorwf	?_strcmp+1,w
  1919     0E7C  1D03               	btfss	3,2
  1920     0E7D  2E7F               	goto	u1951
  1921     0E7E  2E80               	goto	u1950
  1922     0E7F                     u1951:
  1923     0E7F  2E84               	goto	l2242
  1924     0E80                     u1950:
  1925     0E80                     l2240:
  1926                           
  1927                           ;main.c: 186: cmd = SA2;
  1928     0E80  3001               	movlw	1
  1929     0E81  0020               	movlb	0	; select bank0
  1930     0E82  00EF               	movwf	main@cmd
  1931                           
  1932                           ;main.c: 187: }else if(strcmp(rcmd,"SA3") == 0){
  1933     0E83  2E59               	goto	L1
  1934     0E84                     l2242:
  1935     0E84  30BE               	movlw	low main@rcmd
  1936     0E85  00F0               	movwf	strcmp@s1
  1937     0E86  3000               	movlw	high main@rcmd
  1938     0E87  00F1               	movwf	strcmp@s1+1
  1939     0E88  30A3               	movlw	low (STR_5| (0+32768))
  1940     0E89  00F2               	movwf	strcmp@s2
  1941     0E8A  3090               	movlw	high (STR_5| (0+32768))
  1942     0E8B  00F3               	movwf	strcmp@s2+1
  1943     0E8C  318A  227F  318D   	fcall	_strcmp
  1944     0E8F  0870               	movf	?_strcmp,w
  1945     0E90  0471               	iorwf	?_strcmp+1,w
  1946     0E91  1D03               	btfss	3,2
  1947     0E92  2E94               	goto	u1961
  1948     0E93  2E95               	goto	u1960
  1949     0E94                     u1961:
  1950     0E94  2E99               	goto	l2246
  1951     0E95                     u1960:
  1952     0E95                     l2244:
  1953                           
  1954                           ;main.c: 188: cmd = SA3;
  1955     0E95  3002               	movlw	2
  1956     0E96  0020               	movlb	0	; select bank0
  1957     0E97  00EF               	movwf	main@cmd
  1958                           
  1959                           ;main.c: 189: }else if(strcmp(rcmd,"SF1") == 0){
  1960     0E98  2E59               	goto	L1
  1961     0E99                     l2246:
  1962     0E99  30BE               	movlw	low main@rcmd
  1963     0E9A  00F0               	movwf	strcmp@s1
  1964     0E9B  3000               	movlw	high main@rcmd
  1965     0E9C  00F1               	movwf	strcmp@s1+1
  1966     0E9D  3097               	movlw	low (STR_6| (0+32768))
  1967     0E9E  00F2               	movwf	strcmp@s2
  1968     0E9F  3090               	movlw	high (STR_6| (0+32768))
  1969     0EA0  00F3               	movwf	strcmp@s2+1
  1970     0EA1  318A  227F  318D   	fcall	_strcmp
  1971     0EA4  0870               	movf	?_strcmp,w
  1972     0EA5  0471               	iorwf	?_strcmp+1,w
  1973     0EA6  1D03               	btfss	3,2
  1974     0EA7  2EA9               	goto	u1971
  1975     0EA8  2EAA               	goto	u1970
  1976     0EA9                     u1971:
  1977     0EA9  2EAE               	goto	l2250
  1978     0EAA                     u1970:
  1979     0EAA                     l2248:
  1980                           
  1981                           ;main.c: 190: cmd = SF1;
  1982     0EAA  3003               	movlw	3
  1983     0EAB  0020               	movlb	0	; select bank0
  1984     0EAC  00EF               	movwf	main@cmd
  1985                           
  1986                           ;main.c: 191: }else if(strcmp(rcmd,"SF2") == 0){
  1987     0EAD  2E59               	goto	L1
  1988     0EAE                     l2250:
  1989     0EAE  30BE               	movlw	low main@rcmd
  1990     0EAF  00F0               	movwf	strcmp@s1
  1991     0EB0  3000               	movlw	high main@rcmd
  1992     0EB1  00F1               	movwf	strcmp@s1+1
  1993     0EB2  309F               	movlw	low (STR_7| (0+32768))
  1994     0EB3  00F2               	movwf	strcmp@s2
  1995     0EB4  3090               	movlw	high (STR_7| (0+32768))
  1996     0EB5  00F3               	movwf	strcmp@s2+1
  1997     0EB6  318A  227F  318D   	fcall	_strcmp
  1998     0EB9  0870               	movf	?_strcmp,w
  1999     0EBA  0471               	iorwf	?_strcmp+1,w
  2000     0EBB  1D03               	btfss	3,2
  2001     0EBC  2EBE               	goto	u1981
  2002     0EBD  2EBF               	goto	u1980
  2003     0EBE                     u1981:
  2004     0EBE  2EC3               	goto	l2254
  2005     0EBF                     u1980:
  2006     0EBF                     l2252:
  2007                           
  2008                           ;main.c: 192: cmd = SF2;
  2009     0EBF  3004               	movlw	4
  2010     0EC0  0020               	movlb	0	; select bank0
  2011     0EC1  00EF               	movwf	main@cmd
  2012                           
  2013                           ;main.c: 193: }else if(strcmp(rcmd,"SF3") == 0){
  2014     0EC2  2E59               	goto	L1
  2015     0EC3                     l2254:
  2016     0EC3  30BE               	movlw	low main@rcmd
  2017     0EC4  00F0               	movwf	strcmp@s1
  2018     0EC5  3000               	movlw	high main@rcmd
  2019     0EC6  00F1               	movwf	strcmp@s1+1
  2020     0EC7  30A7               	movlw	low (STR_8| (0+32768))
  2021     0EC8  00F2               	movwf	strcmp@s2
  2022     0EC9  3090               	movlw	high (STR_8| (0+32768))
  2023     0ECA  00F3               	movwf	strcmp@s2+1
  2024     0ECB  318A  227F  318D   	fcall	_strcmp
  2025     0ECE  0870               	movf	?_strcmp,w
  2026     0ECF  0471               	iorwf	?_strcmp+1,w
  2027     0ED0  1D03               	btfss	3,2
  2028     0ED1  2ED3               	goto	u1991
  2029     0ED2  2ED5               	goto	u1990
  2030     0ED3                     u1991:
  2031     0ED3  318E  2ED9         	goto	l2258
  2032     0ED5                     u1990:
  2033     0ED5                     l2256:
  2034                           
  2035                           ;main.c: 194: cmd = SF3;
  2036     0ED5  3005               	movlw	5
  2037     0ED6  0020               	movlb	0	; select bank0
  2038     0ED7  00EF               	movwf	main@cmd
  2039                           
  2040                           ;main.c: 195: }else if(strcmp(rcmd,"SF4") == 0){
  2041     0ED8  2E59               	goto	L1
  2042                           
  2043                           	psect	text1
  2044     0C0B                     __ptext1:	
  2045 ;; *************** function _strtok *****************
  2046 ;; Defined at:
  2047 ;;		line 8 in file "C:\Program Files\Microchip\xc8\v2.50\pic\sources\c90\common\strtok.c"
  2048 ;; Parameters:    Size  Location     Type
  2049 ;;  s1              2    2[BANK0 ] PTR unsigned char 
  2050 ;;		 -> NULL(0), main@tmp(300), 
  2051 ;;  s2              2    4[BANK0 ] PTR const unsigned char 
  2052 ;;		 -> STR_57(2), STR_47(2), STR_45(2), STR_44(2), 
  2053 ;;		 -> STR_42(2), STR_41(2), STR_39(2), STR_38(2), 
  2054 ;;		 -> STR_36(2), STR_35(2), STR_33(2), STR_32(2), 
  2055 ;;		 -> STR_30(2), STR_29(2), STR_26(2), STR_23(2), 
  2056 ;;		 -> STR_22(2), 
  2057 ;; Auto vars:     Size  Location     Type
  2058 ;;		None
  2059 ;; Return value:  Size  Location     Type
  2060 ;;                  2    2[BANK0 ] PTR unsigned char 
  2061 ;; Registers used:
  2062 ;;		wreg, fsr0l, fsr0h, fsr1l, fsr1h, status,2, status,0, pclath, cstack
  2063 ;; Tracked objects:
  2064 ;;		On entry : 0/0
  2065 ;;		On exit  : 0/0
  2066 ;;		Unchanged: 0/0
  2067 ;; Data sizes:     COMMON   BANK0   BANK1   BANK2   BANK3   BANK4   BANK5   BANK6   BANK7   BANK8   BANK9  BANK10  BANK1
      +1  BANK12
  2068 ;;      Params:         0       4       0       0       0       0       0       0       0       0       0       0       
      +0       0
  2069 ;;      Locals:         0       0       0       0       0       0       0       0       0       0       0       0       
      +0       0
  2070 ;;      Temps:          0       0       0       0       0       0       0       0       0       0       0       0       
      +0       0
  2071 ;;      Totals:         0       4       0       0       0       0       0       0       0       0       0       0       
      +0       0
  2072 ;;Total ram usage:        4 bytes
  2073 ;; Hardware stack levels used: 1
  2074 ;; Hardware stack levels required when called: 2
  2075 ;; This function calls:
  2076 ;;		_strcspn
  2077 ;;		_strspn
  2078 ;; This function is called by:
  2079 ;;		_main
  2080 ;; This function uses a non-reentrant model
  2081 ;;
  2082                           
  2083     0C0B                     _strtok:	
  2084                           ;psect for function _strtok
  2085                           
  2086     0C0B                     l2120:	
  2087                           ;incstack = 0
  2088                           ; Regs used in _strtok: [wreg-fsr1h+status,2+status,0+pclath+cstack]
  2089                           
  2090     0C0B  0020               	movlb	0	; select bank0
  2091     0C0C  0822               	movf	strtok@s1,w
  2092     0C0D  0423               	iorwf	strtok@s1+1,w
  2093     0C0E  1D03               	btfss	3,2
  2094     0C0F  2C11               	goto	u1831
  2095     0C10  2C12               	goto	u1830
  2096     0C11                     u1831:
  2097     0C11  2C1A               	goto	l2124
  2098     0C12                     u1830:
  2099     0C12                     l2122:
  2100     0C12  0021               	movlb	1	; select bank1
  2101     0C13  0849               	movf	(strtok@sp+1)^(0+128),w
  2102     0C14  0020               	movlb	0	; select bank0
  2103     0C15  00A3               	movwf	strtok@s1+1
  2104     0C16  0021               	movlb	1	; select bank1
  2105     0C17  0848               	movf	strtok@sp^(0+128),w
  2106     0C18  0020               	movlb	0	; select bank0
  2107     0C19  00A2               	movwf	strtok@s1
  2108     0C1A                     l2124:
  2109     0C1A  0822               	movf	strtok@s1,w
  2110     0C1B  0423               	iorwf	strtok@s1+1,w
  2111     0C1C  1D03               	btfss	3,2
  2112     0C1D  2C1F               	goto	u1841
  2113     0C1E  2C20               	goto	u1840
  2114     0C1F                     u1841:
  2115     0C1F  2C23               	goto	l2130
  2116     0C20                     u1840:
  2117     0C20                     l2126:
  2118     0C20  01A2               	clrf	?_strtok
  2119     0C21  01A3               	clrf	?_strtok+1
  2120     0C22  2C6D               	goto	l893
  2121     0C23                     l2130:
  2122     0C23  0823               	movf	strtok@s1+1,w
  2123     0C24  00F8               	movwf	strspn@s1+1
  2124     0C25  0822               	movf	strtok@s1,w
  2125     0C26  00F7               	movwf	strspn@s1
  2126     0C27  0825               	movf	strtok@s2+1,w
  2127     0C28  00FA               	movwf	strspn@s2+1
  2128     0C29  0824               	movf	strtok@s2,w
  2129     0C2A  00F9               	movwf	strspn@s2
  2130     0C2B  318B  230D  318C   	fcall	_strspn
  2131     0C2E  0877               	movf	?_strspn,w
  2132     0C2F  0020               	movlb	0	; select bank0
  2133     0C30  07A2               	addwf	strtok@s1,f
  2134     0C31  0878               	movf	?_strspn+1,w
  2135     0C32  3DA3               	addwfc	strtok@s1+1,f
  2136     0C33                     l2132:
  2137     0C33  0822               	movf	strtok@s1,w
  2138     0C34  0086               	movwf	6
  2139     0C35  0823               	movf	strtok@s1+1,w
  2140     0C36  0087               	movwf	7
  2141     0C37  0801               	movf	1,w
  2142     0C38  1D03               	btfss	3,2
  2143     0C39  2C3B               	goto	u1851
  2144     0C3A  2C3C               	goto	u1850
  2145     0C3B                     u1851:
  2146     0C3B  2C43               	goto	l2138
  2147     0C3C                     u1850:
  2148     0C3C                     l2134:
  2149     0C3C  0021               	movlb	1	; select bank1
  2150     0C3D  01C8               	clrf	strtok@sp^(0+128)
  2151     0C3E  01C9               	clrf	(strtok@sp+1)^(0+128)
  2152     0C3F  0020               	movlb	0	; select bank0
  2153     0C40  01A2               	clrf	?_strtok
  2154     0C41  01A3               	clrf	?_strtok+1
  2155     0C42  2C6D               	goto	l893
  2156     0C43                     l2138:
  2157     0C43  0823               	movf	strtok@s1+1,w
  2158     0C44  00F8               	movwf	strcspn@s1+1
  2159     0C45  0822               	movf	strtok@s1,w
  2160     0C46  00F7               	movwf	strcspn@s1
  2161     0C47  0825               	movf	strtok@s2+1,w
  2162     0C48  00FA               	movwf	strcspn@s2+1
  2163     0C49  0824               	movf	strtok@s2,w
  2164     0C4A  00F9               	movwf	strcspn@s2
  2165     0C4B  318A  22D9  318C   	fcall	_strcspn
  2166     0C4E  0877               	movf	?_strcspn,w
  2167     0C4F  0020               	movlb	0	; select bank0
  2168     0C50  0722               	addwf	strtok@s1,w
  2169     0C51  0021               	movlb	1	; select bank1
  2170     0C52  00C8               	movwf	strtok@sp^(0+128)
  2171     0C53  0878               	movf	?_strcspn+1,w
  2172     0C54  0020               	movlb	0	; select bank0
  2173     0C55  3D23               	addwfc	strtok@s1+1,w
  2174     0C56  0021               	movlb	1	; select bank1
  2175     0C57  00C9               	movwf	(strtok@sp+1)^(0+128)
  2176     0C58                     l2140:
  2177     0C58  0848               	movf	strtok@sp^(0+128),w
  2178     0C59  0086               	movwf	6
  2179     0C5A  0849               	movf	(strtok@sp+1)^(0+128),w
  2180     0C5B  0087               	movwf	7
  2181     0C5C  0801               	movf	1,w
  2182     0C5D  1903               	btfsc	3,2
  2183     0C5E  2C60               	goto	u1861
  2184     0C5F  2C61               	goto	u1860
  2185     0C60                     u1861:
  2186     0C60  2C6B               	goto	l2146
  2187     0C61                     u1860:
  2188     0C61                     l2142:
  2189     0C61  0848               	movf	strtok@sp^(0+128),w
  2190     0C62  0086               	movwf	6
  2191     0C63  0849               	movf	(strtok@sp+1)^(0+128),w
  2192     0C64  0087               	movwf	7
  2193     0C65  0181               	clrf	1
  2194     0C66                     l2144:
  2195     0C66  3001               	movlw	1
  2196     0C67  07C8               	addwf	strtok@sp^(0+128),f
  2197     0C68  3000               	movlw	0
  2198     0C69  3DC9               	addwfc	(strtok@sp+1)^(0+128),f
  2199     0C6A  2C6D               	goto	l2148
  2200     0C6B                     l2146:
  2201     0C6B  01C8               	clrf	strtok@sp^(0+128)
  2202     0C6C  01C9               	clrf	(strtok@sp+1)^(0+128)
  2203     0C6D                     l2148:
  2204     0C6D                     l893:
  2205     0C6D  0008               	return
  2206     0C6E                     __end_of_strtok:
  2207                           
  2208                           	psect	text2
  2209     0B0D                     __ptext2:	
  2210 ;; *************** function _strspn *****************
  2211 ;; Defined at:
  2212 ;;		line 4 in file "C:\Program Files\Microchip\xc8\v2.50\pic\sources\c90\common\strspn.c"
  2213 ;; Parameters:    Size  Location     Type
  2214 ;;  s1              2    7[COMMON] PTR const unsigned char 
  2215 ;;		 -> NULL(0), main@tmp(300), 
  2216 ;;  s2              2    9[COMMON] PTR const unsigned char 
  2217 ;;		 -> STR_57(2), STR_47(2), STR_45(2), STR_44(2), 
  2218 ;;		 -> STR_42(2), STR_41(2), STR_39(2), STR_38(2), 
  2219 ;;		 -> STR_36(2), STR_35(2), STR_33(2), STR_32(2), 
  2220 ;;		 -> STR_30(2), STR_29(2), STR_26(2), STR_23(2), 
  2221 ;;		 -> STR_22(2), 
  2222 ;; Auto vars:     Size  Location     Type
  2223 ;;  i               2    0[BANK0 ] unsigned int 
  2224 ;; Return value:  Size  Location     Type
  2225 ;;                  2    7[COMMON] unsigned int 
  2226 ;; Registers used:
  2227 ;;		wreg, fsr0l, fsr0h, fsr1l, fsr1h, status,2, status,0, pclath, cstack
  2228 ;; Tracked objects:
  2229 ;;		On entry : 0/0
  2230 ;;		On exit  : 0/0
  2231 ;;		Unchanged: 0/0
  2232 ;; Data sizes:     COMMON   BANK0   BANK1   BANK2   BANK3   BANK4   BANK5   BANK6   BANK7   BANK8   BANK9  BANK10  BANK1
      +1  BANK12
  2233 ;;      Params:         4       0       0       0       0       0       0       0       0       0       0       0       
      +0       0
  2234 ;;      Locals:         0       2       0       0       0       0       0       0       0       0       0       0       
      +0       0
  2235 ;;      Temps:          2       0       0       0       0       0       0       0       0       0       0       0       
      +0       0
  2236 ;;      Totals:         6       2       0       0       0       0       0       0       0       0       0       0       
      +0       0
  2237 ;;Total ram usage:        8 bytes
  2238 ;; Hardware stack levels used: 1
  2239 ;; Hardware stack levels required when called: 1
  2240 ;; This function calls:
  2241 ;;		_strchr
  2242 ;; This function is called by:
  2243 ;;		_strtok
  2244 ;; This function uses a non-reentrant model
  2245 ;;
  2246                           
  2247     0B0D                     _strspn:	
  2248                           ;psect for function _strspn
  2249                           
  2250     0B0D                     l1978:	
  2251                           ;incstack = 0
  2252                           ; Regs used in _strspn: [wreg-fsr1h+status,2+status,0+pclath+cstack]
  2253                           
  2254     0B0D  0020               	movlb	0	; select bank0
  2255     0B0E  01A0               	clrf	strspn@i
  2256     0B0F  01A1               	clrf	strspn@i+1
  2257     0B10  2B1A               	goto	l1982
  2258     0B11                     l1980:
  2259     0B11  3001               	movlw	1
  2260     0B12  07F7               	addwf	strspn@s1,f
  2261     0B13  3000               	movlw	0
  2262     0B14  3DF8               	addwfc	strspn@s1+1,f
  2263     0B15  3001               	movlw	1
  2264     0B16  0020               	movlb	0	; select bank0
  2265     0B17  07A0               	addwf	strspn@i,f
  2266     0B18  3000               	movlw	0
  2267     0B19  3DA1               	addwfc	strspn@i+1,f
  2268     0B1A                     l1982:
  2269     0B1A  0877               	movf	strspn@s1,w
  2270     0B1B  0086               	movwf	6
  2271     0B1C  0878               	movf	strspn@s1+1,w
  2272     0B1D  0087               	movwf	7
  2273     0B1E  0801               	movf	1,w
  2274     0B1F  1903               	btfsc	3,2
  2275     0B20  2B22               	goto	u1651
  2276     0B21  2B23               	goto	u1650
  2277     0B22                     u1651:
  2278     0B22  2B3B               	goto	l1986
  2279     0B23                     u1650:
  2280     0B23                     l1984:
  2281     0B23  087A               	movf	strspn@s2+1,w
  2282     0B24  00F1               	movwf	strchr@ptr+1
  2283     0B25  0879               	movf	strspn@s2,w
  2284     0B26  00F0               	movwf	strchr@ptr
  2285     0B27  0877               	movf	strspn@s1,w
  2286     0B28  0086               	movwf	6
  2287     0B29  0878               	movf	strspn@s1+1,w
  2288     0B2A  0087               	movwf	7
  2289     0B2B  0801               	movf	1,w
  2290     0B2C  00FB               	movwf	??_strspn
  2291     0B2D  01FC               	clrf	??_strspn+1
  2292     0B2E  087B               	movf	??_strspn,w
  2293     0B2F  00F2               	movwf	strchr@chr
  2294     0B30  087C               	movf	??_strspn+1,w
  2295     0B31  00F3               	movwf	strchr@chr+1
  2296     0B32  318A  2242  318B   	fcall	_strchr
  2297     0B35  0870               	movf	?_strchr,w
  2298     0B36  0471               	iorwf	?_strchr+1,w
  2299     0B37  1D03               	btfss	3,2
  2300     0B38  2B3A               	goto	u1661
  2301     0B39  2B3B               	goto	u1660
  2302     0B3A                     u1661:
  2303     0B3A  2B11               	goto	l1980
  2304     0B3B                     u1660:
  2305     0B3B                     l1986:
  2306     0B3B  0020               	movlb	0	; select bank0
  2307     0B3C  0821               	movf	strspn@i+1,w
  2308     0B3D  00F8               	movwf	?_strspn+1
  2309     0B3E  0820               	movf	strspn@i,w
  2310     0B3F  00F7               	movwf	?_strspn
  2311     0B40                     l922:
  2312     0B40  0008               	return
  2313     0B41                     __end_of_strspn:
  2314                           
  2315                           	psect	text3
  2316     0AD9                     __ptext3:	
  2317 ;; *************** function _strcspn *****************
  2318 ;; Defined at:
  2319 ;;		line 4 in file "C:\Program Files\Microchip\xc8\v2.50\pic\sources\c90\common\strcspn.c"
  2320 ;; Parameters:    Size  Location     Type
  2321 ;;  s1              2    7[COMMON] PTR const unsigned char 
  2322 ;;		 -> NULL(0), main@tmp(300), 
  2323 ;;  s2              2    9[COMMON] PTR const unsigned char 
  2324 ;;		 -> STR_57(2), STR_47(2), STR_45(2), STR_44(2), 
  2325 ;;		 -> STR_42(2), STR_41(2), STR_39(2), STR_38(2), 
  2326 ;;		 -> STR_36(2), STR_35(2), STR_33(2), STR_32(2), 
  2327 ;;		 -> STR_30(2), STR_29(2), STR_26(2), STR_23(2), 
  2328 ;;		 -> STR_22(2), 
  2329 ;; Auto vars:     Size  Location     Type
  2330 ;;  i               2    0[BANK0 ] unsigned int 
  2331 ;; Return value:  Size  Location     Type
  2332 ;;                  2    7[COMMON] unsigned int 
  2333 ;; Registers used:
  2334 ;;		wreg, fsr0l, fsr0h, fsr1l, fsr1h, status,2, status,0, pclath, cstack
  2335 ;; Tracked objects:
  2336 ;;		On entry : 0/0
  2337 ;;		On exit  : 0/0
  2338 ;;		Unchanged: 0/0
  2339 ;; Data sizes:     COMMON   BANK0   BANK1   BANK2   BANK3   BANK4   BANK5   BANK6   BANK7   BANK8   BANK9  BANK10  BANK1
      +1  BANK12
  2340 ;;      Params:         4       0       0       0       0       0       0       0       0       0       0       0       
      +0       0
  2341 ;;      Locals:         0       2       0       0       0       0       0       0       0       0       0       0       
      +0       0
  2342 ;;      Temps:          2       0       0       0       0       0       0       0       0       0       0       0       
      +0       0
  2343 ;;      Totals:         6       2       0       0       0       0       0       0       0       0       0       0       
      +0       0
  2344 ;;Total ram usage:        8 bytes
  2345 ;; Hardware stack levels used: 1
  2346 ;; Hardware stack levels required when called: 1
  2347 ;; This function calls:
  2348 ;;		_strchr
  2349 ;; This function is called by:
  2350 ;;		_strtok
  2351 ;; This function uses a non-reentrant model
  2352 ;;
  2353                           
  2354     0AD9                     _strcspn:	
  2355                           ;psect for function _strcspn
  2356                           
  2357     0AD9                     l1990:	
  2358                           ;incstack = 0
  2359                           ; Regs used in _strcspn: [wreg-fsr1h+status,2+status,0+pclath+cstack]
  2360                           
  2361     0AD9  0020               	movlb	0	; select bank0
  2362     0ADA  01A0               	clrf	strcspn@i
  2363     0ADB  01A1               	clrf	strcspn@i+1
  2364     0ADC  2AE6               	goto	l1994
  2365     0ADD                     l1992:
  2366     0ADD  3001               	movlw	1
  2367     0ADE  07F7               	addwf	strcspn@s1,f
  2368     0ADF  3000               	movlw	0
  2369     0AE0  3DF8               	addwfc	strcspn@s1+1,f
  2370     0AE1  3001               	movlw	1
  2371     0AE2  0020               	movlb	0	; select bank0
  2372     0AE3  07A0               	addwf	strcspn@i,f
  2373     0AE4  3000               	movlw	0
  2374     0AE5  3DA1               	addwfc	strcspn@i+1,f
  2375     0AE6                     l1994:
  2376     0AE6  0877               	movf	strcspn@s1,w
  2377     0AE7  0086               	movwf	6
  2378     0AE8  0878               	movf	strcspn@s1+1,w
  2379     0AE9  0087               	movwf	7
  2380     0AEA  0801               	movf	1,w
  2381     0AEB  1903               	btfsc	3,2
  2382     0AEC  2AEE               	goto	u1671
  2383     0AED  2AEF               	goto	u1670
  2384     0AEE                     u1671:
  2385     0AEE  2B07               	goto	l1998
  2386     0AEF                     u1670:
  2387     0AEF                     l1996:
  2388     0AEF  087A               	movf	strcspn@s2+1,w
  2389     0AF0  00F1               	movwf	strchr@ptr+1
  2390     0AF1  0879               	movf	strcspn@s2,w
  2391     0AF2  00F0               	movwf	strchr@ptr
  2392     0AF3  0877               	movf	strcspn@s1,w
  2393     0AF4  0086               	movwf	6
  2394     0AF5  0878               	movf	strcspn@s1+1,w
  2395     0AF6  0087               	movwf	7
  2396     0AF7  0801               	movf	1,w
  2397     0AF8  00FB               	movwf	??_strcspn
  2398     0AF9  01FC               	clrf	??_strcspn+1
  2399     0AFA  087B               	movf	??_strcspn,w
  2400     0AFB  00F2               	movwf	strchr@chr
  2401     0AFC  087C               	movf	??_strcspn+1,w
  2402     0AFD  00F3               	movwf	strchr@chr+1
  2403     0AFE  318A  2242  318A   	fcall	_strchr
  2404     0B01  0870               	movf	?_strchr,w
  2405     0B02  0471               	iorwf	?_strchr+1,w
  2406     0B03  1903               	btfsc	3,2
  2407     0B04  2B06               	goto	u1681
  2408     0B05  2B07               	goto	u1680
  2409     0B06                     u1681:
  2410     0B06  2ADD               	goto	l1992
  2411     0B07                     u1680:
  2412     0B07                     l1998:
  2413     0B07  0020               	movlb	0	; select bank0
  2414     0B08  0821               	movf	strcspn@i+1,w
  2415     0B09  00F8               	movwf	?_strcspn+1
  2416     0B0A  0820               	movf	strcspn@i,w
  2417     0B0B  00F7               	movwf	?_strcspn
  2418     0B0C                     l906:
  2419     0B0C  0008               	return
  2420     0B0D                     __end_of_strcspn:
  2421                           
  2422                           	psect	text4
  2423     0A42                     __ptext4:	
  2424 ;; *************** function _strchr *****************
  2425 ;; Defined at:
  2426 ;;		line 4 in file "C:\Program Files\Microchip\xc8\v2.50\pic\sources\c90\common\strchr.c"
  2427 ;; Parameters:    Size  Location     Type
  2428 ;;  ptr             2    0[COMMON] PTR const unsigned char 
  2429 ;;		 -> STR_57(2), STR_47(2), STR_45(2), STR_44(2), 
  2430 ;;		 -> STR_42(2), STR_41(2), STR_39(2), STR_38(2), 
  2431 ;;		 -> STR_36(2), STR_35(2), STR_33(2), STR_32(2), 
  2432 ;;		 -> STR_30(2), STR_29(2), STR_26(2), STR_23(2), 
  2433 ;;		 -> STR_22(2), 
  2434 ;;  chr             2    2[COMMON] int 
  2435 ;; Auto vars:     Size  Location     Type
  2436 ;;		None
  2437 ;; Return value:  Size  Location     Type
  2438 ;;                  2    0[COMMON] PTR unsigned char 
  2439 ;; Registers used:
  2440 ;;		wreg, fsr0l, fsr0h, status,2, status,0, pclath
  2441 ;; Tracked objects:
  2442 ;;		On entry : 0/0
  2443 ;;		On exit  : 0/0
  2444 ;;		Unchanged: 0/0
  2445 ;; Data sizes:     COMMON   BANK0   BANK1   BANK2   BANK3   BANK4   BANK5   BANK6   BANK7   BANK8   BANK9  BANK10  BANK1
      +1  BANK12
  2446 ;;      Params:         4       0       0       0       0       0       0       0       0       0       0       0       
      +0       0
  2447 ;;      Locals:         0       0       0       0       0       0       0       0       0       0       0       0       
      +0       0
  2448 ;;      Temps:          3       0       0       0       0       0       0       0       0       0       0       0       
      +0       0
  2449 ;;      Totals:         7       0       0       0       0       0       0       0       0       0       0       0       
      +0       0
  2450 ;;Total ram usage:        7 bytes
  2451 ;; Hardware stack levels used: 1
  2452 ;; This function calls:
  2453 ;;		Nothing
  2454 ;; This function is called by:
  2455 ;;		_strcspn
  2456 ;;		_strspn
  2457 ;; This function uses a non-reentrant model
  2458 ;;
  2459                           
  2460     0A42                     _strchr:	
  2461                           ;psect for function _strchr
  2462                           
  2463     0A42                     l909:	
  2464                           ;incstack = 0
  2465                           ; Regs used in _strchr: [wreg-fsr0h+status,2+status,0+pclath]
  2466                           
  2467     0A42                     l1836:
  2468     0A42  0870               	movf	strchr@ptr,w
  2469     0A43  0084               	movwf	4
  2470     0A44  0871               	movf	strchr@ptr+1,w
  2471     0A45  0085               	movwf	5
  2472     0A46  0800               	movf	0,w	;code access
  2473     0A47  0672               	xorwf	strchr@chr,w
  2474     0A48  1D03               	skipz
  2475     0A49  2A4B               	goto	u1351
  2476     0A4A  2A4C               	goto	u1350
  2477     0A4B                     u1351:
  2478     0A4B  2A4D               	goto	l1840
  2479     0A4C                     u1350:
  2480     0A4C                     l1838:
  2481     0A4C  2A5F               	goto	l911
  2482     0A4D                     l1840:
  2483     0A4D  0871               	movf	strchr@ptr+1,w
  2484     0A4E  00F5               	movwf	??_strchr+1
  2485     0A4F  0870               	movf	strchr@ptr,w
  2486     0A50  00F4               	movwf	??_strchr
  2487     0A51  0AF0               	incf	strchr@ptr,f
  2488     0A52  1903               	skipnz
  2489     0A53  0AF1               	incf	strchr@ptr+1,f
  2490     0A54  0874               	movf	??_strchr,w
  2491     0A55  0084               	movwf	4
  2492     0A56  0875               	movf	??_strchr+1,w
  2493     0A57  0085               	movwf	5
  2494     0A58  0012               	moviw fsr0++
  2495     0A59  1D03               	btfss	3,2
  2496     0A5A  2A5C               	goto	u1361
  2497     0A5B  2A5D               	goto	u1360
  2498     0A5C                     u1361:
  2499     0A5C  2A42               	goto	l909
  2500     0A5D                     u1360:
  2501     0A5D                     l1842:
  2502     0A5D  01F0               	clrf	?_strchr
  2503     0A5E  01F1               	clrf	?_strchr+1
  2504     0A5F                     l911:
  2505     0A5F  0008               	return
  2506     0A60                     __end_of_strchr:
  2507                           
  2508                           	psect	text5
  2509     0A7F                     __ptext5:	
  2510 ;; *************** function _strcmp *****************
  2511 ;; Defined at:
  2512 ;;		line 33 in file "C:\Program Files\Microchip\xc8\v2.50\pic\sources\c90\common\strcmp.c"
  2513 ;; Parameters:    Size  Location     Type
  2514 ;;  s1              2    0[COMMON] PTR const unsigned char 
  2515 ;;		 -> NULL(0), main@tmp(300), main@rcmd(4), 
  2516 ;;  s2              2    2[COMMON] PTR const unsigned char 
  2517 ;;		 -> STR_55(3), STR_54(3), STR_53(3), STR_52(3), 
  2518 ;;		 -> STR_51(3), STR_50(3), STR_49(3), STR_48(3), 
  2519 ;;		 -> STR_21(4), STR_20(4), STR_19(4), STR_18(4), 
  2520 ;;		 -> STR_17(4), STR_16(4), STR_15(4), STR_14(4), 
  2521 ;;		 -> STR_13(4), STR_12(4), STR_11(4), STR_10(4), 
  2522 ;;		 -> STR_9(4), STR_8(4), STR_7(4), STR_6(4), 
  2523 ;;		 -> STR_5(4), STR_4(4), STR_3(4), STR_2(4), 
  2524 ;; Auto vars:     Size  Location     Type
  2525 ;;  r               1    4[COMMON] char 
  2526 ;; Return value:  Size  Location     Type
  2527 ;;                  2    0[COMMON] int 
  2528 ;; Registers used:
  2529 ;;		wreg, fsr0l, fsr0h, fsr1l, fsr1h, status,2, status,0, pclath
  2530 ;; Tracked objects:
  2531 ;;		On entry : 0/0
  2532 ;;		On exit  : 0/0
  2533 ;;		Unchanged: 0/0
  2534 ;; Data sizes:     COMMON   BANK0   BANK1   BANK2   BANK3   BANK4   BANK5   BANK6   BANK7   BANK8   BANK9  BANK10  BANK1
      +1  BANK12
  2535 ;;      Params:         4       0       0       0       0       0       0       0       0       0       0       0       
      +0       0
  2536 ;;      Locals:         1       0       0       0       0       0       0       0       0       0       0       0       
      +0       0
  2537 ;;      Temps:          0       0       0       0       0       0       0       0       0       0       0       0       
      +0       0
  2538 ;;      Totals:         5       0       0       0       0       0       0       0       0       0       0       0       
      +0       0
  2539 ;;Total ram usage:        5 bytes
  2540 ;; Hardware stack levels used: 1
  2541 ;; This function calls:
  2542 ;;		Nothing
  2543 ;; This function is called by:
  2544 ;;		_main
  2545 ;; This function uses a non-reentrant model
  2546 ;;
  2547                           
  2548     0A7F                     _strcmp:	
  2549                           ;psect for function _strcmp
  2550                           
  2551     0A7F                     l2108:	
  2552                           ;incstack = 0
  2553                           ; Regs used in _strcmp: [wreg-fsr1h+status,2+status,0+pclath]
  2554                           
  2555     0A7F  2A88               	goto	l2112
  2556     0A80                     l2110:
  2557     0A80  3001               	movlw	1
  2558     0A81  07F0               	addwf	strcmp@s1,f
  2559     0A82  3000               	movlw	0
  2560     0A83  3DF1               	addwfc	strcmp@s1+1,f
  2561     0A84  3001               	movlw	1
  2562     0A85  07F2               	addwf	strcmp@s2,f
  2563     0A86  3000               	movlw	0
  2564     0A87  3DF3               	addwfc	strcmp@s2+1,f
  2565     0A88                     l2112:
  2566     0A88  0870               	movf	strcmp@s1,w
  2567     0A89  0086               	movwf	6
  2568     0A8A  0871               	movf	strcmp@s1+1,w
  2569     0A8B  0087               	movwf	7
  2570     0A8C  0872               	movf	strcmp@s2,w
  2571     0A8D  0084               	movwf	4
  2572     0A8E  0873               	movf	strcmp@s2+1,w
  2573     0A8F  0085               	movwf	5
  2574     0A90  0800               	movf	0,w	;code access
  2575     0A91  0201               	subwf	1,w
  2576     0A92  00F4               	movwf	strcmp@r
  2577     0A93  0874               	movf	strcmp@r,w
  2578     0A94  1D03               	btfss	3,2
  2579     0A95  2A97               	goto	u1811
  2580     0A96  2A98               	goto	u1810
  2581     0A97                     u1811:
  2582     0A97  2AA1               	goto	l2116
  2583     0A98                     u1810:
  2584     0A98                     l2114:
  2585     0A98  0870               	movf	strcmp@s1,w
  2586     0A99  0086               	movwf	6
  2587     0A9A  0871               	movf	strcmp@s1+1,w
  2588     0A9B  0087               	movwf	7
  2589     0A9C  0801               	movf	1,w
  2590     0A9D  1D03               	btfss	3,2
  2591     0A9E  2AA0               	goto	u1821
  2592     0A9F  2AA1               	goto	u1820
  2593     0AA0                     u1821:
  2594     0AA0  2A80               	goto	l2110
  2595     0AA1                     u1820:
  2596     0AA1                     l2116:
  2597     0AA1  0874               	movf	strcmp@r,w
  2598     0AA2  00F0               	movwf	?_strcmp
  2599     0AA3  01F1               	clrf	?_strcmp+1
  2600     0AA4  1BF0               	btfsc	?_strcmp,7
  2601     0AA5  03F1               	decf	?_strcmp+1,f
  2602     0AA6                     l882:
  2603     0AA6  0008               	return
  2604     0AA7                     __end_of_strcmp:
  2605                           
  2606                           	psect	text6
  2607     0B41                     __ptext6:	
  2608 ;; *************** function _serial_init *****************
  2609 ;; Defined at:
  2610 ;;		line 47 in file "main.c"
  2611 ;; Parameters:    Size  Location     Type
  2612 ;;  BR              4    0[BANK0 ] unsigned long 
  2613 ;; Auto vars:     Size  Location     Type
  2614 ;;  X               2    8[BANK0 ] unsigned int 
  2615 ;; Return value:  Size  Location     Type
  2616 ;;                  1    wreg      void 
  2617 ;; Registers used:
  2618 ;;		wreg, status,2, status,0, pclath, cstack
  2619 ;; Tracked objects:
  2620 ;;		On entry : 0/0
  2621 ;;		On exit  : 0/0
  2622 ;;		Unchanged: 0/0
  2623 ;; Data sizes:     COMMON   BANK0   BANK1   BANK2   BANK3   BANK4   BANK5   BANK6   BANK7   BANK8   BANK9  BANK10  BANK1
      +1  BANK12
  2624 ;;      Params:         0       4       0       0       0       0       0       0       0       0       0       0       
      +0       0
  2625 ;;      Locals:         0       2       0       0       0       0       0       0       0       0       0       0       
      +0       0
  2626 ;;      Temps:          0       4       0       0       0       0       0       0       0       0       0       0       
      +0       0
  2627 ;;      Totals:         0      10       0       0       0       0       0       0       0       0       0       0       
      +0       0
  2628 ;;Total ram usage:       10 bytes
  2629 ;; Hardware stack levels used: 1
  2630 ;; Hardware stack levels required when called: 1
  2631 ;; This function calls:
  2632 ;;		___lldiv
  2633 ;; This function is called by:
  2634 ;;		_main
  2635 ;; This function uses a non-reentrant model
  2636 ;;
  2637                           
  2638     0B41                     _serial_init:	
  2639                           ;psect for function _serial_init
  2640                           
  2641     0B41                     l2002:	
  2642                           ;incstack = 0
  2643                           ; Regs used in _serial_init: [wreg+status,2+status,0+pclath+cstack]
  2644                           
  2645                           
  2646                           ;main.c: 48: TX1STA = 0x24;
  2647     0B41  3024               	movlw	36
  2648     0B42  0023               	movlb	3	; select bank3
  2649     0B43  009E               	movwf	30	;volatile
  2650                           
  2651                           ;main.c: 49: BRG16 = 1;
  2652     0B44  159F               	bsf	31,3	;volatile
  2653                           
  2654                           ;main.c: 50: RC1STA = 0x90;
  2655     0B45  3090               	movlw	144
  2656     0B46  009D               	movwf	29	;volatile
  2657     0B47                     l2004:
  2658                           
  2659                           ;main.c: 51: unsigned int X= 32000000/BR/4 - 1;
  2660     0B47  0020               	movlb	0	; select bank0
  2661     0B48  0823               	movf	serial_init@BR+3,w
  2662     0B49  00F3               	movwf	___lldiv@divisor+3
  2663     0B4A  0822               	movf	serial_init@BR+2,w
  2664     0B4B  00F2               	movwf	___lldiv@divisor+2
  2665     0B4C  0821               	movf	serial_init@BR+1,w
  2666     0B4D  00F1               	movwf	___lldiv@divisor+1
  2667     0B4E  0820               	movf	serial_init@BR,w
  2668     0B4F  00F0               	movwf	___lldiv@divisor
  2669     0B50  3001               	movlw	1
  2670     0B51  00F7               	movwf	___lldiv@dividend+3
  2671     0B52  30E8               	movlw	232
  2672     0B53  00F6               	movwf	___lldiv@dividend+2
  2673     0B54  3048               	movlw	72
  2674     0B55  00F5               	movwf	___lldiv@dividend+1
  2675     0B56  3000               	movlw	0
  2676     0B57  00F4               	movwf	___lldiv@dividend
  2677     0B58  318B  23B3  318B   	fcall	___lldiv
  2678     0B5B  0870               	movf	?___lldiv,w
  2679     0B5C  0020               	movlb	0	; select bank0
  2680     0B5D  00A4               	movwf	??_serial_init
  2681     0B5E  0871               	movf	?___lldiv+1,w
  2682     0B5F  00A5               	movwf	??_serial_init+1
  2683     0B60  0872               	movf	?___lldiv+2,w
  2684     0B61  00A6               	movwf	??_serial_init+2
  2685     0B62  0873               	movf	?___lldiv+3,w
  2686     0B63  00A7               	movwf	??_serial_init+3
  2687     0B64  3002               	movlw	2
  2688     0B65                     u1695:
  2689     0B65  36A7               	lsrf	??_serial_init+3,f
  2690     0B66  0CA6               	rrf	??_serial_init+2,f
  2691     0B67  0CA5               	rrf	??_serial_init+1,f
  2692     0B68  0CA4               	rrf	??_serial_init,f
  2693     0B69                     u1690:
  2694     0B69  0B89               	decfsz	9,f
  2695     0B6A  2B65               	goto	u1695
  2696     0B6B  0824               	movf	??_serial_init,w
  2697     0B6C  3EFF               	addlw	255
  2698     0B6D  00A8               	movwf	serial_init@X
  2699     0B6E  30FF               	movlw	255
  2700     0B6F  3D25               	addwfc	??_serial_init+1,w
  2701     0B70  00A9               	movwf	serial_init@X+1
  2702     0B71                     l2006:
  2703                           
  2704                           ;main.c: 52: SP1BRGH = X / 256;
  2705     0B71  0829               	movf	serial_init@X+1,w
  2706     0B72  0023               	movlb	3	; select bank3
  2707     0B73  009C               	movwf	28	;volatile
  2708     0B74                     l2008:
  2709                           
  2710                           ;main.c: 53: SP1BRGL = X % 256;
  2711     0B74  0020               	movlb	0	; select bank0
  2712     0B75  0828               	movf	serial_init@X,w
  2713     0B76  0023               	movlb	3	; select bank3
  2714     0B77  009B               	movwf	27	;volatile
  2715     0B78                     l57:
  2716     0B78  0008               	return
  2717     0B79                     __end_of_serial_init:
  2718                           
  2719                           	psect	text7
  2720     0BB3                     __ptext7:	
  2721 ;; *************** function ___lldiv *****************
  2722 ;; Defined at:
  2723 ;;		line 5 in file "C:\Program Files\Microchip\xc8\v2.50\pic\sources\c90\common\__lldiv.c"
  2724 ;; Parameters:    Size  Location     Type
  2725 ;;  divisor         4    0[COMMON] unsigned long 
  2726 ;;  dividend        4    4[COMMON] unsigned long 
  2727 ;; Auto vars:     Size  Location     Type
  2728 ;;  quotient        4    8[COMMON] unsigned long 
  2729 ;;  counter         1   12[COMMON] unsigned char 
  2730 ;; Return value:  Size  Location     Type
  2731 ;;                  4    0[COMMON] unsigned long 
  2732 ;; Registers used:
  2733 ;;		wreg, status,2, status,0
  2734 ;; Tracked objects:
  2735 ;;		On entry : 0/0
  2736 ;;		On exit  : 0/0
  2737 ;;		Unchanged: 0/0
  2738 ;; Data sizes:     COMMON   BANK0   BANK1   BANK2   BANK3   BANK4   BANK5   BANK6   BANK7   BANK8   BANK9  BANK10  BANK1
      +1  BANK12
  2739 ;;      Params:         8       0       0       0       0       0       0       0       0       0       0       0       
      +0       0
  2740 ;;      Locals:         5       0       0       0       0       0       0       0       0       0       0       0       
      +0       0
  2741 ;;      Temps:          0       0       0       0       0       0       0       0       0       0       0       0       
      +0       0
  2742 ;;      Totals:        13       0       0       0       0       0       0       0       0       0       0       0       
      +0       0
  2743 ;;Total ram usage:       13 bytes
  2744 ;; Hardware stack levels used: 1
  2745 ;; This function calls:
  2746 ;;		Nothing
  2747 ;; This function is called by:
  2748 ;;		_serial_init
  2749 ;; This function uses a non-reentrant model
  2750 ;;
  2751                           
  2752     0BB3                     ___lldiv:	
  2753                           ;psect for function ___lldiv
  2754                           
  2755     0BB3                     l1860:	
  2756                           ;incstack = 0
  2757                           ; Regs used in ___lldiv: [wreg+status,2+status,0]
  2758                           
  2759     0BB3  3000               	movlw	0
  2760     0BB4  00FB               	movwf	___lldiv@quotient+3
  2761     0BB5  3000               	movlw	0
  2762     0BB6  00FA               	movwf	___lldiv@quotient+2
  2763     0BB7  3000               	movlw	0
  2764     0BB8  00F9               	movwf	___lldiv@quotient+1
  2765     0BB9  3000               	movlw	0
  2766     0BBA  00F8               	movwf	___lldiv@quotient
  2767     0BBB  0873               	movf	___lldiv@divisor+3,w
  2768     0BBC  0472               	iorwf	___lldiv@divisor+2,w
  2769     0BBD  0471               	iorwf	___lldiv@divisor+1,w
  2770     0BBE  0470               	iorwf	___lldiv@divisor,w
  2771     0BBF  1903               	skipnz
  2772     0BC0  2BC2               	goto	u1411
  2773     0BC1  2BC3               	goto	u1410
  2774     0BC2                     u1411:
  2775     0BC2  2C02               	goto	l1880
  2776     0BC3                     u1410:
  2777     0BC3                     l1862:
  2778     0BC3  3001               	movlw	1
  2779     0BC4  00FC               	movwf	___lldiv@counter
  2780     0BC5  2BCF               	goto	l1866
  2781     0BC6                     l1864:
  2782     0BC6  3001               	movlw	1
  2783     0BC7                     u1425:
  2784     0BC7  35F0               	lslf	___lldiv@divisor,f
  2785     0BC8  0DF1               	rlf	___lldiv@divisor+1,f
  2786     0BC9  0DF2               	rlf	___lldiv@divisor+2,f
  2787     0BCA  0DF3               	rlf	___lldiv@divisor+3,f
  2788     0BCB  0B89               	decfsz	9,f
  2789     0BCC  2BC7               	goto	u1425
  2790     0BCD  3001               	movlw	1
  2791     0BCE  07FC               	addwf	___lldiv@counter,f
  2792     0BCF                     l1866:
  2793     0BCF  1FF3               	btfss	___lldiv@divisor+3,7
  2794     0BD0  2BD2               	goto	u1431
  2795     0BD1  2BD3               	goto	u1430
  2796     0BD2                     u1431:
  2797     0BD2  2BC6               	goto	l1864
  2798     0BD3                     u1430:
  2799     0BD3                     l1868:
  2800     0BD3  3001               	movlw	1
  2801     0BD4                     u1445:
  2802     0BD4  35F8               	lslf	___lldiv@quotient,f
  2803     0BD5  0DF9               	rlf	___lldiv@quotient+1,f
  2804     0BD6  0DFA               	rlf	___lldiv@quotient+2,f
  2805     0BD7  0DFB               	rlf	___lldiv@quotient+3,f
  2806     0BD8  0B89               	decfsz	9,f
  2807     0BD9  2BD4               	goto	u1445
  2808     0BDA                     l1870:
  2809     0BDA  0873               	movf	___lldiv@divisor+3,w
  2810     0BDB  0277               	subwf	___lldiv@dividend+3,w
  2811     0BDC  1D03               	skipz
  2812     0BDD  2BE8               	goto	u1455
  2813     0BDE  0872               	movf	___lldiv@divisor+2,w
  2814     0BDF  0276               	subwf	___lldiv@dividend+2,w
  2815     0BE0  1D03               	skipz
  2816     0BE1  2BE8               	goto	u1455
  2817     0BE2  0871               	movf	___lldiv@divisor+1,w
  2818     0BE3  0275               	subwf	___lldiv@dividend+1,w
  2819     0BE4  1D03               	skipz
  2820     0BE5  2BE8               	goto	u1455
  2821     0BE6  0870               	movf	___lldiv@divisor,w
  2822     0BE7  0274               	subwf	___lldiv@dividend,w
  2823     0BE8                     u1455:
  2824     0BE8  1C03               	skipc
  2825     0BE9  2BEB               	goto	u1451
  2826     0BEA  2BEC               	goto	u1450
  2827     0BEB                     u1451:
  2828     0BEB  2BF5               	goto	l1876
  2829     0BEC                     u1450:
  2830     0BEC                     l1872:
  2831     0BEC  0870               	movf	___lldiv@divisor,w
  2832     0BED  02F4               	subwf	___lldiv@dividend,f
  2833     0BEE  0871               	movf	___lldiv@divisor+1,w
  2834     0BEF  3BF5               	subwfb	___lldiv@dividend+1,f
  2835     0BF0  0872               	movf	___lldiv@divisor+2,w
  2836     0BF1  3BF6               	subwfb	___lldiv@dividend+2,f
  2837     0BF2  0873               	movf	___lldiv@divisor+3,w
  2838     0BF3  3BF7               	subwfb	___lldiv@dividend+3,f
  2839     0BF4                     l1874:
  2840     0BF4  1478               	bsf	___lldiv@quotient,0
  2841     0BF5                     l1876:
  2842     0BF5  3001               	movlw	1
  2843     0BF6                     u1465:
  2844     0BF6  36F3               	lsrf	___lldiv@divisor+3,f
  2845     0BF7  0CF2               	rrf	___lldiv@divisor+2,f
  2846     0BF8  0CF1               	rrf	___lldiv@divisor+1,f
  2847     0BF9  0CF0               	rrf	___lldiv@divisor,f
  2848     0BFA  0B89               	decfsz	9,f
  2849     0BFB  2BF6               	goto	u1465
  2850     0BFC                     l1878:
  2851     0BFC  3001               	movlw	1
  2852     0BFD  02FC               	subwf	___lldiv@counter,f
  2853     0BFE  1D03               	btfss	3,2
  2854     0BFF  2C01               	goto	u1471
  2855     0C00  2C02               	goto	u1470
  2856     0C01                     u1471:
  2857     0C01  2BD3               	goto	l1868
  2858     0C02                     u1470:
  2859     0C02                     l1880:
  2860     0C02  087B               	movf	___lldiv@quotient+3,w
  2861     0C03  00F3               	movwf	?___lldiv+3
  2862     0C04  087A               	movf	___lldiv@quotient+2,w
  2863     0C05  00F2               	movwf	?___lldiv+2
  2864     0C06  0879               	movf	___lldiv@quotient+1,w
  2865     0C07  00F1               	movwf	?___lldiv+1
  2866     0C08  0878               	movf	___lldiv@quotient,w
  2867     0C09  00F0               	movwf	?___lldiv
  2868     0C0A                     l417:
  2869     0C0A  0008               	return
  2870     0C0B                     __end_of___lldiv:
  2871                           
  2872                           	psect	text8
  2873     0CD3                     __ptext8:	
  2874 ;; *************** function _printf *****************
  2875 ;; Defined at:
  2876 ;;		line 477 in file "C:\Program Files\Microchip\xc8\v2.50\pic\sources\c90\common\doprnt.c"
  2877 ;; Parameters:    Size  Location     Type
  2878 ;;  f               2    0[BANK0 ] PTR const unsigned char 
  2879 ;;		 -> STR_60(24), STR_59(12), STR_58(7), STR_56(7), 
  2880 ;;		 -> STR_46(8), STR_43(8), STR_40(8), STR_37(8), 
  2881 ;;		 -> STR_34(8), STR_31(8), STR_28(8), STR_27(8), 
  2882 ;;		 -> STR_25(8), STR_24(4), STR_1(4), 
  2883 ;; Auto vars:     Size  Location     Type
  2884 ;;  tmpval          4    0        struct .
  2885 ;;  val             2   14[BANK0 ] unsigned int 
  2886 ;;  ap              2   12[BANK0 ] PTR void [1]
  2887 ;;		 -> ?_printf(2), 
  2888 ;;  cp              2   10[BANK0 ] PTR const unsigned char 
  2889 ;;		 -> STR_61(7), ?_printf(2), main@tmp(300), 
  2890 ;;  len             2    0        unsigned int 
  2891 ;;  c               1   16[BANK0 ] unsigned char 
  2892 ;;  flag            1    9[BANK0 ] unsigned char 
  2893 ;;  prec            1    8[BANK0 ] char 
  2894 ;; Return value:  Size  Location     Type
  2895 ;;                  2    0[BANK0 ] int 
  2896 ;; Registers used:
  2897 ;;		wreg, fsr0l, fsr0h, fsr1l, fsr1h, status,2, status,0, pclath, cstack
  2898 ;; Tracked objects:
  2899 ;;		On entry : 0/0
  2900 ;;		On exit  : 0/0
  2901 ;;		Unchanged: 0/0
  2902 ;; Data sizes:     COMMON   BANK0   BANK1   BANK2   BANK3   BANK4   BANK5   BANK6   BANK7   BANK8   BANK9  BANK10  BANK1
      +1  BANK12
  2903 ;;      Params:         0       4       0       0       0       0       0       0       0       0       0       0       
      +0       0
  2904 ;;      Locals:         0       9       0       0       0       0       0       0       0       0       0       0       
      +0       0
  2905 ;;      Temps:          0       4       0       0       0       0       0       0       0       0       0       0       
      +0       0
  2906 ;;      Totals:         0      17       0       0       0       0       0       0       0       0       0       0       
      +0       0
  2907 ;;Total ram usage:       17 bytes
  2908 ;; Hardware stack levels used: 1
  2909 ;; Hardware stack levels required when called: 1
  2910 ;; This function calls:
  2911 ;;		___lwdiv
  2912 ;;		___lwmod
  2913 ;;		_putch
  2914 ;; This function is called by:
  2915 ;;		_main
  2916 ;; This function uses a non-reentrant model
  2917 ;;
  2918                           
  2919     0CD3                     _printf:	
  2920                           ;psect for function _printf
  2921                           
  2922     0CD3                     l2042:	
  2923                           ;incstack = 0
  2924                           ; Regs used in _printf: [wreg-fsr1h+status,2+status,0+pclath+cstack]
  2925                           
  2926                           
  2927                           ;doprnt.c: 479: va_list ap;;doprnt.c: 512: char c;;doprnt.c: 521: signed char prec;;dopr
      +                          nt.c: 525: unsigned char flag;;doprnt.c: 540: union {;doprnt.c: 541: unsigned long vd;;d
      +                          oprnt.c: 542: double integ;;doprnt.c: 543: } tmpval;;doprnt.c: 545: unsigned int val;;do
      +                          prnt.c: 546: unsigned len;;doprnt.c: 547: const char * cp;;doprnt.c: 550: *ap = __va_sta
      +                          rt();
  2928     0CD3  3022               	movlw	low (?_printf+2)
  2929     0CD4  0020               	movlb	0	; select bank0
  2930     0CD5  00AC               	movwf	printf@ap
  2931     0CD6  3000               	movlw	high (?_printf+2)
  2932     0CD7  00AD               	movwf	printf@ap+1
  2933                           
  2934                           ;doprnt.c: 553: while((c = *f++)) {
  2935     0CD8  2DC0               	goto	l2106
  2936     0CD9                     l2044:
  2937                           
  2938                           ;doprnt.c: 555: if(c != '%')
  2939     0CD9  3025               	movlw	37
  2940     0CDA  0630               	xorwf	printf@c,w
  2941     0CDB  1903               	btfsc	3,2
  2942     0CDC  2CDE               	goto	u1711
  2943     0CDD  2CDF               	goto	u1710
  2944     0CDE                     u1711:
  2945     0CDE  2CE4               	goto	l2048
  2946     0CDF                     u1710:
  2947     0CDF                     l2046:
  2948                           
  2949                           ;doprnt.c: 557: {;doprnt.c: 558: (putch(c) );
  2950     0CDF  0830               	movf	printf@c,w
  2951     0CE0  3189  21F3  318C   	fcall	_putch
  2952                           
  2953                           ;doprnt.c: 559: continue;
  2954     0CE3  2DC0               	goto	l2106
  2955     0CE4                     l2048:
  2956                           
  2957                           ;doprnt.c: 560: };doprnt.c: 565: flag = 0;
  2958     0CE4  01A9               	clrf	printf@flag
  2959                           
  2960                           ;doprnt.c: 661: switch(c = *f++) {
  2961     0CE5  2D16               	goto	l2066
  2962     0CE6                     l2050:
  2963                           
  2964                           ;doprnt.c: 760: cp = (*(const char * *)__va_arg((*(const char * **)ap), (const char *)0)
      +                          );
  2965     0CE6  082C               	movf	printf@ap,w
  2966     0CE7  0086               	movwf	6
  2967     0CE8  082D               	movf	printf@ap+1,w
  2968     0CE9  0087               	movwf	7
  2969     0CEA  3F40               	moviw [0]fsr1
  2970     0CEB  00AA               	movwf	printf@cp
  2971     0CEC  3F41               	moviw [1]fsr1
  2972     0CED  00AB               	movwf	printf@cp+1
  2973     0CEE                     l2052:
  2974     0CEE  3002               	movlw	2
  2975     0CEF  07AC               	addwf	printf@ap,f
  2976     0CF0  3000               	movlw	0
  2977     0CF1  3DAD               	addwfc	printf@ap+1,f
  2978     0CF2                     l2054:
  2979                           
  2980                           ;doprnt.c: 766: if(!cp)
  2981     0CF2  082A               	movf	printf@cp,w
  2982     0CF3  042B               	iorwf	printf@cp+1,w
  2983     0CF4  1D03               	btfss	3,2
  2984     0CF5  2CF7               	goto	u1721
  2985     0CF6  2CF8               	goto	u1720
  2986     0CF7                     u1721:
  2987     0CF7  2D0A               	goto	l2062
  2988     0CF8                     u1720:
  2989     0CF8                     l2056:
  2990                           
  2991                           ;doprnt.c: 767: cp = "(null)";
  2992     0CF8  3076               	movlw	low (STR_61| (0+32768))
  2993     0CF9  00AA               	movwf	printf@cp
  2994     0CFA  3090               	movlw	high (STR_61| (0+32768))
  2995     0CFB  00AB               	movwf	printf@cp+1
  2996     0CFC  2D0A               	goto	l2062
  2997     0CFD                     l2058:
  2998                           
  2999                           ;doprnt.c: 804: (putch(*cp++) );
  3000     0CFD  082A               	movf	printf@cp,w
  3001     0CFE  0084               	movwf	4
  3002     0CFF  082B               	movf	printf@cp+1,w
  3003     0D00  0085               	movwf	5
  3004     0D01  0800               	movf	0,w	;code access
  3005     0D02  3189  21F3  318C   	fcall	_putch
  3006     0D05                     l2060:
  3007     0D05  3001               	movlw	1
  3008     0D06  0020               	movlb	0	; select bank0
  3009     0D07  07AA               	addwf	printf@cp,f
  3010     0D08  3000               	movlw	0
  3011     0D09  3DAB               	addwfc	printf@cp+1,f
  3012     0D0A                     l2062:
  3013     0D0A  082A               	movf	printf@cp,w
  3014     0D0B  0084               	movwf	4
  3015     0D0C  082B               	movf	printf@cp+1,w
  3016     0D0D  0085               	movwf	5
  3017     0D0E  0012               	moviw fsr0++
  3018     0D0F  1D03               	btfss	3,2
  3019     0D10  2D12               	goto	u1731
  3020     0D11  2D13               	goto	u1730
  3021     0D12                     u1731:
  3022     0D12  2CFD               	goto	l2058
  3023     0D13                     u1730:
  3024     0D13  2DC0               	goto	l2106
  3025     0D14                     l365:	
  3026                           ;doprnt.c: 843: case 'u':
  3027                           
  3028                           
  3029                           ;doprnt.c: 844: flag |= 0x40;
  3030     0D14  1729               	bsf	printf@flag,6
  3031                           
  3032                           ;doprnt.c: 845: break;
  3033     0D15  2D33               	goto	l358
  3034     0D16                     l2066:
  3035     0D16  0821               	movf	printf@f+1,w
  3036     0D17  00A5               	movwf	??_printf+1
  3037     0D18  0820               	movf	printf@f,w
  3038     0D19  00A4               	movwf	??_printf
  3039     0D1A  0AA0               	incf	printf@f,f
  3040     0D1B  1903               	skipnz
  3041     0D1C  0AA1               	incf	printf@f+1,f
  3042     0D1D  0824               	movf	??_printf,w
  3043     0D1E  0084               	movwf	4
  3044     0D1F  0825               	movf	??_printf+1,w
  3045     0D20  0085               	movwf	5
  3046     0D21  0800               	movf	0,w	;code access
  3047     0D22  00B0               	movwf	printf@c
  3048                           
  3049                           ; Switch size 1, requested type "simple"
  3050                           ; Number of cases is 5, Range of values is 0 to 117
  3051                           ; switch strategies available:
  3052                           ; Name         Instructions Cycles
  3053                           ; simple_byte           16     9 (average)
  3054                           ; direct_byte          242     6 (fixed)
  3055                           ; jumptable            260     6 (fixed)
  3056                           ;	Chosen strategy is simple_byte
  3057     0D23  3A00               	xorlw	0	; case 0
  3058     0D24  1903               	skipnz
  3059     0D25  2DD3               	goto	l377
  3060     0D26  3A64               	xorlw	100	; case 100
  3061     0D27  1903               	skipnz
  3062     0D28  2D33               	goto	l358
  3063     0D29  3A0D               	xorlw	13	; case 105
  3064     0D2A  1903               	skipnz
  3065     0D2B  2D33               	goto	l358
  3066     0D2C  3A1A               	xorlw	26	; case 115
  3067     0D2D  1903               	skipnz
  3068     0D2E  2CE6               	goto	l2050
  3069     0D2F  3A06               	xorlw	6	; case 117
  3070     0D30  1903               	skipnz
  3071     0D31  2D14               	goto	l365
  3072     0D32  2DC0               	goto	l2106
  3073     0D33                     l358:
  3074                           
  3075                           ;doprnt.c: 1277: if((flag & 0x40) == 0x00)
  3076     0D33  1B29               	btfsc	printf@flag,6
  3077     0D34  2D36               	goto	u1741
  3078     0D35  2D37               	goto	u1740
  3079     0D36                     u1741:
  3080     0D36  2D4F               	goto	l2078
  3081     0D37                     u1740:
  3082     0D37                     l2068:
  3083                           
  3084                           ;doprnt.c: 1279: {;doprnt.c: 1285: val = (unsigned int)(*(int *)__va_arg((*(int **)ap), 
      +                          (int)0));
  3085     0D37  082C               	movf	printf@ap,w
  3086     0D38  0086               	movwf	6
  3087     0D39  082D               	movf	printf@ap+1,w
  3088     0D3A  0087               	movwf	7
  3089     0D3B  3F40               	moviw [0]fsr1
  3090     0D3C  00AE               	movwf	printf@val
  3091     0D3D  3F41               	moviw [1]fsr1
  3092     0D3E  00AF               	movwf	printf@val+1
  3093     0D3F                     l2070:
  3094     0D3F  3002               	movlw	2
  3095     0D40  07AC               	addwf	printf@ap,f
  3096     0D41  3000               	movlw	0
  3097     0D42  3DAD               	addwfc	printf@ap+1,f
  3098     0D43                     l2072:
  3099                           
  3100                           ;doprnt.c: 1287: if((int)val < 0) {
  3101     0D43  1FAF               	btfss	printf@val+1,7
  3102     0D44  2D46               	goto	u1751
  3103     0D45  2D47               	goto	u1750
  3104     0D46                     u1751:
  3105     0D46  2D5B               	goto	l2082
  3106     0D47                     u1750:
  3107     0D47                     l2074:
  3108                           
  3109                           ;doprnt.c: 1288: flag |= 0x03;
  3110     0D47  3003               	movlw	3
  3111     0D48  04A9               	iorwf	printf@flag,f
  3112     0D49                     l2076:
  3113                           
  3114                           ;doprnt.c: 1289: val = -val;
  3115     0D49  09AE               	comf	printf@val,f
  3116     0D4A  09AF               	comf	printf@val+1,f
  3117     0D4B  0AAE               	incf	printf@val,f
  3118     0D4C  1903               	skipnz
  3119     0D4D  0AAF               	incf	printf@val+1,f
  3120     0D4E  2D5B               	goto	l2082
  3121     0D4F                     l2078:
  3122                           
  3123                           ;doprnt.c: 1294: else;doprnt.c: 1299: {;doprnt.c: 1312: val = (*(unsigned *)__va_arg((*(
      +                          unsigned **)ap), (unsigned)0));
  3124     0D4F  082C               	movf	printf@ap,w
  3125     0D50  0086               	movwf	6
  3126     0D51  082D               	movf	printf@ap+1,w
  3127     0D52  0087               	movwf	7
  3128     0D53  3F40               	moviw [0]fsr1
  3129     0D54  00AE               	movwf	printf@val
  3130     0D55  3F41               	moviw [1]fsr1
  3131     0D56  00AF               	movwf	printf@val+1
  3132     0D57                     l2080:
  3133     0D57  3002               	movlw	2
  3134     0D58  07AC               	addwf	printf@ap,f
  3135     0D59  3000               	movlw	0
  3136     0D5A  3DAD               	addwfc	printf@ap+1,f
  3137     0D5B                     l2082:
  3138                           
  3139                           ;doprnt.c: 1313: };doprnt.c: 1331: for(c = 1 ; c != sizeof dpowers/sizeof dpowers[0] ; c
      +                          ++)
  3140     0D5B  3001               	movlw	1
  3141     0D5C  00B0               	movwf	printf@c
  3142     0D5D                     l2088:
  3143                           
  3144                           ;doprnt.c: 1332: if(val < dpowers[c])
  3145     0D5D  0830               	movf	printf@c,w
  3146     0D5E  00A4               	movwf	??_printf
  3147     0D5F  01A5               	clrf	??_printf+1
  3148     0D60  35A4               	lslf	??_printf,f
  3149     0D61  0DA5               	rlf	??_printf+1,f
  3150     0D62  3000               	movlw	low _dpowers
  3151     0D63  0724               	addwf	??_printf,w
  3152     0D64  0084               	movwf	4
  3153     0D65  3010               	movlw	high _dpowers
  3154     0D66  3D25               	addwfc	??_printf+1,w
  3155     0D67  3880               	iorlw	128
  3156     0D68  0085               	movwf	5
  3157     0D69  3F00               	moviw [0]fsr0
  3158     0D6A  00A6               	movwf	??_printf+2
  3159     0D6B  3F01               	moviw [1]fsr0
  3160     0D6C  00A7               	movwf	??_printf+3
  3161     0D6D  0827               	movf	??_printf+3,w
  3162     0D6E  022F               	subwf	printf@val+1,w
  3163     0D6F  1D03               	skipz
  3164     0D70  2D73               	goto	u1765
  3165     0D71  0826               	movf	??_printf+2,w
  3166     0D72  022E               	subwf	printf@val,w
  3167     0D73                     u1765:
  3168     0D73  1803               	skipnc
  3169     0D74  2D76               	goto	u1761
  3170     0D75  2D77               	goto	u1760
  3171     0D76                     u1761:
  3172     0D76  2D78               	goto	l2092
  3173     0D77                     u1760:
  3174     0D77  2D80               	goto	l2094
  3175     0D78                     l2092:
  3176     0D78  3001               	movlw	1
  3177     0D79  07B0               	addwf	printf@c,f
  3178     0D7A  3005               	movlw	5
  3179     0D7B  0630               	xorwf	printf@c,w
  3180     0D7C  1D03               	btfss	3,2
  3181     0D7D  2D7F               	goto	u1771
  3182     0D7E  2D80               	goto	u1770
  3183     0D7F                     u1771:
  3184     0D7F  2D5D               	goto	l2088
  3185     0D80                     u1770:
  3186     0D80                     l2094:
  3187                           
  3188                           ;doprnt.c: 1448: {;doprnt.c: 1464: if(flag & 0x03)
  3189     0D80  0829               	movf	printf@flag,w
  3190     0D81  3903               	andlw	3
  3191     0D82  1903               	btfsc	3,2
  3192     0D83  2D85               	goto	u1781
  3193     0D84  2D86               	goto	u1780
  3194     0D85                     u1781:
  3195     0D85  2D8A               	goto	l2098
  3196     0D86                     u1780:
  3197     0D86                     l2096:
  3198                           
  3199                           ;doprnt.c: 1465: (putch('-') );
  3200     0D86  302D               	movlw	45
  3201     0D87  3189  21F3  318C   	fcall	_putch
  3202     0D8A                     l2098:
  3203                           
  3204                           ;doprnt.c: 1495: };doprnt.c: 1498: prec = c;
  3205     0D8A  0020               	movlb	0	; select bank0
  3206     0D8B  0830               	movf	printf@c,w
  3207     0D8C  00A8               	movwf	printf@prec
  3208                           
  3209                           ;doprnt.c: 1500: while(prec--) {
  3210     0D8D  2DB8               	goto	l2104
  3211     0D8E                     l2100:
  3212                           
  3213                           ;doprnt.c: 1504: {;doprnt.c: 1515: c = (val / dpowers[(unsigned char)prec]) % 10 + '0';
  3214     0D8E  300A               	movlw	10
  3215     0D8F  00F7               	movwf	___lwmod@divisor
  3216     0D90  3000               	movlw	0
  3217     0D91  00F8               	movwf	___lwmod@divisor+1
  3218     0D92  0828               	movf	printf@prec,w
  3219     0D93  00A4               	movwf	??_printf
  3220     0D94  01A5               	clrf	??_printf+1
  3221     0D95  35A4               	lslf	??_printf,f
  3222     0D96  0DA5               	rlf	??_printf+1,f
  3223     0D97  3000               	movlw	low _dpowers
  3224     0D98  0724               	addwf	??_printf,w
  3225     0D99  0084               	movwf	4
  3226     0D9A  3010               	movlw	high _dpowers
  3227     0D9B  3D25               	addwfc	??_printf+1,w
  3228     0D9C  3880               	iorlw	128
  3229     0D9D  0085               	movwf	5
  3230     0D9E  3F00               	moviw [0]fsr0
  3231     0D9F  00F0               	movwf	___lwdiv@divisor
  3232     0DA0  3F01               	moviw [1]fsr0
  3233     0DA1  00F1               	movwf	___lwdiv@divisor+1
  3234     0DA2  082F               	movf	printf@val+1,w
  3235     0DA3  00F3               	movwf	___lwdiv@dividend+1
  3236     0DA4  082E               	movf	printf@val,w
  3237     0DA5  00F2               	movwf	___lwdiv@dividend
  3238     0DA6  318B  2379  318C   	fcall	___lwdiv
  3239     0DA9  0871               	movf	?___lwdiv+1,w
  3240     0DAA  00FA               	movwf	___lwmod@dividend+1
  3241     0DAB  0870               	movf	?___lwdiv,w
  3242     0DAC  00F9               	movwf	___lwmod@dividend
  3243     0DAD  318A  22A7  318C   	fcall	___lwmod
  3244     0DB0  0877               	movf	?___lwmod,w
  3245     0DB1  3E30               	addlw	48
  3246     0DB2  0020               	movlb	0	; select bank0
  3247     0DB3  00B0               	movwf	printf@c
  3248     0DB4                     l2102:
  3249                           
  3250                           ;doprnt.c: 1549: };doprnt.c: 1550: (putch(c) );
  3251     0DB4  0830               	movf	printf@c,w
  3252     0DB5  3189  21F3  318C   	fcall	_putch
  3253     0DB8                     l2104:
  3254     0DB8  30FF               	movlw	255
  3255     0DB9  0020               	movlb	0	; select bank0
  3256     0DBA  07A8               	addwf	printf@prec,f
  3257     0DBB  0A28               	incf	printf@prec,w
  3258     0DBC  1D03               	btfss	3,2
  3259     0DBD  2DBF               	goto	u1791
  3260     0DBE  2DC0               	goto	u1790
  3261     0DBF                     u1791:
  3262     0DBF  2D8E               	goto	l2100
  3263     0DC0                     u1790:
  3264     0DC0                     l2106:
  3265     0DC0  0020               	movlb	0	; select bank0
  3266     0DC1  0821               	movf	printf@f+1,w
  3267     0DC2  00A5               	movwf	??_printf+1
  3268     0DC3  0820               	movf	printf@f,w
  3269     0DC4  00A4               	movwf	??_printf
  3270     0DC5  0AA0               	incf	printf@f,f
  3271     0DC6  1903               	skipnz
  3272     0DC7  0AA1               	incf	printf@f+1,f
  3273     0DC8  0824               	movf	??_printf,w
  3274     0DC9  0084               	movwf	4
  3275     0DCA  0825               	movf	??_printf+1,w
  3276     0DCB  0085               	movwf	5
  3277     0DCC  0800               	movf	0,w	;code access
  3278     0DCD  00B0               	movwf	printf@c
  3279     0DCE  0830               	movf	printf@c,w
  3280     0DCF  1D03               	btfss	3,2
  3281     0DD0  2DD2               	goto	u1801
  3282     0DD1  2DD3               	goto	u1800
  3283     0DD2                     u1801:
  3284     0DD2  2CD9               	goto	l2044
  3285     0DD3                     u1800:
  3286     0DD3                     l377:
  3287     0DD3  0008               	return
  3288     0DD4                     __end_of_printf:
  3289                           
  3290                           	psect	text9
  3291     0AA7                     __ptext9:	
  3292 ;; *************** function ___lwmod *****************
  3293 ;; Defined at:
  3294 ;;		line 5 in file "C:\Program Files\Microchip\xc8\v2.50\pic\sources\c90\common\lwmod.c"
  3295 ;; Parameters:    Size  Location     Type
  3296 ;;  divisor         2    7[COMMON] unsigned int 
  3297 ;;  dividend        2    9[COMMON] unsigned int 
  3298 ;; Auto vars:     Size  Location     Type
  3299 ;;  counter         1   11[COMMON] unsigned char 
  3300 ;; Return value:  Size  Location     Type
  3301 ;;                  2    7[COMMON] unsigned int 
  3302 ;; Registers used:
  3303 ;;		wreg, status,2, status,0
  3304 ;; Tracked objects:
  3305 ;;		On entry : 0/0
  3306 ;;		On exit  : 0/0
  3307 ;;		Unchanged: 0/0
  3308 ;; Data sizes:     COMMON   BANK0   BANK1   BANK2   BANK3   BANK4   BANK5   BANK6   BANK7   BANK8   BANK9  BANK10  BANK1
      +1  BANK12
  3309 ;;      Params:         4       0       0       0       0       0       0       0       0       0       0       0       
      +0       0
  3310 ;;      Locals:         1       0       0       0       0       0       0       0       0       0       0       0       
      +0       0
  3311 ;;      Temps:          0       0       0       0       0       0       0       0       0       0       0       0       
      +0       0
  3312 ;;      Totals:         5       0       0       0       0       0       0       0       0       0       0       0       
      +0       0
  3313 ;;Total ram usage:        5 bytes
  3314 ;; Hardware stack levels used: 1
  3315 ;; This function calls:
  3316 ;;		Nothing
  3317 ;; This function is called by:
  3318 ;;		_printf
  3319 ;; This function uses a non-reentrant model
  3320 ;;
  3321                           
  3322     0AA7                     ___lwmod:	
  3323                           ;psect for function ___lwmod
  3324                           
  3325     0AA7                     l1910:	
  3326                           ;incstack = 0
  3327                           ; Regs used in ___lwmod: [wreg+status,2+status,0]
  3328                           
  3329     0AA7  0877               	movf	___lwmod@divisor,w
  3330     0AA8  0478               	iorwf	___lwmod@divisor+1,w
  3331     0AA9  1903               	btfsc	3,2
  3332     0AAA  2AAC               	goto	u1551
  3333     0AAB  2AAD               	goto	u1550
  3334     0AAC                     u1551:
  3335     0AAC  2AD4               	goto	l1928
  3336     0AAD                     u1550:
  3337     0AAD                     l1912:
  3338     0AAD  3001               	movlw	1
  3339     0AAE  00FB               	movwf	___lwmod@counter
  3340     0AAF  2AB7               	goto	l1918
  3341     0AB0                     l1914:
  3342     0AB0  3001               	movlw	1
  3343     0AB1                     u1565:
  3344     0AB1  35F7               	lslf	___lwmod@divisor,f
  3345     0AB2  0DF8               	rlf	___lwmod@divisor+1,f
  3346     0AB3  0B89               	decfsz	9,f
  3347     0AB4  2AB1               	goto	u1565
  3348     0AB5                     l1916:
  3349     0AB5  3001               	movlw	1
  3350     0AB6  07FB               	addwf	___lwmod@counter,f
  3351     0AB7                     l1918:
  3352     0AB7  1FF8               	btfss	___lwmod@divisor+1,7
  3353     0AB8  2ABA               	goto	u1571
  3354     0AB9  2ABB               	goto	u1570
  3355     0ABA                     u1571:
  3356     0ABA  2AB0               	goto	l1914
  3357     0ABB                     u1570:
  3358     0ABB                     l1920:
  3359     0ABB  0878               	movf	___lwmod@divisor+1,w
  3360     0ABC  027A               	subwf	___lwmod@dividend+1,w
  3361     0ABD  1D03               	skipz
  3362     0ABE  2AC1               	goto	u1585
  3363     0ABF  0877               	movf	___lwmod@divisor,w
  3364     0AC0  0279               	subwf	___lwmod@dividend,w
  3365     0AC1                     u1585:
  3366     0AC1  1C03               	skipc
  3367     0AC2  2AC4               	goto	u1581
  3368     0AC3  2AC5               	goto	u1580
  3369     0AC4                     u1581:
  3370     0AC4  2AC9               	goto	l1924
  3371     0AC5                     u1580:
  3372     0AC5                     l1922:
  3373     0AC5  0877               	movf	___lwmod@divisor,w
  3374     0AC6  02F9               	subwf	___lwmod@dividend,f
  3375     0AC7  0878               	movf	___lwmod@divisor+1,w
  3376     0AC8  3BFA               	subwfb	___lwmod@dividend+1,f
  3377     0AC9                     l1924:
  3378     0AC9  3001               	movlw	1
  3379     0ACA                     u1595:
  3380     0ACA  36F8               	lsrf	___lwmod@divisor+1,f
  3381     0ACB  0CF7               	rrf	___lwmod@divisor,f
  3382     0ACC  0B89               	decfsz	9,f
  3383     0ACD  2ACA               	goto	u1595
  3384     0ACE                     l1926:
  3385     0ACE  3001               	movlw	1
  3386     0ACF  02FB               	subwf	___lwmod@counter,f
  3387     0AD0  1D03               	btfss	3,2
  3388     0AD1  2AD3               	goto	u1601
  3389     0AD2  2AD4               	goto	u1600
  3390     0AD3                     u1601:
  3391     0AD3  2ABB               	goto	l1920
  3392     0AD4                     u1600:
  3393     0AD4                     l1928:
  3394     0AD4  087A               	movf	___lwmod@dividend+1,w
  3395     0AD5  00F8               	movwf	?___lwmod+1
  3396     0AD6  0879               	movf	___lwmod@dividend,w
  3397     0AD7  00F7               	movwf	?___lwmod
  3398     0AD8                     l663:
  3399     0AD8  0008               	return
  3400     0AD9                     __end_of___lwmod:
  3401                           
  3402                           	psect	text10
  3403     0B79                     __ptext10:	
  3404 ;; *************** function ___lwdiv *****************
  3405 ;; Defined at:
  3406 ;;		line 5 in file "C:\Program Files\Microchip\xc8\v2.50\pic\sources\c90\common\lwdiv.c"
  3407 ;; Parameters:    Size  Location     Type
  3408 ;;  divisor         2    0[COMMON] unsigned int 
  3409 ;;  dividend        2    2[COMMON] unsigned int 
  3410 ;; Auto vars:     Size  Location     Type
  3411 ;;  quotient        2    4[COMMON] unsigned int 
  3412 ;;  counter         1    6[COMMON] unsigned char 
  3413 ;; Return value:  Size  Location     Type
  3414 ;;                  2    0[COMMON] unsigned int 
  3415 ;; Registers used:
  3416 ;;		wreg, status,2, status,0
  3417 ;; Tracked objects:
  3418 ;;		On entry : 0/0
  3419 ;;		On exit  : 0/0
  3420 ;;		Unchanged: 0/0
  3421 ;; Data sizes:     COMMON   BANK0   BANK1   BANK2   BANK3   BANK4   BANK5   BANK6   BANK7   BANK8   BANK9  BANK10  BANK1
      +1  BANK12
  3422 ;;      Params:         4       0       0       0       0       0       0       0       0       0       0       0       
      +0       0
  3423 ;;      Locals:         3       0       0       0       0       0       0       0       0       0       0       0       
      +0       0
  3424 ;;      Temps:          0       0       0       0       0       0       0       0       0       0       0       0       
      +0       0
  3425 ;;      Totals:         7       0       0       0       0       0       0       0       0       0       0       0       
      +0       0
  3426 ;;Total ram usage:        7 bytes
  3427 ;; Hardware stack levels used: 1
  3428 ;; This function calls:
  3429 ;;		Nothing
  3430 ;; This function is called by:
  3431 ;;		_printf
  3432 ;; This function uses a non-reentrant model
  3433 ;;
  3434                           
  3435     0B79                     ___lwdiv:	
  3436                           ;psect for function ___lwdiv
  3437                           
  3438     0B79                     l1884:	
  3439                           ;incstack = 0
  3440                           ; Regs used in ___lwdiv: [wreg+status,2+status,0]
  3441                           
  3442     0B79  01F4               	clrf	___lwdiv@quotient
  3443     0B7A  01F5               	clrf	___lwdiv@quotient+1
  3444     0B7B                     l1886:
  3445     0B7B  0870               	movf	___lwdiv@divisor,w
  3446     0B7C  0471               	iorwf	___lwdiv@divisor+1,w
  3447     0B7D  1903               	btfsc	3,2
  3448     0B7E  2B80               	goto	u1481
  3449     0B7F  2B81               	goto	u1480
  3450     0B80                     u1481:
  3451     0B80  2BAE               	goto	l1906
  3452     0B81                     u1480:
  3453     0B81                     l1888:
  3454     0B81  3001               	movlw	1
  3455     0B82  00F6               	movwf	___lwdiv@counter
  3456     0B83  2B8B               	goto	l1894
  3457     0B84                     l1890:
  3458     0B84  3001               	movlw	1
  3459     0B85                     u1495:
  3460     0B85  35F0               	lslf	___lwdiv@divisor,f
  3461     0B86  0DF1               	rlf	___lwdiv@divisor+1,f
  3462     0B87  0B89               	decfsz	9,f
  3463     0B88  2B85               	goto	u1495
  3464     0B89                     l1892:
  3465     0B89  3001               	movlw	1
  3466     0B8A  07F6               	addwf	___lwdiv@counter,f
  3467     0B8B                     l1894:
  3468     0B8B  1FF1               	btfss	___lwdiv@divisor+1,7
  3469     0B8C  2B8E               	goto	u1501
  3470     0B8D  2B8F               	goto	u1500
  3471     0B8E                     u1501:
  3472     0B8E  2B84               	goto	l1890
  3473     0B8F                     u1500:
  3474     0B8F                     l1896:
  3475     0B8F  3001               	movlw	1
  3476     0B90                     u1515:
  3477     0B90  35F4               	lslf	___lwdiv@quotient,f
  3478     0B91  0DF5               	rlf	___lwdiv@quotient+1,f
  3479     0B92  0B89               	decfsz	9,f
  3480     0B93  2B90               	goto	u1515
  3481     0B94  0871               	movf	___lwdiv@divisor+1,w
  3482     0B95  0273               	subwf	___lwdiv@dividend+1,w
  3483     0B96  1D03               	skipz
  3484     0B97  2B9A               	goto	u1525
  3485     0B98  0870               	movf	___lwdiv@divisor,w
  3486     0B99  0272               	subwf	___lwdiv@dividend,w
  3487     0B9A                     u1525:
  3488     0B9A  1C03               	skipc
  3489     0B9B  2B9D               	goto	u1521
  3490     0B9C  2B9E               	goto	u1520
  3491     0B9D                     u1521:
  3492     0B9D  2BA3               	goto	l1902
  3493     0B9E                     u1520:
  3494     0B9E                     l1898:
  3495     0B9E  0870               	movf	___lwdiv@divisor,w
  3496     0B9F  02F2               	subwf	___lwdiv@dividend,f
  3497     0BA0  0871               	movf	___lwdiv@divisor+1,w
  3498     0BA1  3BF3               	subwfb	___lwdiv@dividend+1,f
  3499     0BA2                     l1900:
  3500     0BA2  1474               	bsf	___lwdiv@quotient,0
  3501     0BA3                     l1902:
  3502     0BA3  3001               	movlw	1
  3503     0BA4                     u1535:
  3504     0BA4  36F1               	lsrf	___lwdiv@divisor+1,f
  3505     0BA5  0CF0               	rrf	___lwdiv@divisor,f
  3506     0BA6  0B89               	decfsz	9,f
  3507     0BA7  2BA4               	goto	u1535
  3508     0BA8                     l1904:
  3509     0BA8  3001               	movlw	1
  3510     0BA9  02F6               	subwf	___lwdiv@counter,f
  3511     0BAA  1D03               	btfss	3,2
  3512     0BAB  2BAD               	goto	u1541
  3513     0BAC  2BAE               	goto	u1540
  3514     0BAD                     u1541:
  3515     0BAD  2B8F               	goto	l1896
  3516     0BAE                     u1540:
  3517     0BAE                     l1906:
  3518     0BAE  0875               	movf	___lwdiv@quotient+1,w
  3519     0BAF  00F1               	movwf	?___lwdiv+1
  3520     0BB0  0874               	movf	___lwdiv@quotient,w
  3521     0BB1  00F0               	movwf	?___lwdiv
  3522     0BB2                     l653:
  3523     0BB2  0008               	return
  3524     0BB3                     __end_of___lwdiv:
  3525                           
  3526                           	psect	text11
  3527     09EB                     __ptext11:	
  3528 ;; *************** function _gets *****************
  3529 ;; Defined at:
  3530 ;;		line 10 in file "C:\Program Files\Microchip\xc8\v2.50\pic\sources\c90\common\gets.c"
  3531 ;; Parameters:    Size  Location     Type
  3532 ;;  s               2   10[COMMON] PTR unsigned char 
  3533 ;;		 -> main@tmp(300), 
  3534 ;; Auto vars:     Size  Location     Type
  3535 ;;		None
  3536 ;; Return value:  Size  Location     Type
  3537 ;;                  2   10[COMMON] PTR unsigned char 
  3538 ;; Registers used:
  3539 ;;		wreg, fsr0l, fsr0h, fsr1l, fsr1h, status,2, status,0, pclath, cstack
  3540 ;; Tracked objects:
  3541 ;;		On entry : 0/0
  3542 ;;		On exit  : 0/0
  3543 ;;		Unchanged: 0/0
  3544 ;; Data sizes:     COMMON   BANK0   BANK1   BANK2   BANK3   BANK4   BANK5   BANK6   BANK7   BANK8   BANK9  BANK10  BANK1
      +1  BANK12
  3545 ;;      Params:         2       0       0       0       0       0       0       0       0       0       0       0       
      +0       0
  3546 ;;      Locals:         0       0       0       0       0       0       0       0       0       0       0       0       
      +0       0
  3547 ;;      Temps:          0       0       0       0       0       0       0       0       0       0       0       0       
      +0       0
  3548 ;;      Totals:         2       0       0       0       0       0       0       0       0       0       0       0       
      +0       0
  3549 ;;Total ram usage:        2 bytes
  3550 ;; Hardware stack levels used: 1
  3551 ;; Hardware stack levels required when called: 3
  3552 ;; This function calls:
  3553 ;;		_cgets
  3554 ;; This function is called by:
  3555 ;;		_main
  3556 ;; This function uses a non-reentrant model
  3557 ;;
  3558                           
  3559     09EB                     _gets:	
  3560                           ;psect for function _gets
  3561                           
  3562     09EB                     l2038:	
  3563                           ;incstack = 0
  3564                           ; Regs used in _gets: [wreg-fsr1h+status,2+status,0+pclath+cstack]
  3565                           
  3566                           
  3567                           ;	Return value of _gets is never used
  3568     09EB  087B               	movf	gets@s+1,w
  3569     09EC  00F3               	movwf	cgets@s+1
  3570     09ED  087A               	movf	gets@s,w
  3571     09EE  00F2               	movwf	cgets@s
  3572     09EF  318C  246E  3189   	fcall	_cgets
  3573     09F2                     l849:
  3574     09F2  0008               	return
  3575     09F3                     __end_of_gets:
  3576                           
  3577                           	psect	text12
  3578     0C6E                     __ptext12:	
  3579 ;; *************** function _cgets *****************
  3580 ;; Defined at:
  3581 ;;		line 4 in file "C:\Program Files\Microchip\xc8\v2.50\pic\sources\c90\common\cgets.c"
  3582 ;; Parameters:    Size  Location     Type
  3583 ;;  s               2    2[COMMON] PTR unsigned char 
  3584 ;;		 -> main@tmp(300), 
  3585 ;; Auto vars:     Size  Location     Type
  3586 ;;  s1              2    8[COMMON] PTR unsigned char 
  3587 ;;		 -> main@tmp(300), 
  3588 ;;  c               2    6[COMMON] int 
  3589 ;; Return value:  Size  Location     Type
  3590 ;;                  2    2[COMMON] PTR unsigned char 
  3591 ;; Registers used:
  3592 ;;		wreg, fsr0l, fsr0h, fsr1l, fsr1h, status,2, status,0, pclath, cstack
  3593 ;; Tracked objects:
  3594 ;;		On entry : 0/0
  3595 ;;		On exit  : 0/0
  3596 ;;		Unchanged: 0/0
  3597 ;; Data sizes:     COMMON   BANK0   BANK1   BANK2   BANK3   BANK4   BANK5   BANK6   BANK7   BANK8   BANK9  BANK10  BANK1
      +1  BANK12
  3598 ;;      Params:         2       0       0       0       0       0       0       0       0       0       0       0       
      +0       0
  3599 ;;      Locals:         4       0       0       0       0       0       0       0       0       0       0       0       
      +0       0
  3600 ;;      Temps:          2       0       0       0       0       0       0       0       0       0       0       0       
      +0       0
  3601 ;;      Totals:         8       0       0       0       0       0       0       0       0       0       0       0       
      +0       0
  3602 ;;Total ram usage:        8 bytes
  3603 ;; Hardware stack levels used: 1
  3604 ;; Hardware stack levels required when called: 2
  3605 ;; This function calls:
  3606 ;;		_getche
  3607 ;;		_putch
  3608 ;; This function is called by:
  3609 ;;		_gets
  3610 ;; This function uses a non-reentrant model
  3611 ;;
  3612                           
  3613     0C6E                     _cgets:	
  3614                           ;psect for function _cgets
  3615                           
  3616     0C6E                     l1944:	
  3617                           ;incstack = 0
  3618                           ; Regs used in _cgets: [wreg-fsr1h+status,2+status,0+pclath+cstack]
  3619                           
  3620     0C6E  0873               	movf	cgets@s+1,w
  3621     0C6F  00F9               	movwf	cgets@s1+1
  3622     0C70  0872               	movf	cgets@s,w
  3623     0C71  00F8               	movwf	cgets@s1
  3624     0C72  2CB6               	goto	l1972
  3625     0C73                     l1946:
  3626     0C73  0879               	movf	cgets@s1+1,w
  3627     0C74  0673               	xorwf	cgets@s+1,w
  3628     0C75  1D03               	skipz
  3629     0C76  2C79               	goto	u1635
  3630     0C77  0878               	movf	cgets@s1,w
  3631     0C78  0672               	xorwf	cgets@s,w
  3632     0C79                     u1635:
  3633     0C79  1D03               	skipz
  3634     0C7A  2C7C               	goto	u1631
  3635     0C7B  2C7D               	goto	u1630
  3636     0C7C                     u1631:
  3637     0C7C  2C7E               	goto	l1950
  3638     0C7D                     u1630:
  3639     0C7D  2CB6               	goto	l1972
  3640     0C7E                     l1950:
  3641     0C7E  3020               	movlw	32
  3642     0C7F  3189  21F3  318C   	fcall	_putch
  3643     0C82  3008               	movlw	8
  3644     0C83  3189  21F3  318C   	fcall	_putch
  3645     0C86                     l1952:
  3646     0C86  3001               	movlw	1
  3647     0C87  02F8               	subwf	cgets@s1,f
  3648     0C88  3000               	movlw	0
  3649     0C89  3BF9               	subwfb	cgets@s1+1,f
  3650     0C8A  2CB6               	goto	l1972
  3651     0C8B                     l1954:
  3652     0C8B  3008               	movlw	8
  3653     0C8C  3189  21F3  318C   	fcall	_putch
  3654     0C8F  3020               	movlw	32
  3655     0C90  3189  21F3  318C   	fcall	_putch
  3656     0C93  3008               	movlw	8
  3657     0C94  3189  21F3  318C   	fcall	_putch
  3658     0C97                     l1956:
  3659     0C97  3001               	movlw	1
  3660     0C98  02F8               	subwf	cgets@s1,f
  3661     0C99  3000               	movlw	0
  3662     0C9A  3BF9               	subwfb	cgets@s1+1,f
  3663     0C9B                     l1958:
  3664     0C9B  0879               	movf	cgets@s1+1,w
  3665     0C9C  0273               	subwf	cgets@s+1,w
  3666     0C9D  1D03               	skipz
  3667     0C9E  2CA1               	goto	u1645
  3668     0C9F  0878               	movf	cgets@s1,w
  3669     0CA0  0272               	subwf	cgets@s,w
  3670     0CA1                     u1645:
  3671     0CA1  1C03               	skipc
  3672     0CA2  2CA4               	goto	u1641
  3673     0CA3  2CA5               	goto	u1640
  3674     0CA4                     u1641:
  3675     0CA4  2C8B               	goto	l1954
  3676     0CA5                     u1640:
  3677     0CA5  2CB6               	goto	l1972
  3678     0CA6                     l1960:
  3679     0CA6  0878               	movf	cgets@s1,w
  3680     0CA7  0086               	movwf	6
  3681     0CA8  0879               	movf	cgets@s1+1,w
  3682     0CA9  0087               	movwf	7
  3683     0CAA  0181               	clrf	1
  3684     0CAB                     l1962:
  3685     0CAB  2CD2               	goto	l867
  3686     0CAC                     l1966:
  3687     0CAC  0878               	movf	cgets@s1,w
  3688     0CAD  0086               	movwf	6
  3689     0CAE  0879               	movf	cgets@s1+1,w
  3690     0CAF  0087               	movwf	7
  3691     0CB0  0876               	movf	cgets@c,w
  3692     0CB1  0081               	movwf	1
  3693     0CB2                     l1968:
  3694     0CB2  3001               	movlw	1
  3695     0CB3  07F8               	addwf	cgets@s1,f
  3696     0CB4  3000               	movlw	0
  3697     0CB5  3DF9               	addwfc	cgets@s1+1,f
  3698     0CB6                     l1972:
  3699     0CB6  3189  21FD  318C   	fcall	_getche
  3700     0CB9  00F4               	movwf	??_cgets
  3701     0CBA  01F5               	clrf	??_cgets+1
  3702     0CBB  0874               	movf	??_cgets,w
  3703     0CBC  00F6               	movwf	cgets@c
  3704     0CBD  0875               	movf	??_cgets+1,w
  3705     0CBE  00F7               	movwf	cgets@c+1
  3706                           
  3707                           ; Switch on 2 bytes has been partitioned into a top level switch of size 1, and 1 sub-sw
      +                          itches
  3708                           ; Switch size 1, requested type "simple"
  3709                           ; Number of cases is 1, Range of values is 0 to 0
  3710                           ; switch strategies available:
  3711                           ; Name         Instructions Cycles
  3712                           ; simple_byte            4     3 (average)
  3713                           ; direct_byte            8     6 (fixed)
  3714                           ; jumptable            260     6 (fixed)
  3715                           ;	Chosen strategy is simple_byte
  3716     0CBF  0877               	movf	cgets@c+1,w
  3717     0CC0  3A00               	xorlw	0	; case 0
  3718     0CC1  1903               	skipnz
  3719     0CC2  2CC4               	goto	l2654
  3720     0CC3  2CAC               	goto	l1966
  3721     0CC4                     l2654:
  3722                           
  3723                           ; Switch size 1, requested type "simple"
  3724                           ; Number of cases is 4, Range of values is 8 to 21
  3725                           ; switch strategies available:
  3726                           ; Name         Instructions Cycles
  3727                           ; simple_byte           13     7 (average)
  3728                           ; direct_byte           37     9 (fixed)
  3729                           ; jumptable            263     9 (fixed)
  3730                           ;	Chosen strategy is simple_byte
  3731     0CC4  0876               	movf	cgets@c,w
  3732     0CC5  3A08               	xorlw	8	; case 8
  3733     0CC6  1903               	skipnz
  3734     0CC7  2C73               	goto	l1946
  3735     0CC8  3A02               	xorlw	2	; case 10
  3736     0CC9  1903               	skipnz
  3737     0CCA  2CA6               	goto	l1960
  3738     0CCB  3A07               	xorlw	7	; case 13
  3739     0CCC  1903               	skipnz
  3740     0CCD  2CA6               	goto	l1960
  3741     0CCE  3A18               	xorlw	24	; case 21
  3742     0CCF  1903               	skipnz
  3743     0CD0  2C9B               	goto	l1958
  3744     0CD1  2CAC               	goto	l1966
  3745     0CD2                     l867:
  3746     0CD2  0008               	return
  3747     0CD3                     __end_of_cgets:
  3748                           
  3749                           	psect	text13
  3750     09FD                     __ptext13:	
  3751 ;; *************** function _getche *****************
  3752 ;; Defined at:
  3753 ;;		line 28 in file "uart.c"
  3754 ;; Parameters:    Size  Location     Type
  3755 ;;		None
  3756 ;; Auto vars:     Size  Location     Type
  3757 ;;  c               1    1[COMMON] unsigned char 
  3758 ;; Return value:  Size  Location     Type
  3759 ;;                  1    wreg      unsigned char 
  3760 ;; Registers used:
  3761 ;;		wreg, status,2, status,0, pclath, cstack
  3762 ;; Tracked objects:
  3763 ;;		On entry : 0/0
  3764 ;;		On exit  : 0/0
  3765 ;;		Unchanged: 0/0
  3766 ;; Data sizes:     COMMON   BANK0   BANK1   BANK2   BANK3   BANK4   BANK5   BANK6   BANK7   BANK8   BANK9  BANK10  BANK1
      +1  BANK12
  3767 ;;      Params:         0       0       0       0       0       0       0       0       0       0       0       0       
      +0       0
  3768 ;;      Locals:         1       0       0       0       0       0       0       0       0       0       0       0       
      +0       0
  3769 ;;      Temps:          0       0       0       0       0       0       0       0       0       0       0       0       
      +0       0
  3770 ;;      Totals:         1       0       0       0       0       0       0       0       0       0       0       0       
      +0       0
  3771 ;;Total ram usage:        1 bytes
  3772 ;; Hardware stack levels used: 1
  3773 ;; Hardware stack levels required when called: 1
  3774 ;; This function calls:
  3775 ;;		_getch
  3776 ;;		_putch
  3777 ;; This function is called by:
  3778 ;;		_cgets
  3779 ;; This function uses a non-reentrant model
  3780 ;;
  3781                           
  3782     09FD                     _getche:	
  3783                           ;psect for function _getche
  3784                           
  3785     09FD                     l1828:	
  3786                           ;incstack = 0
  3787                           ; Regs used in _getche: [wreg+status,2+status,0+pclath+cstack]
  3788                           
  3789                           
  3790                           ;uart.c: 30: unsigned char c;;uart.c: 32: c = getch();
  3791     09FD  3189  21E3  3189   	fcall	_getch
  3792     0A00  00F1               	movwf	getche@c
  3793     0A01                     l1830:
  3794                           
  3795                           ;uart.c: 33: putch(c);
  3796     0A01  0871               	movf	getche@c,w
  3797     0A02  3189  21F3  3189   	fcall	_putch
  3798     0A05                     l1832:
  3799                           
  3800                           ;uart.c: 35: return c;
  3801     0A05  0871               	movf	getche@c,w
  3802     0A06                     l275:
  3803     0A06  0008               	return
  3804     0A07                     __end_of_getche:
  3805                           
  3806                           	psect	text14
  3807     09F3                     __ptext14:	
  3808 ;; *************** function _putch *****************
  3809 ;; Defined at:
  3810 ;;		line 13 in file "uart.c"
  3811 ;; Parameters:    Size  Location     Type
  3812 ;;  byte            1    wreg     unsigned char 
  3813 ;; Auto vars:     Size  Location     Type
  3814 ;;  byte            1    0[COMMON] unsigned char 
  3815 ;; Return value:  Size  Location     Type
  3816 ;;                  1    wreg      void 
  3817 ;; Registers used:
  3818 ;;		wreg
  3819 ;; Tracked objects:
  3820 ;;		On entry : 0/0
  3821 ;;		On exit  : 0/0
  3822 ;;		Unchanged: 0/0
  3823 ;; Data sizes:     COMMON   BANK0   BANK1   BANK2   BANK3   BANK4   BANK5   BANK6   BANK7   BANK8   BANK9  BANK10  BANK1
      +1  BANK12
  3824 ;;      Params:         0       0       0       0       0       0       0       0       0       0       0       0       
      +0       0
  3825 ;;      Locals:         1       0       0       0       0       0       0       0       0       0       0       0       
      +0       0
  3826 ;;      Temps:          0       0       0       0       0       0       0       0       0       0       0       0       
      +0       0
  3827 ;;      Totals:         1       0       0       0       0       0       0       0       0       0       0       0       
      +0       0
  3828 ;;Total ram usage:        1 bytes
  3829 ;; Hardware stack levels used: 1
  3830 ;; This function calls:
  3831 ;;		Nothing
  3832 ;; This function is called by:
  3833 ;;		_getche
  3834 ;;		_printf
  3835 ;;		_cgets
  3836 ;; This function uses a non-reentrant model
  3837 ;;
  3838                           
  3839     09F3                     _putch:	
  3840                           ;psect for function _putch
  3841                           
  3842                           
  3843                           ;incstack = 0
  3844                           ; Regs used in _putch: [wreg]
  3845                           ;putch@byte stored from wreg
  3846     09F3  00F0               	movwf	putch@byte
  3847     09F4                     l1818:
  3848     09F4                     l263:	
  3849                           ;uart.c: 15: while(!TXIF){
  3850                           
  3851     09F4  0020               	movlb	0	; select bank0
  3852     09F5  1E11               	btfss	17,4	;volatile
  3853     09F6  29F8               	goto	u1331
  3854     09F7  29F9               	goto	u1330
  3855     09F8                     u1331:
  3856     09F8  29F4               	goto	l263
  3857     09F9                     u1330:
  3858     09F9                     l1820:
  3859                           
  3860                           ;uart.c: 16: };uart.c: 17: TXREG = byte;
  3861     09F9  0870               	movf	putch@byte,w
  3862     09FA  0023               	movlb	3	; select bank3
  3863     09FB  009A               	movwf	26	;volatile
  3864     09FC                     l266:
  3865     09FC  0008               	return
  3866     09FD                     __end_of_putch:
  3867                           
  3868                           	psect	text15
  3869     09E3                     __ptext15:	
  3870 ;; *************** function _getch *****************
  3871 ;; Defined at:
  3872 ;;		line 20 in file "uart.c"
  3873 ;; Parameters:    Size  Location     Type
  3874 ;;		None
  3875 ;; Auto vars:     Size  Location     Type
  3876 ;;		None
  3877 ;; Return value:  Size  Location     Type
  3878 ;;                  1    wreg      unsigned char 
  3879 ;; Registers used:
  3880 ;;		wreg
  3881 ;; Tracked objects:
  3882 ;;		On entry : 0/0
  3883 ;;		On exit  : 0/0
  3884 ;;		Unchanged: 0/0
  3885 ;; Data sizes:     COMMON   BANK0   BANK1   BANK2   BANK3   BANK4   BANK5   BANK6   BANK7   BANK8   BANK9  BANK10  BANK1
      +1  BANK12
  3886 ;;      Params:         0       0       0       0       0       0       0       0       0       0       0       0       
      +0       0
  3887 ;;      Locals:         0       0       0       0       0       0       0       0       0       0       0       0       
      +0       0
  3888 ;;      Temps:          0       0       0       0       0       0       0       0       0       0       0       0       
      +0       0
  3889 ;;      Totals:         0       0       0       0       0       0       0       0       0       0       0       0       
      +0       0
  3890 ;;Total ram usage:        0 bytes
  3891 ;; Hardware stack levels used: 1
  3892 ;; This function calls:
  3893 ;;		Nothing
  3894 ;; This function is called by:
  3895 ;;		_getche
  3896 ;; This function uses a non-reentrant model
  3897 ;;
  3898                           
  3899     09E3                     _getch:	
  3900                           ;psect for function _getch
  3901                           
  3902     09E3                     l1822:	
  3903                           ;incstack = 0
  3904                           ; Regs used in _getch: [wreg]
  3905                           
  3906     09E3                     l269:	
  3907                           ;uart.c: 22: while(!RCIF){
  3908                           
  3909     09E3  0020               	movlb	0	; select bank0
  3910     09E4  1E91               	btfss	17,5	;volatile
  3911     09E5  29E7               	goto	u1341
  3912     09E6  29E8               	goto	u1340
  3913     09E7                     u1341:
  3914     09E7  29E3               	goto	l269
  3915     09E8                     u1340:
  3916     09E8                     l1824:
  3917                           
  3918                           ;uart.c: 23: };uart.c: 25: return RCREG;
  3919     09E8  0023               	movlb	3	; select bank3
  3920     09E9  0819               	movf	25,w	;volatile
  3921     09EA                     l272:
  3922     09EA  0008               	return
  3923     09EB                     __end_of_getch:
  3924                           
  3925                           	psect	text16
  3926     001A                     __ptext16:	
  3927 ;; *************** function _atoi *****************
  3928 ;; Defined at:
  3929 ;;		line 5 in file "C:\Program Files\Microchip\xc8\v2.50\pic\sources\c90\common\atoi.c"
  3930 ;; Parameters:    Size  Location     Type
  3931 ;;  s               2    6[COMMON] PTR const unsigned char 
  3932 ;;		 -> NULL(0), main@tmp(300), 
  3933 ;; Auto vars:     Size  Location     Type
  3934 ;;  a               2   11[COMMON] int 
  3935 ;;  sign            1   10[COMMON] unsigned char 
  3936 ;; Return value:  Size  Location     Type
  3937 ;;                  2    6[COMMON] int 
  3938 ;; Registers used:
  3939 ;;		wreg, fsr1l, fsr1h, status,2, status,0, pclath, cstack
  3940 ;; Tracked objects:
  3941 ;;		On entry : 0/0
  3942 ;;		On exit  : 0/0
  3943 ;;		Unchanged: 0/0
  3944 ;; Data sizes:     COMMON   BANK0   BANK1   BANK2   BANK3   BANK4   BANK5   BANK6   BANK7   BANK8   BANK9  BANK10  BANK1
      +1  BANK12
  3945 ;;      Params:         2       0       0       0       0       0       0       0       0       0       0       0       
      +0       0
  3946 ;;      Locals:         3       0       0       0       0       0       0       0       0       0       0       0       
      +0       0
  3947 ;;      Temps:          2       0       0       0       0       0       0       0       0       0       0       0       
      +0       0
  3948 ;;      Totals:         7       0       0       0       0       0       0       0       0       0       0       0       
      +0       0
  3949 ;;Total ram usage:        7 bytes
  3950 ;; Hardware stack levels used: 1
  3951 ;; Hardware stack levels required when called: 1
  3952 ;; This function calls:
  3953 ;;		___wmul
  3954 ;;		_isdigit
  3955 ;; This function is called by:
  3956 ;;		_main
  3957 ;; This function uses a non-reentrant model
  3958 ;;
  3959                           
  3960     001A                     _atoi:	
  3961                           ;psect for function _atoi
  3962                           
  3963     001A                     l2152:	
  3964                           ;incstack = 0
  3965                           ; Regs used in _atoi: [wreg+fsr1l+fsr1h+status,2+status,0+pclath+cstack]
  3966                           
  3967     001A  281F               	goto	l2156
  3968     001B                     l2154:
  3969     001B  3001               	movlw	1
  3970     001C  07F6               	addwf	atoi@s,f
  3971     001D  3000               	movlw	0
  3972     001E  3DF7               	addwfc	atoi@s+1,f
  3973     001F                     l2156:
  3974     001F  0876               	movf	atoi@s,w
  3975     0020  0086               	movwf	6
  3976     0021  0877               	movf	atoi@s+1,w
  3977     0022  0087               	movwf	7
  3978     0023  3020               	movlw	32
  3979     0024  0601               	xorwf	1,w
  3980     0025  1903               	btfsc	3,2
  3981     0026  2828               	goto	u1871
  3982     0027  2829               	goto	u1870
  3983     0028                     u1871:
  3984     0028  281B               	goto	l2154
  3985     0029                     u1870:
  3986     0029                     l2158:
  3987     0029  0876               	movf	atoi@s,w
  3988     002A  0086               	movwf	6
  3989     002B  0877               	movf	atoi@s+1,w
  3990     002C  0087               	movwf	7
  3991     002D  3009               	movlw	9
  3992     002E  0601               	xorwf	1,w
  3993     002F  1903               	btfsc	3,2
  3994     0030  2832               	goto	u1881
  3995     0031  2833               	goto	u1880
  3996     0032                     u1881:
  3997     0032  281B               	goto	l2154
  3998     0033                     u1880:
  3999     0033                     l2160:
  4000     0033  01FB               	clrf	atoi@a
  4001     0034  01FC               	clrf	atoi@a+1
  4002     0035  01FA               	clrf	atoi@sign
  4003     0036                     l2162:
  4004     0036  0876               	movf	atoi@s,w
  4005     0037  0086               	movwf	6
  4006     0038  0877               	movf	atoi@s+1,w
  4007     0039  0087               	movwf	7
  4008     003A  302D               	movlw	45
  4009     003B  0601               	xorwf	1,w
  4010     003C  1D03               	btfss	3,2
  4011     003D  283F               	goto	u1891
  4012     003E  2840               	goto	u1890
  4013     003F                     u1891:
  4014     003F  2847               	goto	l2168
  4015     0040                     u1890:
  4016     0040                     l2164:
  4017     0040  3001               	movlw	1
  4018     0041  07FA               	addwf	atoi@sign,f
  4019     0042                     l2166:
  4020     0042  3001               	movlw	1
  4021     0043  07F6               	addwf	atoi@s,f
  4022     0044  3000               	movlw	0
  4023     0045  3DF7               	addwfc	atoi@s+1,f
  4024     0046  286E               	goto	l2176
  4025     0047                     l2168:
  4026     0047  0876               	movf	atoi@s,w
  4027     0048  0086               	movwf	6
  4028     0049  0877               	movf	atoi@s+1,w
  4029     004A  0087               	movwf	7
  4030     004B  302B               	movlw	43
  4031     004C  0601               	xorwf	1,w
  4032     004D  1D03               	btfss	3,2
  4033     004E  2850               	goto	u1901
  4034     004F  2851               	goto	u1900
  4035     0050                     u1901:
  4036     0050  286E               	goto	l2176
  4037     0051                     u1900:
  4038     0051  2842               	goto	l2166
  4039     0052                     l2172:
  4040     0052  0876               	movf	atoi@s,w
  4041     0053  0086               	movwf	6
  4042     0054  0877               	movf	atoi@s+1,w
  4043     0055  0087               	movwf	7
  4044     0056  087C               	movf	atoi@a+1,w
  4045     0057  00F1               	movwf	___wmul@multiplier+1
  4046     0058  087B               	movf	atoi@a,w
  4047     0059  00F0               	movwf	___wmul@multiplier
  4048     005A  300A               	movlw	10
  4049     005B  00F2               	movwf	___wmul@multiplicand
  4050     005C  3000               	movlw	0
  4051     005D  00F3               	movwf	___wmul@multiplicand+1
  4052     005E  318A  2260  3180   	fcall	___wmul
  4053     0061  0801               	movf	1,w
  4054     0062  0770               	addwf	?___wmul,w
  4055     0063  00F8               	movwf	??_atoi
  4056     0064  3000               	movlw	0
  4057     0065  3D71               	addwfc	?___wmul+1,w
  4058     0066  00F9               	movwf	??_atoi+1
  4059     0067  0878               	movf	??_atoi,w
  4060     0068  3ED0               	addlw	208
  4061     0069  00FB               	movwf	atoi@a
  4062     006A  30FF               	movlw	255
  4063     006B  3D79               	addwfc	??_atoi+1,w
  4064     006C  00FC               	movwf	atoi@a+1
  4065     006D  2842               	goto	l2166
  4066     006E                     l2176:
  4067     006E  0876               	movf	atoi@s,w
  4068     006F  0086               	movwf	6
  4069     0070  0877               	movf	atoi@s+1,w
  4070     0071  0087               	movwf	7
  4071     0072  0801               	movf	1,w
  4072     0073  318A  2213  3180   	fcall	_isdigit
  4073     0076  1803               	btfsc	3,0
  4074     0077  2879               	goto	u1911
  4075     0078  287A               	goto	u1910
  4076     0079                     u1911:
  4077     0079  2852               	goto	l2172
  4078     007A                     u1910:
  4079     007A                     l2178:
  4080     007A  087A               	movf	atoi@sign,w
  4081     007B  1903               	btfsc	3,2
  4082     007C  287E               	goto	u1921
  4083     007D  287F               	goto	u1920
  4084     007E                     u1921:
  4085     007E  288B               	goto	l2184
  4086     007F                     u1920:
  4087     007F                     l2180:
  4088     007F  097B               	comf	atoi@a,w
  4089     0080  00F8               	movwf	??_atoi
  4090     0081  097C               	comf	atoi@a+1,w
  4091     0082  00F9               	movwf	??_atoi+1
  4092     0083  0AF8               	incf	??_atoi,f
  4093     0084  1903               	skipnz
  4094     0085  0AF9               	incf	??_atoi+1,f
  4095     0086  0878               	movf	??_atoi,w
  4096     0087  00F6               	movwf	?_atoi
  4097     0088  0879               	movf	??_atoi+1,w
  4098     0089  00F7               	movwf	?_atoi+1
  4099     008A  288F               	goto	l844
  4100     008B                     l2184:
  4101     008B  087C               	movf	atoi@a+1,w
  4102     008C  00F7               	movwf	?_atoi+1
  4103     008D  087B               	movf	atoi@a,w
  4104     008E  00F6               	movwf	?_atoi
  4105     008F                     l844:
  4106     008F  0008               	return
  4107     0090                     __end_of_atoi:
  4108                           
  4109                           	psect	text17
  4110     0A13                     __ptext17:	
  4111 ;; *************** function _isdigit *****************
  4112 ;; Defined at:
  4113 ;;		line 8 in file "C:\Program Files\Microchip\xc8\v2.50\pic\sources\c90\common\isdigit.c"
  4114 ;; Parameters:    Size  Location     Type
  4115 ;;  c               1    wreg     unsigned char 
  4116 ;; Auto vars:     Size  Location     Type
  4117 ;;  c               1    1[COMMON] unsigned char 
  4118 ;; Return value:  Size  Location     Type
  4119 ;;		None               void
  4120 ;; Registers used:
  4121 ;;		wreg, status,2, status,0
  4122 ;; Tracked objects:
  4123 ;;		On entry : 0/0
  4124 ;;		On exit  : 0/0
  4125 ;;		Unchanged: 0/0
  4126 ;; Data sizes:     COMMON   BANK0   BANK1   BANK2   BANK3   BANK4   BANK5   BANK6   BANK7   BANK8   BANK9  BANK10  BANK1
      +1  BANK12
  4127 ;;      Params:         0       0       0       0       0       0       0       0       0       0       0       0       
      +0       0
  4128 ;;      Locals:         2       0       0       0       0       0       0       0       0       0       0       0       
      +0       0
  4129 ;;      Temps:          0       0       0       0       0       0       0       0       0       0       0       0       
      +0       0
  4130 ;;      Totals:         2       0       0       0       0       0       0       0       0       0       0       0       
      +0       0
  4131 ;;Total ram usage:        2 bytes
  4132 ;; Hardware stack levels used: 1
  4133 ;; This function calls:
  4134 ;;		Nothing
  4135 ;; This function is called by:
  4136 ;;		_atoi
  4137 ;; This function uses a non-reentrant model
  4138 ;;
  4139                           
  4140     0A13                     _isdigit:	
  4141                           ;psect for function _isdigit
  4142                           
  4143                           
  4144                           ;incstack = 0
  4145                           ; Regs used in _isdigit: [wreg+status,2+status,0]
  4146                           ;isdigit@c stored from wreg
  4147     0A13  00F1               	movwf	isdigit@c
  4148     0A14                     l1932:
  4149     0A14  01F0               	clrf	_isdigit$645
  4150     0A15                     l1934:
  4151     0A15  303A               	movlw	58
  4152     0A16  0271               	subwf	isdigit@c,w
  4153     0A17  1803               	skipnc
  4154     0A18  2A1A               	goto	u1611
  4155     0A19  2A1B               	goto	u1610
  4156     0A1A                     u1611:
  4157     0A1A  2A23               	goto	l1940
  4158     0A1B                     u1610:
  4159     0A1B                     l1936:
  4160     0A1B  3030               	movlw	48
  4161     0A1C  0271               	subwf	isdigit@c,w
  4162     0A1D  1C03               	skipc
  4163     0A1E  2A20               	goto	u1621
  4164     0A1F  2A21               	goto	u1620
  4165     0A20                     u1621:
  4166     0A20  2A23               	goto	l1940
  4167     0A21                     u1620:
  4168     0A21                     l1938:
  4169     0A21  3001               	movlw	1
  4170     0A22  00F0               	movwf	_isdigit$645
  4171     0A23                     l1940:
  4172     0A23  0C70               	rrf	_isdigit$645,w
  4173     0A24                     l874:
  4174     0A24  0008               	return
  4175     0A25                     __end_of_isdigit:
  4176                           
  4177                           	psect	text18
  4178     0A60                     __ptext18:	
  4179 ;; *************** function ___wmul *****************
  4180 ;; Defined at:
  4181 ;;		line 15 in file "C:\Program Files\Microchip\xc8\v2.50\pic\sources\c90\common\Umul16.c"
  4182 ;; Parameters:    Size  Location     Type
  4183 ;;  multiplier      2    0[COMMON] unsigned int 
  4184 ;;  multiplicand    2    2[COMMON] unsigned int 
  4185 ;; Auto vars:     Size  Location     Type
  4186 ;;  product         2    4[COMMON] unsigned int 
  4187 ;; Return value:  Size  Location     Type
  4188 ;;                  2    0[COMMON] unsigned int 
  4189 ;; Registers used:
  4190 ;;		wreg, status,2, status,0
  4191 ;; Tracked objects:
  4192 ;;		On entry : 0/0
  4193 ;;		On exit  : 0/0
  4194 ;;		Unchanged: 0/0
  4195 ;; Data sizes:     COMMON   BANK0   BANK1   BANK2   BANK3   BANK4   BANK5   BANK6   BANK7   BANK8   BANK9  BANK10  BANK1
      +1  BANK12
  4196 ;;      Params:         4       0       0       0       0       0       0       0       0       0       0       0       
      +0       0
  4197 ;;      Locals:         2       0       0       0       0       0       0       0       0       0       0       0       
      +0       0
  4198 ;;      Temps:          0       0       0       0       0       0       0       0       0       0       0       0       
      +0       0
  4199 ;;      Totals:         6       0       0       0       0       0       0       0       0       0       0       0       
      +0       0
  4200 ;;Total ram usage:        6 bytes
  4201 ;; Hardware stack levels used: 1
  4202 ;; This function calls:
  4203 ;;		Nothing
  4204 ;; This function is called by:
  4205 ;;		_atoi
  4206 ;; This function uses a non-reentrant model
  4207 ;;
  4208                           
  4209     0A60                     ___wmul:	
  4210                           ;psect for function ___wmul
  4211                           
  4212     0A60                     l1846:	
  4213                           ;incstack = 0
  4214                           ; Regs used in ___wmul: [wreg+status,2+status,0]
  4215                           
  4216     0A60  01F4               	clrf	___wmul@product
  4217     0A61  01F5               	clrf	___wmul@product+1
  4218     0A62                     l1848:
  4219     0A62  1C70               	btfss	___wmul@multiplier,0
  4220     0A63  2A65               	goto	u1371
  4221     0A64  2A66               	goto	u1370
  4222     0A65                     u1371:
  4223     0A65  2A6A               	goto	l381
  4224     0A66                     u1370:
  4225     0A66                     l1850:
  4226     0A66  0872               	movf	___wmul@multiplicand,w
  4227     0A67  07F4               	addwf	___wmul@product,f
  4228     0A68  0873               	movf	___wmul@multiplicand+1,w
  4229     0A69  3DF5               	addwfc	___wmul@product+1,f
  4230     0A6A                     l381:
  4231     0A6A  3001               	movlw	1
  4232     0A6B                     u1385:
  4233     0A6B  35F2               	lslf	___wmul@multiplicand,f
  4234     0A6C  0DF3               	rlf	___wmul@multiplicand+1,f
  4235     0A6D  0B89               	decfsz	9,f
  4236     0A6E  2A6B               	goto	u1385
  4237     0A6F                     l1852:
  4238     0A6F  3001               	movlw	1
  4239     0A70                     u1395:
  4240     0A70  36F1               	lsrf	___wmul@multiplier+1,f
  4241     0A71  0CF0               	rrf	___wmul@multiplier,f
  4242     0A72  0B89               	decfsz	9,f
  4243     0A73  2A70               	goto	u1395
  4244     0A74                     l1854:
  4245     0A74  0870               	movf	___wmul@multiplier,w
  4246     0A75  0471               	iorwf	___wmul@multiplier+1,w
  4247     0A76  1D03               	btfss	3,2
  4248     0A77  2A79               	goto	u1401
  4249     0A78  2A7A               	goto	u1400
  4250     0A79                     u1401:
  4251     0A79  2A62               	goto	l1848
  4252     0A7A                     u1400:
  4253     0A7A                     l1856:
  4254     0A7A  0875               	movf	___wmul@product+1,w
  4255     0A7B  00F1               	movwf	?___wmul+1
  4256     0A7C  0874               	movf	___wmul@product,w
  4257     0A7D  00F0               	movwf	?___wmul
  4258     0A7E                     l383:
  4259     0A7E  0008               	return
  4260     0A7F                     __end_of___wmul:
  4261                           
  4262                           	psect	text19
  4263     0A25                     __ptext19:	
  4264 ;; *************** function _PICinit *****************
  4265 ;; Defined at:
  4266 ;;		line 71 in file "main.c"
  4267 ;; Parameters:    Size  Location     Type
  4268 ;;		None
  4269 ;; Auto vars:     Size  Location     Type
  4270 ;;		None
  4271 ;; Return value:  Size  Location     Type
  4272 ;;                  1    wreg      void 
  4273 ;; Registers used:
  4274 ;;		status,2
  4275 ;; Tracked objects:
  4276 ;;		On entry : 0/0
  4277 ;;		On exit  : 0/0
  4278 ;;		Unchanged: 0/0
  4279 ;; Data sizes:     COMMON   BANK0   BANK1   BANK2   BANK3   BANK4   BANK5   BANK6   BANK7   BANK8   BANK9  BANK10  BANK1
      +1  BANK12
  4280 ;;      Params:         0       0       0       0       0       0       0       0       0       0       0       0       
      +0       0
  4281 ;;      Locals:         0       0       0       0       0       0       0       0       0       0       0       0       
      +0       0
  4282 ;;      Temps:          0       0       0       0       0       0       0       0       0       0       0       0       
      +0       0
  4283 ;;      Totals:         0       0       0       0       0       0       0       0       0       0       0       0       
      +0       0
  4284 ;;Total ram usage:        0 bytes
  4285 ;; Hardware stack levels used: 1
  4286 ;; This function calls:
  4287 ;;		Nothing
  4288 ;; This function is called by:
  4289 ;;		_main
  4290 ;; This function uses a non-reentrant model
  4291 ;;
  4292                           
  4293     0A25                     _PICinit:	
  4294                           ;psect for function _PICinit
  4295                           
  4296     0A25                     l2020:	
  4297                           ;incstack = 0
  4298                           ; Regs used in _PICinit: [status,2]
  4299                           
  4300                           
  4301                           ;main.c: 72: OSCCON = 0b01110000 ;
  4302     0A25  3070               	movlw	112
  4303     0A26  0021               	movlb	1	; select bank1
  4304     0A27  0099               	movwf	25	;volatile
  4305     0A28                     l2022:
  4306                           
  4307                           ;main.c: 73: ANSELA = 0b00000000 ;
  4308     0A28  0023               	movlb	3	; select bank3
  4309     0A29  018C               	clrf	12	;volatile
  4310     0A2A                     l2024:
  4311                           
  4312                           ;main.c: 74: ANSELC = 0b00000001 ;
  4313     0A2A  3001               	movlw	1
  4314     0A2B  008E               	movwf	14	;volatile
  4315     0A2C                     l2026:
  4316                           
  4317                           ;main.c: 75: TRISA = 0b00000010 ;
  4318     0A2C  3002               	movlw	2
  4319     0A2D  0021               	movlb	1	; select bank1
  4320     0A2E  008C               	movwf	12	;volatile
  4321     0A2F                     l2028:
  4322                           
  4323                           ;main.c: 76: TRISC = 0b00000001 ;
  4324     0A2F  3001               	movlw	1
  4325     0A30  008E               	movwf	14	;volatile
  4326                           
  4327                           ;main.c: 77: PORTA = 0b00000000 ;
  4328     0A31  0020               	movlb	0	; select bank0
  4329     0A32  018C               	clrf	12	;volatile
  4330                           
  4331                           ;main.c: 78: PORTC = 0b00000000 ;
  4332     0A33  018E               	clrf	14	;volatile
  4333     0A34                     l2030:
  4334                           
  4335                           ;main.c: 80: ADCON0 = 0b00010001;
  4336     0A34  3011               	movlw	17
  4337     0A35  0021               	movlb	1	; select bank1
  4338     0A36  009D               	movwf	29	;volatile
  4339     0A37                     l2032:
  4340                           
  4341                           ;main.c: 81: ADCON1 = 0b10100011;
  4342     0A37  30A3               	movlw	163
  4343     0A38  009E               	movwf	30	;volatile
  4344     0A39                     l2034:
  4345                           
  4346                           ;main.c: 83: FVRCON = 0b10000010;
  4347     0A39  3082               	movlw	130
  4348     0A3A  0022               	movlb	2	; select bank2
  4349     0A3B  0097               	movwf	23	;volatile
  4350                           
  4351                           ;main.c: 85: ADRESL = 0x00;
  4352     0A3C  0021               	movlb	1	; select bank1
  4353     0A3D  019B               	clrf	27	;volatile
  4354                           
  4355                           ;main.c: 86: ADRESH = 0x00;
  4356     0A3E  019C               	clrf	28	;volatile
  4357     0A3F                     l2036:
  4358                           
  4359                           ;main.c: 87: ADCON0 = 0x01;
  4360     0A3F  3001               	movlw	1
  4361     0A40  009D               	movwf	29	;volatile
  4362     0A41                     l66:
  4363     0A41  0008               	return
  4364     0A42                     __end_of_PICinit:
  4365                           
  4366                           	psect	text20
  4367     0005                     __ptext20:	
  4368 ;; *************** function _AD_convert *****************
  4369 ;; Defined at:
  4370 ;;		line 57 in file "main.c"
  4371 ;; Parameters:    Size  Location     Type
  4372 ;;  channel         1    wreg     unsigned char 
  4373 ;; Auto vars:     Size  Location     Type
  4374 ;;  channel         1    0[COMMON] unsigned char 
  4375 ;; Return value:  Size  Location     Type
  4376 ;;                  2    0[COMMON] unsigned int 
  4377 ;; Registers used:
  4378 ;;		wreg
  4379 ;; Tracked objects:
  4380 ;;		On entry : 0/0
  4381 ;;		On exit  : 0/0
  4382 ;;		Unchanged: 0/0
  4383 ;; Data sizes:     COMMON   BANK0   BANK1   BANK2   BANK3   BANK4   BANK5   BANK6   BANK7   BANK8   BANK9  BANK10  BANK1
      +1  BANK12
  4384 ;;      Params:         2       0       0       0       0       0       0       0       0       0       0       0       
      +0       0
  4385 ;;      Locals:         0       0       0       0       0       0       0       0       0       0       0       0       
      +0       0
  4386 ;;      Temps:          0       0       0       0       0       0       0       0       0       0       0       0       
      +0       0
  4387 ;;      Totals:         2       0       0       0       0       0       0       0       0       0       0       0       
      +0       0
  4388 ;;Total ram usage:        2 bytes
  4389 ;; Hardware stack levels used: 1
  4390 ;; This function calls:
  4391 ;;		Nothing
  4392 ;; This function is called by:
  4393 ;;		_main
  4394 ;; This function uses a non-reentrant model
  4395 ;;
  4396                           
  4397     0005                     _AD_convert:	
  4398                           ;psect for function _AD_convert
  4399                           
  4400     0005                     l2010:	
  4401                           ;incstack = 0
  4402                           ; Regs used in _AD_convert: [wreg]
  4403                           
  4404                           
  4405                           ;main.c: 59: ADCON0bits.CHS0 = 0;
  4406     0005  0021               	movlb	1	; select bank1
  4407     0006  111D               	bcf	29,2	;volatile
  4408                           
  4409                           ;main.c: 60: ADCON0bits.CHS1 = 0;
  4410     0007  119D               	bcf	29,3	;volatile
  4411                           
  4412                           ;main.c: 61: ADCON0bits.CHS2 = 1;
  4413     0008  161D               	bsf	29,4	;volatile
  4414                           
  4415                           ;main.c: 62: ADCON0bits.CHS3 = 0;
  4416     0009  129D               	bcf	29,5	;volatile
  4417                           
  4418                           ;main.c: 63: ADCON0bits.CHS4 = 0;
  4419     000A  131D               	bcf	29,6	;volatile
  4420     000B                     l2012:
  4421                           
  4422                           ;main.c: 64: _delay((unsigned long)((20)*(32000000/4000000.0)));
  4423     000B  3035               	movlw	53
  4424     000C                     u2847:
  4425     000C  0B89               	decfsz	9,f
  4426     000D  280C               	goto	u2847
  4427     000E  0000               	nop
  4428     000F                     l2014:
  4429                           
  4430                           ;main.c: 65: ADCON0bits.GO_nDONE = 1;
  4431     000F  0021               	movlb	1	; select bank1
  4432     0010  149D               	bsf	29,1	;volatile
  4433     0011                     l60:	
  4434                           ;main.c: 66: while(ADCON0bits.GO_nDONE){};
  4435                           
  4436     0011  189D               	btfsc	29,1	;volatile
  4437     0012  2814               	goto	u1701
  4438     0013  2815               	goto	u1700
  4439     0014                     u1701:
  4440     0014  2811               	goto	l60
  4441     0015                     u1700:
  4442     0015                     l2016:
  4443                           
  4444                           ;main.c: 68: return (ADRESH<<8) + ADRESL;
  4445     0015  081C               	movf	28,w	;volatile
  4446     0016  00F1               	movwf	?_AD_convert+1
  4447     0017  081B               	movf	27,w	;volatile
  4448     0018  00F0               	movwf	?_AD_convert
  4449     0019                     l63:
  4450     0019  0008               	return
  4451     001A                     __end_of_AD_convert:
  4452     0002                     ___latbits      equ	2
  4453     007E                     btemp           set	126	;btemp
  4454     007E                     wtemp0          set	126
  4455     2134                     __pbssBIGRAM    equ	8500
  4456                           
  4457                           	psect	idloc
  4458                           
  4459                           ;Config register IDLOC0 @ 0x8000
  4460                           ;	unspecified, using default values
  4461     8000                     	org	32768
  4462     8000  3FFF               	dw	16383
  4463                           
  4464                           ;Config register IDLOC1 @ 0x8001
  4465                           ;	unspecified, using default values
  4466     8001                     	org	32769
  4467     8001  3FFF               	dw	16383
  4468                           
  4469                           ;Config register IDLOC2 @ 0x8002
  4470                           ;	unspecified, using default values
  4471     8002                     	org	32770
  4472     8002  3FFF               	dw	16383
  4473                           
  4474                           ;Config register IDLOC3 @ 0x8003
  4475                           ;	unspecified, using default values
  4476     8003                     	org	32771
  4477     8003  3FFF               	dw	16383
  4478                           
  4479                           	psect	config
  4480                           
  4481                           ;Config register CONFIG1 @ 0x8007
  4482                           ;	Oscillator Selection Bits
  4483                           ;	FOSC = INTOSC, INTOSC oscillator: I/O function on CLKIN pin
  4484                           ;	Watchdog Timer Enable
  4485                           ;	WDTE = OFF, WDT disabled
  4486                           ;	Power-up Timer Enable
  4487                           ;	PWRTE = ON, PWRT enabled
  4488                           ;	MCLR Pin Function Select
  4489                           ;	MCLRE = OFF, MCLR/VPP pin function is digital input
  4490                           ;	Flash Program Memory Code Protection
  4491                           ;	CP = OFF, Program memory code protection is disabled
  4492                           ;	Brown-out Reset Enable
  4493                           ;	BOREN = ON, Brown-out Reset enabled
  4494                           ;	Clock Out Enable
  4495                           ;	CLKOUTEN = OFF, CLKOUT function is disabled. I/O or oscillator function on the CLKOUT 
      +                          pin
  4496                           ;	Internal/External Switchover Mode
  4497                           ;	IESO = OFF, Internal/External Switchover Mode is disabled
  4498                           ;	Fail-Safe Clock Monitor Enable
  4499                           ;	FCMEN = OFF, Fail-Safe Clock Monitor is disabled
  4500     8007                     	org	32775
  4501     8007  0F84               	dw	3972
  4502                           
  4503                           ;Config register CONFIG2 @ 0x8008
  4504                           ;	Flash Memory Self-Write Protection
  4505                           ;	WRT = OFF, Write protection off
  4506                           ;	Peripheral Pin Select one-way control
  4507                           ;	PPS1WAY = OFF, The PPSLOCK bit can be set and cleared repeatedly by software
  4508                           ;	Zero-cross detect disable
  4509                           ;	ZCDDIS = ON, ZCD disabled. ZCD can be enabled by setting the ZCDSEN bit of ZCDCON
  4510                           ;	Phase Lock Loop enable
  4511                           ;	PLLEN = ON, 4x PLL is enabled
  4512                           ;	Stack Overflow/Underflow Reset Enable
  4513                           ;	STVREN = ON, Stack Overflow or Underflow will cause a Reset
  4514                           ;	Brown-out Reset Voltage Selection
  4515                           ;	BORV = HI, Brown-out Reset Voltage (Vbor), high trip point selected.
  4516                           ;	Low-Power Brown Out Reset
  4517                           ;	LPBOR = OFF, Low-Power BOR is disabled
  4518                           ;	In-Circuit Debugger Mode
  4519                           ;	DEBUG = 0x1, unprogrammed default
  4520                           ;	Low-Voltage Programming Enable
  4521                           ;	LVP = OFF, High-voltage on MCLR/VPP must be used for programming
  4522     8008                     	org	32776
  4523     8008  1BFB               	dw	7163
  4524                           
  4525                           	psect	maintext_split_1
  4526     0ED9                     l2258:
  4527     0ED9  30BE               	movlw	low main@rcmd
  4528     0EDA  00F0               	movwf	strcmp@s1
  4529     0EDB  3000               	movlw	high main@rcmd
  4530     0EDC  00F1               	movwf	strcmp@s1+1
  4531     0EDD  30AB               	movlw	low (STR_9| (0+32768))
  4532     0EDE  00F2               	movwf	strcmp@s2
  4533     0EDF  3090               	movlw	high (STR_9| (0+32768))
  4534     0EE0  00F3               	movwf	strcmp@s2+1
  4535     0EE1  318A  227F  318E   	fcall	_strcmp
  4536     0EE4  0870               	movf	?_strcmp,w
  4537     0EE5  0471               	iorwf	?_strcmp+1,w
  4538     0EE6  1D03               	btfss	3,2
  4539     0EE7  2EE9               	goto	u2001
  4540     0EE8  2EEA               	goto	u2000
  4541     0EE9                     u2001:
  4542     0EE9  2EEE               	goto	l2262
  4543     0EEA                     u2000:
  4544     0EEA                     l2260:
  4545                           
  4546                           ;main.c: 196: cmd = SF4;
  4547     0EEA  3006               	movlw	6
  4548     0EEB  0020               	movlb	0	; select bank0
  4549     0EEC  00EF               	movwf	main@cmd
  4550                           
  4551                           ;main.c: 197: }else if(strcmp(rcmd,"SF5") == 0){
  4552     0EED  2FEA               	goto	l2310
  4553     0EEE                     l2262:
  4554     0EEE  30BE               	movlw	low main@rcmd
  4555     0EEF  00F0               	movwf	strcmp@s1
  4556     0EF0  3000               	movlw	high main@rcmd
  4557     0EF1  00F1               	movwf	strcmp@s1+1
  4558     0EF2  30AF               	movlw	low (STR_10| (0+32768))
  4559     0EF3  00F2               	movwf	strcmp@s2
  4560     0EF4  3090               	movlw	high (STR_10| (0+32768))
  4561     0EF5  00F3               	movwf	strcmp@s2+1
  4562     0EF6  318A  227F  318E   	fcall	_strcmp
  4563     0EF9  0870               	movf	?_strcmp,w
  4564     0EFA  0471               	iorwf	?_strcmp+1,w
  4565     0EFB  1D03               	btfss	3,2
  4566     0EFC  2EFE               	goto	u2011
  4567     0EFD  2EFF               	goto	u2010
  4568     0EFE                     u2011:
  4569     0EFE  2F03               	goto	l2266
  4570     0EFF                     u2010:
  4571     0EFF                     l2264:
  4572                           
  4573                           ;main.c: 198: cmd = SF5;
  4574     0EFF  3007               	movlw	7
  4575     0F00  0020               	movlb	0	; select bank0
  4576     0F01  00EF               	movwf	main@cmd
  4577                           
  4578                           ;main.c: 199: }else if(strcmp(rcmd,"SF6") == 0){
  4579     0F02  2FEA               	goto	l2310
  4580     0F03                     l2266:
  4581     0F03  30BE               	movlw	low main@rcmd
  4582     0F04  00F0               	movwf	strcmp@s1
  4583     0F05  3000               	movlw	high main@rcmd
  4584     0F06  00F1               	movwf	strcmp@s1+1
  4585     0F07  30B3               	movlw	low (STR_11| (0+32768))
  4586     0F08  00F2               	movwf	strcmp@s2
  4587     0F09  3090               	movlw	high (STR_11| (0+32768))
  4588     0F0A  00F3               	movwf	strcmp@s2+1
  4589     0F0B  318A  227F  318E   	fcall	_strcmp
  4590     0F0E  0870               	movf	?_strcmp,w
  4591     0F0F  0471               	iorwf	?_strcmp+1,w
  4592     0F10  1D03               	btfss	3,2
  4593     0F11  2F13               	goto	u2021
  4594     0F12  2F14               	goto	u2020
  4595     0F13                     u2021:
  4596     0F13  2F18               	goto	l2270
  4597     0F14                     u2020:
  4598     0F14                     l2268:
  4599                           
  4600                           ;main.c: 200: cmd = SF6;
  4601     0F14  3008               	movlw	8
  4602     0F15  0020               	movlb	0	; select bank0
  4603     0F16  00EF               	movwf	main@cmd
  4604                           
  4605                           ;main.c: 201: }else if(strcmp(rcmd,"LEP") == 0){
  4606     0F17  2FEA               	goto	l2310
  4607     0F18                     l2270:
  4608     0F18  30BE               	movlw	low main@rcmd
  4609     0F19  00F0               	movwf	strcmp@s1
  4610     0F1A  3000               	movlw	high main@rcmd
  4611     0F1B  00F1               	movwf	strcmp@s1+1
  4612     0F1C  30CF               	movlw	low (STR_12| (0+32768))
  4613     0F1D  00F2               	movwf	strcmp@s2
  4614     0F1E  3090               	movlw	high (STR_12| (0+32768))
  4615     0F1F  00F3               	movwf	strcmp@s2+1
  4616     0F20  318A  227F  318E   	fcall	_strcmp
  4617     0F23  0870               	movf	?_strcmp,w
  4618     0F24  0471               	iorwf	?_strcmp+1,w
  4619     0F25  1D03               	btfss	3,2
  4620     0F26  2F28               	goto	u2031
  4621     0F27  2F29               	goto	u2030
  4622     0F28                     u2031:
  4623     0F28  2F2D               	goto	l2274
  4624     0F29                     u2030:
  4625     0F29                     l2272:
  4626                           
  4627                           ;main.c: 202: cmd = LEP;
  4628     0F29  3009               	movlw	9
  4629     0F2A  0020               	movlb	0	; select bank0
  4630     0F2B  00EF               	movwf	main@cmd
  4631                           
  4632                           ;main.c: 203: }else if(strcmp(rcmd,"LPE") == 0){
  4633     0F2C  2FEA               	goto	l2310
  4634     0F2D                     l2274:
  4635     0F2D  30BE               	movlw	low main@rcmd
  4636     0F2E  00F0               	movwf	strcmp@s1
  4637     0F2F  3000               	movlw	high main@rcmd
  4638     0F30  00F1               	movwf	strcmp@s1+1
  4639     0F31  30B7               	movlw	low (STR_13| (0+32768))
  4640     0F32  00F2               	movwf	strcmp@s2
  4641     0F33  3090               	movlw	high (STR_13| (0+32768))
  4642     0F34  00F3               	movwf	strcmp@s2+1
  4643     0F35  318A  227F  318E   	fcall	_strcmp
  4644     0F38  0870               	movf	?_strcmp,w
  4645     0F39  0471               	iorwf	?_strcmp+1,w
  4646     0F3A  1D03               	btfss	3,2
  4647     0F3B  2F3D               	goto	u2041
  4648     0F3C  2F3E               	goto	u2040
  4649     0F3D                     u2041:
  4650     0F3D  2F42               	goto	l2278
  4651     0F3E                     u2040:
  4652     0F3E                     l2276:
  4653                           
  4654                           ;main.c: 204: cmd = LPE;
  4655     0F3E  300B               	movlw	11
  4656     0F3F  0020               	movlb	0	; select bank0
  4657     0F40  00EF               	movwf	main@cmd
  4658                           
  4659                           ;main.c: 205: }else if(strcmp(rcmd,"LDR") == 0){
  4660     0F41  2FEA               	goto	l2310
  4661     0F42                     l2278:
  4662     0F42  30BE               	movlw	low main@rcmd
  4663     0F43  00F0               	movwf	strcmp@s1
  4664     0F44  3000               	movlw	high main@rcmd
  4665     0F45  00F1               	movwf	strcmp@s1+1
  4666     0F46  30D3               	movlw	low (STR_14| (0+32768))
  4667     0F47  00F2               	movwf	strcmp@s2
  4668     0F48  3090               	movlw	high (STR_14| (0+32768))
  4669     0F49  00F3               	movwf	strcmp@s2+1
  4670     0F4A  318A  227F  318E   	fcall	_strcmp
  4671     0F4D  0870               	movf	?_strcmp,w
  4672     0F4E  0471               	iorwf	?_strcmp+1,w
  4673     0F4F  1D03               	btfss	3,2
  4674     0F50  2F52               	goto	u2051
  4675     0F51  2F53               	goto	u2050
  4676     0F52                     u2051:
  4677     0F52  2F57               	goto	l2282
  4678     0F53                     u2050:
  4679     0F53                     l2280:
  4680                           
  4681                           ;main.c: 206: cmd = LDR;
  4682     0F53  300C               	movlw	12
  4683     0F54  0020               	movlb	0	; select bank0
  4684     0F55  00EF               	movwf	main@cmd
  4685                           
  4686                           ;main.c: 207: }else if(strcmp(rcmd,"LON") == 0){
  4687     0F56  2FEA               	goto	l2310
  4688     0F57                     l2282:
  4689     0F57  30BE               	movlw	low main@rcmd
  4690     0F58  00F0               	movwf	strcmp@s1
  4691     0F59  3000               	movlw	high main@rcmd
  4692     0F5A  00F1               	movwf	strcmp@s1+1
  4693     0F5B  30C7               	movlw	low (STR_15| (0+32768))
  4694     0F5C  00F2               	movwf	strcmp@s2
  4695     0F5D  3090               	movlw	high (STR_15| (0+32768))
  4696     0F5E  00F3               	movwf	strcmp@s2+1
  4697     0F5F  318A  227F  318E   	fcall	_strcmp
  4698     0F62  0870               	movf	?_strcmp,w
  4699     0F63  0471               	iorwf	?_strcmp+1,w
  4700     0F64  1D03               	btfss	3,2
  4701     0F65  2F67               	goto	u2061
  4702     0F66  2F68               	goto	u2060
  4703     0F67                     u2061:
  4704     0F67  2F6C               	goto	l2286
  4705     0F68                     u2060:
  4706     0F68                     l2284:
  4707                           
  4708                           ;main.c: 208: cmd = LON;
  4709     0F68  300D               	movlw	13
  4710     0F69  0020               	movlb	0	; select bank0
  4711     0F6A  00EF               	movwf	main@cmd
  4712                           
  4713                           ;main.c: 209: }else if(strcmp(rcmd,"LOF") == 0){
  4714     0F6B  2FEA               	goto	l2310
  4715     0F6C                     l2286:
  4716     0F6C  30BE               	movlw	low main@rcmd
  4717     0F6D  00F0               	movwf	strcmp@s1
  4718     0F6E  3000               	movlw	high main@rcmd
  4719     0F6F  00F1               	movwf	strcmp@s1+1
  4720     0F70  30BB               	movlw	low (STR_16| (0+32768))
  4721     0F71  00F2               	movwf	strcmp@s2
  4722     0F72  3090               	movlw	high (STR_16| (0+32768))
  4723     0F73  00F3               	movwf	strcmp@s2+1
  4724     0F74  318A  227F  318E   	fcall	_strcmp
  4725     0F77  0870               	movf	?_strcmp,w
  4726     0F78  0471               	iorwf	?_strcmp+1,w
  4727     0F79  1D03               	btfss	3,2
  4728     0F7A  2F7C               	goto	u2071
  4729     0F7B  2F7D               	goto	u2070
  4730     0F7C                     u2071:
  4731     0F7C  2F81               	goto	l2290
  4732     0F7D                     u2070:
  4733     0F7D                     l2288:
  4734                           
  4735                           ;main.c: 210: cmd = LOF;
  4736     0F7D  300E               	movlw	14
  4737     0F7E  0020               	movlb	0	; select bank0
  4738     0F7F  00EF               	movwf	main@cmd
  4739                           
  4740                           ;main.c: 211: }else if(strcmp(rcmd,"PLS") == 0){
  4741     0F80  2FEA               	goto	l2310
  4742     0F81                     l2290:
  4743     0F81  30BE               	movlw	low main@rcmd
  4744     0F82  00F0               	movwf	strcmp@s1
  4745     0F83  3000               	movlw	high main@rcmd
  4746     0F84  00F1               	movwf	strcmp@s1+1
  4747     0F85  30DF               	movlw	low (STR_17| (0+32768))
  4748     0F86  00F2               	movwf	strcmp@s2
  4749     0F87  3090               	movlw	high (STR_17| (0+32768))
  4750     0F88  00F3               	movwf	strcmp@s2+1
  4751     0F89  318A  227F  318E   	fcall	_strcmp
  4752     0F8C  0870               	movf	?_strcmp,w
  4753     0F8D  0471               	iorwf	?_strcmp+1,w
  4754     0F8E  1D03               	btfss	3,2
  4755     0F8F  2F91               	goto	u2081
  4756     0F90  2F92               	goto	u2080
  4757     0F91                     u2081:
  4758     0F91  2F96               	goto	l2294
  4759     0F92                     u2080:
  4760     0F92                     l2292:
  4761                           
  4762                           ;main.c: 212: cmd = PLS;
  4763     0F92  300F               	movlw	15
  4764     0F93  0020               	movlb	0	; select bank0
  4765     0F94  00EF               	movwf	main@cmd
  4766                           
  4767                           ;main.c: 213: }else if(strcmp(rcmd,"SPO") == 0){
  4768     0F95  2FEA               	goto	l2310
  4769     0F96                     l2294:
  4770     0F96  30BE               	movlw	low main@rcmd
  4771     0F97  00F0               	movwf	strcmp@s1
  4772     0F98  3000               	movlw	high main@rcmd
  4773     0F99  00F1               	movwf	strcmp@s1+1
  4774     0F9A  30CB               	movlw	low (STR_18| (0+32768))
  4775     0F9B  00F2               	movwf	strcmp@s2
  4776     0F9C  3090               	movlw	high (STR_18| (0+32768))
  4777     0F9D  00F3               	movwf	strcmp@s2+1
  4778     0F9E  318A  227F  318E   	fcall	_strcmp
  4779     0FA1  0870               	movf	?_strcmp,w
  4780     0FA2  0471               	iorwf	?_strcmp+1,w
  4781     0FA3  1D03               	btfss	3,2
  4782     0FA4  2FA6               	goto	u2091
  4783     0FA5  2FA7               	goto	u2090
  4784     0FA6                     u2091:
  4785     0FA6  2FAB               	goto	l2298
  4786     0FA7                     u2090:
  4787     0FA7                     l2296:
  4788                           
  4789                           ;main.c: 214: cmd = SPO;
  4790     0FA7  3010               	movlw	16
  4791     0FA8  0020               	movlb	0	; select bank0
  4792     0FA9  00EF               	movwf	main@cmd
  4793                           
  4794                           ;main.c: 215: }else if(strcmp(rcmd,"SIN") == 0){
  4795     0FAA  2FEA               	goto	l2310
  4796     0FAB                     l2298:
  4797     0FAB  30BE               	movlw	low main@rcmd
  4798     0FAC  00F0               	movwf	strcmp@s1
  4799     0FAD  3000               	movlw	high main@rcmd
  4800     0FAE  00F1               	movwf	strcmp@s1+1
  4801     0FAF  30C3               	movlw	low (STR_19| (0+32768))
  4802     0FB0  00F2               	movwf	strcmp@s2
  4803     0FB1  3090               	movlw	high (STR_19| (0+32768))
  4804     0FB2  00F3               	movwf	strcmp@s2+1
  4805     0FB3  318A  227F  318E   	fcall	_strcmp
  4806     0FB6  0870               	movf	?_strcmp,w
  4807     0FB7  0471               	iorwf	?_strcmp+1,w
  4808     0FB8  1D03               	btfss	3,2
  4809     0FB9  2FBB               	goto	u2101
  4810     0FBA  2FBC               	goto	u2100
  4811     0FBB                     u2101:
  4812     0FBB  2FC0               	goto	l2302
  4813     0FBC                     u2100:
  4814     0FBC                     l2300:
  4815                           
  4816                           ;main.c: 216: cmd = SIN;
  4817     0FBC  3011               	movlw	17
  4818     0FBD  0020               	movlb	0	; select bank0
  4819     0FBE  00EF               	movwf	main@cmd
  4820                           
  4821                           ;main.c: 217: }else if(strcmp(rcmd,"AIN") == 0){
  4822     0FBF  2FEA               	goto	l2310
  4823     0FC0                     l2302:
  4824     0FC0  30BE               	movlw	low main@rcmd
  4825     0FC1  00F0               	movwf	strcmp@s1
  4826     0FC2  3000               	movlw	high main@rcmd
  4827     0FC3  00F1               	movwf	strcmp@s1+1
  4828     0FC4  30BF               	movlw	low (STR_20| (0+32768))
  4829     0FC5  00F2               	movwf	strcmp@s2
  4830     0FC6  3090               	movlw	high (STR_20| (0+32768))
  4831     0FC7  00F3               	movwf	strcmp@s2+1
  4832     0FC8  318A  227F  318E   	fcall	_strcmp
  4833     0FCB  0870               	movf	?_strcmp,w
  4834     0FCC  0471               	iorwf	?_strcmp+1,w
  4835     0FCD  1D03               	btfss	3,2
  4836     0FCE  2FD0               	goto	u2111
  4837     0FCF  2FD1               	goto	u2110
  4838     0FD0                     u2111:
  4839     0FD0  2FD5               	goto	l2306
  4840     0FD1                     u2110:
  4841     0FD1                     l2304:
  4842                           
  4843                           ;main.c: 218: cmd = AIN;
  4844     0FD1  3012               	movlw	18
  4845     0FD2  0020               	movlb	0	; select bank0
  4846     0FD3  00EF               	movwf	main@cmd
  4847                           
  4848                           ;main.c: 219: }else if(strcmp(rcmd,"VER") == 0){
  4849     0FD4  2FEA               	goto	l2310
  4850     0FD5                     l2306:
  4851     0FD5  30BE               	movlw	low main@rcmd
  4852     0FD6  00F0               	movwf	strcmp@s1
  4853     0FD7  3000               	movlw	high main@rcmd
  4854     0FD8  00F1               	movwf	strcmp@s1+1
  4855     0FD9  30D7               	movlw	low (STR_21| (0+32768))
  4856     0FDA  00F2               	movwf	strcmp@s2
  4857     0FDB  3090               	movlw	high (STR_21| (0+32768))
  4858     0FDC  00F3               	movwf	strcmp@s2+1
  4859     0FDD  318A  227F  318E   	fcall	_strcmp
  4860     0FE0  0870               	movf	?_strcmp,w
  4861     0FE1  0471               	iorwf	?_strcmp+1,w
  4862     0FE2  1D03               	btfss	3,2
  4863     0FE3  2FE5               	goto	u2121
  4864     0FE4  2FE6               	goto	u2120
  4865     0FE5                     u2121:
  4866     0FE5  2FEA               	goto	l111
  4867     0FE6                     u2120:
  4868     0FE6                     l2308:
  4869                           
  4870                           ;main.c: 220: cmd = VER;
  4871     0FE6  3013               	movlw	19
  4872     0FE7  0020               	movlb	0	; select bank0
  4873     0FE8  00EF               	movwf	main@cmd
  4874     0FE9  2FEA               	goto	l2310
  4875     0FEA                     l111:
  4876     0FEA                     l2310:
  4877                           
  4878                           ;main.c: 221: };main.c: 222: ptr = strtok(tmp, "/");
  4879     0FEA  30C4               	movlw	196
  4880     0FEB  0020               	movlb	0	; select bank0
  4881     0FEC  00A2               	movwf	strtok@s1
  4882     0FED  3022               	movlw	34
  4883     0FEE  00A3               	movwf	strtok@s1+1
  4884     0FEF  30E3               	movlw	low (STR_22| (0+32768))
  4885     0FF0  00A4               	movwf	strtok@s2
  4886     0FF1  3090               	movlw	high (STR_22| (0+32768))
  4887     0FF2  00A5               	movwf	strtok@s2+1
  4888     0FF3  318C  240B  318E   	fcall	_strtok
  4889     0FF6  0020               	movlb	0	; select bank0
  4890     0FF7  0823               	movf	?_strtok+1,w
  4891     0FF8  0021               	movlb	1	; select bank1
  4892     0FF9  00C3               	movwf	(main@ptr+1)^(0+128)
  4893     0FFA  0020               	movlb	0	; select bank0
  4894     0FFB  0822               	movf	?_strtok,w
  4895     0FFC  0021               	movlb	1	; select bank1
  4896     0FFD  00C2               	movwf	main@ptr^(0+128)
  4897                           
  4898                           ;main.c: 225: switch(cmd){
  4899     0FFE  3187  2FAD         	goto	l2632
  4900                           
  4901                           	psect	maintext_split_2
  4902     0090                     l2312:
  4903                           
  4904                           ;main.c: 228: for (int i=0 ; i < num_ap1 ; i++){
  4905     0090  0021               	movlb	1	; select bank1
  4906     0091  01A6               	clrf	main@i^(0+128)
  4907     0092  01A7               	clrf	(main@i+1)^(0+128)
  4908     0093  28B0               	goto	l2318
  4909     0094                     l2314:
  4910                           
  4911                           ;main.c: 229: ap1_dat[i] = 0;
  4912     0094  0021               	movlb	1	; select bank1
  4913     0095  0827               	movf	(main@i+1)^(0+128),w
  4914     0096  0020               	movlb	0	; select bank0
  4915     0097  00B2               	movwf	??_main+1
  4916     0098  0021               	movlb	1	; select bank1
  4917     0099  0826               	movf	main@i^(0+128),w
  4918     009A  0020               	movlb	0	; select bank0
  4919     009B  00B1               	movwf	??_main
  4920     009C  35B1               	lslf	??_main,f
  4921     009D  0DB2               	rlf	??_main+1,f
  4922     009E  3034               	movlw	52
  4923     009F  00B3               	movwf	??_main+2
  4924     00A0  3021               	movlw	33
  4925     00A1  00B4               	movwf	??_main+3
  4926     00A2  0831               	movf	??_main,w
  4927     00A3  0733               	addwf	??_main+2,w
  4928     00A4  0086               	movwf	6
  4929     00A5  0832               	movf	??_main+1,w
  4930     00A6  3D34               	addwfc	??_main+3,w
  4931     00A7  0087               	movwf	7
  4932     00A8  3000               	movlw	0
  4933     00A9  3FC0               	movwi [0]fsr1
  4934     00AA  3FC1               	movwi [1]fsr1
  4935     00AB                     l2316:
  4936     00AB  3001               	movlw	1
  4937     00AC  0021               	movlb	1	; select bank1
  4938     00AD  07A6               	addwf	main@i^(0+128),f
  4939     00AE  3000               	movlw	0
  4940     00AF  3DA7               	addwfc	(main@i+1)^(0+128),f
  4941     00B0                     l2318:
  4942     00B0  0827               	movf	(main@i+1)^(0+128),w
  4943     00B1  3A80               	xorlw	128
  4944     00B2  0020               	movlb	0	; select bank0
  4945     00B3  00B1               	movwf	??_main
  4946     00B4  0021               	movlb	1	; select bank1
  4947     00B5  0821               	movf	(main@num_ap1+1)^(0+128),w
  4948     00B6  3A80               	xorlw	128
  4949     00B7  0020               	movlb	0	; select bank0
  4950     00B8  0231               	subwf	??_main,w
  4951     00B9  1D03               	skipz
  4952     00BA  28BE               	goto	u2135
  4953     00BB  0021               	movlb	1	; select bank1
  4954     00BC  0820               	movf	main@num_ap1^(0+128),w
  4955     00BD  0226               	subwf	main@i^(0+128),w
  4956     00BE                     u2135:
  4957     00BE  1C03               	skipc
  4958     00BF  28C1               	goto	u2131
  4959     00C0  28C2               	goto	u2130
  4960     00C1                     u2131:
  4961     00C1  2894               	goto	l2314
  4962     00C2                     u2130:
  4963     00C2                     l2320:
  4964                           
  4965                           ;main.c: 230: };main.c: 231: for (int i=0 ; i < num_ap1 ; i++){
  4966     00C2  0021               	movlb	1	; select bank1
  4967     00C3  01BC               	clrf	main@i_201^(0+128)
  4968     00C4  01BD               	clrf	(main@i_201+1)^(0+128)
  4969     00C5  292B               	goto	l122
  4970     00C6                     l2322:
  4971                           
  4972                           ;main.c: 232: ptr = strtok((0), "/");
  4973     00C6  3000               	movlw	0
  4974     00C7  0020               	movlb	0	; select bank0
  4975     00C8  00A2               	movwf	strtok@s1
  4976     00C9  00A3               	movwf	strtok@s1+1
  4977     00CA  30E3               	movlw	low (STR_22| (0+32768))
  4978     00CB  00A4               	movwf	strtok@s2
  4979     00CC  3090               	movlw	high (STR_22| (0+32768))
  4980     00CD  00A5               	movwf	strtok@s2+1
  4981     00CE  318C  240B  3180   	fcall	_strtok
  4982     00D1  0020               	movlb	0	; select bank0
  4983     00D2  0823               	movf	?_strtok+1,w
  4984     00D3  0021               	movlb	1	; select bank1
  4985     00D4  00C3               	movwf	(main@ptr+1)^(0+128)
  4986     00D5  0020               	movlb	0	; select bank0
  4987     00D6  0822               	movf	?_strtok,w
  4988     00D7  0021               	movlb	1	; select bank1
  4989     00D8  00C2               	movwf	main@ptr^(0+128)
  4990     00D9                     l2324:
  4991                           
  4992                           ;main.c: 233: if(ptr != (0)) {
  4993     00D9  0842               	movf	main@ptr^(0+128),w
  4994     00DA  0443               	iorwf	(main@ptr+1)^(0+128),w
  4995     00DB  1903               	btfsc	3,2
  4996     00DC  28DE               	goto	u2141
  4997     00DD  28DF               	goto	u2140
  4998     00DE                     u2141:
  4999     00DE  291E               	goto	l2330
  5000     00DF                     u2140:
  5001     00DF                     l2326:
  5002                           
  5003                           ;main.c: 234: ap1_dat[i] = atoi(ptr);
  5004     00DF  0843               	movf	(main@ptr+1)^(0+128),w
  5005     00E0  00F7               	movwf	atoi@s+1
  5006     00E1  0842               	movf	main@ptr^(0+128),w
  5007     00E2  00F6               	movwf	atoi@s
  5008     00E3  3180  201A  3180   	fcall	_atoi
  5009     00E6  0021               	movlb	1	; select bank1
  5010     00E7  083D               	movf	(main@i_201+1)^(0+128),w
  5011     00E8  0020               	movlb	0	; select bank0
  5012     00E9  00B2               	movwf	??_main+1
  5013     00EA  0021               	movlb	1	; select bank1
  5014     00EB  083C               	movf	main@i_201^(0+128),w
  5015     00EC  0020               	movlb	0	; select bank0
  5016     00ED  00B1               	movwf	??_main
  5017     00EE  35B1               	lslf	??_main,f
  5018     00EF  0DB2               	rlf	??_main+1,f
  5019     00F0  3034               	movlw	52
  5020     00F1  00B3               	movwf	??_main+2
  5021     00F2  3021               	movlw	33
  5022     00F3  00B4               	movwf	??_main+3
  5023     00F4  0831               	movf	??_main,w
  5024     00F5  0733               	addwf	??_main+2,w
  5025     00F6  0086               	movwf	6
  5026     00F7  0832               	movf	??_main+1,w
  5027     00F8  3D34               	addwfc	??_main+3,w
  5028     00F9  0087               	movwf	7
  5029     00FA  0876               	movf	?_atoi,w
  5030     00FB  3FC0               	movwi [0]fsr1
  5031     00FC  0877               	movf	?_atoi+1,w
  5032     00FD  3FC1               	movwi [1]fsr1
  5033     00FE                     l2328:
  5034                           
  5035                           ;main.c: 235: printf("%d\n", ap1_dat[i]);
  5036     00FE  308B               	movlw	low (STR_24| (0+32768))
  5037     00FF  00A0               	movwf	printf@f
  5038     0100  3090               	movlw	high (STR_24| (0+32768))
  5039     0101  00A1               	movwf	printf@f+1
  5040     0102  0021               	movlb	1	; select bank1
  5041     0103  083D               	movf	(main@i_201+1)^(0+128),w
  5042     0104  0020               	movlb	0	; select bank0
  5043     0105  00B2               	movwf	??_main+1
  5044     0106  0021               	movlb	1	; select bank1
  5045     0107  083C               	movf	main@i_201^(0+128),w
  5046     0108  0020               	movlb	0	; select bank0
  5047     0109  00B1               	movwf	??_main
  5048     010A  35B1               	lslf	??_main,f
  5049     010B  0DB2               	rlf	??_main+1,f
  5050     010C  3034               	movlw	52
  5051     010D  00B3               	movwf	??_main+2
  5052     010E  3021               	movlw	33
  5053     010F  00B4               	movwf	??_main+3
  5054     0110  0831               	movf	??_main,w
  5055     0111  0733               	addwf	??_main+2,w
  5056     0112  0086               	movwf	6
  5057     0113  0832               	movf	??_main+1,w
  5058     0114  3D34               	addwfc	??_main+3,w
  5059     0115  0087               	movwf	7
  5060     0116  3F40               	moviw [0]fsr1
  5061     0117  00A2               	movwf	?_printf+2
  5062     0118  3F41               	moviw [1]fsr1
  5063     0119  00A3               	movwf	?_printf+3
  5064     011A  318C  24D3  3180   	fcall	_printf
  5065                           
  5066                           ;main.c: 236: }else{
  5067     011D  2926               	goto	l2332
  5068     011E                     l2330:
  5069                           
  5070                           ;main.c: 237: num_ap1_cnt = i;
  5071     011E  083D               	movf	(main@i_201+1)^(0+128),w
  5072     011F  0020               	movlb	0	; select bank0
  5073     0120  00B6               	movwf	main@num_ap1_cnt+1
  5074     0121  0021               	movlb	1	; select bank1
  5075     0122  083C               	movf	main@i_201^(0+128),w
  5076     0123  0020               	movlb	0	; select bank0
  5077     0124  00B5               	movwf	main@num_ap1_cnt
  5078                           
  5079                           ;main.c: 238: break;
  5080     0125  293D               	goto	l2334
  5081     0126                     l2332:
  5082     0126  3001               	movlw	1
  5083     0127  0021               	movlb	1	; select bank1
  5084     0128  07BC               	addwf	main@i_201^(0+128),f
  5085     0129  3000               	movlw	0
  5086     012A  3DBD               	addwfc	(main@i_201+1)^(0+128),f
  5087     012B                     l122:
  5088     012B  083D               	movf	(main@i_201+1)^(0+128),w
  5089     012C  3A80               	xorlw	128
  5090     012D  0020               	movlb	0	; select bank0
  5091     012E  00B1               	movwf	??_main
  5092     012F  0021               	movlb	1	; select bank1
  5093     0130  0821               	movf	(main@num_ap1+1)^(0+128),w
  5094     0131  3A80               	xorlw	128
  5095     0132  0020               	movlb	0	; select bank0
  5096     0133  0231               	subwf	??_main,w
  5097     0134  1D03               	skipz
  5098     0135  2939               	goto	u2155
  5099     0136  0021               	movlb	1	; select bank1
  5100     0137  0820               	movf	main@num_ap1^(0+128),w
  5101     0138  023C               	subwf	main@i_201^(0+128),w
  5102     0139                     u2155:
  5103     0139  1C03               	skipc
  5104     013A  293C               	goto	u2151
  5105     013B  293D               	goto	u2150
  5106     013C                     u2151:
  5107     013C  28C6               	goto	l2322
  5108     013D                     u2150:
  5109     013D                     l2334:
  5110                           
  5111                           ;main.c: 239: };main.c: 240: };main.c: 241: printf("C\tSA1\r\n");
  5112     013D  302E               	movlw	low (STR_25| (0+32768))
  5113     013E  0020               	movlb	0	; select bank0
  5114     013F  00A0               	movwf	printf@f
  5115     0140  3090               	movlw	high (STR_25| (0+32768))
  5116     0141  00A1               	movwf	printf@f+1
  5117     0142  318C  24D3  3180   	fcall	_printf
  5118                           
  5119                           ;main.c: 242: break;
  5120     0145  2E6B               	goto	u2550
  5121     0146                     l2336:
  5122                           
  5123                           ;main.c: 245: for (int i=0 ; i < num_ap2 ; i++){
  5124     0146  0021               	movlb	1	; select bank1
  5125     0147  01A8               	clrf	main@i_206^(0+128)
  5126     0148  01A9               	clrf	(main@i_206+1)^(0+128)
  5127     0149  2956               	goto	l2342
  5128     014A                     l2338:
  5129                           
  5130                           ;main.c: 246: ap2_dat[i] = 0;
  5131     014A  0021               	movlb	1	; select bank1
  5132     014B  3528               	lslf	main@i_206^(0+128),w
  5133     014C  3EC4               	addlw	(low (_ap2_dat| 0))& (0+255)
  5134     014D  0086               	movwf	6
  5135     014E  0187               	clrf	7
  5136     014F  3000               	movlw	0
  5137     0150  3FC0               	movwi [0]fsr1
  5138     0151  3FC1               	movwi [1]fsr1
  5139     0152                     l2340:
  5140     0152  3001               	movlw	1
  5141     0153  07A8               	addwf	main@i_206^(0+128),f
  5142     0154  3000               	movlw	0
  5143     0155  3DA9               	addwfc	(main@i_206+1)^(0+128),f
  5144     0156                     l2342:
  5145     0156  0829               	movf	(main@i_206+1)^(0+128),w
  5146     0157  3A80               	xorlw	128
  5147     0158  0020               	movlb	0	; select bank0
  5148     0159  00B1               	movwf	??_main
  5149     015A  0021               	movlb	1	; select bank1
  5150     015B  0823               	movf	(main@num_ap2+1)^(0+128),w
  5151     015C  3A80               	xorlw	128
  5152     015D  0020               	movlb	0	; select bank0
  5153     015E  0231               	subwf	??_main,w
  5154     015F  1D03               	skipz
  5155     0160  2964               	goto	u2165
  5156     0161  0021               	movlb	1	; select bank1
  5157     0162  0822               	movf	main@num_ap2^(0+128),w
  5158     0163  0228               	subwf	main@i_206^(0+128),w
  5159     0164                     u2165:
  5160     0164  1C03               	skipc
  5161     0165  2967               	goto	u2161
  5162     0166  2968               	goto	u2160
  5163     0167                     u2161:
  5164     0167  294A               	goto	l2338
  5165     0168                     u2160:
  5166     0168                     l2344:
  5167                           
  5168                           ;main.c: 247: };main.c: 248: for (int i=0 ; i < num_ap2 ; i++){
  5169     0168  0021               	movlb	1	; select bank1
  5170     0169  01BA               	clrf	main@i_207^(0+128)
  5171     016A  01BB               	clrf	(main@i_207+1)^(0+128)
  5172     016B  29A2               	goto	l132
  5173     016C                     l2346:
  5174                           
  5175                           ;main.c: 249: ptr = strtok((0), "/");
  5176     016C  3000               	movlw	0
  5177     016D  0020               	movlb	0	; select bank0
  5178     016E  00A2               	movwf	strtok@s1
  5179     016F  00A3               	movwf	strtok@s1+1
  5180     0170  30E3               	movlw	low (STR_22| (0+32768))
  5181     0171  00A4               	movwf	strtok@s2
  5182     0172  3090               	movlw	high (STR_22| (0+32768))
  5183     0173  00A5               	movwf	strtok@s2+1
  5184     0174  318C  240B  3180   	fcall	_strtok
  5185     0177  0020               	movlb	0	; select bank0
  5186     0178  0823               	movf	?_strtok+1,w
  5187     0179  0021               	movlb	1	; select bank1
  5188     017A  00C3               	movwf	(main@ptr+1)^(0+128)
  5189     017B  0020               	movlb	0	; select bank0
  5190     017C  0822               	movf	?_strtok,w
  5191     017D  0021               	movlb	1	; select bank1
  5192     017E  00C2               	movwf	main@ptr^(0+128)
  5193     017F                     l2348:
  5194                           
  5195                           ;main.c: 250: if(ptr != (0)) {
  5196     017F  0842               	movf	main@ptr^(0+128),w
  5197     0180  0443               	iorwf	(main@ptr+1)^(0+128),w
  5198     0181  1903               	btfsc	3,2
  5199     0182  2984               	goto	u2171
  5200     0183  2985               	goto	u2170
  5201     0184                     u2171:
  5202     0184  2996               	goto	l2352
  5203     0185                     u2170:
  5204     0185                     l2350:
  5205                           
  5206                           ;main.c: 251: ap2_dat[i] = atoi(ptr);
  5207     0185  0843               	movf	(main@ptr+1)^(0+128),w
  5208     0186  00F7               	movwf	atoi@s+1
  5209     0187  0842               	movf	main@ptr^(0+128),w
  5210     0188  00F6               	movwf	atoi@s
  5211     0189  3180  201A  3180   	fcall	_atoi
  5212     018C  0021               	movlb	1	; select bank1
  5213     018D  353A               	lslf	main@i_207^(0+128),w
  5214     018E  3EC4               	addlw	(low (_ap2_dat| 0))& (0+255)
  5215     018F  0086               	movwf	6
  5216     0190  0187               	clrf	7
  5217     0191  0876               	movf	?_atoi,w
  5218     0192  3FC0               	movwi [0]fsr1
  5219     0193  0877               	movf	?_atoi+1,w
  5220     0194  3FC1               	movwi [1]fsr1
  5221                           
  5222                           ;main.c: 252: }else{
  5223     0195  299E               	goto	l2354
  5224     0196                     l2352:
  5225                           
  5226                           ;main.c: 253: num_ap2_cnt = i;
  5227     0196  083B               	movf	(main@i_207+1)^(0+128),w
  5228     0197  0020               	movlb	0	; select bank0
  5229     0198  00B8               	movwf	main@num_ap2_cnt+1
  5230     0199  0021               	movlb	1	; select bank1
  5231     019A  083A               	movf	main@i_207^(0+128),w
  5232     019B  0020               	movlb	0	; select bank0
  5233     019C  00B7               	movwf	main@num_ap2_cnt
  5234                           
  5235                           ;main.c: 254: break;
  5236     019D  29B4               	goto	l2356
  5237     019E                     l2354:
  5238     019E  3001               	movlw	1
  5239     019F  07BA               	addwf	main@i_207^(0+128),f
  5240     01A0  3000               	movlw	0
  5241     01A1  3DBB               	addwfc	(main@i_207+1)^(0+128),f
  5242     01A2                     l132:
  5243     01A2  083B               	movf	(main@i_207+1)^(0+128),w
  5244     01A3  3A80               	xorlw	128
  5245     01A4  0020               	movlb	0	; select bank0
  5246     01A5  00B1               	movwf	??_main
  5247     01A6  0021               	movlb	1	; select bank1
  5248     01A7  0823               	movf	(main@num_ap2+1)^(0+128),w
  5249     01A8  3A80               	xorlw	128
  5250     01A9  0020               	movlb	0	; select bank0
  5251     01AA  0231               	subwf	??_main,w
  5252     01AB  1D03               	skipz
  5253     01AC  29B0               	goto	u2185
  5254     01AD  0021               	movlb	1	; select bank1
  5255     01AE  0822               	movf	main@num_ap2^(0+128),w
  5256     01AF  023A               	subwf	main@i_207^(0+128),w
  5257     01B0                     u2185:
  5258     01B0  1C03               	skipc
  5259     01B1  29B3               	goto	u2181
  5260     01B2  29B4               	goto	u2180
  5261     01B3                     u2181:
  5262     01B3  296C               	goto	l2346
  5263     01B4                     u2180:
  5264     01B4                     l2356:
  5265                           
  5266                           ;main.c: 255: };main.c: 256: };main.c: 257: printf("C\tSA2\r\n");
  5267     01B4  303E               	movlw	low (STR_27| (0+32768))
  5268     01B5  0020               	movlb	0	; select bank0
  5269     01B6  00A0               	movwf	printf@f
  5270     01B7  3090               	movlw	high (STR_27| (0+32768))
  5271     01B8  00A1               	movwf	printf@f+1
  5272     01B9  318C  24D3  3180   	fcall	_printf
  5273                           
  5274                           ;main.c: 258: break;
  5275     01BC  2E6B               	goto	u2550
  5276     01BD                     l2358:
  5277                           
  5278                           ;main.c: 267: printf("SA3 OK\n");
  5279     01BD  306E               	movlw	low (STR_28| (0+32768))
  5280     01BE  00A0               	movwf	printf@f
  5281     01BF  3090               	movlw	high (STR_28| (0+32768))
  5282     01C0  00A1               	movwf	printf@f+1
  5283     01C1  318C  24D3  3180   	fcall	_printf
  5284                           
  5285                           ;main.c: 268: break;
  5286     01C4  2E6B               	goto	u2550
  5287     01C5                     l2360:
  5288                           
  5289                           ;main.c: 271: ptr = strtok((0), "/");
  5290     01C5  3000               	movlw	0
  5291     01C6  00A2               	movwf	strtok@s1
  5292     01C7  00A3               	movwf	strtok@s1+1
  5293     01C8  30E3               	movlw	low (STR_22| (0+32768))
  5294     01C9  00A4               	movwf	strtok@s2
  5295     01CA  3090               	movlw	high (STR_22| (0+32768))
  5296     01CB  00A5               	movwf	strtok@s2+1
  5297     01CC  318C  240B  3180   	fcall	_strtok
  5298     01CF  0020               	movlb	0	; select bank0
  5299     01D0  0823               	movf	?_strtok+1,w
  5300     01D1  0021               	movlb	1	; select bank1
  5301     01D2  00C3               	movwf	(main@ptr+1)^(0+128)
  5302     01D3  0020               	movlb	0	; select bank0
  5303     01D4  0822               	movf	?_strtok,w
  5304     01D5  0021               	movlb	1	; select bank1
  5305     01D6  00C2               	movwf	main@ptr^(0+128)
  5306     01D7                     l2362:
  5307                           
  5308                           ;main.c: 272: if(ptr != (0)) {
  5309     01D7  0842               	movf	main@ptr^(0+128),w
  5310     01D8  0443               	iorwf	(main@ptr+1)^(0+128),w
  5311     01D9  1903               	btfsc	3,2
  5312     01DA  29DC               	goto	u2191
  5313     01DB  29DD               	goto	u2190
  5314     01DC                     u2191:
  5315     01DC  29E9               	goto	l2366
  5316     01DD                     u2190:
  5317     01DD                     l2364:
  5318                           
  5319                           ;main.c: 273: fp1_time = atoi(ptr);
  5320     01DD  0843               	movf	(main@ptr+1)^(0+128),w
  5321     01DE  00F7               	movwf	atoi@s+1
  5322     01DF  0842               	movf	main@ptr^(0+128),w
  5323     01E0  00F6               	movwf	atoi@s
  5324     01E1  3180  201A  3180   	fcall	_atoi
  5325     01E4  0877               	movf	?_atoi+1,w
  5326     01E5  0020               	movlb	0	; select bank0
  5327     01E6  00D8               	movwf	main@fp1_time+1
  5328     01E7  0876               	movf	?_atoi,w
  5329     01E8  00D7               	movwf	main@fp1_time
  5330     01E9                     l2366:
  5331                           
  5332                           ;main.c: 274: };main.c: 275: ptr = strtok((0), "/");
  5333     01E9  3000               	movlw	0
  5334     01EA  0020               	movlb	0	; select bank0
  5335     01EB  00A2               	movwf	strtok@s1
  5336     01EC  00A3               	movwf	strtok@s1+1
  5337     01ED  30E3               	movlw	low (STR_22| (0+32768))
  5338     01EE  00A4               	movwf	strtok@s2
  5339     01EF  3090               	movlw	high (STR_22| (0+32768))
  5340     01F0  00A5               	movwf	strtok@s2+1
  5341     01F1  318C  240B  3180   	fcall	_strtok
  5342     01F4  0020               	movlb	0	; select bank0
  5343     01F5  0823               	movf	?_strtok+1,w
  5344     01F6  0021               	movlb	1	; select bank1
  5345     01F7  00C3               	movwf	(main@ptr+1)^(0+128)
  5346     01F8  0020               	movlb	0	; select bank0
  5347     01F9  0822               	movf	?_strtok,w
  5348     01FA  0021               	movlb	1	; select bank1
  5349     01FB  00C2               	movwf	main@ptr^(0+128)
  5350     01FC                     l2368:
  5351                           
  5352                           ;main.c: 276: if(ptr != (0)) {
  5353     01FC  0842               	movf	main@ptr^(0+128),w
  5354     01FD  0443               	iorwf	(main@ptr+1)^(0+128),w
  5355     01FE  1903               	btfsc	3,2
  5356     01FF  2A01               	goto	u2201
  5357     0200  2A02               	goto	u2200
  5358     0201                     u2201:
  5359     0201  2A0E               	goto	l2372
  5360     0202                     u2200:
  5361     0202                     l2370:
  5362                           
  5363                           ;main.c: 277: fp1_amp = atoi(ptr);
  5364     0202  0843               	movf	(main@ptr+1)^(0+128),w
  5365     0203  00F7               	movwf	atoi@s+1
  5366     0204  0842               	movf	main@ptr^(0+128),w
  5367     0205  00F6               	movwf	atoi@s
  5368     0206  3180  201A  3180   	fcall	_atoi
  5369     0209  0877               	movf	?_atoi+1,w
  5370     020A  0020               	movlb	0	; select bank0
  5371     020B  00DA               	movwf	main@fp1_amp+1
  5372     020C  0876               	movf	?_atoi,w
  5373     020D  00D9               	movwf	main@fp1_amp
  5374     020E                     l2372:
  5375                           
  5376                           ;main.c: 278: };main.c: 279: printf("C\tSF1\r\n");
  5377     020E  3036               	movlw	low (STR_31| (0+32768))
  5378     020F  0020               	movlb	0	; select bank0
  5379     0210  00A0               	movwf	printf@f
  5380     0211  3090               	movlw	high (STR_31| (0+32768))
  5381     0212  00A1               	movwf	printf@f+1
  5382     0213  318C  24D3  3180   	fcall	_printf
  5383                           
  5384                           ;main.c: 280: break;
  5385     0216  2E6B               	goto	u2550
  5386     0217                     l2374:
  5387                           
  5388                           ;main.c: 283: ptr = strtok((0), "/");
  5389     0217  3000               	movlw	0
  5390     0218  00A2               	movwf	strtok@s1
  5391     0219  00A3               	movwf	strtok@s1+1
  5392     021A  30E3               	movlw	low (STR_22| (0+32768))
  5393     021B  00A4               	movwf	strtok@s2
  5394     021C  3090               	movlw	high (STR_22| (0+32768))
  5395     021D  00A5               	movwf	strtok@s2+1
  5396     021E  318C  240B  3180   	fcall	_strtok
  5397     0221  0020               	movlb	0	; select bank0
  5398     0222  0823               	movf	?_strtok+1,w
  5399     0223  0021               	movlb	1	; select bank1
  5400     0224  00C3               	movwf	(main@ptr+1)^(0+128)
  5401     0225  0020               	movlb	0	; select bank0
  5402     0226  0822               	movf	?_strtok,w
  5403     0227  0021               	movlb	1	; select bank1
  5404     0228  00C2               	movwf	main@ptr^(0+128)
  5405     0229                     l2376:
  5406                           
  5407                           ;main.c: 284: if(ptr != (0)) {
  5408     0229  0842               	movf	main@ptr^(0+128),w
  5409     022A  0443               	iorwf	(main@ptr+1)^(0+128),w
  5410     022B  1903               	btfsc	3,2
  5411     022C  2A2E               	goto	u2211
  5412     022D  2A2F               	goto	u2210
  5413     022E                     u2211:
  5414     022E  2A3B               	goto	l2380
  5415     022F                     u2210:
  5416     022F                     l2378:
  5417                           
  5418                           ;main.c: 285: fp2_time = atoi(ptr);
  5419     022F  0843               	movf	(main@ptr+1)^(0+128),w
  5420     0230  00F7               	movwf	atoi@s+1
  5421     0231  0842               	movf	main@ptr^(0+128),w
  5422     0232  00F6               	movwf	atoi@s
  5423     0233  3180  201A  3180   	fcall	_atoi
  5424     0236  0877               	movf	?_atoi+1,w
  5425     0237  0020               	movlb	0	; select bank0
  5426     0238  00DC               	movwf	main@fp2_time+1
  5427     0239  0876               	movf	?_atoi,w
  5428     023A  00DB               	movwf	main@fp2_time
  5429     023B                     l2380:
  5430                           
  5431                           ;main.c: 286: };main.c: 287: ptr = strtok((0), "/");
  5432     023B  3000               	movlw	0
  5433     023C  0020               	movlb	0	; select bank0
  5434     023D  00A2               	movwf	strtok@s1
  5435     023E  00A3               	movwf	strtok@s1+1
  5436     023F  30E3               	movlw	low (STR_22| (0+32768))
  5437     0240  00A4               	movwf	strtok@s2
  5438     0241  3090               	movlw	high (STR_22| (0+32768))
  5439     0242  00A5               	movwf	strtok@s2+1
  5440     0243  318C  240B  3180   	fcall	_strtok
  5441     0246  0020               	movlb	0	; select bank0
  5442     0247  0823               	movf	?_strtok+1,w
  5443     0248  0021               	movlb	1	; select bank1
  5444     0249  00C3               	movwf	(main@ptr+1)^(0+128)
  5445     024A  0020               	movlb	0	; select bank0
  5446     024B  0822               	movf	?_strtok,w
  5447     024C  0021               	movlb	1	; select bank1
  5448     024D  00C2               	movwf	main@ptr^(0+128)
  5449     024E                     l2382:
  5450                           
  5451                           ;main.c: 288: if(ptr != (0)) {
  5452     024E  0842               	movf	main@ptr^(0+128),w
  5453     024F  0443               	iorwf	(main@ptr+1)^(0+128),w
  5454     0250  1903               	btfsc	3,2
  5455     0251  2A53               	goto	u2221
  5456     0252  2A54               	goto	u2220
  5457     0253                     u2221:
  5458     0253  2A60               	goto	l2386
  5459     0254                     u2220:
  5460     0254                     l2384:
  5461                           
  5462                           ;main.c: 289: fp2_amp = atoi(ptr);
  5463     0254  0843               	movf	(main@ptr+1)^(0+128),w
  5464     0255  00F7               	movwf	atoi@s+1
  5465     0256  0842               	movf	main@ptr^(0+128),w
  5466     0257  00F6               	movwf	atoi@s
  5467     0258  3180  201A  3180   	fcall	_atoi
  5468     025B  0877               	movf	?_atoi+1,w
  5469     025C  0020               	movlb	0	; select bank0
  5470     025D  00DE               	movwf	main@fp2_amp+1
  5471     025E  0876               	movf	?_atoi,w
  5472     025F  00DD               	movwf	main@fp2_amp
  5473     0260                     l2386:
  5474                           
  5475                           ;main.c: 290: };main.c: 291: printf("C\tSF2\r\n");
  5476     0260  3046               	movlw	low (STR_34| (0+32768))
  5477     0261  0020               	movlb	0	; select bank0
  5478     0262  00A0               	movwf	printf@f
  5479     0263  3090               	movlw	high (STR_34| (0+32768))
  5480     0264  00A1               	movwf	printf@f+1
  5481     0265  318C  24D3  3180   	fcall	_printf
  5482                           
  5483                           ;main.c: 292: break;
  5484     0268  2E6B               	goto	u2550
  5485     0269                     l2388:
  5486                           
  5487                           ;main.c: 295: ptr = strtok((0), "/");
  5488     0269  3000               	movlw	0
  5489     026A  00A2               	movwf	strtok@s1
  5490     026B  00A3               	movwf	strtok@s1+1
  5491     026C  30E3               	movlw	low (STR_22| (0+32768))
  5492     026D  00A4               	movwf	strtok@s2
  5493     026E  3090               	movlw	high (STR_22| (0+32768))
  5494     026F  00A5               	movwf	strtok@s2+1
  5495     0270  318C  240B  3180   	fcall	_strtok
  5496     0273  0020               	movlb	0	; select bank0
  5497     0274  0823               	movf	?_strtok+1,w
  5498     0275  0021               	movlb	1	; select bank1
  5499     0276  00C3               	movwf	(main@ptr+1)^(0+128)
  5500     0277  0020               	movlb	0	; select bank0
  5501     0278  0822               	movf	?_strtok,w
  5502     0279  0021               	movlb	1	; select bank1
  5503     027A  00C2               	movwf	main@ptr^(0+128)
  5504     027B                     l2390:
  5505                           
  5506                           ;main.c: 296: if(ptr != (0)) {
  5507     027B  0842               	movf	main@ptr^(0+128),w
  5508     027C  0443               	iorwf	(main@ptr+1)^(0+128),w
  5509     027D  1903               	btfsc	3,2
  5510     027E  2A80               	goto	u2231
  5511     027F  2A81               	goto	u2230
  5512     0280                     u2231:
  5513     0280  2A8D               	goto	l2394
  5514     0281                     u2230:
  5515     0281                     l2392:
  5516                           
  5517                           ;main.c: 297: fp3_time = atoi(ptr);
  5518     0281  0843               	movf	(main@ptr+1)^(0+128),w
  5519     0282  00F7               	movwf	atoi@s+1
  5520     0283  0842               	movf	main@ptr^(0+128),w
  5521     0284  00F6               	movwf	atoi@s
  5522     0285  3180  201A  3180   	fcall	_atoi
  5523     0288  0877               	movf	?_atoi+1,w
  5524     0289  0020               	movlb	0	; select bank0
  5525     028A  00E0               	movwf	main@fp3_time+1
  5526     028B  0876               	movf	?_atoi,w
  5527     028C  00DF               	movwf	main@fp3_time
  5528     028D                     l2394:
  5529                           
  5530                           ;main.c: 298: };main.c: 299: ptr = strtok((0), "/");
  5531     028D  3000               	movlw	0
  5532     028E  0020               	movlb	0	; select bank0
  5533     028F  00A2               	movwf	strtok@s1
  5534     0290  00A3               	movwf	strtok@s1+1
  5535     0291  30E3               	movlw	low (STR_22| (0+32768))
  5536     0292  00A4               	movwf	strtok@s2
  5537     0293  3090               	movlw	high (STR_22| (0+32768))
  5538     0294  00A5               	movwf	strtok@s2+1
  5539     0295  318C  240B  3180   	fcall	_strtok
  5540     0298  0020               	movlb	0	; select bank0
  5541     0299  0823               	movf	?_strtok+1,w
  5542     029A  0021               	movlb	1	; select bank1
  5543     029B  00C3               	movwf	(main@ptr+1)^(0+128)
  5544     029C  0020               	movlb	0	; select bank0
  5545     029D  0822               	movf	?_strtok,w
  5546     029E  0021               	movlb	1	; select bank1
  5547     029F  00C2               	movwf	main@ptr^(0+128)
  5548     02A0                     l2396:
  5549                           
  5550                           ;main.c: 300: if(ptr != (0)) {
  5551     02A0  0842               	movf	main@ptr^(0+128),w
  5552     02A1  0443               	iorwf	(main@ptr+1)^(0+128),w
  5553     02A2  1903               	btfsc	3,2
  5554     02A3  2AA5               	goto	u2241
  5555     02A4  2AA6               	goto	u2240
  5556     02A5                     u2241:
  5557     02A5  2AB2               	goto	l2400
  5558     02A6                     u2240:
  5559     02A6                     l2398:
  5560                           
  5561                           ;main.c: 301: fp3_amp = atoi(ptr);
  5562     02A6  0843               	movf	(main@ptr+1)^(0+128),w
  5563     02A7  00F7               	movwf	atoi@s+1
  5564     02A8  0842               	movf	main@ptr^(0+128),w
  5565     02A9  00F6               	movwf	atoi@s
  5566     02AA  3180  201A  3180   	fcall	_atoi
  5567     02AD  0877               	movf	?_atoi+1,w
  5568     02AE  0020               	movlb	0	; select bank0
  5569     02AF  00E2               	movwf	main@fp3_amp+1
  5570     02B0  0876               	movf	?_atoi,w
  5571     02B1  00E1               	movwf	main@fp3_amp
  5572     02B2                     l2400:
  5573                           
  5574                           ;main.c: 302: };main.c: 303: printf("C\tSF3\r\n");
  5575     02B2  304E               	movlw	low (STR_37| (0+32768))
  5576     02B3  0020               	movlb	0	; select bank0
  5577     02B4  00A0               	movwf	printf@f
  5578     02B5  3090               	movlw	high (STR_37| (0+32768))
  5579     02B6  00A1               	movwf	printf@f+1
  5580     02B7  318C  24D3  3180   	fcall	_printf
  5581                           
  5582                           ;main.c: 304: break;
  5583     02BA  2E6B               	goto	u2550
  5584     02BB                     l2402:
  5585                           
  5586                           ;main.c: 307: ptr = strtok((0), "/");
  5587     02BB  3000               	movlw	0
  5588     02BC  00A2               	movwf	strtok@s1
  5589     02BD  00A3               	movwf	strtok@s1+1
  5590     02BE  30E3               	movlw	low (STR_22| (0+32768))
  5591     02BF  00A4               	movwf	strtok@s2
  5592     02C0  3090               	movlw	high (STR_22| (0+32768))
  5593     02C1  00A5               	movwf	strtok@s2+1
  5594     02C2  318C  240B  3180   	fcall	_strtok
  5595     02C5  0020               	movlb	0	; select bank0
  5596     02C6  0823               	movf	?_strtok+1,w
  5597     02C7  0021               	movlb	1	; select bank1
  5598     02C8  00C3               	movwf	(main@ptr+1)^(0+128)
  5599     02C9  0020               	movlb	0	; select bank0
  5600     02CA  0822               	movf	?_strtok,w
  5601     02CB  0021               	movlb	1	; select bank1
  5602     02CC  00C2               	movwf	main@ptr^(0+128)
  5603     02CD                     l2404:
  5604                           
  5605                           ;main.c: 308: if(ptr != (0)) {
  5606     02CD  0842               	movf	main@ptr^(0+128),w
  5607     02CE  0443               	iorwf	(main@ptr+1)^(0+128),w
  5608     02CF  1903               	btfsc	3,2
  5609     02D0  2AD2               	goto	u2251
  5610     02D1  2AD3               	goto	u2250
  5611     02D2                     u2251:
  5612     02D2  2ADF               	goto	l2408
  5613     02D3                     u2250:
  5614     02D3                     l2406:
  5615                           
  5616                           ;main.c: 309: fp4_time = atoi(ptr);
  5617     02D3  0843               	movf	(main@ptr+1)^(0+128),w
  5618     02D4  00F7               	movwf	atoi@s+1
  5619     02D5  0842               	movf	main@ptr^(0+128),w
  5620     02D6  00F6               	movwf	atoi@s
  5621     02D7  3180  201A  3180   	fcall	_atoi
  5622     02DA  0877               	movf	?_atoi+1,w
  5623     02DB  0020               	movlb	0	; select bank0
  5624     02DC  00E4               	movwf	main@fp4_time+1
  5625     02DD  0876               	movf	?_atoi,w
  5626     02DE  00E3               	movwf	main@fp4_time
  5627     02DF                     l2408:
  5628                           
  5629                           ;main.c: 310: };main.c: 311: ptr = strtok((0), "/");
  5630     02DF  3000               	movlw	0
  5631     02E0  0020               	movlb	0	; select bank0
  5632     02E1  00A2               	movwf	strtok@s1
  5633     02E2  00A3               	movwf	strtok@s1+1
  5634     02E3  30E3               	movlw	low (STR_22| (0+32768))
  5635     02E4  00A4               	movwf	strtok@s2
  5636     02E5  3090               	movlw	high (STR_22| (0+32768))
  5637     02E6  00A5               	movwf	strtok@s2+1
  5638     02E7  318C  240B  3180   	fcall	_strtok
  5639     02EA  0020               	movlb	0	; select bank0
  5640     02EB  0823               	movf	?_strtok+1,w
  5641     02EC  0021               	movlb	1	; select bank1
  5642     02ED  00C3               	movwf	(main@ptr+1)^(0+128)
  5643     02EE  0020               	movlb	0	; select bank0
  5644     02EF  0822               	movf	?_strtok,w
  5645     02F0  0021               	movlb	1	; select bank1
  5646     02F1  00C2               	movwf	main@ptr^(0+128)
  5647     02F2                     l2410:
  5648                           
  5649                           ;main.c: 312: if(ptr != (0)) {
  5650     02F2  0842               	movf	main@ptr^(0+128),w
  5651     02F3  0443               	iorwf	(main@ptr+1)^(0+128),w
  5652     02F4  1903               	btfsc	3,2
  5653     02F5  2AF7               	goto	u2261
  5654     02F6  2AF8               	goto	u2260
  5655     02F7                     u2261:
  5656     02F7  2B04               	goto	l2414
  5657     02F8                     u2260:
  5658     02F8                     l2412:
  5659                           
  5660                           ;main.c: 313: fp4_amp = atoi(ptr);
  5661     02F8  0843               	movf	(main@ptr+1)^(0+128),w
  5662     02F9  00F7               	movwf	atoi@s+1
  5663     02FA  0842               	movf	main@ptr^(0+128),w
  5664     02FB  00F6               	movwf	atoi@s
  5665     02FC  3180  201A  3180   	fcall	_atoi
  5666     02FF  0877               	movf	?_atoi+1,w
  5667     0300  0020               	movlb	0	; select bank0
  5668     0301  00E6               	movwf	main@fp4_amp+1
  5669     0302  0876               	movf	?_atoi,w
  5670     0303  00E5               	movwf	main@fp4_amp
  5671     0304                     l2414:
  5672                           
  5673                           ;main.c: 314: };main.c: 315: printf("C\tSF4\r\n");
  5674     0304  3056               	movlw	low (STR_40| (0+32768))
  5675     0305  0020               	movlb	0	; select bank0
  5676     0306  00A0               	movwf	printf@f
  5677     0307  3090               	movlw	high (STR_40| (0+32768))
  5678     0308  00A1               	movwf	printf@f+1
  5679     0309  318C  24D3  3180   	fcall	_printf
  5680                           
  5681                           ;main.c: 316: break;
  5682     030C  2E6B               	goto	u2550
  5683     030D                     l2416:
  5684                           
  5685                           ;main.c: 319: ptr = strtok((0), "/");
  5686     030D  3000               	movlw	0
  5687     030E  00A2               	movwf	strtok@s1
  5688     030F  00A3               	movwf	strtok@s1+1
  5689     0310  30E3               	movlw	low (STR_22| (0+32768))
  5690     0311  00A4               	movwf	strtok@s2
  5691     0312  3090               	movlw	high (STR_22| (0+32768))
  5692     0313  00A5               	movwf	strtok@s2+1
  5693     0314  318C  240B  3180   	fcall	_strtok
  5694     0317  0020               	movlb	0	; select bank0
  5695     0318  0823               	movf	?_strtok+1,w
  5696     0319  0021               	movlb	1	; select bank1
  5697     031A  00C3               	movwf	(main@ptr+1)^(0+128)
  5698     031B  0020               	movlb	0	; select bank0
  5699     031C  0822               	movf	?_strtok,w
  5700     031D  0021               	movlb	1	; select bank1
  5701     031E  00C2               	movwf	main@ptr^(0+128)
  5702     031F                     l2418:
  5703                           
  5704                           ;main.c: 320: if(ptr != (0)) {
  5705     031F  0842               	movf	main@ptr^(0+128),w
  5706     0320  0443               	iorwf	(main@ptr+1)^(0+128),w
  5707     0321  1903               	btfsc	3,2
  5708     0322  2B24               	goto	u2271
  5709     0323  2B25               	goto	u2270
  5710     0324                     u2271:
  5711     0324  2B31               	goto	l2422
  5712     0325                     u2270:
  5713     0325                     l2420:
  5714                           
  5715                           ;main.c: 321: fp5_time = atoi(ptr);
  5716     0325  0843               	movf	(main@ptr+1)^(0+128),w
  5717     0326  00F7               	movwf	atoi@s+1
  5718     0327  0842               	movf	main@ptr^(0+128),w
  5719     0328  00F6               	movwf	atoi@s
  5720     0329  3180  201A  3180   	fcall	_atoi
  5721     032C  0877               	movf	?_atoi+1,w
  5722     032D  0020               	movlb	0	; select bank0
  5723     032E  00E8               	movwf	main@fp5_time+1
  5724     032F  0876               	movf	?_atoi,w
  5725     0330  00E7               	movwf	main@fp5_time
  5726     0331                     l2422:
  5727                           
  5728                           ;main.c: 322: };main.c: 323: ptr = strtok((0), "/");
  5729     0331  3000               	movlw	0
  5730     0332  0020               	movlb	0	; select bank0
  5731     0333  00A2               	movwf	strtok@s1
  5732     0334  00A3               	movwf	strtok@s1+1
  5733     0335  30E3               	movlw	low (STR_22| (0+32768))
  5734     0336  00A4               	movwf	strtok@s2
  5735     0337  3090               	movlw	high (STR_22| (0+32768))
  5736     0338  00A5               	movwf	strtok@s2+1
  5737     0339  318C  240B  3180   	fcall	_strtok
  5738     033C  0020               	movlb	0	; select bank0
  5739     033D  0823               	movf	?_strtok+1,w
  5740     033E  0021               	movlb	1	; select bank1
  5741     033F  00C3               	movwf	(main@ptr+1)^(0+128)
  5742     0340  0020               	movlb	0	; select bank0
  5743     0341  0822               	movf	?_strtok,w
  5744     0342  0021               	movlb	1	; select bank1
  5745     0343  00C2               	movwf	main@ptr^(0+128)
  5746     0344                     l2424:
  5747                           
  5748                           ;main.c: 324: if(ptr != (0)) {
  5749     0344  0842               	movf	main@ptr^(0+128),w
  5750     0345  0443               	iorwf	(main@ptr+1)^(0+128),w
  5751     0346  1903               	btfsc	3,2
  5752     0347  2B49               	goto	u2281
  5753     0348  2B4A               	goto	u2280
  5754     0349                     u2281:
  5755     0349  2B56               	goto	l2428
  5756     034A                     u2280:
  5757     034A                     l2426:
  5758                           
  5759                           ;main.c: 325: fp5_amp = atoi(ptr);
  5760     034A  0843               	movf	(main@ptr+1)^(0+128),w
  5761     034B  00F7               	movwf	atoi@s+1
  5762     034C  0842               	movf	main@ptr^(0+128),w
  5763     034D  00F6               	movwf	atoi@s
  5764     034E  3180  201A  3180   	fcall	_atoi
  5765     0351  0877               	movf	?_atoi+1,w
  5766     0352  0020               	movlb	0	; select bank0
  5767     0353  00EA               	movwf	main@fp5_amp+1
  5768     0354  0876               	movf	?_atoi,w
  5769     0355  00E9               	movwf	main@fp5_amp
  5770     0356                     l2428:
  5771                           
  5772                           ;main.c: 326: };main.c: 327: printf("C\tSF5\r\n");
  5773     0356  305E               	movlw	low (STR_43| (0+32768))
  5774     0357  0020               	movlb	0	; select bank0
  5775     0358  00A0               	movwf	printf@f
  5776     0359  3090               	movlw	high (STR_43| (0+32768))
  5777     035A  00A1               	movwf	printf@f+1
  5778     035B  318C  24D3  3180   	fcall	_printf
  5779                           
  5780                           ;main.c: 328: break;
  5781     035E  2E6B               	goto	u2550
  5782     035F                     l2430:
  5783                           
  5784                           ;main.c: 331: ptr = strtok((0), "/");
  5785     035F  3000               	movlw	0
  5786     0360  00A2               	movwf	strtok@s1
  5787     0361  00A3               	movwf	strtok@s1+1
  5788     0362  30E3               	movlw	low (STR_22| (0+32768))
  5789     0363  00A4               	movwf	strtok@s2
  5790     0364  3090               	movlw	high (STR_22| (0+32768))
  5791     0365  00A5               	movwf	strtok@s2+1
  5792     0366  318C  240B  3180   	fcall	_strtok
  5793     0369  0020               	movlb	0	; select bank0
  5794     036A  0823               	movf	?_strtok+1,w
  5795     036B  0021               	movlb	1	; select bank1
  5796     036C  00C3               	movwf	(main@ptr+1)^(0+128)
  5797     036D  0020               	movlb	0	; select bank0
  5798     036E  0822               	movf	?_strtok,w
  5799     036F  0021               	movlb	1	; select bank1
  5800     0370  00C2               	movwf	main@ptr^(0+128)
  5801     0371                     l2432:
  5802                           
  5803                           ;main.c: 332: if(ptr != (0)) {
  5804     0371  0842               	movf	main@ptr^(0+128),w
  5805     0372  0443               	iorwf	(main@ptr+1)^(0+128),w
  5806     0373  1903               	btfsc	3,2
  5807     0374  2B76               	goto	u2291
  5808     0375  2B77               	goto	u2290
  5809     0376                     u2291:
  5810     0376  2B83               	goto	l2436
  5811     0377                     u2290:
  5812     0377                     l2434:
  5813                           
  5814                           ;main.c: 333: fp6_time = atoi(ptr);
  5815     0377  0843               	movf	(main@ptr+1)^(0+128),w
  5816     0378  00F7               	movwf	atoi@s+1
  5817     0379  0842               	movf	main@ptr^(0+128),w
  5818     037A  00F6               	movwf	atoi@s
  5819     037B  3180  201A  3180   	fcall	_atoi
  5820     037E  0877               	movf	?_atoi+1,w
  5821     037F  0020               	movlb	0	; select bank0
  5822     0380  00EC               	movwf	main@fp6_time+1
  5823     0381  0876               	movf	?_atoi,w
  5824     0382  00EB               	movwf	main@fp6_time
  5825     0383                     l2436:
  5826                           
  5827                           ;main.c: 334: };main.c: 335: ptr = strtok((0), "/");
  5828     0383  3000               	movlw	0
  5829     0384  0020               	movlb	0	; select bank0
  5830     0385  00A2               	movwf	strtok@s1
  5831     0386  00A3               	movwf	strtok@s1+1
  5832     0387  30E3               	movlw	low (STR_22| (0+32768))
  5833     0388  00A4               	movwf	strtok@s2
  5834     0389  3090               	movlw	high (STR_22| (0+32768))
  5835     038A  00A5               	movwf	strtok@s2+1
  5836     038B  318C  240B  3180   	fcall	_strtok
  5837     038E  0020               	movlb	0	; select bank0
  5838     038F  0823               	movf	?_strtok+1,w
  5839     0390  0021               	movlb	1	; select bank1
  5840     0391  00C3               	movwf	(main@ptr+1)^(0+128)
  5841     0392  0020               	movlb	0	; select bank0
  5842     0393  0822               	movf	?_strtok,w
  5843     0394  0021               	movlb	1	; select bank1
  5844     0395  00C2               	movwf	main@ptr^(0+128)
  5845     0396                     l2438:
  5846                           
  5847                           ;main.c: 336: if(ptr != (0)) {
  5848     0396  0842               	movf	main@ptr^(0+128),w
  5849     0397  0443               	iorwf	(main@ptr+1)^(0+128),w
  5850     0398  1903               	btfsc	3,2
  5851     0399  2B9B               	goto	u2301
  5852     039A  2B9C               	goto	u2300
  5853     039B                     u2301:
  5854     039B  2BA8               	goto	l2442
  5855     039C                     u2300:
  5856     039C                     l2440:
  5857                           
  5858                           ;main.c: 337: fp6_amp = atoi(ptr);
  5859     039C  0843               	movf	(main@ptr+1)^(0+128),w
  5860     039D  00F7               	movwf	atoi@s+1
  5861     039E  0842               	movf	main@ptr^(0+128),w
  5862     039F  00F6               	movwf	atoi@s
  5863     03A0  3180  201A  3180   	fcall	_atoi
  5864     03A3  0877               	movf	?_atoi+1,w
  5865     03A4  0020               	movlb	0	; select bank0
  5866     03A5  00EE               	movwf	main@fp6_amp+1
  5867     03A6  0876               	movf	?_atoi,w
  5868     03A7  00ED               	movwf	main@fp6_amp
  5869     03A8                     l2442:
  5870                           
  5871                           ;main.c: 338: };main.c: 339: printf("C\tSF6\r\n");
  5872     03A8  3066               	movlw	low (STR_46| (0+32768))
  5873     03A9  0020               	movlb	0	; select bank0
  5874     03AA  00A0               	movwf	printf@f
  5875     03AB  3090               	movlw	high (STR_46| (0+32768))
  5876     03AC  00A1               	movwf	printf@f+1
  5877     03AD  318C  24D3  3180   	fcall	_printf
  5878                           
  5879                           ;main.c: 340: break;
  5880     03B0  2E6B               	goto	u2550
  5881     03B1                     l2444:
  5882                           
  5883                           ;main.c: 344: for (int k=0 ; k < 6 ; k++){
  5884     03B1  0021               	movlb	1	; select bank1
  5885     03B2  01AA               	clrf	main@k^(0+128)
  5886     03B3  01AB               	clrf	(main@k+1)^(0+128)
  5887     03B4                     l2446:
  5888     03B4  082B               	movf	(main@k+1)^(0+128),w
  5889     03B5  3A80               	xorlw	128
  5890     03B6  0020               	movlb	0	; select bank0
  5891     03B7  00B1               	movwf	??_main
  5892     03B8  3080               	movlw	128
  5893     03B9  0231               	subwf	??_main,w
  5894     03BA  1D03               	skipz
  5895     03BB  2BBF               	goto	u2315
  5896     03BC  3006               	movlw	6
  5897     03BD  0021               	movlb	1	; select bank1
  5898     03BE  022A               	subwf	main@k^(0+128),w
  5899     03BF                     u2315:
  5900     03BF  1C03               	skipc
  5901     03C0  2BC2               	goto	u2311
  5902     03C1  2BC3               	goto	u2310
  5903     03C2                     u2311:
  5904     03C2  2BC4               	goto	l2450
  5905     03C3                     u2310:
  5906     03C3  2D94               	goto	l2524
  5907     03C4                     l2450:
  5908                           
  5909                           ;main.c: 345: ptr = strtok((0), "/");
  5910     03C4  3000               	movlw	0
  5911     03C5  0020               	movlb	0	; select bank0
  5912     03C6  00A2               	movwf	strtok@s1
  5913     03C7  00A3               	movwf	strtok@s1+1
  5914     03C8  30E3               	movlw	low (STR_22| (0+32768))
  5915     03C9  00A4               	movwf	strtok@s2
  5916     03CA  3090               	movlw	high (STR_22| (0+32768))
  5917     03CB  00A5               	movwf	strtok@s2+1
  5918     03CC  318C  240B  3180   	fcall	_strtok
  5919     03CF  0020               	movlb	0	; select bank0
  5920     03D0  0823               	movf	?_strtok+1,w
  5921     03D1  0021               	movlb	1	; select bank1
  5922     03D2  00C3               	movwf	(main@ptr+1)^(0+128)
  5923     03D3  0020               	movlb	0	; select bank0
  5924     03D4  0822               	movf	?_strtok,w
  5925     03D5  0021               	movlb	1	; select bank1
  5926     03D6  00C2               	movwf	main@ptr^(0+128)
  5927                           
  5928                           ;main.c: 346: if(strcmp(ptr,"A1") == 0) {
  5929     03D7  0843               	movf	(main@ptr+1)^(0+128),w
  5930     03D8  00F1               	movwf	strcmp@s1+1
  5931     03D9  0842               	movf	main@ptr^(0+128),w
  5932     03DA  00F0               	movwf	strcmp@s1
  5933     03DB  3094               	movlw	low ((STR_3+1)| (0+32768))
  5934     03DC  00F2               	movwf	strcmp@s2
  5935     03DD  3090               	movlw	high ((STR_3+1)| (0+32768))
  5936     03DE  00F3               	movwf	strcmp@s2+1
  5937     03DF  318A  227F  3180   	fcall	_strcmp
  5938     03E2  0870               	movf	?_strcmp,w
  5939     03E3  0471               	iorwf	?_strcmp+1,w
  5940     03E4  1D03               	btfss	3,2
  5941     03E5  2BE7               	goto	u2321
  5942     03E6  2BE8               	goto	u2320
  5943     03E7                     u2321:
  5944     03E7  2C1D               	goto	l2462
  5945     03E8                     u2320:
  5946     03E8                     l2452:
  5947                           
  5948                           ;main.c: 347: for (int i=0 ; i < num_ap1_cnt ; i++){
  5949     03E8  0021               	movlb	1	; select bank1
  5950     03E9  01AC               	clrf	main@i_232^(0+128)
  5951     03EA  01AD               	clrf	(main@i_232+1)^(0+128)
  5952     03EB  2C0C               	goto	l2460
  5953     03EC                     l2454:
  5954                           
  5955                           ;main.c: 348: DAC1CON1 = ap1_dat[i] ;
  5956     03EC  0021               	movlb	1	; select bank1
  5957     03ED  082D               	movf	(main@i_232+1)^(0+128),w
  5958     03EE  0020               	movlb	0	; select bank0
  5959     03EF  00B2               	movwf	??_main+1
  5960     03F0  0021               	movlb	1	; select bank1
  5961     03F1  082C               	movf	main@i_232^(0+128),w
  5962     03F2  0020               	movlb	0	; select bank0
  5963     03F3  00B1               	movwf	??_main
  5964     03F4  35B1               	lslf	??_main,f
  5965     03F5  0DB2               	rlf	??_main+1,f
  5966     03F6  3034               	movlw	52
  5967     03F7  00B3               	movwf	??_main+2
  5968     03F8  3021               	movlw	33
  5969     03F9  00B4               	movwf	??_main+3
  5970     03FA  0831               	movf	??_main,w
  5971     03FB  0733               	addwf	??_main+2,w
  5972     03FC  0086               	movwf	6
  5973     03FD  0832               	movf	??_main+1,w
  5974     03FE  3D34               	addwfc	??_main+3,w
  5975     03FF  0087               	movwf	7
  5976     0400  0801               	movf	1,w
  5977     0401  0022               	movlb	2	; select bank2
  5978     0402  0099               	movwf	25	;volatile
  5979     0403                     l2456:
  5980                           
  5981                           ;main.c: 349: _delay((unsigned long)((5)*(32000000/4000000.0))) ;
  5982     0403  300D               	movlw	13
  5983     0404                     u2657:
  5984     0404  0B89               	decfsz	9,f
  5985     0405  2C04               	goto	u2657
  5986     0406  0000               	nop
  5987     0407                     l2458:
  5988     0407  3001               	movlw	1
  5989     0408  0021               	movlb	1	; select bank1
  5990     0409  07AC               	addwf	main@i_232^(0+128),f
  5991     040A  3000               	movlw	0
  5992     040B  3DAD               	addwfc	(main@i_232+1)^(0+128),f
  5993     040C                     l2460:
  5994     040C  082D               	movf	(main@i_232+1)^(0+128),w
  5995     040D  3A80               	xorlw	128
  5996     040E  0020               	movlb	0	; select bank0
  5997     040F  00B1               	movwf	??_main
  5998     0410  0836               	movf	main@num_ap1_cnt+1,w
  5999     0411  3A80               	xorlw	128
  6000     0412  0231               	subwf	??_main,w
  6001     0413  1D03               	skipz
  6002     0414  2C18               	goto	u2335
  6003     0415  0835               	movf	main@num_ap1_cnt,w
  6004     0416  0021               	movlb	1	; select bank1
  6005     0417  022C               	subwf	main@i_232^(0+128),w
  6006     0418                     u2335:
  6007     0418  1C03               	skipc
  6008     0419  2C1B               	goto	u2331
  6009     041A  2C1C               	goto	u2330
  6010     041B                     u2331:
  6011     041B  2BEC               	goto	l2454
  6012     041C                     u2330:
  6013     041C  2D80               	goto	l2522
  6014     041D                     l2462:
  6015     041D  0021               	movlb	1	; select bank1
  6016     041E  0843               	movf	(main@ptr+1)^(0+128),w
  6017     041F  00F1               	movwf	strcmp@s1+1
  6018     0420  0842               	movf	main@ptr^(0+128),w
  6019     0421  00F0               	movwf	strcmp@s1
  6020     0422  309C               	movlw	low ((STR_4+1)| (0+32768))
  6021     0423  00F2               	movwf	strcmp@s2
  6022     0424  3090               	movlw	high ((STR_4+1)| (0+32768))
  6023     0425  00F3               	movwf	strcmp@s2+1
  6024     0426  318A  227F  3180   	fcall	_strcmp
  6025     0429  0870               	movf	?_strcmp,w
  6026     042A  0471               	iorwf	?_strcmp+1,w
  6027     042B  1D03               	btfss	3,2
  6028     042C  2C2E               	goto	u2341
  6029     042D  2C2F               	goto	u2340
  6030     042E                     u2341:
  6031     042E  2C55               	goto	l2474
  6032     042F                     u2340:
  6033     042F                     l2464:
  6034                           
  6035                           ;main.c: 352: for (int i=0 ; i < num_ap2_cnt ; i++){
  6036     042F  0021               	movlb	1	; select bank1
  6037     0430  01AE               	clrf	main@i_234^(0+128)
  6038     0431  01AF               	clrf	(main@i_234+1)^(0+128)
  6039     0432  2C44               	goto	l2472
  6040     0433                     l2466:
  6041                           
  6042                           ;main.c: 353: DAC1CON1 = ap2_dat[i] ;
  6043     0433  0021               	movlb	1	; select bank1
  6044     0434  352E               	lslf	main@i_234^(0+128),w
  6045     0435  3EC4               	addlw	(low (_ap2_dat| 0))& (0+255)
  6046     0436  0086               	movwf	6
  6047     0437  0187               	clrf	7
  6048     0438  0801               	movf	1,w
  6049     0439  0022               	movlb	2	; select bank2
  6050     043A  0099               	movwf	25	;volatile
  6051     043B                     l2468:
  6052                           
  6053                           ;main.c: 354: _delay((unsigned long)((5)*(32000000/4000000.0))) ;
  6054     043B  300D               	movlw	13
  6055     043C                     u2667:
  6056     043C  0B89               	decfsz	9,f
  6057     043D  2C3C               	goto	u2667
  6058     043E  0000               	nop
  6059     043F                     l2470:
  6060     043F  3001               	movlw	1
  6061     0440  0021               	movlb	1	; select bank1
  6062     0441  07AE               	addwf	main@i_234^(0+128),f
  6063     0442  3000               	movlw	0
  6064     0443  3DAF               	addwfc	(main@i_234+1)^(0+128),f
  6065     0444                     l2472:
  6066     0444  082F               	movf	(main@i_234+1)^(0+128),w
  6067     0445  3A80               	xorlw	128
  6068     0446  0020               	movlb	0	; select bank0
  6069     0447  00B1               	movwf	??_main
  6070     0448  0838               	movf	main@num_ap2_cnt+1,w
  6071     0449  3A80               	xorlw	128
  6072     044A  0231               	subwf	??_main,w
  6073     044B  1D03               	skipz
  6074     044C  2C50               	goto	u2355
  6075     044D  0837               	movf	main@num_ap2_cnt,w
  6076     044E  0021               	movlb	1	; select bank1
  6077     044F  022E               	subwf	main@i_234^(0+128),w
  6078     0450                     u2355:
  6079     0450  1C03               	skipc
  6080     0451  2C53               	goto	u2351
  6081     0452  2C54               	goto	u2350
  6082     0453                     u2351:
  6083     0453  2C33               	goto	l2466
  6084     0454                     u2350:
  6085     0454  2D80               	goto	l2522
  6086     0455                     l2474:
  6087     0455  0021               	movlb	1	; select bank1
  6088     0456  0843               	movf	(main@ptr+1)^(0+128),w
  6089     0457  00F1               	movwf	strcmp@s1+1
  6090     0458  0842               	movf	main@ptr^(0+128),w
  6091     0459  00F0               	movwf	strcmp@s1
  6092     045A  3098               	movlw	low ((STR_6+1)| (0+32768))
  6093     045B  00F2               	movwf	strcmp@s2
  6094     045C  3090               	movlw	high ((STR_6+1)| (0+32768))
  6095     045D  00F3               	movwf	strcmp@s2+1
  6096     045E  318A  227F  3180   	fcall	_strcmp
  6097     0461  0870               	movf	?_strcmp,w
  6098     0462  0471               	iorwf	?_strcmp+1,w
  6099     0463  1D03               	btfss	3,2
  6100     0464  2C66               	goto	u2361
  6101     0465  2C67               	goto	u2360
  6102     0466                     u2361:
  6103     0466  2C87               	goto	l2482
  6104     0467                     u2360:
  6105     0467                     l2476:
  6106                           
  6107                           ;main.c: 362: DAC1CON1 = fp1_amp ;
  6108     0467  0020               	movlb	0	; select bank0
  6109     0468  0859               	movf	main@fp1_amp,w
  6110     0469  0022               	movlb	2	; select bank2
  6111     046A  0099               	movwf	25	;volatile
  6112     046B                     l2478:
  6113                           
  6114                           ;main.c: 363: for (int i=0 ; i < fp1_time ; i++){
  6115     046B  0020               	movlb	0	; select bank0
  6116     046C  01BB               	clrf	main@i_236
  6117     046D  01BC               	clrf	main@i_236+1
  6118     046E  2C78               	goto	l170
  6119     046F                     l2480:
  6120                           
  6121                           ;main.c: 364: _delay((unsigned long)((20)*(32000000/4000000.0))) ;
  6122     046F  3035               	movlw	53
  6123     0470                     u2677:
  6124     0470  0B89               	decfsz	9,f
  6125     0471  2C70               	goto	u2677
  6126     0472  0000               	nop
  6127     0473  3001               	movlw	1
  6128     0474  0020               	movlb	0	; select bank0
  6129     0475  07BB               	addwf	main@i_236,f
  6130     0476  3000               	movlw	0
  6131     0477  3DBC               	addwfc	main@i_236+1,f
  6132     0478                     l170:
  6133     0478  083C               	movf	main@i_236+1,w
  6134     0479  3A80               	xorlw	128
  6135     047A  00B1               	movwf	??_main
  6136     047B  0858               	movf	main@fp1_time+1,w
  6137     047C  3A80               	xorlw	128
  6138     047D  0231               	subwf	??_main,w
  6139     047E  1D03               	skipz
  6140     047F  2C82               	goto	u2375
  6141     0480  0857               	movf	main@fp1_time,w
  6142     0481  023B               	subwf	main@i_236,w
  6143     0482                     u2375:
  6144     0482  1C03               	skipc
  6145     0483  2C85               	goto	u2371
  6146     0484  2C86               	goto	u2370
  6147     0485                     u2371:
  6148     0485  2C6F               	goto	l2480
  6149     0486                     u2370:
  6150     0486  2D80               	goto	l2522
  6151     0487                     l2482:
  6152     0487  0021               	movlb	1	; select bank1
  6153     0488  0843               	movf	(main@ptr+1)^(0+128),w
  6154     0489  00F1               	movwf	strcmp@s1+1
  6155     048A  0842               	movf	main@ptr^(0+128),w
  6156     048B  00F0               	movwf	strcmp@s1
  6157     048C  30A0               	movlw	low ((STR_7+1)| (0+32768))
  6158     048D  00F2               	movwf	strcmp@s2
  6159     048E  3090               	movlw	high ((STR_7+1)| (0+32768))
  6160     048F  00F3               	movwf	strcmp@s2+1
  6161     0490  318A  227F  3180   	fcall	_strcmp
  6162     0493  0870               	movf	?_strcmp,w
  6163     0494  0471               	iorwf	?_strcmp+1,w
  6164     0495  1D03               	btfss	3,2
  6165     0496  2C98               	goto	u2381
  6166     0497  2C99               	goto	u2380
  6167     0498                     u2381:
  6168     0498  2CB9               	goto	l2490
  6169     0499                     u2380:
  6170     0499                     l2484:
  6171                           
  6172                           ;main.c: 367: DAC1CON1 = fp2_amp ;
  6173     0499  0020               	movlb	0	; select bank0
  6174     049A  085D               	movf	main@fp2_amp,w
  6175     049B  0022               	movlb	2	; select bank2
  6176     049C  0099               	movwf	25	;volatile
  6177     049D                     l2486:
  6178                           
  6179                           ;main.c: 368: for (int i=0 ; i < fp2_time ; i++){
  6180     049D  0020               	movlb	0	; select bank0
  6181     049E  01BD               	clrf	main@i_238
  6182     049F  01BE               	clrf	main@i_238+1
  6183     04A0  2CAA               	goto	l175
  6184     04A1                     l2488:
  6185                           
  6186                           ;main.c: 369: _delay((unsigned long)((20)*(32000000/4000000.0))) ;
  6187     04A1  3035               	movlw	53
  6188     04A2                     u2687:
  6189     04A2  0B89               	decfsz	9,f
  6190     04A3  2CA2               	goto	u2687
  6191     04A4  0000               	nop
  6192     04A5  3001               	movlw	1
  6193     04A6  0020               	movlb	0	; select bank0
  6194     04A7  07BD               	addwf	main@i_238,f
  6195     04A8  3000               	movlw	0
  6196     04A9  3DBE               	addwfc	main@i_238+1,f
  6197     04AA                     l175:
  6198     04AA  083E               	movf	main@i_238+1,w
  6199     04AB  3A80               	xorlw	128
  6200     04AC  00B1               	movwf	??_main
  6201     04AD  085C               	movf	main@fp2_time+1,w
  6202     04AE  3A80               	xorlw	128
  6203     04AF  0231               	subwf	??_main,w
  6204     04B0  1D03               	skipz
  6205     04B1  2CB4               	goto	u2395
  6206     04B2  085B               	movf	main@fp2_time,w
  6207     04B3  023D               	subwf	main@i_238,w
  6208     04B4                     u2395:
  6209     04B4  1C03               	skipc
  6210     04B5  2CB7               	goto	u2391
  6211     04B6  2CB8               	goto	u2390
  6212     04B7                     u2391:
  6213     04B7  2CA1               	goto	l2488
  6214     04B8                     u2390:
  6215     04B8  2D80               	goto	l2522
  6216     04B9                     l2490:
  6217     04B9  0021               	movlb	1	; select bank1
  6218     04BA  0843               	movf	(main@ptr+1)^(0+128),w
  6219     04BB  00F1               	movwf	strcmp@s1+1
  6220     04BC  0842               	movf	main@ptr^(0+128),w
  6221     04BD  00F0               	movwf	strcmp@s1
  6222     04BE  30A8               	movlw	low ((STR_8+1)| (0+32768))
  6223     04BF  00F2               	movwf	strcmp@s2
  6224     04C0  3090               	movlw	high ((STR_8+1)| (0+32768))
  6225     04C1  00F3               	movwf	strcmp@s2+1
  6226     04C2  318A  227F  3180   	fcall	_strcmp
  6227     04C5  0870               	movf	?_strcmp,w
  6228     04C6  0471               	iorwf	?_strcmp+1,w
  6229     04C7  1D03               	btfss	3,2
  6230     04C8  2CCA               	goto	u2401
  6231     04C9  2CCB               	goto	u2400
  6232     04CA                     u2401:
  6233     04CA  2CEB               	goto	l2498
  6234     04CB                     u2400:
  6235     04CB                     l2492:
  6236                           
  6237                           ;main.c: 372: DAC1CON1 = fp3_amp ;
  6238     04CB  0020               	movlb	0	; select bank0
  6239     04CC  0861               	movf	main@fp3_amp,w
  6240     04CD  0022               	movlb	2	; select bank2
  6241     04CE  0099               	movwf	25	;volatile
  6242     04CF                     l2494:
  6243                           
  6244                           ;main.c: 373: for (int i=0 ; i < fp3_time ; i++){
  6245     04CF  0020               	movlb	0	; select bank0
  6246     04D0  01BF               	clrf	main@i_240
  6247     04D1  01C0               	clrf	main@i_240+1
  6248     04D2  2CDC               	goto	l180
  6249     04D3                     l2496:
  6250                           
  6251                           ;main.c: 374: _delay((unsigned long)((20)*(32000000/4000000.0))) ;
  6252     04D3  3035               	movlw	53
  6253     04D4                     u2697:
  6254     04D4  0B89               	decfsz	9,f
  6255     04D5  2CD4               	goto	u2697
  6256     04D6  0000               	nop
  6257     04D7  3001               	movlw	1
  6258     04D8  0020               	movlb	0	; select bank0
  6259     04D9  07BF               	addwf	main@i_240,f
  6260     04DA  3000               	movlw	0
  6261     04DB  3DC0               	addwfc	main@i_240+1,f
  6262     04DC                     l180:
  6263     04DC  0840               	movf	main@i_240+1,w
  6264     04DD  3A80               	xorlw	128
  6265     04DE  00B1               	movwf	??_main
  6266     04DF  0860               	movf	main@fp3_time+1,w
  6267     04E0  3A80               	xorlw	128
  6268     04E1  0231               	subwf	??_main,w
  6269     04E2  1D03               	skipz
  6270     04E3  2CE6               	goto	u2415
  6271     04E4  085F               	movf	main@fp3_time,w
  6272     04E5  023F               	subwf	main@i_240,w
  6273     04E6                     u2415:
  6274     04E6  1C03               	skipc
  6275     04E7  2CE9               	goto	u2411
  6276     04E8  2CEA               	goto	u2410
  6277     04E9                     u2411:
  6278     04E9  2CD3               	goto	l2496
  6279     04EA                     u2410:
  6280     04EA  2D80               	goto	l2522
  6281     04EB                     l2498:
  6282     04EB  0021               	movlb	1	; select bank1
  6283     04EC  0843               	movf	(main@ptr+1)^(0+128),w
  6284     04ED  00F1               	movwf	strcmp@s1+1
  6285     04EE  0842               	movf	main@ptr^(0+128),w
  6286     04EF  00F0               	movwf	strcmp@s1
  6287     04F0  30AC               	movlw	low ((STR_9+1)| (0+32768))
  6288     04F1  00F2               	movwf	strcmp@s2
  6289     04F2  3090               	movlw	high ((STR_9+1)| (0+32768))
  6290     04F3  00F3               	movwf	strcmp@s2+1
  6291     04F4  318A  227F  3180   	fcall	_strcmp
  6292     04F7  0870               	movf	?_strcmp,w
  6293     04F8  0471               	iorwf	?_strcmp+1,w
  6294     04F9  1D03               	btfss	3,2
  6295     04FA  2CFC               	goto	u2421
  6296     04FB  2CFD               	goto	u2420
  6297     04FC                     u2421:
  6298     04FC  2D1D               	goto	l2506
  6299     04FD                     u2420:
  6300     04FD                     l2500:
  6301                           
  6302                           ;main.c: 377: DAC1CON1 = fp4_amp ;
  6303     04FD  0020               	movlb	0	; select bank0
  6304     04FE  0865               	movf	main@fp4_amp,w
  6305     04FF  0022               	movlb	2	; select bank2
  6306     0500  0099               	movwf	25	;volatile
  6307     0501                     l2502:
  6308                           
  6309                           ;main.c: 378: for (int i=0 ; i < fp4_time ; i++){
  6310     0501  0020               	movlb	0	; select bank0
  6311     0502  01C1               	clrf	main@i_242
  6312     0503  01C2               	clrf	main@i_242+1
  6313     0504  2D0E               	goto	l185
  6314     0505                     l2504:
  6315                           
  6316                           ;main.c: 379: _delay((unsigned long)((20)*(32000000/4000000.0))) ;
  6317     0505  3035               	movlw	53
  6318     0506                     u2707:
  6319     0506  0B89               	decfsz	9,f
  6320     0507  2D06               	goto	u2707
  6321     0508  0000               	nop
  6322     0509  3001               	movlw	1
  6323     050A  0020               	movlb	0	; select bank0
  6324     050B  07C1               	addwf	main@i_242,f
  6325     050C  3000               	movlw	0
  6326     050D  3DC2               	addwfc	main@i_242+1,f
  6327     050E                     l185:
  6328     050E  0842               	movf	main@i_242+1,w
  6329     050F  3A80               	xorlw	128
  6330     0510  00B1               	movwf	??_main
  6331     0511  0864               	movf	main@fp4_time+1,w
  6332     0512  3A80               	xorlw	128
  6333     0513  0231               	subwf	??_main,w
  6334     0514  1D03               	skipz
  6335     0515  2D18               	goto	u2435
  6336     0516  0863               	movf	main@fp4_time,w
  6337     0517  0241               	subwf	main@i_242,w
  6338     0518                     u2435:
  6339     0518  1C03               	skipc
  6340     0519  2D1B               	goto	u2431
  6341     051A  2D1C               	goto	u2430
  6342     051B                     u2431:
  6343     051B  2D05               	goto	l2504
  6344     051C                     u2430:
  6345     051C  2D80               	goto	l2522
  6346     051D                     l2506:
  6347     051D  0021               	movlb	1	; select bank1
  6348     051E  0843               	movf	(main@ptr+1)^(0+128),w
  6349     051F  00F1               	movwf	strcmp@s1+1
  6350     0520  0842               	movf	main@ptr^(0+128),w
  6351     0521  00F0               	movwf	strcmp@s1
  6352     0522  30B0               	movlw	low ((STR_10+1)| (0+32768))
  6353     0523  00F2               	movwf	strcmp@s2
  6354     0524  3090               	movlw	high ((STR_10+1)| (0+32768))
  6355     0525  00F3               	movwf	strcmp@s2+1
  6356     0526  318A  227F  3180   	fcall	_strcmp
  6357     0529  0870               	movf	?_strcmp,w
  6358     052A  0471               	iorwf	?_strcmp+1,w
  6359     052B  1D03               	btfss	3,2
  6360     052C  2D2E               	goto	u2441
  6361     052D  2D2F               	goto	u2440
  6362     052E                     u2441:
  6363     052E  2D4F               	goto	l2514
  6364     052F                     u2440:
  6365     052F                     l2508:
  6366                           
  6367                           ;main.c: 382: DAC1CON1 = fp5_amp ;
  6368     052F  0020               	movlb	0	; select bank0
  6369     0530  0869               	movf	main@fp5_amp,w
  6370     0531  0022               	movlb	2	; select bank2
  6371     0532  0099               	movwf	25	;volatile
  6372     0533                     l2510:
  6373                           
  6374                           ;main.c: 383: for (int i=0 ; i < fp5_time ; i++){
  6375     0533  0020               	movlb	0	; select bank0
  6376     0534  01C3               	clrf	main@i_244
  6377     0535  01C4               	clrf	main@i_244+1
  6378     0536  2D40               	goto	l190
  6379     0537                     l2512:
  6380                           
  6381                           ;main.c: 384: _delay((unsigned long)((20)*(32000000/4000000.0))) ;
  6382     0537  3035               	movlw	53
  6383     0538                     u2717:
  6384     0538  0B89               	decfsz	9,f
  6385     0539  2D38               	goto	u2717
  6386     053A  0000               	nop
  6387     053B  3001               	movlw	1
  6388     053C  0020               	movlb	0	; select bank0
  6389     053D  07C3               	addwf	main@i_244,f
  6390     053E  3000               	movlw	0
  6391     053F  3DC4               	addwfc	main@i_244+1,f
  6392     0540                     l190:
  6393     0540  0844               	movf	main@i_244+1,w
  6394     0541  3A80               	xorlw	128
  6395     0542  00B1               	movwf	??_main
  6396     0543  0868               	movf	main@fp5_time+1,w
  6397     0544  3A80               	xorlw	128
  6398     0545  0231               	subwf	??_main,w
  6399     0546  1D03               	skipz
  6400     0547  2D4A               	goto	u2455
  6401     0548  0867               	movf	main@fp5_time,w
  6402     0549  0243               	subwf	main@i_244,w
  6403     054A                     u2455:
  6404     054A  1C03               	skipc
  6405     054B  2D4D               	goto	u2451
  6406     054C  2D4E               	goto	u2450
  6407     054D                     u2451:
  6408     054D  2D37               	goto	l2512
  6409     054E                     u2450:
  6410     054E  2D80               	goto	l2522
  6411     054F                     l2514:
  6412     054F  0021               	movlb	1	; select bank1
  6413     0550  0843               	movf	(main@ptr+1)^(0+128),w
  6414     0551  00F1               	movwf	strcmp@s1+1
  6415     0552  0842               	movf	main@ptr^(0+128),w
  6416     0553  00F0               	movwf	strcmp@s1
  6417     0554  30B4               	movlw	low ((STR_11+1)| (0+32768))
  6418     0555  00F2               	movwf	strcmp@s2
  6419     0556  3090               	movlw	high ((STR_11+1)| (0+32768))
  6420     0557  00F3               	movwf	strcmp@s2+1
  6421     0558  318A  227F  3180   	fcall	_strcmp
  6422     055B  0870               	movf	?_strcmp,w
  6423     055C  0471               	iorwf	?_strcmp+1,w
  6424     055D  1D03               	btfss	3,2
  6425     055E  2D60               	goto	u2461
  6426     055F  2D61               	goto	u2460
  6427     0560                     u2461:
  6428     0560  2D80               	goto	l2522
  6429     0561                     u2460:
  6430     0561                     l2516:
  6431                           
  6432                           ;main.c: 387: DAC1CON1 = fp6_amp ;
  6433     0561  0020               	movlb	0	; select bank0
  6434     0562  086D               	movf	main@fp6_amp,w
  6435     0563  0022               	movlb	2	; select bank2
  6436     0564  0099               	movwf	25	;volatile
  6437     0565                     l2518:
  6438                           
  6439                           ;main.c: 388: for (int i=0 ; i < fp6_time ; i++){
  6440     0565  0020               	movlb	0	; select bank0
  6441     0566  01C5               	clrf	main@i_246
  6442     0567  01C6               	clrf	main@i_246+1
  6443     0568  2D72               	goto	l195
  6444     0569                     l2520:
  6445                           
  6446                           ;main.c: 389: _delay((unsigned long)((20)*(32000000/4000000.0))) ;
  6447     0569  3035               	movlw	53
  6448     056A                     u2727:
  6449     056A  0B89               	decfsz	9,f
  6450     056B  2D6A               	goto	u2727
  6451     056C  0000               	nop
  6452     056D  3001               	movlw	1
  6453     056E  0020               	movlb	0	; select bank0
  6454     056F  07C5               	addwf	main@i_246,f
  6455     0570  3000               	movlw	0
  6456     0571  3DC6               	addwfc	main@i_246+1,f
  6457     0572                     l195:
  6458     0572  0846               	movf	main@i_246+1,w
  6459     0573  3A80               	xorlw	128
  6460     0574  00B1               	movwf	??_main
  6461     0575  086C               	movf	main@fp6_time+1,w
  6462     0576  3A80               	xorlw	128
  6463     0577  0231               	subwf	??_main,w
  6464     0578  1D03               	skipz
  6465     0579  2D7C               	goto	u2475
  6466     057A  086B               	movf	main@fp6_time,w
  6467     057B  0245               	subwf	main@i_246,w
  6468     057C                     u2475:
  6469     057C  1C03               	skipc
  6470     057D  2D7F               	goto	u2471
  6471     057E  2D80               	goto	u2470
  6472     057F                     u2471:
  6473     057F  2D69               	goto	l2520
  6474     0580                     u2470:
  6475     0580                     l2522:
  6476     0580  3001               	movlw	1
  6477     0581  0021               	movlb	1	; select bank1
  6478     0582  07AA               	addwf	main@k^(0+128),f
  6479     0583  3000               	movlw	0
  6480     0584  3DAB               	addwfc	(main@k+1)^(0+128),f
  6481     0585  082B               	movf	(main@k+1)^(0+128),w
  6482     0586  3A80               	xorlw	128
  6483     0587  0020               	movlb	0	; select bank0
  6484     0588  00B1               	movwf	??_main
  6485     0589  3080               	movlw	128
  6486     058A  0231               	subwf	??_main,w
  6487     058B  1D03               	skipz
  6488     058C  2D90               	goto	u2485
  6489     058D  3006               	movlw	6
  6490     058E  0021               	movlb	1	; select bank1
  6491     058F  022A               	subwf	main@k^(0+128),w
  6492     0590                     u2485:
  6493     0590  1C03               	skipc
  6494     0591  2D93               	goto	u2481
  6495     0592  2D94               	goto	u2480
  6496     0593                     u2481:
  6497     0593  2BC4               	goto	l2450
  6498     0594                     u2480:
  6499     0594                     l2524:
  6500                           
  6501                           ;main.c: 390: };main.c: 391: };main.c: 392: };main.c: 395: printf("C\tLEP\n");
  6502     0594  3084               	movlw	low (STR_56| (0+32768))
  6503     0595  0020               	movlb	0	; select bank0
  6504     0596  00A0               	movwf	printf@f
  6505     0597  3090               	movlw	high (STR_56| (0+32768))
  6506     0598  00A1               	movwf	printf@f+1
  6507     0599  318C  24D3  3180   	fcall	_printf
  6508                           
  6509                           ;main.c: 396: break;
  6510     059C  2E6B               	goto	u2550
  6511     059D                     l2526:
  6512                           
  6513                           ;main.c: 399: DAC1CON1 = fp1_amp ;
  6514     059D  0859               	movf	main@fp1_amp,w
  6515     059E  0022               	movlb	2	; select bank2
  6516     059F  0099               	movwf	25	;volatile
  6517     05A0                     l2528:
  6518                           
  6519                           ;main.c: 400: for (int i=0 ; i < fp1_time ; i++){
  6520     05A0  0020               	movlb	0	; select bank0
  6521     05A1  01C7               	clrf	main@i_248
  6522     05A2  01C8               	clrf	main@i_248+1
  6523     05A3  2DAC               	goto	l199
  6524     05A4                     l2530:
  6525                           
  6526                           ;main.c: 401: _delay((unsigned long)((15)*(32000000/4000000.0))) ;
  6527     05A4  3028               	movlw	40
  6528     05A5                     u2737:
  6529     05A5  0B89               	decfsz	9,f
  6530     05A6  2DA5               	goto	u2737
  6531     05A7  3001               	movlw	1
  6532     05A8  0020               	movlb	0	; select bank0
  6533     05A9  07C7               	addwf	main@i_248,f
  6534     05AA  3000               	movlw	0
  6535     05AB  3DC8               	addwfc	main@i_248+1,f
  6536     05AC                     l199:
  6537     05AC  0848               	movf	main@i_248+1,w
  6538     05AD  3A80               	xorlw	128
  6539     05AE  00B1               	movwf	??_main
  6540     05AF  0858               	movf	main@fp1_time+1,w
  6541     05B0  3A80               	xorlw	128
  6542     05B1  0231               	subwf	??_main,w
  6543     05B2  1D03               	skipz
  6544     05B3  2DB6               	goto	u2495
  6545     05B4  0857               	movf	main@fp1_time,w
  6546     05B5  0247               	subwf	main@i_248,w
  6547     05B6                     u2495:
  6548     05B6  1C03               	skipc
  6549     05B7  2DB9               	goto	u2491
  6550     05B8  2DBA               	goto	u2490
  6551     05B9                     u2491:
  6552     05B9  2DA4               	goto	l2530
  6553     05BA                     u2490:
  6554     05BA                     l2532:
  6555                           
  6556                           ;main.c: 402: };main.c: 403: DAC1CON1 = fp2_amp ;
  6557     05BA  0020               	movlb	0	; select bank0
  6558     05BB  085D               	movf	main@fp2_amp,w
  6559     05BC  0022               	movlb	2	; select bank2
  6560     05BD  0099               	movwf	25	;volatile
  6561     05BE                     l2534:
  6562                           
  6563                           ;main.c: 404: for (int i=0 ; i < fp2_time ; i++){
  6564     05BE  0020               	movlb	0	; select bank0
  6565     05BF  01C9               	clrf	main@i_249
  6566     05C0  01CA               	clrf	main@i_249+1
  6567     05C1  2DCA               	goto	l202
  6568     05C2                     l2536:
  6569                           
  6570                           ;main.c: 405: _delay((unsigned long)((15)*(32000000/4000000.0))) ;
  6571     05C2  3028               	movlw	40
  6572     05C3                     u2747:
  6573     05C3  0B89               	decfsz	9,f
  6574     05C4  2DC3               	goto	u2747
  6575     05C5  3001               	movlw	1
  6576     05C6  0020               	movlb	0	; select bank0
  6577     05C7  07C9               	addwf	main@i_249,f
  6578     05C8  3000               	movlw	0
  6579     05C9  3DCA               	addwfc	main@i_249+1,f
  6580     05CA                     l202:
  6581     05CA  084A               	movf	main@i_249+1,w
  6582     05CB  3A80               	xorlw	128
  6583     05CC  00B1               	movwf	??_main
  6584     05CD  085C               	movf	main@fp2_time+1,w
  6585     05CE  3A80               	xorlw	128
  6586     05CF  0231               	subwf	??_main,w
  6587     05D0  1D03               	skipz
  6588     05D1  2DD4               	goto	u2505
  6589     05D2  085B               	movf	main@fp2_time,w
  6590     05D3  0249               	subwf	main@i_249,w
  6591     05D4                     u2505:
  6592     05D4  1C03               	skipc
  6593     05D5  2DD7               	goto	u2501
  6594     05D6  2DD8               	goto	u2500
  6595     05D7                     u2501:
  6596     05D7  2DC2               	goto	l2536
  6597     05D8                     u2500:
  6598     05D8                     l2538:
  6599                           
  6600                           ;main.c: 406: };main.c: 407: DAC1CON1 = fp3_amp ;
  6601     05D8  0020               	movlb	0	; select bank0
  6602     05D9  0861               	movf	main@fp3_amp,w
  6603     05DA  0022               	movlb	2	; select bank2
  6604     05DB  0099               	movwf	25	;volatile
  6605     05DC                     l2540:
  6606                           
  6607                           ;main.c: 408: for (int i=0 ; i < fp3_time ; i++){
  6608     05DC  0020               	movlb	0	; select bank0
  6609     05DD  01CB               	clrf	main@i_250
  6610     05DE  01CC               	clrf	main@i_250+1
  6611     05DF  2DE8               	goto	l205
  6612     05E0                     l2542:
  6613                           
  6614                           ;main.c: 409: _delay((unsigned long)((15)*(32000000/4000000.0))) ;
  6615     05E0  3028               	movlw	40
  6616     05E1                     u2757:
  6617     05E1  0B89               	decfsz	9,f
  6618     05E2  2DE1               	goto	u2757
  6619     05E3  3001               	movlw	1
  6620     05E4  0020               	movlb	0	; select bank0
  6621     05E5  07CB               	addwf	main@i_250,f
  6622     05E6  3000               	movlw	0
  6623     05E7  3DCC               	addwfc	main@i_250+1,f
  6624     05E8                     l205:
  6625     05E8  084C               	movf	main@i_250+1,w
  6626     05E9  3A80               	xorlw	128
  6627     05EA  00B1               	movwf	??_main
  6628     05EB  0860               	movf	main@fp3_time+1,w
  6629     05EC  3A80               	xorlw	128
  6630     05ED  0231               	subwf	??_main,w
  6631     05EE  1D03               	skipz
  6632     05EF  2DF2               	goto	u2515
  6633     05F0  085F               	movf	main@fp3_time,w
  6634     05F1  024B               	subwf	main@i_250,w
  6635     05F2                     u2515:
  6636     05F2  1C03               	skipc
  6637     05F3  2DF5               	goto	u2511
  6638     05F4  2DF6               	goto	u2510
  6639     05F5                     u2511:
  6640     05F5  2DE0               	goto	l2542
  6641     05F6                     u2510:
  6642     05F6                     l2544:
  6643                           
  6644                           ;main.c: 410: };main.c: 411: DAC1CON1 = fp4_amp ;
  6645     05F6  0020               	movlb	0	; select bank0
  6646     05F7  0865               	movf	main@fp4_amp,w
  6647     05F8  0022               	movlb	2	; select bank2
  6648     05F9  0099               	movwf	25	;volatile
  6649     05FA                     l2546:
  6650                           
  6651                           ;main.c: 412: for (int i=0 ; i < fp4_time ; i++){
  6652     05FA  0020               	movlb	0	; select bank0
  6653     05FB  01CD               	clrf	main@i_251
  6654     05FC  01CE               	clrf	main@i_251+1
  6655     05FD  2E06               	goto	l208
  6656     05FE                     l2548:
  6657                           
  6658                           ;main.c: 413: _delay((unsigned long)((15)*(32000000/4000000.0))) ;
  6659     05FE  3028               	movlw	40
  6660     05FF                     u2767:
  6661     05FF  0B89               	decfsz	9,f
  6662     0600  2DFF               	goto	u2767
  6663     0601  3001               	movlw	1
  6664     0602  0020               	movlb	0	; select bank0
  6665     0603  07CD               	addwf	main@i_251,f
  6666     0604  3000               	movlw	0
  6667     0605  3DCE               	addwfc	main@i_251+1,f
  6668     0606                     l208:
  6669     0606  084E               	movf	main@i_251+1,w
  6670     0607  3A80               	xorlw	128
  6671     0608  00B1               	movwf	??_main
  6672     0609  0864               	movf	main@fp4_time+1,w
  6673     060A  3A80               	xorlw	128
  6674     060B  0231               	subwf	??_main,w
  6675     060C  1D03               	skipz
  6676     060D  2E10               	goto	u2525
  6677     060E  0863               	movf	main@fp4_time,w
  6678     060F  024D               	subwf	main@i_251,w
  6679     0610                     u2525:
  6680     0610  1C03               	skipc
  6681     0611  2E13               	goto	u2521
  6682     0612  2E14               	goto	u2520
  6683     0613                     u2521:
  6684     0613  2DFE               	goto	l2548
  6685     0614                     u2520:
  6686     0614                     l2550:
  6687                           
  6688                           ;main.c: 414: };main.c: 415: DAC1CON1 = fp5_amp ;
  6689     0614  0020               	movlb	0	; select bank0
  6690     0615  0869               	movf	main@fp5_amp,w
  6691     0616  0022               	movlb	2	; select bank2
  6692     0617  0099               	movwf	25	;volatile
  6693     0618                     l2552:
  6694                           
  6695                           ;main.c: 416: for (int i=0 ; i < fp5_time ; i++){
  6696     0618  0020               	movlb	0	; select bank0
  6697     0619  01CF               	clrf	main@i_252
  6698     061A  01D0               	clrf	main@i_252+1
  6699     061B  2E24               	goto	l211
  6700     061C                     l2554:
  6701                           
  6702                           ;main.c: 417: _delay((unsigned long)((15)*(32000000/4000000.0))) ;
  6703     061C  3028               	movlw	40
  6704     061D                     u2777:
  6705     061D  0B89               	decfsz	9,f
  6706     061E  2E1D               	goto	u2777
  6707     061F  3001               	movlw	1
  6708     0620  0020               	movlb	0	; select bank0
  6709     0621  07CF               	addwf	main@i_252,f
  6710     0622  3000               	movlw	0
  6711     0623  3DD0               	addwfc	main@i_252+1,f
  6712     0624                     l211:
  6713     0624  0850               	movf	main@i_252+1,w
  6714     0625  3A80               	xorlw	128
  6715     0626  00B1               	movwf	??_main
  6716     0627  0868               	movf	main@fp5_time+1,w
  6717     0628  3A80               	xorlw	128
  6718     0629  0231               	subwf	??_main,w
  6719     062A  1D03               	skipz
  6720     062B  2E2E               	goto	u2535
  6721     062C  0867               	movf	main@fp5_time,w
  6722     062D  024F               	subwf	main@i_252,w
  6723     062E                     u2535:
  6724     062E  1C03               	skipc
  6725     062F  2E31               	goto	u2531
  6726     0630  2E32               	goto	u2530
  6727     0631                     u2531:
  6728     0631  2E1C               	goto	l2554
  6729     0632                     u2530:
  6730     0632                     l2556:
  6731                           
  6732                           ;main.c: 418: };main.c: 419: DAC1CON1 = fp6_amp ;
  6733     0632  0020               	movlb	0	; select bank0
  6734     0633  086D               	movf	main@fp6_amp,w
  6735     0634  0022               	movlb	2	; select bank2
  6736     0635  0099               	movwf	25	;volatile
  6737     0636                     l2558:
  6738                           
  6739                           ;main.c: 420: for (int i=0 ; i < fp6_time ; i++){
  6740     0636  0020               	movlb	0	; select bank0
  6741     0637  01D1               	clrf	main@i_253
  6742     0638  01D2               	clrf	main@i_253+1
  6743     0639  2E42               	goto	l214
  6744     063A                     l2560:
  6745                           
  6746                           ;main.c: 421: _delay((unsigned long)((15)*(32000000/4000000.0))) ;
  6747     063A  3028               	movlw	40
  6748     063B                     u2787:
  6749     063B  0B89               	decfsz	9,f
  6750     063C  2E3B               	goto	u2787
  6751     063D  3001               	movlw	1
  6752     063E  0020               	movlb	0	; select bank0
  6753     063F  07D1               	addwf	main@i_253,f
  6754     0640  3000               	movlw	0
  6755     0641  3DD2               	addwfc	main@i_253+1,f
  6756     0642                     l214:
  6757     0642  0852               	movf	main@i_253+1,w
  6758     0643  3A80               	xorlw	128
  6759     0644  00B1               	movwf	??_main
  6760     0645  086C               	movf	main@fp6_time+1,w
  6761     0646  3A80               	xorlw	128
  6762     0647  0231               	subwf	??_main,w
  6763     0648  1D03               	skipz
  6764     0649  2E4C               	goto	u2545
  6765     064A  086B               	movf	main@fp6_time,w
  6766     064B  0251               	subwf	main@i_253,w
  6767     064C                     u2545:
  6768     064C  1C03               	skipc
  6769     064D  2E4F               	goto	u2541
  6770     064E  2E50               	goto	u2540
  6771     064F                     u2541:
  6772     064F  2E3A               	goto	l2560
  6773     0650                     u2540:
  6774     0650                     l2562:
  6775                           
  6776                           ;main.c: 422: };main.c: 423: DAC1CON1 = 0 ;
  6777     0650  0022               	movlb	2	; select bank2
  6778     0651  0199               	clrf	25	;volatile
  6779     0652                     l2564:
  6780                           
  6781                           ;main.c: 426: DAC1CON1 = 200 ;
  6782     0652  30C8               	movlw	200
  6783     0653  0022               	movlb	2	; select bank2
  6784     0654  0099               	movwf	25	;volatile
  6785                           
  6786                           ;main.c: 427: break;
  6787     0655  2E6B               	goto	u2550
  6788     0656                     l2566:
  6789                           
  6790                           ;main.c: 430: DAC1CON1 = 0 ;
  6791     0656  0022               	movlb	2	; select bank2
  6792     0657  0199               	clrf	25	;volatile
  6793                           
  6794                           ;main.c: 431: break;
  6795     0658  2E6B               	goto	u2550
  6796     0659                     l2568:
  6797                           
  6798                           ;main.c: 440: for (int k = 0; k < 1000 ; k++){
  6799     0659  0021               	movlb	1	; select bank1
  6800     065A  01B0               	clrf	main@k_254^(0+128)
  6801     065B  01B1               	clrf	(main@k_254+1)^(0+128)
  6802     065C                     l2570:
  6803     065C  0831               	movf	(main@k_254+1)^(0+128),w
  6804     065D  3A80               	xorlw	128
  6805     065E  0020               	movlb	0	; select bank0
  6806     065F  00B1               	movwf	??_main
  6807     0660  3083               	movlw	131
  6808     0661  0231               	subwf	??_main,w
  6809     0662  1D03               	skipz
  6810     0663  2E67               	goto	u2555
  6811     0664  30E8               	movlw	232
  6812     0665  0021               	movlb	1	; select bank1
  6813     0666  0230               	subwf	main@k_254^(0+128),w
  6814     0667                     u2555:
  6815     0667  1C03               	skipc
  6816     0668  2E6A               	goto	u2551
  6817     0669  2E6B               	goto	u2550
  6818     066A                     u2551:
  6819     066A  2E6D               	goto	l222
  6820     066B                     u2550:
  6821     066B  318D  2DF7         	goto	l2200
  6822     066D                     l222:
  6823                           
  6824                           ;main.c: 441: DAC1CON1 = 200 ;
  6825     066D  30C8               	movlw	200
  6826     066E  0022               	movlb	2	; select bank2
  6827     066F  0099               	movwf	25	;volatile
  6828     0670                     l2574:
  6829                           
  6830                           ;main.c: 442: for (int i=0 ; i < 1 ; i++){
  6831     0670  0021               	movlb	1	; select bank1
  6832     0671  01B2               	clrf	main@i_255^(0+128)
  6833     0672  01B3               	clrf	(main@i_255+1)^(0+128)
  6834     0673                     l2576:
  6835     0673  0833               	movf	(main@i_255+1)^(0+128),w
  6836     0674  3A80               	xorlw	128
  6837     0675  0020               	movlb	0	; select bank0
  6838     0676  00B1               	movwf	??_main
  6839     0677  3080               	movlw	128
  6840     0678  0231               	subwf	??_main,w
  6841     0679  1D03               	skipz
  6842     067A  2E7E               	goto	u2565
  6843     067B  3001               	movlw	1
  6844     067C  0021               	movlb	1	; select bank1
  6845     067D  0232               	subwf	main@i_255^(0+128),w
  6846     067E                     u2565:
  6847     067E  1C03               	skipc
  6848     067F  2E81               	goto	u2561
  6849     0680  2E82               	goto	u2560
  6850     0681                     u2561:
  6851     0681  2E83               	goto	l2580
  6852     0682                     u2560:
  6853     0682  2E9B               	goto	l2582
  6854     0683                     l2580:
  6855                           
  6856                           ;main.c: 443: _delay((unsigned long)((10)*(32000000/4000000.0))) ;
  6857     0683  301A               	movlw	26
  6858     0684                     u2797:
  6859     0684  0B89               	decfsz	9,f
  6860     0685  2E84               	goto	u2797
  6861     0686  3200               	nop2
  6862     0687  3001               	movlw	1
  6863     0688  0021               	movlb	1	; select bank1
  6864     0689  07B2               	addwf	main@i_255^(0+128),f
  6865     068A  3000               	movlw	0
  6866     068B  3DB3               	addwfc	(main@i_255+1)^(0+128),f
  6867     068C  0833               	movf	(main@i_255+1)^(0+128),w
  6868     068D  3A80               	xorlw	128
  6869     068E  0020               	movlb	0	; select bank0
  6870     068F  00B1               	movwf	??_main
  6871     0690  3080               	movlw	128
  6872     0691  0231               	subwf	??_main,w
  6873     0692  1D03               	skipz
  6874     0693  2E97               	goto	u2575
  6875     0694  3001               	movlw	1
  6876     0695  0021               	movlb	1	; select bank1
  6877     0696  0232               	subwf	main@i_255^(0+128),w
  6878     0697                     u2575:
  6879     0697  1C03               	skipc
  6880     0698  2E9A               	goto	u2571
  6881     0699  2E9B               	goto	u2570
  6882     069A                     u2571:
  6883     069A  2E83               	goto	l2580
  6884     069B                     u2570:
  6885     069B                     l2582:
  6886                           
  6887                           ;main.c: 444: };main.c: 445: DAC1CON1 = 0 ;
  6888     069B  0022               	movlb	2	; select bank2
  6889     069C  0199               	clrf	25	;volatile
  6890                           
  6891                           ;main.c: 446: for (int i=0 ; i < 1 ; i++){
  6892     069D  0021               	movlb	1	; select bank1
  6893     069E  01B4               	clrf	main@i_256^(0+128)
  6894     069F  01B5               	clrf	(main@i_256+1)^(0+128)
  6895     06A0                     l2584:
  6896     06A0  0835               	movf	(main@i_256+1)^(0+128),w
  6897     06A1  3A80               	xorlw	128
  6898     06A2  0020               	movlb	0	; select bank0
  6899     06A3  00B1               	movwf	??_main
  6900     06A4  3080               	movlw	128
  6901     06A5  0231               	subwf	??_main,w
  6902     06A6  1D03               	skipz
  6903     06A7  2EAB               	goto	u2585
  6904     06A8  3001               	movlw	1
  6905     06A9  0021               	movlb	1	; select bank1
  6906     06AA  0234               	subwf	main@i_256^(0+128),w
  6907     06AB                     u2585:
  6908     06AB  1C03               	skipc
  6909     06AC  2EAE               	goto	u2581
  6910     06AD  2EAF               	goto	u2580
  6911     06AE                     u2581:
  6912     06AE  2EB0               	goto	l2588
  6913     06AF                     u2580:
  6914     06AF  2EC8               	goto	l2590
  6915     06B0                     l2588:
  6916                           
  6917                           ;main.c: 447: _delay((unsigned long)((10)*(32000000/4000000.0))) ;
  6918     06B0  301A               	movlw	26
  6919     06B1                     u2807:
  6920     06B1  0B89               	decfsz	9,f
  6921     06B2  2EB1               	goto	u2807
  6922     06B3  3200               	nop2
  6923     06B4  3001               	movlw	1
  6924     06B5  0021               	movlb	1	; select bank1
  6925     06B6  07B4               	addwf	main@i_256^(0+128),f
  6926     06B7  3000               	movlw	0
  6927     06B8  3DB5               	addwfc	(main@i_256+1)^(0+128),f
  6928     06B9  0835               	movf	(main@i_256+1)^(0+128),w
  6929     06BA  3A80               	xorlw	128
  6930     06BB  0020               	movlb	0	; select bank0
  6931     06BC  00B1               	movwf	??_main
  6932     06BD  3080               	movlw	128
  6933     06BE  0231               	subwf	??_main,w
  6934     06BF  1D03               	skipz
  6935     06C0  2EC4               	goto	u2595
  6936     06C1  3001               	movlw	1
  6937     06C2  0021               	movlb	1	; select bank1
  6938     06C3  0234               	subwf	main@i_256^(0+128),w
  6939     06C4                     u2595:
  6940     06C4  1C03               	skipc
  6941     06C5  2EC7               	goto	u2591
  6942     06C6  2EC8               	goto	u2590
  6943     06C7                     u2591:
  6944     06C7  2EB0               	goto	l2588
  6945     06C8                     u2590:
  6946     06C8                     l2590:
  6947     06C8  3001               	movlw	1
  6948     06C9  0021               	movlb	1	; select bank1
  6949     06CA  07B0               	addwf	main@k_254^(0+128),f
  6950     06CB  3000               	movlw	0
  6951     06CC  3DB1               	addwfc	(main@k_254+1)^(0+128),f
  6952     06CD  0831               	movf	(main@k_254+1)^(0+128),w
  6953     06CE  3A80               	xorlw	128
  6954     06CF  0020               	movlb	0	; select bank0
  6955     06D0  00B1               	movwf	??_main
  6956     06D1  3083               	movlw	131
  6957     06D2  0231               	subwf	??_main,w
  6958     06D3  1D03               	skipz
  6959     06D4  2ED8               	goto	u2605
  6960     06D5  30E8               	movlw	232
  6961     06D6  0021               	movlb	1	; select bank1
  6962     06D7  0230               	subwf	main@k_254^(0+128),w
  6963     06D8                     u2605:
  6964     06D8  1C03               	skipc
  6965     06D9  2EDB               	goto	u2601
  6966     06DA  2EDC               	goto	u2600
  6967     06DB                     u2601:
  6968     06DB  2E6D               	goto	l222
  6969     06DC                     u2600:
  6970     06DC  2E6B               	goto	u2550
  6971     06DD                     l2592:
  6972                           
  6973                           ;main.c: 453: ptr = strtok((0), "/");
  6974     06DD  3000               	movlw	0
  6975     06DE  00A2               	movwf	strtok@s1
  6976     06DF  00A3               	movwf	strtok@s1+1
  6977     06E0  30E3               	movlw	low (STR_22| (0+32768))
  6978     06E1  00A4               	movwf	strtok@s2
  6979     06E2  3090               	movlw	high (STR_22| (0+32768))
  6980     06E3  00A5               	movwf	strtok@s2+1
  6981     06E4  318C  240B  3180   	fcall	_strtok
  6982     06E7  0020               	movlb	0	; select bank0
  6983     06E8  0823               	movf	?_strtok+1,w
  6984     06E9  0021               	movlb	1	; select bank1
  6985     06EA  00C3               	movwf	(main@ptr+1)^(0+128)
  6986     06EB  0020               	movlb	0	; select bank0
  6987     06EC  0822               	movf	?_strtok,w
  6988     06ED  0021               	movlb	1	; select bank1
  6989     06EE  00C2               	movwf	main@ptr^(0+128)
  6990     06EF                     l2594:
  6991                           
  6992                           ;main.c: 454: if(ptr != (0)) {
  6993     06EF  0842               	movf	main@ptr^(0+128),w
  6994     06F0  0443               	iorwf	(main@ptr+1)^(0+128),w
  6995     06F1  1903               	btfsc	3,2
  6996     06F2  2EF4               	goto	u2611
  6997     06F3  2EF5               	goto	u2610
  6998     06F4                     u2611:
  6999     06F4  2F01               	goto	l2598
  7000     06F5                     u2610:
  7001     06F5                     l2596:
  7002                           
  7003                           ;main.c: 455: max_v = atoi(ptr);
  7004     06F5  0843               	movf	(main@ptr+1)^(0+128),w
  7005     06F6  00F7               	movwf	atoi@s+1
  7006     06F7  0842               	movf	main@ptr^(0+128),w
  7007     06F8  00F6               	movwf	atoi@s
  7008     06F9  3180  201A  3180   	fcall	_atoi
  7009     06FC  0877               	movf	?_atoi+1,w
  7010     06FD  0021               	movlb	1	; select bank1
  7011     06FE  00A5               	movwf	(main@max_v+1)^(0+128)
  7012     06FF  0876               	movf	?_atoi,w
  7013     0700  00A4               	movwf	main@max_v^(0+128)
  7014     0701                     l2598:
  7015                           
  7016                           ;main.c: 456: };main.c: 457: DAC1CON1 = 0 ;
  7017     0701  0022               	movlb	2	; select bank2
  7018     0702  0199               	clrf	25	;volatile
  7019     0703                     l2600:
  7020                           
  7021                           ;main.c: 458: int v_cnt = 0;
  7022     0703  0021               	movlb	1	; select bank1
  7023     0704  01B8               	clrf	main@v_cnt^(0+128)
  7024     0705  01B9               	clrf	(main@v_cnt+1)^(0+128)
  7025     0706                     l2602:
  7026                           
  7027                           ;main.c: 459: for (int k = 0; k < max_v ; k++){
  7028     0706  0020               	movlb	0	; select bank0
  7029     0707  01D3               	clrf	main@k_259
  7030     0708  01D4               	clrf	main@k_259+1
  7031     0709  2F21               	goto	l230
  7032     070A                     l2604:
  7033                           
  7034                           ;main.c: 460: DAC1CON1 = v_cnt ;
  7035     070A  0021               	movlb	1	; select bank1
  7036     070B  0838               	movf	main@v_cnt^(0+128),w
  7037     070C  0022               	movlb	2	; select bank2
  7038     070D  0099               	movwf	25	;volatile
  7039                           
  7040                           ;main.c: 461: _delay((unsigned long)((250)*(32000000/4000000.0))) ;
  7041     070E  3003               	movlw	3
  7042     070F  0020               	movlb	0	; select bank0
  7043     0710  00B1               	movwf	??_main
  7044     0711  3097               	movlw	151
  7045     0712                     u2817:
  7046     0712  0B89               	decfsz	9,f
  7047     0713  2F12               	goto	u2817
  7048     0714  0BB1               	decfsz	??_main,f
  7049     0715  2F12               	goto	u2817
  7050     0716  3200               	nop2
  7051                           
  7052                           ;main.c: 462: v_cnt += 1;
  7053     0717  3001               	movlw	1
  7054     0718  0021               	movlb	1	; select bank1
  7055     0719  07B8               	addwf	main@v_cnt^(0+128),f
  7056     071A  3000               	movlw	0
  7057     071B  3DB9               	addwfc	(main@v_cnt+1)^(0+128),f
  7058     071C  3001               	movlw	1
  7059     071D  0020               	movlb	0	; select bank0
  7060     071E  07D3               	addwf	main@k_259,f
  7061     071F  3000               	movlw	0
  7062     0720  3DD4               	addwfc	main@k_259+1,f
  7063     0721                     l230:
  7064     0721  0854               	movf	main@k_259+1,w
  7065     0722  3A80               	xorlw	128
  7066     0723  00B1               	movwf	??_main
  7067     0724  0021               	movlb	1	; select bank1
  7068     0725  0825               	movf	(main@max_v+1)^(0+128),w
  7069     0726  3A80               	xorlw	128
  7070     0727  0020               	movlb	0	; select bank0
  7071     0728  0231               	subwf	??_main,w
  7072     0729  1D03               	skipz
  7073     072A  2F2F               	goto	u2625
  7074     072B  0021               	movlb	1	; select bank1
  7075     072C  0824               	movf	main@max_v^(0+128),w
  7076     072D  0020               	movlb	0	; select bank0
  7077     072E  0253               	subwf	main@k_259,w
  7078     072F                     u2625:
  7079     072F  1C03               	skipc
  7080     0730  2F32               	goto	u2621
  7081     0731  2F33               	goto	u2620
  7082     0732                     u2621:
  7083     0732  2F0A               	goto	l2604
  7084     0733                     u2620:
  7085     0733                     l2606:
  7086                           
  7087                           ;main.c: 463: };main.c: 464: for (int k = 0; k < max_v ; k++){
  7088     0733  0020               	movlb	0	; select bank0
  7089     0734  01D5               	clrf	main@k_260
  7090     0735  01D6               	clrf	main@k_260+1
  7091     0736  2F4E               	goto	l233
  7092     0737                     l2608:
  7093                           
  7094                           ;main.c: 465: DAC1CON1 = v_cnt ;
  7095     0737  0021               	movlb	1	; select bank1
  7096     0738  0838               	movf	main@v_cnt^(0+128),w
  7097     0739  0022               	movlb	2	; select bank2
  7098     073A  0099               	movwf	25	;volatile
  7099                           
  7100                           ;main.c: 466: _delay((unsigned long)((250)*(32000000/4000000.0))) ;
  7101     073B  3003               	movlw	3
  7102     073C  0020               	movlb	0	; select bank0
  7103     073D  00B1               	movwf	??_main
  7104     073E  3097               	movlw	151
  7105     073F                     u2827:
  7106     073F  0B89               	decfsz	9,f
  7107     0740  2F3F               	goto	u2827
  7108     0741  0BB1               	decfsz	??_main,f
  7109     0742  2F3F               	goto	u2827
  7110     0743  3200               	nop2
  7111                           
  7112                           ;main.c: 467: v_cnt -= 1;
  7113     0744  30FF               	movlw	255
  7114     0745  0021               	movlb	1	; select bank1
  7115     0746  07B8               	addwf	main@v_cnt^(0+128),f
  7116     0747  30FF               	movlw	255
  7117     0748  3DB9               	addwfc	(main@v_cnt+1)^(0+128),f
  7118     0749  3001               	movlw	1
  7119     074A  0020               	movlb	0	; select bank0
  7120     074B  07D5               	addwf	main@k_260,f
  7121     074C  3000               	movlw	0
  7122     074D  3DD6               	addwfc	main@k_260+1,f
  7123     074E                     l233:
  7124     074E  0856               	movf	main@k_260+1,w
  7125     074F  3A80               	xorlw	128
  7126     0750  00B1               	movwf	??_main
  7127     0751  0021               	movlb	1	; select bank1
  7128     0752  0825               	movf	(main@max_v+1)^(0+128),w
  7129     0753  3A80               	xorlw	128
  7130     0754  0020               	movlb	0	; select bank0
  7131     0755  0231               	subwf	??_main,w
  7132     0756  1D03               	skipz
  7133     0757  2F5C               	goto	u2635
  7134     0758  0021               	movlb	1	; select bank1
  7135     0759  0824               	movf	main@max_v^(0+128),w
  7136     075A  0020               	movlb	0	; select bank0
  7137     075B  0255               	subwf	main@k_260,w
  7138     075C                     u2635:
  7139     075C  1C03               	skipc
  7140     075D  2F5F               	goto	u2631
  7141     075E  2F60               	goto	u2630
  7142     075F                     u2631:
  7143     075F  2F37               	goto	l2608
  7144     0760                     u2630:
  7145     0760                     l2610:
  7146                           
  7147                           ;main.c: 468: };main.c: 469: printf("C\tSIN\n");
  7148     0760  307D               	movlw	low (STR_58| (0+32768))
  7149     0761  0020               	movlb	0	; select bank0
  7150     0762  00A0               	movwf	printf@f
  7151     0763  3090               	movlw	high (STR_58| (0+32768))
  7152     0764  00A1               	movwf	printf@f+1
  7153     0765  318C  24D3  3180   	fcall	_printf
  7154                           
  7155                           ;main.c: 471: break;
  7156     0768  2E6B               	goto	u2550
  7157     0769                     l2612:
  7158                           
  7159                           ;main.c: 475: val = 0;
  7160     0769  01B9               	clrf	main@val
  7161     076A  01BA               	clrf	main@val+1
  7162                           
  7163                           ;main.c: 476: for (int k = 0; k < 10 ; k++){
  7164     076B  0021               	movlb	1	; select bank1
  7165     076C  01B6               	clrf	main@k_262^(0+128)
  7166     076D  01B7               	clrf	(main@k_262+1)^(0+128)
  7167     076E                     l2614:
  7168     076E  0837               	movf	(main@k_262+1)^(0+128),w
  7169     076F  3A80               	xorlw	128
  7170     0770  0020               	movlb	0	; select bank0
  7171     0771  00B1               	movwf	??_main
  7172     0772  3080               	movlw	128
  7173     0773  0231               	subwf	??_main,w
  7174     0774  1D03               	skipz
  7175     0775  2F79               	goto	u2645
  7176     0776  300A               	movlw	10
  7177     0777  0021               	movlb	1	; select bank1
  7178     0778  0236               	subwf	main@k_262^(0+128),w
  7179     0779                     u2645:
  7180     0779  1C03               	skipc
  7181     077A  2F7C               	goto	u2641
  7182     077B  2F7D               	goto	u2640
  7183     077C                     u2641:
  7184     077C  2F7E               	goto	l2618
  7185     077D                     u2640:
  7186     077D  2E6B               	goto	u2550
  7187     077E                     l2618:
  7188                           
  7189                           ;main.c: 478: val = AD_convert(1);
  7190     077E  3001               	movlw	1
  7191     077F  3180  2005  3180   	fcall	_AD_convert
  7192     0782  0871               	movf	?_AD_convert+1,w
  7193     0783  0020               	movlb	0	; select bank0
  7194     0784  00BA               	movwf	main@val+1
  7195     0785  0870               	movf	?_AD_convert,w
  7196     0786  00B9               	movwf	main@val
  7197     0787                     l2620:
  7198                           
  7199                           ;main.c: 479: printf("C\tAIN = %u\n", val);
  7200     0787  3022               	movlw	low (STR_59| (0+32768))
  7201     0788  00A0               	movwf	printf@f
  7202     0789  3090               	movlw	high (STR_59| (0+32768))
  7203     078A  00A1               	movwf	printf@f+1
  7204     078B  083A               	movf	main@val+1,w
  7205     078C  00A3               	movwf	?_printf+3
  7206     078D  0839               	movf	main@val,w
  7207     078E  00A2               	movwf	?_printf+2
  7208     078F  318C  24D3  3180   	fcall	_printf
  7209     0792                     l2622:
  7210                           
  7211                           ;main.c: 480: _delay((unsigned long)((500)*(32000000/4000.0))) ;
  7212     0792  3015               	movlw	21
  7213     0793  0020               	movlb	0	; select bank0
  7214     0794  00B2               	movwf	??_main+1
  7215     0795  304B               	movlw	75
  7216     0796  00B1               	movwf	??_main
  7217     0797  30BE               	movlw	190
  7218     0798                     u2837:
  7219     0798  0B89               	decfsz	9,f
  7220     0799  2F98               	goto	u2837
  7221     079A  0BB1               	decfsz	??_main,f
  7222     079B  2F98               	goto	u2837
  7223     079C  0BB2               	decfsz	??_main+1,f
  7224     079D  2F98               	goto	u2837
  7225     079E  0000               	nop
  7226     079F                     l2624:
  7227     079F  3001               	movlw	1
  7228     07A0  0021               	movlb	1	; select bank1
  7229     07A1  07B6               	addwf	main@k_262^(0+128),f
  7230     07A2  3000               	movlw	0
  7231     07A3  3DB7               	addwfc	(main@k_262+1)^(0+128),f
  7232     07A4  2F6E               	goto	l2614
  7233     07A5                     l2628:
  7234                           
  7235                           ;main.c: 485: printf("FLASER-CONT VERSION 1.1");
  7236     07A5  300A               	movlw	low (STR_60| (0+32768))
  7237     07A6  00A0               	movwf	printf@f
  7238     07A7  3090               	movlw	high (STR_60| (0+32768))
  7239     07A8  00A1               	movwf	printf@f+1
  7240     07A9  318C  24D3  3180   	fcall	_printf
  7241                           
  7242                           ;main.c: 486: break;
  7243     07AC  2E6B               	goto	u2550
  7244     07AD                     l2632:
  7245     07AD  0020               	movlb	0	; select bank0
  7246     07AE  086F               	movf	main@cmd,w
  7247                           
  7248                           ; Switch size 1, requested type "simple"
  7249                           ; Number of cases is 19, Range of values is 0 to 19
  7250                           ; switch strategies available:
  7251                           ; Name         Instructions Cycles
  7252                           ; direct_byte           46     6 (fixed)
  7253                           ; simple_byte           58    30 (average)
  7254                           ; jumptable            260     6 (fixed)
  7255                           ;	Chosen strategy is simple_byte
  7256     07AF  3A00               	xorlw	0	; case 0
  7257     07B0  1903               	skipnz
  7258     07B1  2890               	goto	l2312
  7259     07B2  3A01               	xorlw	1	; case 1
  7260     07B3  1903               	skipnz
  7261     07B4  2946               	goto	l2336
  7262     07B5  3A03               	xorlw	3	; case 2
  7263     07B6  1903               	skipnz
  7264     07B7  29BD               	goto	l2358
  7265     07B8  3A01               	xorlw	1	; case 3
  7266     07B9  1903               	skipnz
  7267     07BA  29C5               	goto	l2360
  7268     07BB  3A07               	xorlw	7	; case 4
  7269     07BC  1903               	skipnz
  7270     07BD  2A17               	goto	l2374
  7271     07BE  3A01               	xorlw	1	; case 5
  7272     07BF  1903               	skipnz
  7273     07C0  2A69               	goto	l2388
  7274     07C1  3A03               	xorlw	3	; case 6
  7275     07C2  1903               	skipnz
  7276     07C3  2ABB               	goto	l2402
  7277     07C4  3A01               	xorlw	1	; case 7
  7278     07C5  1903               	skipnz
  7279     07C6  2B0D               	goto	l2416
  7280     07C7  3A0F               	xorlw	15	; case 8
  7281     07C8  1903               	skipnz
  7282     07C9  2B5F               	goto	l2430
  7283     07CA  3A01               	xorlw	1	; case 9
  7284     07CB  1903               	skipnz
  7285     07CC  2BB1               	goto	l2444
  7286     07CD  3A03               	xorlw	3	; case 10
  7287     07CE  1903               	skipnz
  7288     07CF  2E6B               	goto	u2550
  7289     07D0  3A01               	xorlw	1	; case 11
  7290     07D1  1903               	skipnz
  7291     07D2  2E6B               	goto	u2550
  7292     07D3  3A06               	xorlw	6	; case 13
  7293     07D4  1903               	skipnz
  7294     07D5  2E52               	goto	l2564
  7295     07D6  3A03               	xorlw	3	; case 14
  7296     07D7  1903               	skipnz
  7297     07D8  2E56               	goto	l2566
  7298     07D9  3A01               	xorlw	1	; case 15
  7299     07DA  1903               	skipnz
  7300     07DB  2E59               	goto	l2568
  7301     07DC  3A1F               	xorlw	31	; case 16
  7302     07DD  1903               	skipnz
  7303     07DE  2D9D               	goto	l2526
  7304     07DF  3A01               	xorlw	1	; case 17
  7305     07E0  1903               	skipnz
  7306     07E1  2EDD               	goto	l2592
  7307     07E2  3A03               	xorlw	3	; case 18
  7308     07E3  1903               	skipnz
  7309     07E4  2F69               	goto	l2612
  7310     07E5  3A01               	xorlw	1	; case 19
  7311     07E6  1903               	skipnz
  7312     07E7  2FA5               	goto	l2628
  7313     07E8  2E6B               	goto	u2550
  7314     07E9  3180  2802         	ljmp	start
  7315     07EB                     __end_of_main:

Data Sizes:
    Strings     219
    Constant    10
    Data        0
    BSS         6
    Persistent  32
    Stack       0

Auto Spaces:
    Space          Size  Autos    Used
    COMMON           14     13      13
    BANK0            80     80      80
    BANK1            80     36      42
    BANK2            80      0       0
    BANK3            68      0       0
    BANK4             0      0       0
    BANK5             0      0       0
    BANK6             0      0       0
    BANK7             0      0       0
    BANK8             0      0       0
    BANK9             0      0       0
    BANK10            0      0       0
    BANK11            0      0       0
    BANK12            0      0       0

Pointer List with Targets:

    atoi@s	PTR const unsigned char  size(2) Largest target is 300
		 -> main@tmp(BIGRAM[300]), NULL(NULL[0]), 

    cgets@s	PTR unsigned char  size(2) Largest target is 300
		 -> main@tmp(BIGRAM[300]), 

    cgets@s1	PTR unsigned char  size(2) Largest target is 300
		 -> main@tmp(BIGRAM[300]), 

    gets@s	PTR unsigned char  size(2) Largest target is 300
		 -> main@tmp(BIGRAM[300]), 

    main@ptr	PTR unsigned char  size(2) Largest target is 300
		 -> main@tmp(BIGRAM[300]), NULL(NULL[0]), 

    printf@ap	PTR void [1] size(2) Largest target is 2
		 -> ?_printf(BANK0[2]), 

    printf@cp	PTR const unsigned char  size(2) Largest target is 300
		 -> main@tmp(BIGRAM[300]), ?_printf(BANK0[2]), STR_61(CODE[7]), 

    printf@f	PTR const unsigned char  size(2) Largest target is 24
		 -> STR_1(CODE[4]), STR_24(CODE[4]), STR_25(CODE[8]), STR_27(CODE[8]), 
		 -> STR_28(CODE[8]), STR_31(CODE[8]), STR_34(CODE[8]), STR_37(CODE[8]), 
		 -> STR_40(CODE[8]), STR_43(CODE[8]), STR_46(CODE[8]), STR_56(CODE[7]), 
		 -> STR_58(CODE[7]), STR_59(CODE[12]), STR_60(CODE[24]), 

    sp__cgets	PTR unsigned char  size(2) Largest target is 300
		 -> main@tmp(BIGRAM[300]), 

    sp__gets	PTR unsigned char  size(2) Largest target is 300
		 -> main@tmp(BIGRAM[300]), 

    sp__strchr	PTR unsigned char  size(2) Largest target is 2
		 -> STR_22(CODE[2]), STR_23(CODE[2]), STR_26(CODE[2]), STR_29(CODE[2]), 
		 -> STR_30(CODE[2]), STR_32(CODE[2]), STR_33(CODE[2]), STR_35(CODE[2]), 
		 -> STR_36(CODE[2]), STR_38(CODE[2]), STR_39(CODE[2]), STR_41(CODE[2]), 
		 -> STR_42(CODE[2]), STR_44(CODE[2]), STR_45(CODE[2]), STR_47(CODE[2]), 
		 -> STR_57(CODE[2]), NULL(NULL[0]), 

    sp__strtok	PTR unsigned char  size(2) Largest target is 300
		 -> main@tmp(BIGRAM[300]), NULL(NULL[0]), 

    strchr@ptr	PTR const unsigned char  size(2) Largest target is 2
		 -> STR_22(CODE[2]), STR_23(CODE[2]), STR_26(CODE[2]), STR_29(CODE[2]), 
		 -> STR_30(CODE[2]), STR_32(CODE[2]), STR_33(CODE[2]), STR_35(CODE[2]), 
		 -> STR_36(CODE[2]), STR_38(CODE[2]), STR_39(CODE[2]), STR_41(CODE[2]), 
		 -> STR_42(CODE[2]), STR_44(CODE[2]), STR_45(CODE[2]), STR_47(CODE[2]), 
		 -> STR_57(CODE[2]), 

    strcmp@s1	PTR const unsigned char  size(2) Largest target is 300
		 -> main@rcmd(BANK1[4]), main@tmp(BIGRAM[300]), NULL(NULL[0]), 

    strcmp@s2	PTR const unsigned char  size(2) Largest target is 4
		 -> STR_10(CODE[4]), STR_11(CODE[4]), STR_12(CODE[4]), STR_13(CODE[4]), 
		 -> STR_14(CODE[4]), STR_15(CODE[4]), STR_16(CODE[4]), STR_17(CODE[4]), 
		 -> STR_18(CODE[4]), STR_19(CODE[4]), STR_2(CODE[4]), STR_20(CODE[4]), 
		 -> STR_21(CODE[4]), STR_3(CODE[4]), STR_4(CODE[4]), STR_48(CODE[3]), 
		 -> STR_49(CODE[3]), STR_5(CODE[4]), STR_50(CODE[3]), STR_51(CODE[3]), 
		 -> STR_52(CODE[3]), STR_53(CODE[3]), STR_54(CODE[3]), STR_55(CODE[3]), 
		 -> STR_6(CODE[4]), STR_7(CODE[4]), STR_8(CODE[4]), STR_9(CODE[4]), 

    strcspn@s1	PTR const unsigned char  size(2) Largest target is 300
		 -> main@tmp(BIGRAM[300]), NULL(NULL[0]), 

    strcspn@s2	PTR const unsigned char  size(2) Largest target is 2
		 -> STR_22(CODE[2]), STR_23(CODE[2]), STR_26(CODE[2]), STR_29(CODE[2]), 
		 -> STR_30(CODE[2]), STR_32(CODE[2]), STR_33(CODE[2]), STR_35(CODE[2]), 
		 -> STR_36(CODE[2]), STR_38(CODE[2]), STR_39(CODE[2]), STR_41(CODE[2]), 
		 -> STR_42(CODE[2]), STR_44(CODE[2]), STR_45(CODE[2]), STR_47(CODE[2]), 
		 -> STR_57(CODE[2]), 

    strspn@s1	PTR const unsigned char  size(2) Largest target is 300
		 -> main@tmp(BIGRAM[300]), NULL(NULL[0]), 

    strspn@s2	PTR const unsigned char  size(2) Largest target is 2
		 -> STR_22(CODE[2]), STR_23(CODE[2]), STR_26(CODE[2]), STR_29(CODE[2]), 
		 -> STR_30(CODE[2]), STR_32(CODE[2]), STR_33(CODE[2]), STR_35(CODE[2]), 
		 -> STR_36(CODE[2]), STR_38(CODE[2]), STR_39(CODE[2]), STR_41(CODE[2]), 
		 -> STR_42(CODE[2]), STR_44(CODE[2]), STR_45(CODE[2]), STR_47(CODE[2]), 
		 -> STR_57(CODE[2]), 

    strtok@s1	PTR unsigned char  size(2) Largest target is 300
		 -> main@tmp(BIGRAM[300]), NULL(NULL[0]), 

    strtok@s2	PTR const unsigned char  size(2) Largest target is 2
		 -> STR_22(CODE[2]), STR_23(CODE[2]), STR_26(CODE[2]), STR_29(CODE[2]), 
		 -> STR_30(CODE[2]), STR_32(CODE[2]), STR_33(CODE[2]), STR_35(CODE[2]), 
		 -> STR_36(CODE[2]), STR_38(CODE[2]), STR_39(CODE[2]), STR_41(CODE[2]), 
		 -> STR_42(CODE[2]), STR_44(CODE[2]), STR_45(CODE[2]), STR_47(CODE[2]), 
		 -> STR_57(CODE[2]), 

    strtok@sp	PTR unsigned char  size(2) Largest target is 300
		 -> main@tmp(BIGRAM[300]), NULL(NULL[0]), 


Critical Paths under _main in COMMON

    _main->_atoi
    _strtok->_strcspn
    _strtok->_strspn
    _strspn->_strchr
    _strcspn->_strchr
    _serial_init->___lldiv
    _printf->___lwmod
    ___lwmod->___lwdiv
    _gets->_cgets
    _cgets->_getche
    _getche->_putch
    _atoi->___wmul

Critical Paths under _main in BANK0

    _main->_printf
    _strtok->_strcspn
    _strtok->_strspn

Critical Paths under _main in BANK1

    None.

Critical Paths under _main in BANK2

    None.

Critical Paths under _main in BANK3

    None.

Critical Paths under _main in BANK4

    None.

Critical Paths under _main in BANK5

    None.

Critical Paths under _main in BANK6

    None.

Critical Paths under _main in BANK7

    None.

Critical Paths under _main in BANK8

    None.

Critical Paths under _main in BANK9

    None.

Critical Paths under _main in BANK10

    None.

Critical Paths under _main in BANK11

    None.

Critical Paths under _main in BANK12

    None.

Call Graph Tables:

 ---------------------------------------------------------------------------------
 (Depth) Function   	        Calls       Base Space   Used Autos Params    Refs
 ---------------------------------------------------------------------------------
 (0) _main                                                99    99      0    5811
                                             17 BANK0     63    63      0
                                              0 BANK1     36    36      0
                         _AD_convert
                            _PICinit
                               _atoi
                               _gets
                             _printf
                        _serial_init
                             _strcmp
                             _strtok
 ---------------------------------------------------------------------------------
 (1) _strtok                                               4     0      4     604
                                              2 BANK0      4     0      4
                            _strcspn
                             _strspn
 ---------------------------------------------------------------------------------
 (2) _strspn                                               8     4      4     185
                                              7 COMMON     6     2      4
                                              0 BANK0      2     2      0
                             _strchr
 ---------------------------------------------------------------------------------
 (2) _strcspn                                              8     4      4     185
                                              7 COMMON     6     2      4
                                              0 BANK0      2     2      0
                             _strchr
 ---------------------------------------------------------------------------------
 (3) _strchr                                               7     3      4      92
                                              0 COMMON     7     3      4
 ---------------------------------------------------------------------------------
 (1) _strcmp                                               5     1      4     147
                                              0 COMMON     5     1      4
 ---------------------------------------------------------------------------------
 (1) _serial_init                                         10     6      4     232
                                              0 BANK0     10     6      4
                            ___lldiv
 ---------------------------------------------------------------------------------
 (2) ___lldiv                                             13     5      8     164
                                              0 COMMON    13     5      8
 ---------------------------------------------------------------------------------
 (1) _printf                                              23    19      4     894
                                              0 BANK0     17    13      4
                            ___lwdiv
                            ___lwmod
                              _putch
 ---------------------------------------------------------------------------------
 (2) ___lwmod                                              5     1      4     161
                                              7 COMMON     5     1      4
                            ___lwdiv (ARG)
 ---------------------------------------------------------------------------------
 (2) ___lwdiv                                              7     3      4     164
                                              0 COMMON     7     3      4
 ---------------------------------------------------------------------------------
 (1) _gets                                                 2     0      2     330
                                             10 COMMON     2     0      2
                              _cgets
 ---------------------------------------------------------------------------------
 (2) _cgets                                                8     6      2     307
                                              2 COMMON     8     6      2
                             _getche
                              _putch
 ---------------------------------------------------------------------------------
 (3) _getche                                               1     1      0      74
                                              1 COMMON     1     1      0
                              _getch
                              _putch
 ---------------------------------------------------------------------------------
 (2) _putch                                                1     1      0      29
                                              0 COMMON     1     1      0
 ---------------------------------------------------------------------------------
 (4) _getch                                                0     0      0       0
 ---------------------------------------------------------------------------------
 (1) _atoi                                                 7     5      2     419
                                              6 COMMON     7     5      2
                             ___wmul
                            _isdigit
 ---------------------------------------------------------------------------------
 (2) _isdigit                                              2     2      0      82
                                              0 COMMON     2     2      0
 ---------------------------------------------------------------------------------
 (2) ___wmul                                               6     2      4      94
                                              0 COMMON     6     2      4
 ---------------------------------------------------------------------------------
 (1) _PICinit                                              0     0      0       0
 ---------------------------------------------------------------------------------
 (1) _AD_convert                                           3     1      2       0
                                              0 COMMON     2     0      2
 ---------------------------------------------------------------------------------
 Estimated maximum stack depth 4
 ---------------------------------------------------------------------------------

 Call Graph Graphs:

 _main (ROOT)
   _AD_convert
   _PICinit
   _atoi
     ___wmul
     _isdigit
   _gets
     _cgets
       _getche
         _getch
         _putch
       _putch
   _printf
     ___lwdiv
     ___lwmod
       ___lwdiv (ARG)
     _putch
   _serial_init
     ___lldiv
   _strcmp
   _strtok
     _strcspn
       _strchr
     _strspn
       _strchr

Address spaces:
Name               Size   Autos  Total    Usage
BITCOMMON           14      0       0      0.0%
BITBANK0            80      0       0      0.0%
BITBANK1            80      0       0      0.0%
BITBANK2            80      0       0      0.0%
BITBANK3            80      0       0      0.0%
BITBANK4            80      0       0      0.0%
BITBANK5            80      0       0      0.0%
BITBANK6            80      0       0      0.0%
BITBANK7            80      0       0      0.0%
BITBANK8            80      0       0      0.0%
BITBANK9            80      0       0      0.0%
BITBANK10           80      0       0      0.0%
BITBANK11           80      0       0      0.0%
BITBANK12           48      0       0      0.0%
BIGRAM            1008      0       0      0.0%
COMMON              14     13      13     92.9%
BANK0               80     80      80    100.0%
BANK1               80     36      42     52.5%
BANK2               80      0       0      0.0%
BANK3               68      0       0      0.0%
BANK4                0      0       0      0.0%
BANK5                0      0       0      0.0%
BANK6                0      0       0      0.0%
BANK7                0      0       0      0.0%
BANK8                0      0       0      0.0%
BANK9                0      0       0      0.0%
BANK10               0      0       0      0.0%
BANK11               0      0       0      0.0%
BANK12               0      0       0      0.0%
STACK                0      0       0      0.0%
DATA                 0      0     135      0.0%


Microchip Technology PIC Macro Assembler V2.50 build 20240725155939 
Symbol Table                                                                                   Wed Jan 07 16:10:08 2026

            ?_AD_convert 0070                       l60 0011                       l63 0019  
                     l57 0B78                       l66 0A41      ___wmul@multiplicand 0072  
                    l111 0FEA                      l202 05CA                      l122 012B  
                    l211 0624                      l132 01A2                      l205 05E8  
                    l230 0721                      l222 066D                      l214 0642  
                    l208 0606                      l233 074E                      l170 0478  
                    l180 04DC                      l190 0540                      l263 09F4  
                    l175 04AA                      l272 09EA                      l417 0C0A  
                    l185 050E                      l266 09FC                      l275 0A06  
                    l195 0572                      l381 0A6A                      l269 09E3  
                    l365 0D14                      l358 0D33                      l383 0A7E  
                    l199 05AC                      l377 0DD3                      l653 0BB2  
                    l663 0AD8                      l911 0A5F                      l906 0B0C  
                    l922 0B40                      l844 008F                      l909 0A42  
                    l849 09F2                      l874 0A24                      l882 0AA6  
                    l867 0CD2                      l893 0C6D              main@fp1_amp 0059  
            main@fp2_amp 005D              main@fp3_amp 0061              main@fp4_amp 0065  
            main@fp5_amp 0069              main@fp6_amp 006D                      wreg 0009  
                   l2010 0005                     l2002 0B41                     l2012 000B  
                   l2020 0A25                     l2100 0D8E                     l2004 0B47  
                   l2014 000F                     l2030 0A34                     l2022 0A28  
                   l2102 0DB4                     l2006 0B71                     l2110 0A80  
                   l2016 0015                     l2032 0A37                     l2024 0A2A  
                   l2104 0DB8                     l2008 0B74                     l2112 0A88  
                   l2120 0C0B                     l2200 0DF7                     l2034 0A39  
                   l2026 0A2C                     l2050 0CE6                     l2106 0DC0  
                   l2042 0CD3                     l2114 0A98                     l2130 0C23  
                   l2122 0C12                     l2210 0E01                     l2202 0DF9  
                   l2036 0A3F                     l2028 0A2F                     l2060 0D05  
                   l2052 0CEE                     l2044 0CD9                     l2116 0AA1  
                   l2108 0A7F                     l2140 0C58                     l2132 0C33  
                   l2124 0C1A                     l2300 0FBC                     l2220 0E22  
                   l2212 0E07                     l2204 0DFC                     l2038 09EB  
                   l2070 0D3F                     l2062 0D0A                     l2054 0CF2  
                   l2046 0CDF                     l2142 0C61                     l2134 0C3C  
                   l2126 0C20                     l2302 0FC0                     l2310 0FEA  
                   l2230 0E45                     l2222 0E2E                     l2214 0E0E  
                   l2206 0DFE                     l2160 0033                     l2152 001A  
                   l2080 0D57                     l2072 0D43                     l2056 0CF8  
                   l2048 0CE4                     l2144 0C66                     l2400 02B2  
                   l2320 00C2                     l2312 0090                     l2304 0FD1  
                   l2240 0E80                     l2232 0E56                     l2224 0E36  
                   l2216 0E15                     l2208 0E00                     l2162 0036  
                   l2154 001B                     l2074 0D47                     l2082 0D5B  
                   l2058 0CFD                     l2066 0D16                     l2146 0C6B  
                   l2138 0C43                     l2410 02F2                     l2402 02BB  
                   l2330 011E                     l2322 00C6                     l2314 0094  
                   l2306 0FD5                     l2250 0EAE                     l2242 0E84  
                   l2234 0E5B                     l2226 0E3D                     l2218 0E1B  
                   l2180 007F                     l2172 0052                     l2164 0040  
                   l2156 001F                     l2092 0D78                     l2076 0D49  
                   l2068 0D37                     l2148 0C6D                     l2500 04FD  
                   l2420 0325                     l2412 02F8                     l2404 02CD  
                   l2340 0152                     l2332 0126                     l2324 00D9  
                   l2316 00AB                     l2308 0FE6                     l2260 0EEA  
                   l2252 0EBF                     l2244 0E95                     l2236 0E6C  
                   l2228 0E44                     l2166 0042                     l2158 0029  
                   l2094 0D80                     l2078 0D4F                     l2510 0533  
                   l2502 0501                     l2430 035F                     l2422 0331  
                   l2414 0304                     l2406 02D3                     l2350 0185  
                   l2342 0156                     l2334 013D                     l2326 00DF  
                   l2318 00B0                     l2270 0F18                     l2262 0EEE  
                   l2254 0EC3                     l2246 0E99                     l2238 0E6F  
                   l2190 0DDD                     l2184 008B                     l2176 006E  
                   l2168 0047                     l2096 0D86                     l2088 0D5D  
                   l2600 0703                     l2520 0569                     l2512 0537  
                   l2504 0505                     l2440 039C                     l2432 0371  
                   l2424 0344                     l2416 030D                     l2408 02DF  
                   l2360 01C5                     l2352 0196                     l2344 0168  
                   l2336 0146                     l2328 00FE                     l2280 0F53  
                   l2272 0F29                     l2264 0EFF                     l2256 0ED5  
                   l2248 0EAA                     l2192 0DE0                     l2178 007A  
                   l2098 0D8A                     l2610 0760                     l2602 0706  
                   l2530 05A4                     l2514 054F                     l2506 051D  
                   l2522 0580                     l2450 03C4                     l2442 03A8  
                   l2434 0377                     l2426 034A                     l2418 031F  
                   l2370 0202                     l2362 01D7                     l2354 019E  
                   l2346 016C                     l2338 014A                     l2290 0F81  
                   l2282 0F57                     l2274 0F2D                     l2266 0F03  
                   l2258 0ED9                     l2194 0DE2                     l1820 09F9  
                   l1900 0BA2                     l2620 0787                     l2612 0769  
                   l2604 070A                     l2540 05DC                     l2532 05BA  
                   l2516 0561                     l2508 052F                     l2460 040C  
                   l2452 03E8                     l2524 0594                     l2444 03B1  
                   l2436 0383                     l2428 0356                     l2380 023B  
                   l2372 020E                     l2364 01DD                     l2356 01B4  
                   l2348 017F                     l2292 0F92                     l2284 0F68  
                   l2276 0F3E                     l2268 0F14                     l2196 0DE5  
                   l2188 0DD4                     l1822 09E3                     l1830 0A01  
                   l1902 0BA3                     l1910 0AA7                     l2622 0792  
                   l2614 076E                     l2606 0733                     l2550 0614  
                   l2542 05E0                     l2534 05BE                     l2526 059D  
                   l2518 0565                     l2470 043F                     l2454 03EC  
                   l2462 041D                     l2446 03B4                     l2438 0396  
                   l2390 027B                     l2382 024E                     l2374 0217  
                   l2366 01E9                     l2358 01BD                     l2294 0F96  
                   l2286 0F6C                     l2278 0F42                     l2198 0DE8  
                   l1824 09E8                     l1832 0A05                     l1904 0BA8  
                   l1920 0ABB                     l1912 0AAD                     l1840 0A4D  
                   l2624 079F                     l2608 0737                     l2560 063A  
                   l2552 0618                     l2544 05F6                     l2536 05C2  
                   l2528 05A0                     l2480 046F                     l2472 0444  
                   l2464 042F                     l2456 0403                     l2392 0281  
                   l2384 0254                     l2376 0229                     l2368 01FC  
                   l2632 07AD                     l2296 0FA7                     l2288 0F7D  
                   l1850 0A66                     l1818 09F4                     l1906 0BAE  
                   l1922 0AC5                     l1914 0AB0                     l1842 0A5D  
                   l2618 077E                     l2570 065C                     l2562 0650  
                   l2554 061C                     l2546 05FA                     l2538 05D8  
                   l2490 04B9                     l2482 0487                     l2466 0433  
                   l2474 0455                     l2458 0407                     l2394 028D  
                   l2386 0260                     l2378 022F                     l2298 0FAB  
                   l1852 0A6F                     l1940 0A23                     l1932 0A14  
                   l1828 09FD                     l1924 0AC9                     l1916 0AB5  
                   l1860 0BB3                     l1836 0A42                     l2628 07A5  
                   l2580 0683                     l2564 0652                     l2556 0632  
                   l2548 05FE                     l2492 04CB                     l2484 0499  
                   l2476 0467                     l2468 043B                     l2396 02A0  
                   l2388 0269                     l1854 0A74                     l1846 0A60  
                   l1934 0A15                     l2654 0CC4                     l1950 0C7E  
                   l1926 0ACE                     l1918 0AB7                     l1870 0BDA  
                   l1862 0BC3                     l1838 0A4C                     l2590 06C8  
                   l2582 069B                     l2574 0670                     l2566 0656  
                   l2558 0636                     l2494 04CF                     l2486 049D  
                   l2478 046B                     l2398 02A6                     l1856 0A7A  
                   l1848 0A62                     l1936 0A1B                     l1960 0CA6  
                   l1952 0C86                     l1944 0C6E                     l1928 0AD4  
                   l1872 0BEC                     l1864 0BC6                     l1880 0C02  
                   l2592 06DD                     l2584 06A0                     l2576 0673  
                   l2568 0659                     l2496 04D3                     l2488 04A1  
                   l1938 0A21                     l1962 0CAB                     l1954 0C8B  
                   l1946 0C73                     l1890 0B84                     l1874 0BF4  
                   l1866 0BCF                     l2594 06EF                     l2498 04EB  
                   l1956 0C97                     l1972 0CB6                     l1892 0B89  
                   l1884 0B79                     l1876 0BF5                     l1868 0BD3  
                   l1980 0B11                     l2596 06F5                     l2588 06B0  
                   l1966 0CAC                     l1958 0C9B                     l1894 0B8B  
                   l1886 0B7B                     l1878 0BFC                     l1990 0AD9  
                   l1982 0B1A                     l2598 0701                     l1968 0CB2  
                   l1896 0B8F                     l1888 0B81                     l1992 0ADD  
                   l1984 0B23                     l1898 0B9E                     l1994 0AE6  
                   l1986 0B3B                     l1978 0B0D                     l1996 0AEF  
                   l1998 0B07                     STR_1 108F                     STR_2 10DB  
                   STR_3 1093                     STR_4 109B                     STR_5 10A3  
                   STR_6 1097                     STR_7 109F                     STR_8 10A7  
                   STR_9 10AB                     u2000 0EEA                     u2001 0EE9  
                   u2010 0EFF                     u2011 0EFE                     u2100 0FBC  
                   u2020 0F14                     u2101 0FBB                     u2021 0F13  
                   u2110 0FD1                     u2030 0F29                     u2111 0FD0  
                   u2031 0F28                     u1400 0A7A                     u2200 0202  
                   u2120 0FE6                     u2040 0F3E                     u1401 0A79  
                   u2201 0201                     u2121 0FE5                     u2041 0F3D  
                   u1330 09F9                     u1410 0BC3                     u2210 022F  
                   u2130 00C2                     u2050 0F53                     u1331 09F8  
                   u1411 0BC2                     u2211 022E                     u2131 00C1  
                   u2051 0F52                     u1340 09E8                     u1500 0B8F  
                   u2300 039C                     u2220 0254                     u2140 00DF  
                   u2060 0F68                     u1341 09E7                     u1501 0B8E  
                   u2301 039B                     u2221 0253                     u2141 00DE  
                   u2061 0F67                     u1430 0BD3                     u1350 0A4C  
                   u2310 03C3                     u2230 0281                     u2150 013D  
                   u2070 0F7D                     u1431 0BD2                     u1351 0A4B  
                   u2311 03C2                     u2231 0280                     u2151 013C  
                   u2135 00BE                     u2071 0F7C                     u1520 0B9E  
                   u1600 0AD4                     u1360 0A5D                     u2400 04CB  
                   u2320 03E8                     u2240 02A6                     u2160 0168  
                   u2080 0F92                     u1521 0B9D                     u1601 0AD3  
                   u1425 0BC7                     u1361 0A5C                     u2401 04CA  
                   u2321 03E7                     u2241 02A5                     u2161 0167  
                   u2081 0F91                     u1370 0A66                     u1610 0A1B  
                   u1450 0BEC                     u2410 04EA                     u2330 041C  
                   u2250 02D3                     u2170 0185                     u2090 0FA7  
                   u1371 0A65                     u1611 0A1A                     u1515 0B90  
                   u1451 0BEB                     u2411 04E9                     u2331 041B  
                   u2315 03BF                     u2251 02D2                     u2171 0184  
                   u2155 0139                     u2091 0FA6                     u1700 0015  
                   u1620 0A21                     u1540 0BAE                     u2500 05D8  
                   u2420 04FD                     u2340 042F                     u2260 02F8  
                   u2180 01B4                     u1701 0014                     u1621 0A20  
                   u1541 0BAD                     u1525 0B9A                     u1445 0BD4  
                   u2501 05D7                     u2421 04FC                     u2341 042E  
                   u2261 02F7                     u2181 01B3                     u2165 0164  
                   u1630 0C7D                     u1550 0AAD                     u1710 0CDF  
                   u1470 0C02                     u2510 05F6                     u2430 051C  
                   u2350 0454                     u2270 0325                     u2190 01DD  
                   u1631 0C7C                     u1535 0BA4                     u1551 0AAC  
                   u1711 0CDE                     u1471 0C01                     u1455 0BE8  
                   u2511 05F5                     u2431 051B                     u2415 04E6  
                   u2351 0453                     u2335 0418                     u2271 0324  
                   u2191 01DC                     u1640 0CA5                     u1480 0B81  
                   u1800 0DD3                     u1720 0CF8                     u2600 06DC  
                   u2520 0614                     u2440 052F                     u2360 0467  
                   u2280 034A                     u1385 0A6B                     u1641 0CA4  
                   u1481 0B80                     u1801 0DD2                     u1721 0CF7  
                   u1465 0BF6                     u2601 06DB                     u2521 0613  
                   u2505 05D4                     u2441 052E                     u2361 0466  
                   u2281 0349                     u2185 01B0                     u1570 0ABB  
                   u1730 0D13                     u1810 0A98                     u1650 0B23  
                   u2610 06F5                     u2530 0632                     u2450 054E  
                   u2370 0486                     u2290 0377                     u1395 0A70  
                   u1635 0C79                     u1571 0ABA                     u1731 0D12  
                   u1811 0A97                     u1651 0B22                     u2611 06F4  
                   u2531 0631                     u2515 05F2                     u2451 054D  
                   u2435 0518                     u2371 0485                     u2355 0450  
                   u2291 0376                     u1900 0051                     u1580 0AC5  
                   u1740 0D37                     u1820 0AA1                     u1660 0B3B  
                   u2620 0733                     u2540 0650                     u2460 0561  
                   u2380 0499                     u1901 0050                     u1645 0CA1  
                   u1581 0AC4                     u1565 0AB1                     u1741 0D36  
                   u1821 0AA0                     u1661 0B3A                     u2621 0732  
                   u2605 06D8                     u2541 064F                     u2525 0610  
                   u2461 0560                     u2381 0498                     u1910 007A  
                   u1750 0D47                     u1670 0AEF                     u1830 0C12  
                   u2630 0760                     u2550 066B                     u2470 0580  
                   u2390 04B8                     u1911 0079                     u1495 0B85  
                   u1751 0D46                     u1671 0AEE                     u1831 0C11  
                   u2631 075F                     u2551 066A                     u2535 062E  
                   u2471 057F                     u2455 054A                     u2391 04B7  
                   u2375 0482                     u1920 007F                     u1760 0D77  
                   u1680 0B07                     u1840 0C20                     u2640 077D  
                   u2560 0682                     u2480 0594                     u1921 007E  
                   u1585 0AC1                     u1761 0D76                     u1681 0B06  
                   u1841 0C1F                     u2641 077C                     u2625 072F  
                   u2561 0681                     u2545 064C                     u2481 0593  
                   u1770 0D80                     u1690 0B69                     u1850 0C3C  
                   u2570 069B                     u2490 05BA                     u1930 0E56  
                   u1595 0ACA                     u1771 0D7F                     u1851 0C3B  
                   u2635 075C                     u2571 069A                     u2555 0667  
                   u2491 05B9                     u2475 057C                     u2707 0506  
                   u2395 04B4                     u1931 0E55                     u1780 0D86  
                   u1860 0C61                     u2580 06AF                     u1940 0E6C  
                   u1781 0D85                     u1765 0D73                     u1861 0C60  
                   u2645 0779                     u2581 06AE                     u2565 067E  
                   u2485 0590                     u2717 0538                     u1941 0E6B  
                   u1870 0029                     u1790 0DC0                     u2590 06C8  
                   u1950 0E80                     u1871 0028                     u1791 0DBF  
                   u1695 0B65                     u2591 06C7                     u2807 06B1  
                   u2575 0697                     u2495 05B6                     u2727 056A  
                   u1951 0E7F                     u1880 0033                     u1960 0E95  
                   u1881 0032                     u2817 0712                     u2585 06AB  
                   u2737 05A5                     u2657 0404                     u1961 0E94  
                   u1890 0040                     u1970 0EAA                     u1891 003F  
                   u2827 073F                     u2595 06C4                     u2747 05C3  
                   u2667 043C                     u1971 0EA9                     u1980 0EBF  
                   u2837 0798                     u2757 05E1                     u2677 0470  
                   u1981 0EBE                     u1990 0ED5                     u2847 000C  
                   u2767 05FF                     u2687 04A2                     u1991 0ED3  
                   u2777 061D                     u2697 04D4                     u2787 063B  
                   _RCIF 008D                     u2797 0684                     _TXIF 008C  
        __end_of_PICinit 0A42                     _atoi 001A                     _gets 09EB  
                   _main 0DD4              main@num_ap1 00A0              main@num_ap2 00A2  
                   fsr0h 0005                     fsr1h 0007                     indf0 0000  
                   fsr0l 0004                     indf1 0001                     fsr1l 0006  
                   btemp 007E             main@fp1_time 0057             main@fp2_time 005B  
           main@fp3_time 005F                     start 0002             main@fp4_time 0063  
           main@fp5_time 0067             main@fp6_time 006B                    ?_atoi 0076  
                  ?_gets 007A                    ?_main 0070                    STR_10 10AF  
                  STR_11 10B3                    STR_12 10CF                    STR_20 10BF  
                  STR_21 10D7                    STR_13 10B7                    STR_30 10E3  
                  STR_22 10E3                    STR_14 10D3                    STR_23 10E3  
                  STR_15 10C7                    STR_31 1036                    STR_32 10E3  
                  STR_16 10BB                    STR_24 108B                    STR_40 1056  
                  _BRG16 0CFB                    STR_41 10E3                    STR_33 10E3  
                  STR_17 10DF                    STR_25 102E                    STR_42 10E3  
                  STR_26 10E3                    STR_50 1098                    STR_18 10CB  
                  STR_34 1046                    STR_35 10E3                    STR_51 10A0  
                  STR_19 10C3                    STR_43 105E                    STR_27 103E  
                  STR_44 10E3                    STR_36 10E3                    STR_52 10A8  
                  STR_28 106E                    STR_60 100A                    STR_45 10E3  
                  STR_29 10E3                    STR_53 10AC                    STR_61 1076  
                  STR_37 104E                    STR_38 10E3                    STR_54 10B0  
                  STR_46 1066                    STR_47 10E3                    STR_39 10E3  
                  STR_55 10B4                    STR_48 1094                    STR_56 1084  
                  STR_57 10E3                    STR_49 109C                    STR_58 107D  
                  STR_59 1022          __end_of___lldiv 0C0B          __end_of___lwdiv 0BB3  
        __end_of___lwmod 0AD9                    _RCREG 0199                    _RCSTA 019D  
                  _SPBRG 019B                    _PORTA 000C                    _PORTC 000E  
                  _TRISA 008C                    _TRISC 008E                    _RXPPS 0E24  
                  _TXREG 019A                    _TXSTA 019E                    _cgets 0C6E  
                  _getch 09E3          __end_of_dpowers 100A          __end_of_isdigit 0A25  
                  atoi@a 007B                    atoi@s 0076                    _putch 09F3  
                  gets@s 007A                    main@i 00A6                    main@k 00AA  
                  status 0003                    wtemp0 007E          __end_of_strcspn 0B0D  
        __initialization 07EB             __end_of_atoi 0090             __end_of_gets 09F3  
           __end_of_main 07EB                   ??_atoi 0078                   ??_gets 007C  
                 ??_main 0031                ??_PICinit 0070                   ?_cgets 0072  
                 ?_getch 0070                   _ADCON0 009D                   _ADCON1 009E  
                 _ADRESH 009C                   _ADRESL 009B                   _ANSELA 018C  
                 ?_putch 0070                   _ANSELC 018E                   _RA0PPS 0E90  
                 _RC1STA 019D                   _FVRCON 0117                   _OSCCON 0099  
                 _TX1STA 019E             ?_serial_init 0020                   ___wmul 0A60  
              ??___lldiv 0078                ??___lwdiv 0074                ??___lwmod 007B  
                 _getche 09FD                   cgets@c 0076                   cgets@s 0072  
                 _printf 0CD3                   _strchr 0A42                   _strcmp 0A7F  
                 _strtok 0C0B                   _strspn 0B0D                ??_isdigit 0070  
              ??_strcspn 007B  __end_of__initialization 07FD             ??_AD_convert 0072  
         __pcstackCOMMON 0070            __end_of_cgets 0CD3            __end_of_getch 09EB  
          __end_of_putch 09FD                  ??_cgets 0074                  ??_getch 0070  
                ??_putch 0070       __end_of_AD_convert 001A               __pbssBANK1 00C4  
             __pmaintext 0DD4                  ?___wmul 0070                  ?_getche 0070  
                ?_printf 0020                  ?_strchr 0070                  ?_strcmp 0070  
                ?_strtok 0022                  ?_strspn 0077                  _SP1BRGH 019C  
                _SP1BRGL 019B                  _PICinit 0A25                  _ap1_dat 2134  
                _ap2_dat 00C4                  ___lldiv 0BB3                  ___lwdiv 0B79  
                ___lwmod 0AA7                  __ptext1 0C0B                  __ptext2 0B0D  
                __ptext3 0AD9                  __ptext4 0A42                  __ptext5 0A7F  
                __ptext6 0B41                  __ptext7 0BB3                  __ptext8 0CD3  
                __ptext9 0AA7                  _dpowers 1000                  _isdigit 0A13  
                cgets@s1 0078                  getche@c 0071                  main@cmd 006F  
                clrloop0 0A08                  main@val 0039                  main@ptr 00C2  
                main@tmp 22C4                  _strcspn 0AD9     end_of_initialization 07FD  
        ___lldiv@divisor 0070          ___lldiv@counter 007C                  printf@c 0030  
                printf@f 0020                  psplit$0 2E0045                  psplit$1 450046  
                strcmp@r 0074                  strspn@i 0020     pnum$maintext_split_1 0045  
   pnum$maintext_split_2 0046           __end_of___wmul 0A7F           __end_of_getche 0A07  
         __end_of_printf 0DD4           __end_of_strchr 0A60           __end_of_strcmp 0AA7  
         __end_of_strtok 0C6E           __end_of_strspn 0B41      start_initialization 07EB  
               ??___wmul 0074                 ??_getche 0071                 ??_printf 0024  
               ??_strchr 0074                 ??_strcmp 0074                 ??_strtok 007D  
               ??_strspn 007B              __pbssBIGRAM 2134                ___latbits 0002  
          __pcstackBANK0 0020            __pcstackBANK1 00A0                 ?_PICinit 0070  
       ___lwdiv@dividend 0072                 ?___lldiv 0070                 ?___lwdiv 0070  
               ?___lwmod 0077                 _DAC1CON1 0119                 ?_isdigit 0070  
       ___lwdiv@quotient 0074                 ?_strcspn 0077           ___wmul@product 0074  
              clear_ram0 0A07            ??_serial_init 0024            serial_init@BR 0020  
             _ADCON0bits 009D                main@i_201 00BC                main@i_206 00A8  
              main@i_207 00BA                main@i_240 003F                main@i_232 00AC  
              main@i_250 004B                main@i_242 0041                main@i_234 00AE  
              main@i_251 004D                main@i_252 004F                main@i_244 0043  
              main@i_236 003B                main@i_253 0051                main@i_246 0045  
              main@i_238 003D                main@i_255 00B2                main@i_248 0047  
              main@i_256 00B4                main@i_249 0049                main@k_260 0055  
      ___wmul@multiplier 0070                main@k_262 00B6                main@k_254 00B0  
              main@k_259 0053               printf@flag 0029               printf@prec 0028  
              main@max_v 00A4                main@v_cnt 00B8        AD_convert@channel 0070  
           pnum$maintext 002E      __end_of_serial_init 0B79              _isdigit$645 0070  
        ___lwdiv@divisor 0070          ___lwdiv@counter 0076                 __ptext10 0B79  
               __ptext11 09EB                 __ptext20 0005                 __ptext12 0C6E  
               __ptext13 09FD                 __ptext14 09F3                 __ptext15 09E3  
               __ptext16 001A                 __ptext17 0A13                 __ptext18 0A60  
               __ptext19 0A25          main@num_ap1_cnt 0035          main@num_ap2_cnt 0037  
             _AD_convert 0005                 atoi@sign 007A             serial_init@X 0028  
              printf@val 002E                 main@rcmd 00BE                putch@byte 0070  
         __pstringtext10 1066           __pstringtext11 106E           __pstringtext20 109F  
         __pstringtext12 1076           __pstringtext21 10A3           __pstringtext13 107D  
         __pstringtext30 10C7           __pstringtext22 10A7           __pstringtext14 1084  
         __pstringtext31 10CB           __pstringtext23 10AB           __pstringtext15 108B  
         __pstringtext32 10CF           __pstringtext24 10AF           __pstringtext16 108F  
         __pstringtext33 10D3           __pstringtext25 10B3           __pstringtext17 1093  
         __pstringtext34 10D7           __pstringtext26 10B7           __pstringtext18 1097  
         __pstringtext35 10DB           __pstringtext27 10BB           __pstringtext19 109B  
         __pstringtext36 10DF           __pstringtext28 10BF           __pstringtext37 10E3  
         __pstringtext29 10C3           __pstringtext38 0000                 isdigit@c 0071  
              strchr@chr 0072         ___lwmod@dividend 0079                strchr@ptr 0070  
       ___lldiv@dividend 0074                strcspn@s1 0077                strcspn@s2 0079  
            _serial_init 0B41                 printf@ap 002C                 printf@cp 002A  
          __pstringtext1 1000            __pstringtext2 1022            __pstringtext3 102E  
          __pstringtext4 1036            __pstringtext5 103E            __pstringtext6 1046  
          __pstringtext7 104E            __pstringtext8 1056            __pstringtext9 105E  
               strcmp@s1 0070                 strcmp@s2 0072         ___lldiv@quotient 0078  
        ___lwmod@divisor 0077          ___lwmod@counter 007B                 strcspn@i 0020  
               strtok@s1 0022                 strtok@s2 0024                 strspn@s1 0077  
               strspn@s2 0079                 strtok@sp 00C8  
