Microchip MPLAB XC8 Compiler V2.32

Linker command line:

-W-3 --edf=C:\Program Files\Microchip\xc8\v2.32\pic\dat\en_msgs.txt -cn \
  -h+dist/default/production\LaserPlsMotorCtrl.X.production.sym \
  --cmf=dist/default/production\LaserPlsMotorCtrl.X.production.cmf -z \
  -Q16F648A -oC:\Users\user\AppData\Local\Temp\xcAsfnk.4 \
  --defsym=__MPLAB_BUILD=1 \
  -Mdist/default/production/LaserPlsMotorCtrl.X.production.map -E1 \
  -ver=XC8 Compiler --acfsm=1493 -ASTACK=0A0h-0EFh -pstack=STACK \
  -ACODE=00h-07FFhx2 -ASTRCODE=00h-0FFFh -ASTRING=00h-0FFhx16 \
  -ACONST=00h-0FFhx16 -AENTRY=00h-0FFhx16 -ACOMMON=070h-07Fh \
  -ABANK0=020h-06Fh -ABANK1=0A0h-0EFh -ABANK2=0120h-016Fh \
  -ARAM=020h-06Fh,0A0h-0EFh,0120h-016Fh \
  -AABS1=020h-07Fh,0A0h-0EFh,0120h-016Fh -ASFR0=00h-01Fh -ASFR1=080h-09Fh \
  -ASFR2=0100h-011Fh -ASFR3=0180h-01EFh -ACONFIG=02007h-02007h -DCONFIG=2 \
  -AIDLOC=02000h-02003h -DIDLOC=2 -AEEDATA=00h-0FFh/02100h \
  -peeprom_data=EEDATA -DEEDATA=2 -DCODE=2 -DSTRCODE=2 -DSTRING=2 -DCONST=2 \
  -DENTRY=2 -preset_vec=00h,intentry,init,end_init -ppowerup=CODE \
  -pcinit=CODE -pfunctab=ENTRY -k \
  C:\Users\user\AppData\Local\Temp\xcAsfnk.o \
  dist/default/production\LaserPlsMotorCtrl.X.production.o 

Object code version is 3.11

Machine type is 16F648A



                Name                               Link     Load   Length Selector   Space Scale
C:\Users\user\AppData\Local\Temp\xcAsfnk.o
                end_init                              0        0        2        0       0
                config                             2007     2007        1        0       4
dist/default/production\LaserPlsMotorCtrl.X.production.o
                cinit                               7FD      7FD        3      FFA       0
                config                             2007     2007        1        0       4
                text9                               61E      61E       25      C3C       0
                text8                               5C1      5C1        8      B82       0
                text7                               5C9      5C9        A      B92       0
                text6                               5DE      5DE        C      BBC       0
                text5                               643      643       5B      C86       0
                text4                               5BB      5BB        6      B76       0
                text3                               5D3      5D3        B      BA6       0
                text2                               603      603       1B      C06       0
                text1                               5EA      5EA       19      BD4       0
                maintext                            69E      69E      15F      D3C       0
                cstackBANK0                          20       20       22       20       1
                cstackCOMMON                         70       70        C       70       1
                strings                               2        2        B        4       0

TOTAL           Name                               Link     Load   Length     Space
        CLASS   STACK          

        CLASS   CODE           
                end_init                              0        0        2         0
                cinit                               7FD      7FD        3         0
                text9                               61E      61E       25         0
                text8                               5C1      5C1        8         0
                text7                               5C9      5C9        A         0
                text6                               5DE      5DE        C         0
                text5                               643      643       5B         0
                text4                               5BB      5BB        6         0
                text3                               5D3      5D3        B         0
                text2                               603      603       1B         0
                text1                               5EA      5EA       19         0
                maintext                            69E      69E      15F         0

        CLASS   STRCODE        

        CLASS   STRING         
                strings                               2        2        B         0

        CLASS   CONST          

        CLASS   ENTRY          

        CLASS   COMMON         
                cstackCOMMON                         70       70        C         1

        CLASS   BANK0          
                cstackBANK0                          20       20       22         1

        CLASS   BANK1          

        CLASS   BANK2          

        CLASS   RAM            

        CLASS   ABS1           
                abs_s1                               7E       7E        2         1

        CLASS   SFR0           

        CLASS   SFR1           

        CLASS   SFR2           

        CLASS   SFR3           

        CLASS   CONFIG         
                config                             2007     2007        1         4

        CLASS   IDLOC          

        CLASS   EEDATA         

        CLASS   BANK3          



SEGMENTS        Name                           Load    Length   Top    Selector   Space  Class     Delta

                reset_vec                      000000  000002  000002         0       0  CODE        2
                strings                        000002  00000B  00000D         4       0  STRING      2
                cstackBANK0                    000020  000022  000042        20       1  BANK0       1
                cstackCOMMON                   000070  00000C  00007C        70       1  COMMON      1
                text4                          0005BB  000006  0005C1       B76       0  CODE        2
                text8                          0005C1  000008  0005C9       B82       0  CODE        2
                text7                          0005C9  00000A  0005D3       B92       0  CODE        2
                text3                          0005D3  00000B  0005DE       BA6       0  CODE        2
                text6                          0005DE  00000C  0005EA       BBC       0  CODE        2
                text1                          0005EA  000019  000603       BD4       0  CODE        2
                text2                          000603  00001B  00061E       C06       0  CODE        2
                text9                          00061E  000025  000643       C3C       0  CODE        2
                text5                          000643  00005B  00069E       C86       0  CODE        2
                maintext                       00069E  00015F  0007FD       D3C       0  CODE        2
                cinit                          0007FD  000003  000800       FFA       0  CODE        2


UNUSED ADDRESS RANGES

        Name                Unused          Largest block    Delta
        BANK0            0042-006F             2E           1
        BANK1            00A0-00EF             50           1
        BANK2            0120-016F             50           1
        CODE             000D-05BA            5AE           2
                         0800-0FFF            800
        COMMON           007C-007D              2           1
        CONST            000D-05BA            100           2
                         0800-0FFF            100
        EEDATA           2100-21FF            100           2
        ENTRY            000D-05BA            100           2
                         0800-0FFF            100
        IDLOC            2000-2003              4           2
        RAM              0042-006F             2E           1
                         00A0-00EF             50
                         0120-016F             50
        SFR0             0000-001F             20           1
        SFR1             0080-009F             20           1
        SFR2             0100-011F             20           1
        SFR3             0180-01EF             70           1
        STACK            00A0-00EF             50           1
        STRCODE          000D-05BA            5AE           2
                         0800-0FFF            800
        STRING           000D-05BA            100           2
                         0800-0FFF            100

                                  Symbol Table

?___wmul                 cstackCOMMON 0070
?_printf                 cstackCOMMON 0070
?_strlen                 cstackCOMMON 0070
_PORTB                   (abs)        0006
_RB4                     (abs)        0034
_RB5                     (abs)        0035
_RCIF                    (abs)        0065
_RCREG                   (abs)        001A
_RCSTA                   (abs)        0018
_SPBRG                   (abs)        0099
_TRISB                   (abs)        0086
_TXIF                    (abs)        0064
_TXREG                   (abs)        0019
_TXSTA                   (abs)        0098
__Habs1                  abs1         0000
__Hbank0                 bank0        0000
__Hbank1                 bank1        0000
__Hbank2                 bank2        0000
__Hbank3                 bank3        0000
__Hcinit                 cinit        0800
__Hclrtext               clrtext      0000
__Hcode                  code         0000
__Hcommon                common       0000
__Hconfig                config       2008
__HcstackBANK0           cstackBANK0  0000
__HcstackCOMMON          cstackCOMMON 0000
__Heeprom_data           eeprom_data  0000
__Hend_init              end_init     0002
__Hfunctab               functab      0000
__Hinit                  init         0000
__Hintentry              intentry     0000
__Hmaintext              maintext     0000
__Hpowerup               powerup      0000
__Hram                   ram          0000
__Hreset_vec             reset_vec    0000
__Hsfr0                  sfr0         0000
__Hsfr1                  sfr1         0000
__Hsfr2                  sfr2         0000
__Hsfr3                  sfr3         0000
__Hspace_0               (abs)        0800
__Hspace_1               (abs)        007C
__Hspace_2               (abs)        0000
__Hspace_3               (abs)        0000
__Hspace_4               (abs)        400F
__Hstack                 stack        0000
__Hstrings               strings      0000
__Htext                  text         0000
__Labs1                  abs1         0000
__Lbank0                 bank0        0000
__Lbank1                 bank1        0000
__Lbank2                 bank2        0000
__Lbank3                 bank3        0000
__Lcinit                 cinit        07FD
__Lclrtext               clrtext      0000
__Lcode                  code         0000
__Lcommon                common       0000
__Lconfig                config       0000
__LcstackBANK0           cstackBANK0  0000
__LcstackCOMMON          cstackCOMMON 0000
__Leeprom_data           eeprom_data  0000
__Lend_init              end_init     0000
__Lfunctab               functab      0000
__Linit                  init         0000
__Lintentry              intentry     0000
__Lmaintext              maintext     0000
__Lpowerup               powerup      0000
__Lram                   ram          0000
__Lreset_vec             reset_vec    0000
__Lsfr0                  sfr0         0000
__Lsfr1                  sfr1         0000
__Lsfr2                  sfr2         0000
__Lsfr3                  sfr3         0000
__Lspace_0               (abs)        0000
__Lspace_1               (abs)        0000
__Lspace_2               (abs)        0000
__Lspace_3               (abs)        0000
__Lspace_4               (abs)        0000
__Lstack                 stack        0000
__Lstrings               strings      0000
__Ltext                  text         0000
__S0                     (abs)        0800
__S1                     (abs)        007C
__S2                     (abs)        0000
__S3                     (abs)        0000
___int_sp                stack        0000
___latbits               (abs)        0001
___sp                    stack        0000
___stackhi               (abs)        0000
___stacklo               (abs)        0000
___wmul                  text9        061E
___wmul@multiplicand     cstackCOMMON 0072
___wmul@multiplier       cstackCOMMON 0070
___wmul@product          cstackCOMMON 0074
__end_of___wmul          text9        0643
__end_of__initialization cinit        07FD
__end_of__stringtab      strings      0008
__end_of_cgets           text5        069E
__end_of_getch           text8        05C9
__end_of_getche          text6        05EA
__end_of_gets            text4        05C1
__end_of_initUART        text3        05DE
__end_of_main            maintext     07FD
__end_of_printf          text2        061E
__end_of_putch           text7        05D3
__end_of_strlen          text1        0603
__initialization         cinit        07FD
__pcstackBANK0           cstackBANK0  0020
__pcstackCOMMON          cstackCOMMON 0070
__pmaintext              maintext     069E
__pstrings               strings      0002
__ptext1                 text1        05EA
__ptext2                 text2        0603
__ptext3                 text3        05D3
__ptext4                 text4        05BB
__ptext5                 text5        0643
__ptext6                 text6        05DE
__ptext7                 text7        05C9
__ptext8                 text8        05C1
__ptext9                 text9        061E
__size_of___wmul         (abs)        0000
__size_of_cgets          (abs)        0000
__size_of_getch          (abs)        0000
__size_of_getche         (abs)        0000
__size_of_gets           (abs)        0000
__size_of_initUART       (abs)        0000
__size_of_main           (abs)        0000
__size_of_printf         (abs)        0000
__size_of_putch          (abs)        0000
__size_of_strlen         (abs)        0000
__stringbase             strings      0007
__stringtab              strings      0002
_cgets                   text5        0643
_getch                   text8        05C1
_getche                  text6        05DE
_gets                    text4        05BB
_initUART                text3        05D3
_main                    maintext     069E
_printf                  text2        0603
_putch                   text7        05C9
_strlen                  text1        05EA
btemp                    (abs)        007E
cgets@c                  cstackCOMMON 0075
cgets@s                  cstackCOMMON 0077
cgets@s1                 cstackCOMMON 0078
end_of_initialization    cinit        07FD
getche@c                 cstackCOMMON 0072
gets@s                   cstackCOMMON 0079
intlevel0                functab      0000
intlevel1                functab      0000
intlevel2                functab      0000
intlevel3                functab      0000
intlevel4                functab      0000
intlevel5                functab      0000
main@i                   cstackBANK0  0036
main@j                   cstackBANK0  0038
main@k                   cstackBANK0  003E
main@length              cstackBANK0  003C
main@no_loop             cstackBANK0  0034
main@no_step             cstackBANK0  003A
main@tmp                 cstackBANK0  0020
main@val                 cstackBANK0  0040
printf@ap                cstackCOMMON 0072
printf@c                 cstackCOMMON 0073
printf@f                 cstackCOMMON 0074
putch@byte               cstackCOMMON 0070
reset_vec                reset_vec    0000
start                    init         0000
start_initialization     cinit        07FD
strlen@cp                cstackCOMMON 0073
strlen@s                 cstackCOMMON 0074
wtemp0                   (abs)        007E


MODULE INFORMATION

Module		Function		Class		Link	Load	Size
uart.c
		_putch         		CODE           	05C9	0000	10
		_initUART      		CODE           	05D3	0000	11
		_getche        		CODE           	05DE	0000	12
		_getch         		CODE           	05C1	0000	8

uart.c estimated size: 41

C:\Program Files\Microchip\xc8\v2.32\pic\sources\c90\common\strlen.c
		_strlen        		CODE           	05EA	0000	25

C:\Program Files\Microchip\xc8\v2.32\pic\sources\c90\common\strlen.c estimated size: 25

C:\Program Files\Microchip\xc8\v2.32\pic\sources\c90\common\cgets.c
		_cgets         		CODE           	0643	0000	91

C:\Program Files\Microchip\xc8\v2.32\pic\sources\c90\common\cgets.c estimated size: 91

shared
		__stringtab    		STRING         	0002	0000	6
		__initialization		CODE           	07FD	0000	1

shared estimated size: 7

C:\Program Files\Microchip\xc8\v2.32\pic\sources\c90\common\doprnt.c
		_printf        		CODE           	0603	0000	27

C:\Program Files\Microchip\xc8\v2.32\pic\sources\c90\common\doprnt.c estimated size: 27

C:\Program Files\Microchip\xc8\v2.32\pic\sources\c90\common\gets.c
		_gets          		CODE           	05BB	0000	6

C:\Program Files\Microchip\xc8\v2.32\pic\sources\c90\common\gets.c estimated size: 6

C:\Program Files\Microchip\xc8\v2.32\pic\sources\c90\common\Umul16.c
		___wmul        		CODE           	061E	0000	37

C:\Program Files\Microchip\xc8\v2.32\pic\sources\c90\common\Umul16.c estimated size: 37

main.c
		_main          		CODE           	069E	0000	351

main.c estimated size: 351

