

Microchip MPLAB XC8 Assembler V2.41 build 20230208172133 
                                                                                               Sat Dec 02 16:06:51 2023

Microchip MPLAB XC8 C Compiler v2.41 (Free license) build 20230208172133 Og1 
     1                           	processor	16F1788
     2                           	pagewidth 120
     3                           	opt	flic
     4                           	psect	stringtext1,global,class=STRCODE,delta=2,noexec
     5                           	psect	stringtext2,global,class=STRCODE,delta=2,noexec
     6                           	psect	stringtext3,global,class=STRCODE,delta=2,noexec
     7                           	psect	stringtext4,global,class=STRCODE,delta=2,noexec
     8                           	psect	stringtext5,global,class=STRCODE,delta=2,noexec
     9                           	psect	stringtext6,global,class=STRCODE,delta=2,noexec
    10                           	psect	stringtext7,global,class=STRCODE,delta=2,noexec
    11                           	psect	stringtext8,global,class=STRCODE,delta=2,noexec
    12                           	psect	stringtext9,global,class=STRCODE,delta=2,noexec
    13                           	psect	stringtext10,global,class=STRCODE,delta=2,noexec
    14                           	psect	stringtext11,global,class=STRCODE,delta=2,noexec
    15                           	psect	stringtext12,global,class=STRCODE,delta=2,noexec
    16                           	psect	stringtext13,global,class=STRCODE,delta=2,noexec
    17                           	psect	stringtext14,global,class=STRCODE,delta=2,noexec
    18                           	psect	stringtext15,global,class=STRCODE,delta=2,noexec
    19                           	psect	stringtext16,global,class=STRCODE,delta=2,noexec
    20                           	psect	stringtext17,global,class=STRCODE,delta=2,noexec
    21                           	psect	stringtext18,global,class=STRCODE,delta=2,noexec
    22                           	psect	stringtext19,global,class=STRCODE,delta=2,noexec
    23                           	psect	stringtext20,global,class=STRCODE,delta=2,noexec
    24                           	psect	stringtext21,global,class=STRCODE,delta=2,noexec
    25                           	psect	stringtext22,global,class=STRCODE,delta=2,noexec
    26                           	psect	stringtext23,global,class=STRCODE,delta=2,noexec
    27                           	psect	stringtext24,global,class=STRCODE,delta=2,noexec
    28                           	psect	cinit,global,class=CODE,merge=1,delta=2
    29                           	psect	bssBANK0,global,class=BANK0,space=1,delta=1,noexec
    30                           	psect	cstackCOMMON,global,class=COMMON,space=1,delta=1,noexec
    31                           	psect	cstackBANK0,global,class=BANK0,space=1,delta=1,noexec
    32                           	psect	maintext,global,class=CODE,merge=1,split=1,delta=2
    33                           	psect	text1,local,class=CODE,merge=1,delta=2,group=3
    34                           	psect	text2,local,class=CODE,merge=1,delta=2,group=3
    35                           	psect	text3,local,class=CODE,merge=1,delta=2,group=3
    36                           	psect	text4,local,class=CODE,merge=1,delta=2,group=3
    37                           	psect	text5,local,class=CODE,merge=1,delta=2,group=3
    38                           	psect	text6,local,class=CODE,merge=1,delta=2,group=1
    39                           	psect	text7,local,class=CODE,merge=1,delta=2
    40                           	psect	text8,local,class=CODE,merge=1,delta=2,group=3
    41                           	psect	text9,local,class=CODE,merge=1,delta=2,group=3
    42                           	psect	text10,local,class=CODE,merge=1,delta=2
    43                           	psect	text11,local,class=CODE,merge=1,delta=2
    44                           	psect	text12,local,class=CODE,merge=1,delta=2
    45                           	psect	text13,local,class=CODE,merge=1,delta=2,group=3
    46                           	psect	text14,local,class=CODE,merge=1,delta=2,group=3
    47                           	psect	text15,local,class=CODE,merge=1,delta=2,group=2
    48                           	psect	text16,local,class=CODE,merge=1,delta=2,group=2
    49                           	psect	idloc,global,abs,ovrld,class=IDLOC,space=5,delta=2,noexec
    50                           	psect	config,global,abs,ovrld,class=CONFIG,space=4,delta=2,noexec
    51                           	dabs	1,0x7E,2
    52     0000                     
    53                           ; Generated 06/07/2023 GMT
    54                           ; 
    55                           ; Copyright © 2023, Microchip Technology Inc. and its subsidiaries ("Microchip")
    56                           ; All rights reserved.
    57                           ; 
    58                           ; This software is developed by Microchip Technology Inc. and its subsidiaries ("Microch
      +                          ip").
    59                           ; 
    60                           ; Redistribution and use in source and binary forms, with or without modification, are
    61                           ; permitted provided that the following conditions are met:
    62                           ; 
    63                           ;     1. Redistributions of source code must retain the above copyright notice, this lis
      +                          t of
    64                           ;        conditions and the following disclaimer.
    65                           ; 
    66                           ;     2. Redistributions in binary form must reproduce the above copyright notice, this 
      +                          list
    67                           ;        of conditions and the following disclaimer in the documentation and/or other
    68                           ;        materials provided with the distribution. Publication is not required when
    69                           ;        this file is used in an embedded application.
    70                           ; 
    71                           ;     3. Microchip's name may not be used to endorse or promote products derived from th
      +                          is
    72                           ;        software without specific prior written permission.
    73                           ; 
    74                           ; THIS SOFTWARE IS PROVIDED BY MICROCHIP "AS IS" AND ANY EXPRESS OR IMPLIED WARRANTIES,
    75                           ; INCLUDING, BUT NOT LIMITED TO, THE IMPLIED WARRANTIES OF MERCHANTABILITY AND FITNESS F
      +                          OR
    76                           ; PURPOSE ARE DISCLAIMED.  IN NO EVENT SHALL MICROCHIP BE LIABLE FOR ANY DIRECT, INDIREC
      +                          T,
    77                           ; INCIDENTAL, SPECIAL, EXEMPLARY, OR CONSEQUENTIAL DAMAGES (INCLUDING BUT NOT LIMITED TO
    78                           ; PROCUREMENT OF SUBSTITUTE GOODS OR SERVICES; LOSS OF USE, DATA OR PROFITS; OR BUSINESS
    79                           ; INTERRUPTION) HOWSOEVER CAUSED AND ON ANY THEORY OF LIABILITY, WHETHER IN CONTRACT, ST
      +                          RICT
    80                           ; LIABILITY, OR TORT (INCLUDING NEGLIGENCE OR OTHERWISE) ARISING IN ANY WAY OUT OF THE U
      +                          SE OF
    81                           ; THIS SOFTWARE, EVEN IF ADVISED OF THE POSSIBILITY OF SUCH DAMAGE.
    82                           ; 
    83                           ; 
    84                           ; Code-generator required, PIC16F1788 Definitions
    85                           ; 
    86                           ; SFR Addresses
    87     0000                     	;# 
    88     0001                     	;# 
    89     0002                     	;# 
    90     0003                     	;# 
    91     0004                     	;# 
    92     0005                     	;# 
    93     0006                     	;# 
    94     0007                     	;# 
    95     0008                     	;# 
    96     0009                     	;# 
    97     000A                     	;# 
    98     000B                     	;# 
    99     000C                     	;# 
   100     000D                     	;# 
   101     000E                     	;# 
   102     0010                     	;# 
   103     0011                     	;# 
   104     0012                     	;# 
   105     0013                     	;# 
   106     0014                     	;# 
   107     0015                     	;# 
   108     0016                     	;# 
   109     0016                     	;# 
   110     0017                     	;# 
   111     0018                     	;# 
   112     0019                     	;# 
   113     001A                     	;# 
   114     001B                     	;# 
   115     001C                     	;# 
   116     008C                     	;# 
   117     008D                     	;# 
   118     008E                     	;# 
   119     0090                     	;# 
   120     0091                     	;# 
   121     0092                     	;# 
   122     0093                     	;# 
   123     0094                     	;# 
   124     0095                     	;# 
   125     0096                     	;# 
   126     0097                     	;# 
   127     0098                     	;# 
   128     0099                     	;# 
   129     009A                     	;# 
   130     009B                     	;# 
   131     009B                     	;# 
   132     009C                     	;# 
   133     009D                     	;# 
   134     009E                     	;# 
   135     009F                     	;# 
   136     010C                     	;# 
   137     010D                     	;# 
   138     010E                     	;# 
   139     0111                     	;# 
   140     0112                     	;# 
   141     0113                     	;# 
   142     0114                     	;# 
   143     0115                     	;# 
   144     0116                     	;# 
   145     0117                     	;# 
   146     0118                     	;# 
   147     0119                     	;# 
   148     011A                     	;# 
   149     011B                     	;# 
   150     011C                     	;# 
   151     011D                     	;# 
   152     011D                     	;# 
   153     011D                     	;# 
   154     011E                     	;# 
   155     011F                     	;# 
   156     018C                     	;# 
   157     018D                     	;# 
   158     018E                     	;# 
   159     0191                     	;# 
   160     0191                     	;# 
   161     0192                     	;# 
   162     0193                     	;# 
   163     0193                     	;# 
   164     0193                     	;# 
   165     0194                     	;# 
   166     0195                     	;# 
   167     0196                     	;# 
   168     0197                     	;# 
   169     0199                     	;# 
   170     0199                     	;# 
   171     0199                     	;# 
   172     019A                     	;# 
   173     019A                     	;# 
   174     019A                     	;# 
   175     019B                     	;# 
   176     019B                     	;# 
   177     019B                     	;# 
   178     019B                     	;# 
   179     019B                     	;# 
   180     019C                     	;# 
   181     019C                     	;# 
   182     019C                     	;# 
   183     019D                     	;# 
   184     019D                     	;# 
   185     019D                     	;# 
   186     019E                     	;# 
   187     019E                     	;# 
   188     019E                     	;# 
   189     019F                     	;# 
   190     019F                     	;# 
   191     019F                     	;# 
   192     019F                     	;# 
   193     019F                     	;# 
   194     020C                     	;# 
   195     020D                     	;# 
   196     020E                     	;# 
   197     0210                     	;# 
   198     0211                     	;# 
   199     0211                     	;# 
   200     0212                     	;# 
   201     0212                     	;# 
   202     0213                     	;# 
   203     0213                     	;# 
   204     0214                     	;# 
   205     0214                     	;# 
   206     0215                     	;# 
   207     0215                     	;# 
   208     0215                     	;# 
   209     0215                     	;# 
   210     0216                     	;# 
   211     0216                     	;# 
   212     0217                     	;# 
   213     0217                     	;# 
   214     028C                     	;# 
   215     028D                     	;# 
   216     028E                     	;# 
   217     0291                     	;# 
   218     0291                     	;# 
   219     0292                     	;# 
   220     0293                     	;# 
   221     0298                     	;# 
   222     0298                     	;# 
   223     0299                     	;# 
   224     029A                     	;# 
   225     030C                     	;# 
   226     030D                     	;# 
   227     030E                     	;# 
   228     0311                     	;# 
   229     0311                     	;# 
   230     0312                     	;# 
   231     0313                     	;# 
   232     038C                     	;# 
   233     038D                     	;# 
   234     038E                     	;# 
   235     0390                     	;# 
   236     0391                     	;# 
   237     0392                     	;# 
   238     0393                     	;# 
   239     0394                     	;# 
   240     0395                     	;# 
   241     0396                     	;# 
   242     0397                     	;# 
   243     0398                     	;# 
   244     0399                     	;# 
   245     039D                     	;# 
   246     039E                     	;# 
   247     039F                     	;# 
   248     0511                     	;# 
   249     0513                     	;# 
   250     051A                     	;# 
   251     0591                     	;# 
   252     0592                     	;# 
   253     0592                     	;# 
   254     0593                     	;# 
   255     0594                     	;# 
   256     0594                     	;# 
   257     0595                     	;# 
   258     0596                     	;# 
   259     0596                     	;# 
   260     0E91                     	;# 
   261     0E92                     	;# 
   262     0E93                     	;# 
   263     0E94                     	;# 
   264     0E95                     	;# 
   265     0E96                     	;# 
   266     0E97                     	;# 
   267     0E98                     	;# 
   268     0E99                     	;# 
   269     0E9A                     	;# 
   270     0E9B                     	;# 
   271     0E9C                     	;# 
   272     0E9D                     	;# 
   273     0E9E                     	;# 
   274     0E9F                     	;# 
   275     0EA0                     	;# 
   276     0EA1                     	;# 
   277     0EA1                     	;# 
   278     0EA2                     	;# 
   279     0EA3                     	;# 
   280     0EA3                     	;# 
   281     0EA4                     	;# 
   282     0EA5                     	;# 
   283     0EA5                     	;# 
   284     0EA6                     	;# 
   285     0EA7                     	;# 
   286     0EA7                     	;# 
   287     0EA8                     	;# 
   288     0EA9                     	;# 
   289     0EAA                     	;# 
   290     0EAB                     	;# 
   291     0EAC                     	;# 
   292     0EAD                     	;# 
   293     0EAE                     	;# 
   294     0EAF                     	;# 
   295     0EB1                     	;# 
   296     0EB2                     	;# 
   297     0EB3                     	;# 
   298     0EB4                     	;# 
   299     0EB5                     	;# 
   300     0EB6                     	;# 
   301     0EB7                     	;# 
   302     0EB8                     	;# 
   303     0EB9                     	;# 
   304     0EBA                     	;# 
   305     0EBB                     	;# 
   306     0EBC                     	;# 
   307     0EBD                     	;# 
   308     0EBE                     	;# 
   309     0EBF                     	;# 
   310     0EC0                     	;# 
   311     0EC1                     	;# 
   312     0EC1                     	;# 
   313     0EC2                     	;# 
   314     0EC3                     	;# 
   315     0EC3                     	;# 
   316     0EC4                     	;# 
   317     0EC5                     	;# 
   318     0EC5                     	;# 
   319     0EC6                     	;# 
   320     0EC7                     	;# 
   321     0EC7                     	;# 
   322     0EC8                     	;# 
   323     0EC9                     	;# 
   324     0ECA                     	;# 
   325     0ECB                     	;# 
   326     0ECC                     	;# 
   327     0ECD                     	;# 
   328     0ECE                     	;# 
   329     0ECF                     	;# 
   330     0ED1                     	;# 
   331     0ED2                     	;# 
   332     0ED3                     	;# 
   333     0ED4                     	;# 
   334     0ED5                     	;# 
   335     0ED6                     	;# 
   336     0ED7                     	;# 
   337     0ED8                     	;# 
   338     0ED9                     	;# 
   339     0EDA                     	;# 
   340     0EDB                     	;# 
   341     0EDC                     	;# 
   342     0EDD                     	;# 
   343     0EDE                     	;# 
   344     0EDF                     	;# 
   345     0EE0                     	;# 
   346     0EE1                     	;# 
   347     0EE1                     	;# 
   348     0EE2                     	;# 
   349     0EE3                     	;# 
   350     0EE3                     	;# 
   351     0EE4                     	;# 
   352     0EE5                     	;# 
   353     0EE5                     	;# 
   354     0EE6                     	;# 
   355     0EE7                     	;# 
   356     0EE7                     	;# 
   357     0EE8                     	;# 
   358     0EE9                     	;# 
   359     0EEA                     	;# 
   360     0EEB                     	;# 
   361     0EEC                     	;# 
   362     0EED                     	;# 
   363     0EEE                     	;# 
   364     0EEF                     	;# 
   365     0F11                     	;# 
   366     0F12                     	;# 
   367     0F13                     	;# 
   368     0F14                     	;# 
   369     0F15                     	;# 
   370     0F16                     	;# 
   371     0F17                     	;# 
   372     0F18                     	;# 
   373     0F19                     	;# 
   374     0F1A                     	;# 
   375     0F1B                     	;# 
   376     0F1C                     	;# 
   377     0F1D                     	;# 
   378     0F1E                     	;# 
   379     0F1F                     	;# 
   380     0F20                     	;# 
   381     0F21                     	;# 
   382     0F21                     	;# 
   383     0F22                     	;# 
   384     0F23                     	;# 
   385     0F23                     	;# 
   386     0F24                     	;# 
   387     0F25                     	;# 
   388     0F25                     	;# 
   389     0F26                     	;# 
   390     0F27                     	;# 
   391     0F27                     	;# 
   392     0F28                     	;# 
   393     0F29                     	;# 
   394     0F2A                     	;# 
   395     0F2B                     	;# 
   396     0F2C                     	;# 
   397     0F2D                     	;# 
   398     0F2E                     	;# 
   399     0F2F                     	;# 
   400     0FE4                     	;# 
   401     0FE5                     	;# 
   402     0FE6                     	;# 
   403     0FE7                     	;# 
   404     0FE8                     	;# 
   405     0FE9                     	;# 
   406     0FEA                     	;# 
   407     0FEB                     	;# 
   408     0FED                     	;# 
   409     0FEE                     	;# 
   410     0FEF                     	;# 
   411     0000                     	;# 
   412     0001                     	;# 
   413     0002                     	;# 
   414     0003                     	;# 
   415     0004                     	;# 
   416     0005                     	;# 
   417     0006                     	;# 
   418     0007                     	;# 
   419     0008                     	;# 
   420     0009                     	;# 
   421     000A                     	;# 
   422     000B                     	;# 
   423     000C                     	;# 
   424     000D                     	;# 
   425     000E                     	;# 
   426     0010                     	;# 
   427     0011                     	;# 
   428     0012                     	;# 
   429     0013                     	;# 
   430     0014                     	;# 
   431     0015                     	;# 
   432     0016                     	;# 
   433     0016                     	;# 
   434     0017                     	;# 
   435     0018                     	;# 
   436     0019                     	;# 
   437     001A                     	;# 
   438     001B                     	;# 
   439     001C                     	;# 
   440     008C                     	;# 
   441     008D                     	;# 
   442     008E                     	;# 
   443     0090                     	;# 
   444     0091                     	;# 
   445     0092                     	;# 
   446     0093                     	;# 
   447     0094                     	;# 
   448     0095                     	;# 
   449     0096                     	;# 
   450     0097                     	;# 
   451     0098                     	;# 
   452     0099                     	;# 
   453     009A                     	;# 
   454     009B                     	;# 
   455     009B                     	;# 
   456     009C                     	;# 
   457     009D                     	;# 
   458     009E                     	;# 
   459     009F                     	;# 
   460     010C                     	;# 
   461     010D                     	;# 
   462     010E                     	;# 
   463     0111                     	;# 
   464     0112                     	;# 
   465     0113                     	;# 
   466     0114                     	;# 
   467     0115                     	;# 
   468     0116                     	;# 
   469     0117                     	;# 
   470     0118                     	;# 
   471     0119                     	;# 
   472     011A                     	;# 
   473     011B                     	;# 
   474     011C                     	;# 
   475     011D                     	;# 
   476     011D                     	;# 
   477     011D                     	;# 
   478     011E                     	;# 
   479     011F                     	;# 
   480     018C                     	;# 
   481     018D                     	;# 
   482     018E                     	;# 
   483     0191                     	;# 
   484     0191                     	;# 
   485     0192                     	;# 
   486     0193                     	;# 
   487     0193                     	;# 
   488     0193                     	;# 
   489     0194                     	;# 
   490     0195                     	;# 
   491     0196                     	;# 
   492     0197                     	;# 
   493     0199                     	;# 
   494     0199                     	;# 
   495     0199                     	;# 
   496     019A                     	;# 
   497     019A                     	;# 
   498     019A                     	;# 
   499     019B                     	;# 
   500     019B                     	;# 
   501     019B                     	;# 
   502     019B                     	;# 
   503     019B                     	;# 
   504     019C                     	;# 
   505     019C                     	;# 
   506     019C                     	;# 
   507     019D                     	;# 
   508     019D                     	;# 
   509     019D                     	;# 
   510     019E                     	;# 
   511     019E                     	;# 
   512     019E                     	;# 
   513     019F                     	;# 
   514     019F                     	;# 
   515     019F                     	;# 
   516     019F                     	;# 
   517     019F                     	;# 
   518     020C                     	;# 
   519     020D                     	;# 
   520     020E                     	;# 
   521     0210                     	;# 
   522     0211                     	;# 
   523     0211                     	;# 
   524     0212                     	;# 
   525     0212                     	;# 
   526     0213                     	;# 
   527     0213                     	;# 
   528     0214                     	;# 
   529     0214                     	;# 
   530     0215                     	;# 
   531     0215                     	;# 
   532     0215                     	;# 
   533     0215                     	;# 
   534     0216                     	;# 
   535     0216                     	;# 
   536     0217                     	;# 
   537     0217                     	;# 
   538     028C                     	;# 
   539     028D                     	;# 
   540     028E                     	;# 
   541     0291                     	;# 
   542     0291                     	;# 
   543     0292                     	;# 
   544     0293                     	;# 
   545     0298                     	;# 
   546     0298                     	;# 
   547     0299                     	;# 
   548     029A                     	;# 
   549     030C                     	;# 
   550     030D                     	;# 
   551     030E                     	;# 
   552     0311                     	;# 
   553     0311                     	;# 
   554     0312                     	;# 
   555     0313                     	;# 
   556     038C                     	;# 
   557     038D                     	;# 
   558     038E                     	;# 
   559     0390                     	;# 
   560     0391                     	;# 
   561     0392                     	;# 
   562     0393                     	;# 
   563     0394                     	;# 
   564     0395                     	;# 
   565     0396                     	;# 
   566     0397                     	;# 
   567     0398                     	;# 
   568     0399                     	;# 
   569     039D                     	;# 
   570     039E                     	;# 
   571     039F                     	;# 
   572     0511                     	;# 
   573     0513                     	;# 
   574     051A                     	;# 
   575     0591                     	;# 
   576     0592                     	;# 
   577     0592                     	;# 
   578     0593                     	;# 
   579     0594                     	;# 
   580     0594                     	;# 
   581     0595                     	;# 
   582     0596                     	;# 
   583     0596                     	;# 
   584     0E91                     	;# 
   585     0E92                     	;# 
   586     0E93                     	;# 
   587     0E94                     	;# 
   588     0E95                     	;# 
   589     0E96                     	;# 
   590     0E97                     	;# 
   591     0E98                     	;# 
   592     0E99                     	;# 
   593     0E9A                     	;# 
   594     0E9B                     	;# 
   595     0E9C                     	;# 
   596     0E9D                     	;# 
   597     0E9E                     	;# 
   598     0E9F                     	;# 
   599     0EA0                     	;# 
   600     0EA1                     	;# 
   601     0EA1                     	;# 
   602     0EA2                     	;# 
   603     0EA3                     	;# 
   604     0EA3                     	;# 
   605     0EA4                     	;# 
   606     0EA5                     	;# 
   607     0EA5                     	;# 
   608     0EA6                     	;# 
   609     0EA7                     	;# 
   610     0EA7                     	;# 
   611     0EA8                     	;# 
   612     0EA9                     	;# 
   613     0EAA                     	;# 
   614     0EAB                     	;# 
   615     0EAC                     	;# 
   616     0EAD                     	;# 
   617     0EAE                     	;# 
   618     0EAF                     	;# 
   619     0EB1                     	;# 
   620     0EB2                     	;# 
   621     0EB3                     	;# 
   622     0EB4                     	;# 
   623     0EB5                     	;# 
   624     0EB6                     	;# 
   625     0EB7                     	;# 
   626     0EB8                     	;# 
   627     0EB9                     	;# 
   628     0EBA                     	;# 
   629     0EBB                     	;# 
   630     0EBC                     	;# 
   631     0EBD                     	;# 
   632     0EBE                     	;# 
   633     0EBF                     	;# 
   634     0EC0                     	;# 
   635     0EC1                     	;# 
   636     0EC1                     	;# 
   637     0EC2                     	;# 
   638     0EC3                     	;# 
   639     0EC3                     	;# 
   640     0EC4                     	;# 
   641     0EC5                     	;# 
   642     0EC5                     	;# 
   643     0EC6                     	;# 
   644     0EC7                     	;# 
   645     0EC7                     	;# 
   646     0EC8                     	;# 
   647     0EC9                     	;# 
   648     0ECA                     	;# 
   649     0ECB                     	;# 
   650     0ECC                     	;# 
   651     0ECD                     	;# 
   652     0ECE                     	;# 
   653     0ECF                     	;# 
   654     0ED1                     	;# 
   655     0ED2                     	;# 
   656     0ED3                     	;# 
   657     0ED4                     	;# 
   658     0ED5                     	;# 
   659     0ED6                     	;# 
   660     0ED7                     	;# 
   661     0ED8                     	;# 
   662     0ED9                     	;# 
   663     0EDA                     	;# 
   664     0EDB                     	;# 
   665     0EDC                     	;# 
   666     0EDD                     	;# 
   667     0EDE                     	;# 
   668     0EDF                     	;# 
   669     0EE0                     	;# 
   670     0EE1                     	;# 
   671     0EE1                     	;# 
   672     0EE2                     	;# 
   673     0EE3                     	;# 
   674     0EE3                     	;# 
   675     0EE4                     	;# 
   676     0EE5                     	;# 
   677     0EE5                     	;# 
   678     0EE6                     	;# 
   679     0EE7                     	;# 
   680     0EE7                     	;# 
   681     0EE8                     	;# 
   682     0EE9                     	;# 
   683     0EEA                     	;# 
   684     0EEB                     	;# 
   685     0EEC                     	;# 
   686     0EED                     	;# 
   687     0EEE                     	;# 
   688     0EEF                     	;# 
   689     0F11                     	;# 
   690     0F12                     	;# 
   691     0F13                     	;# 
   692     0F14                     	;# 
   693     0F15                     	;# 
   694     0F16                     	;# 
   695     0F17                     	;# 
   696     0F18                     	;# 
   697     0F19                     	;# 
   698     0F1A                     	;# 
   699     0F1B                     	;# 
   700     0F1C                     	;# 
   701     0F1D                     	;# 
   702     0F1E                     	;# 
   703     0F1F                     	;# 
   704     0F20                     	;# 
   705     0F21                     	;# 
   706     0F21                     	;# 
   707     0F22                     	;# 
   708     0F23                     	;# 
   709     0F23                     	;# 
   710     0F24                     	;# 
   711     0F25                     	;# 
   712     0F25                     	;# 
   713     0F26                     	;# 
   714     0F27                     	;# 
   715     0F27                     	;# 
   716     0F28                     	;# 
   717     0F29                     	;# 
   718     0F2A                     	;# 
   719     0F2B                     	;# 
   720     0F2C                     	;# 
   721     0F2D                     	;# 
   722     0F2E                     	;# 
   723     0F2F                     	;# 
   724     0FE4                     	;# 
   725     0FE5                     	;# 
   726     0FE6                     	;# 
   727     0FE7                     	;# 
   728     0FE8                     	;# 
   729     0FE9                     	;# 
   730     0FEA                     	;# 
   731     0FEB                     	;# 
   732     0FED                     	;# 
   733     0FEE                     	;# 
   734     0FEF                     	;# 
   735     0000                     	;# 
   736     0001                     	;# 
   737     0002                     	;# 
   738     0003                     	;# 
   739     0004                     	;# 
   740     0005                     	;# 
   741     0006                     	;# 
   742     0007                     	;# 
   743     0008                     	;# 
   744     0009                     	;# 
   745     000A                     	;# 
   746     000B                     	;# 
   747     000C                     	;# 
   748     000D                     	;# 
   749     000E                     	;# 
   750     0010                     	;# 
   751     0011                     	;# 
   752     0012                     	;# 
   753     0013                     	;# 
   754     0014                     	;# 
   755     0015                     	;# 
   756     0016                     	;# 
   757     0016                     	;# 
   758     0017                     	;# 
   759     0018                     	;# 
   760     0019                     	;# 
   761     001A                     	;# 
   762     001B                     	;# 
   763     001C                     	;# 
   764     008C                     	;# 
   765     008D                     	;# 
   766     008E                     	;# 
   767     0090                     	;# 
   768     0091                     	;# 
   769     0092                     	;# 
   770     0093                     	;# 
   771     0094                     	;# 
   772     0095                     	;# 
   773     0096                     	;# 
   774     0097                     	;# 
   775     0098                     	;# 
   776     0099                     	;# 
   777     009A                     	;# 
   778     009B                     	;# 
   779     009B                     	;# 
   780     009C                     	;# 
   781     009D                     	;# 
   782     009E                     	;# 
   783     009F                     	;# 
   784     010C                     	;# 
   785     010D                     	;# 
   786     010E                     	;# 
   787     0111                     	;# 
   788     0112                     	;# 
   789     0113                     	;# 
   790     0114                     	;# 
   791     0115                     	;# 
   792     0116                     	;# 
   793     0117                     	;# 
   794     0118                     	;# 
   795     0119                     	;# 
   796     011A                     	;# 
   797     011B                     	;# 
   798     011C                     	;# 
   799     011D                     	;# 
   800     011D                     	;# 
   801     011D                     	;# 
   802     011E                     	;# 
   803     011F                     	;# 
   804     018C                     	;# 
   805     018D                     	;# 
   806     018E                     	;# 
   807     0191                     	;# 
   808     0191                     	;# 
   809     0192                     	;# 
   810     0193                     	;# 
   811     0193                     	;# 
   812     0193                     	;# 
   813     0194                     	;# 
   814     0195                     	;# 
   815     0196                     	;# 
   816     0197                     	;# 
   817     0199                     	;# 
   818     0199                     	;# 
   819     0199                     	;# 
   820     019A                     	;# 
   821     019A                     	;# 
   822     019A                     	;# 
   823     019B                     	;# 
   824     019B                     	;# 
   825     019B                     	;# 
   826     019B                     	;# 
   827     019B                     	;# 
   828     019C                     	;# 
   829     019C                     	;# 
   830     019C                     	;# 
   831     019D                     	;# 
   832     019D                     	;# 
   833     019D                     	;# 
   834     019E                     	;# 
   835     019E                     	;# 
   836     019E                     	;# 
   837     019F                     	;# 
   838     019F                     	;# 
   839     019F                     	;# 
   840     019F                     	;# 
   841     019F                     	;# 
   842     020C                     	;# 
   843     020D                     	;# 
   844     020E                     	;# 
   845     0210                     	;# 
   846     0211                     	;# 
   847     0211                     	;# 
   848     0212                     	;# 
   849     0212                     	;# 
   850     0213                     	;# 
   851     0213                     	;# 
   852     0214                     	;# 
   853     0214                     	;# 
   854     0215                     	;# 
   855     0215                     	;# 
   856     0215                     	;# 
   857     0215                     	;# 
   858     0216                     	;# 
   859     0216                     	;# 
   860     0217                     	;# 
   861     0217                     	;# 
   862     028C                     	;# 
   863     028D                     	;# 
   864     028E                     	;# 
   865     0291                     	;# 
   866     0291                     	;# 
   867     0292                     	;# 
   868     0293                     	;# 
   869     0298                     	;# 
   870     0298                     	;# 
   871     0299                     	;# 
   872     029A                     	;# 
   873     030C                     	;# 
   874     030D                     	;# 
   875     030E                     	;# 
   876     0311                     	;# 
   877     0311                     	;# 
   878     0312                     	;# 
   879     0313                     	;# 
   880     038C                     	;# 
   881     038D                     	;# 
   882     038E                     	;# 
   883     0390                     	;# 
   884     0391                     	;# 
   885     0392                     	;# 
   886     0393                     	;# 
   887     0394                     	;# 
   888     0395                     	;# 
   889     0396                     	;# 
   890     0397                     	;# 
   891     0398                     	;# 
   892     0399                     	;# 
   893     039D                     	;# 
   894     039E                     	;# 
   895     039F                     	;# 
   896     0511                     	;# 
   897     0513                     	;# 
   898     051A                     	;# 
   899     0591                     	;# 
   900     0592                     	;# 
   901     0592                     	;# 
   902     0593                     	;# 
   903     0594                     	;# 
   904     0594                     	;# 
   905     0595                     	;# 
   906     0596                     	;# 
   907     0596                     	;# 
   908     0E91                     	;# 
   909     0E92                     	;# 
   910     0E93                     	;# 
   911     0E94                     	;# 
   912     0E95                     	;# 
   913     0E96                     	;# 
   914     0E97                     	;# 
   915     0E98                     	;# 
   916     0E99                     	;# 
   917     0E9A                     	;# 
   918     0E9B                     	;# 
   919     0E9C                     	;# 
   920     0E9D                     	;# 
   921     0E9E                     	;# 
   922     0E9F                     	;# 
   923     0EA0                     	;# 
   924     0EA1                     	;# 
   925     0EA1                     	;# 
   926     0EA2                     	;# 
   927     0EA3                     	;# 
   928     0EA3                     	;# 
   929     0EA4                     	;# 
   930     0EA5                     	;# 
   931     0EA5                     	;# 
   932     0EA6                     	;# 
   933     0EA7                     	;# 
   934     0EA7                     	;# 
   935     0EA8                     	;# 
   936     0EA9                     	;# 
   937     0EAA                     	;# 
   938     0EAB                     	;# 
   939     0EAC                     	;# 
   940     0EAD                     	;# 
   941     0EAE                     	;# 
   942     0EAF                     	;# 
   943     0EB1                     	;# 
   944     0EB2                     	;# 
   945     0EB3                     	;# 
   946     0EB4                     	;# 
   947     0EB5                     	;# 
   948     0EB6                     	;# 
   949     0EB7                     	;# 
   950     0EB8                     	;# 
   951     0EB9                     	;# 
   952     0EBA                     	;# 
   953     0EBB                     	;# 
   954     0EBC                     	;# 
   955     0EBD                     	;# 
   956     0EBE                     	;# 
   957     0EBF                     	;# 
   958     0EC0                     	;# 
   959     0EC1                     	;# 
   960     0EC1                     	;# 
   961     0EC2                     	;# 
   962     0EC3                     	;# 
   963     0EC3                     	;# 
   964     0EC4                     	;# 
   965     0EC5                     	;# 
   966     0EC5                     	;# 
   967     0EC6                     	;# 
   968     0EC7                     	;# 
   969     0EC7                     	;# 
   970     0EC8                     	;# 
   971     0EC9                     	;# 
   972     0ECA                     	;# 
   973     0ECB                     	;# 
   974     0ECC                     	;# 
   975     0ECD                     	;# 
   976     0ECE                     	;# 
   977     0ECF                     	;# 
   978     0ED1                     	;# 
   979     0ED2                     	;# 
   980     0ED3                     	;# 
   981     0ED4                     	;# 
   982     0ED5                     	;# 
   983     0ED6                     	;# 
   984     0ED7                     	;# 
   985     0ED8                     	;# 
   986     0ED9                     	;# 
   987     0EDA                     	;# 
   988     0EDB                     	;# 
   989     0EDC                     	;# 
   990     0EDD                     	;# 
   991     0EDE                     	;# 
   992     0EDF                     	;# 
   993     0EE0                     	;# 
   994     0EE1                     	;# 
   995     0EE1                     	;# 
   996     0EE2                     	;# 
   997     0EE3                     	;# 
   998     0EE3                     	;# 
   999     0EE4                     	;# 
  1000     0EE5                     	;# 
  1001     0EE5                     	;# 
  1002     0EE6                     	;# 
  1003     0EE7                     	;# 
  1004     0EE7                     	;# 
  1005     0EE8                     	;# 
  1006     0EE9                     	;# 
  1007     0EEA                     	;# 
  1008     0EEB                     	;# 
  1009     0EEC                     	;# 
  1010     0EED                     	;# 
  1011     0EEE                     	;# 
  1012     0EEF                     	;# 
  1013     0F11                     	;# 
  1014     0F12                     	;# 
  1015     0F13                     	;# 
  1016     0F14                     	;# 
  1017     0F15                     	;# 
  1018     0F16                     	;# 
  1019     0F17                     	;# 
  1020     0F18                     	;# 
  1021     0F19                     	;# 
  1022     0F1A                     	;# 
  1023     0F1B                     	;# 
  1024     0F1C                     	;# 
  1025     0F1D                     	;# 
  1026     0F1E                     	;# 
  1027     0F1F                     	;# 
  1028     0F20                     	;# 
  1029     0F21                     	;# 
  1030     0F21                     	;# 
  1031     0F22                     	;# 
  1032     0F23                     	;# 
  1033     0F23                     	;# 
  1034     0F24                     	;# 
  1035     0F25                     	;# 
  1036     0F25                     	;# 
  1037     0F26                     	;# 
  1038     0F27                     	;# 
  1039     0F27                     	;# 
  1040     0F28                     	;# 
  1041     0F29                     	;# 
  1042     0F2A                     	;# 
  1043     0F2B                     	;# 
  1044     0F2C                     	;# 
  1045     0F2D                     	;# 
  1046     0F2E                     	;# 
  1047     0F2F                     	;# 
  1048     0FE4                     	;# 
  1049     0FE5                     	;# 
  1050     0FE6                     	;# 
  1051     0FE7                     	;# 
  1052     0FE8                     	;# 
  1053     0FE9                     	;# 
  1054     0FEA                     	;# 
  1055     0FEB                     	;# 
  1056     0FED                     	;# 
  1057     0FEE                     	;# 
  1058     0FEF                     	;# 
  1059     000D                     _PORTB	set	13
  1060     000C                     _PORTA	set	12
  1061     008D                     _RCIF	set	141
  1062     008C                     _TXIF	set	140
  1063     0068                     _RB0	set	104
  1064     0061                     _RA1	set	97
  1065     0060                     _RA0	set	96
  1066     006B                     _RB3	set	107
  1067     006C                     _RB4	set	108
  1068     006D                     _RB5	set	109
  1069     006E                     _RB6	set	110
  1070     008D                     _TRISB	set	141
  1071     008C                     _TRISA	set	140
  1072     0199                     _RCREG	set	409
  1073     019A                     _TXREG	set	410
  1074     019D                     _RCSTA	set	413
  1075     019E                     _TXSTA	set	414
  1076     019B                     _SPBRG	set	411
  1077                           
  1078                           	psect	stringtext1
  1079     1000                     __pstringtext1:
  1080     1000                     STR_38:
  1081     1000  3443               	retlw	67	;'C'
  1082     1001  3409               	retlw	9
  1083     1002  3456               	retlw	86	;'V'
  1084     1003  3445               	retlw	69	;'E'
  1085     1004  3452               	retlw	82	;'R'
  1086     1005  3453               	retlw	83	;'S'
  1087     1006  3449               	retlw	73	;'I'
  1088     1007  344F               	retlw	79	;'O'
  1089     1008  344E               	retlw	78	;'N'
  1090     1009  3420               	retlw	32	;' '
  1091     100A  3432               	retlw	50	;'2'
  1092     100B  340D               	retlw	13
  1093     100C  340A               	retlw	10
  1094     100D  3400               	retlw	0
  1095                           
  1096                           	psect	stringtext2
  1097     100E                     __pstringtext2:
  1098     100E                     STR_37:
  1099     100E  3443               	retlw	67	;'C'
  1100     100F  3409               	retlw	9
  1101     1010  3452               	retlw	82	;'R'
  1102     1011  3445               	retlw	69	;'E'
  1103     1012  3441               	retlw	65	;'A'
  1104     1013  3444               	retlw	68	;'D'
  1105     1014  3459               	retlw	89	;'Y'
  1106     1015  340D               	retlw	13
  1107     1016  340A               	retlw	10
  1108     1017  3400               	retlw	0
  1109                           
  1110                           	psect	stringtext3
  1111     1018                     __pstringtext3:
  1112     1018                     STR_21:
  1113     1018  3443               	retlw	67	;'C'
  1114     1019  3409               	retlw	9
  1115     101A  3457               	retlw	87	;'W'
  1116     101B  3454               	retlw	84	;'T'
  1117     101C  3442               	retlw	66	;'B'
  1118     101D  340D               	retlw	13
  1119     101E  340A               	retlw	10
  1120     101F  3400               	retlw	0
  1121                           
  1122                           	psect	stringtext4
  1123     1020                     __pstringtext4:
  1124     1020                     STR_27:
  1125     1020  3443               	retlw	67	;'C'
  1126     1021  3409               	retlw	9
  1127     1022  344F               	retlw	79	;'O'
  1128     1023  3453               	retlw	83	;'S'
  1129     1024  3443               	retlw	67	;'C'
  1130     1025  340D               	retlw	13
  1131     1026  340A               	retlw	10
  1132     1027  3400               	retlw	0
  1133                           
  1134                           	psect	stringtext5
  1135     1028                     __pstringtext5:
  1136     1028                     STR_31:
  1137     1028  3443               	retlw	67	;'C'
  1138     1029  3409               	retlw	9
  1139     102A  344E               	retlw	78	;'N'
  1140     102B  3444               	retlw	68	;'D'
  1141     102C  3444               	retlw	68	;'D'
  1142     102D  340D               	retlw	13
  1143     102E  340A               	retlw	10
  1144     102F  3400               	retlw	0
  1145                           
  1146                           	psect	stringtext6
  1147     1030                     __pstringtext6:
  1148     1030                     STR_34:
  1149     1030  3443               	retlw	67	;'C'
  1150     1031  3409               	retlw	9
  1151     1032  344E               	retlw	78	;'N'
  1152     1033  3450               	retlw	80	;'P'
  1153     1034  3444               	retlw	68	;'D'
  1154     1035  340D               	retlw	13
  1155     1036  340A               	retlw	10
  1156     1037  3400               	retlw	0
  1157                           
  1158                           	psect	stringtext7
  1159     1038                     __pstringtext7:
  1160     1038                     STR_32:
  1161     1038  3443               	retlw	67	;'C'
  1162     1039  3409               	retlw	9
  1163     103A  344E               	retlw	78	;'N'
  1164     103B  3453               	retlw	83	;'S'
  1165     103C  3444               	retlw	68	;'D'
  1166     103D  340D               	retlw	13
  1167     103E  340A               	retlw	10
  1168     103F  3400               	retlw	0
  1169                           
  1170                           	psect	stringtext8
  1171     1040                     __pstringtext8:
  1172     1040                     STR_28:
  1173     1040  3443               	retlw	67	;'C'
  1174     1041  3409               	retlw	9
  1175     1042  344E               	retlw	78	;'N'
  1176     1043  3454               	retlw	84	;'T'
  1177     1044  3444               	retlw	68	;'D'
  1178     1045  340D               	retlw	13
  1179     1046  340A               	retlw	10
  1180     1047  3400               	retlw	0
  1181                           
  1182                           	psect	stringtext9
  1183     1048                     __pstringtext9:
  1184     1048                     STR_30:
  1185     1048  3443               	retlw	67	;'C'
  1186     1049  3409               	retlw	9
  1187     104A  344E               	retlw	78	;'N'
  1188     104B  3444               	retlw	68	;'D'
  1189     104C  344F               	retlw	79	;'O'
  1190     104D  340D               	retlw	13
  1191     104E  340A               	retlw	10
  1192     104F  3400               	retlw	0
  1193                           
  1194                           	psect	stringtext10
  1195     1050                     __pstringtext10:
  1196     1050                     STR_36:
  1197     1050  3443               	retlw	67	;'C'
  1198     1051  3409               	retlw	9
  1199     1052  344E               	retlw	78	;'N'
  1200     1053  3453               	retlw	83	;'S'
  1201     1054  3450               	retlw	80	;'P'
  1202     1055  340D               	retlw	13
  1203     1056  340A               	retlw	10
  1204     1057  3400               	retlw	0
  1205                           
  1206                           	psect	stringtext11
  1207     1058                     __pstringtext11:
  1208     1058                     STR_17:
  1209     1058  3443               	retlw	67	;'C'
  1210     1059  3409               	retlw	9
  1211     105A  3452               	retlw	82	;'R'
  1212     105B  3450               	retlw	80	;'P'
  1213     105C  3453               	retlw	83	;'S'
  1214     105D  340D               	retlw	13
  1215     105E  340A               	retlw	10
  1216     105F  3400               	retlw	0
  1217                           
  1218                           	psect	stringtext12
  1219     1060                     __pstringtext12:
  1220     1060                     STR_2:
  1221     1060  3457               	retlw	87	;'W'
  1222     1061  3454               	retlw	84	;'T'
  1223     1062  3442               	retlw	66	;'B'
  1224     1063  3400               	retlw	0
  1225                           
  1226                           	psect	stringtext13
  1227     1064                     __pstringtext13:
  1228     1064                     STR_3:
  1229     1064  344F               	retlw	79	;'O'
  1230     1065  3453               	retlw	83	;'S'
  1231     1066  3443               	retlw	67	;'C'
  1232     1067  3400               	retlw	0
  1233                           
  1234                           	psect	stringtext14
  1235     1068                     __pstringtext14:
  1236     1068                     STR_6:
  1237     1068  344E               	retlw	78	;'N'
  1238     1069  3444               	retlw	68	;'D'
  1239     106A  3444               	retlw	68	;'D'
  1240     106B  3400               	retlw	0
  1241                           
  1242                           	psect	stringtext15
  1243     106C                     __pstringtext15:
  1244     106C                     STR_9:
  1245     106C  344E               	retlw	78	;'N'
  1246     106D  3450               	retlw	80	;'P'
  1247     106E  3444               	retlw	68	;'D'
  1248     106F  3400               	retlw	0
  1249                           
  1250                           	psect	stringtext16
  1251     1070                     __pstringtext16:
  1252     1070                     STR_11:
  1253     1070  344E               	retlw	78	;'N'
  1254     1071  3453               	retlw	83	;'S'
  1255     1072  3444               	retlw	68	;'D'
  1256     1073  3400               	retlw	0
  1257                           
  1258                           	psect	stringtext17
  1259     1074                     __pstringtext17:
  1260     1074                     STR_4:
  1261     1074  344E               	retlw	78	;'N'
  1262     1075  3454               	retlw	84	;'T'
  1263     1076  3444               	retlw	68	;'D'
  1264     1077  3400               	retlw	0
  1265                           
  1266                           	psect	stringtext18
  1267     1078                     __pstringtext18:
  1268     1078                     STR_5:
  1269     1078  344E               	retlw	78	;'N'
  1270     1079  3444               	retlw	68	;'D'
  1271     107A  344F               	retlw	79	;'O'
  1272     107B  3400               	retlw	0
  1273                           
  1274                           	psect	stringtext19
  1275     107C                     __pstringtext19:
  1276     107C                     STR_10:
  1277     107C  344E               	retlw	78	;'N'
  1278     107D  3453               	retlw	83	;'S'
  1279     107E  3450               	retlw	80	;'P'
  1280     107F  3400               	retlw	0
  1281                           
  1282                           	psect	stringtext20
  1283     1080                     __pstringtext20:
  1284     1080                     STR_7:
  1285     1080  3456               	retlw	86	;'V'
  1286     1081  3445               	retlw	69	;'E'
  1287     1082  3452               	retlw	82	;'R'
  1288     1083  3400               	retlw	0
  1289                           
  1290                           	psect	stringtext21
  1291     1084                     __pstringtext21:
  1292     1084                     STR_1:
  1293     1084  3452               	retlw	82	;'R'
  1294     1085  3450               	retlw	80	;'P'
  1295     1086  3453               	retlw	83	;'S'
  1296     1087  3400               	retlw	0
  1297                           
  1298                           	psect	stringtext22
  1299     1088                     __pstringtext22:
  1300     1088                     STR_8:
  1301     1088  3453               	retlw	83	;'S'
  1302     1089  3454               	retlw	84	;'T'
  1303     108A  3453               	retlw	83	;'S'
  1304     108B  3400               	retlw	0
  1305                           
  1306                           	psect	stringtext23
  1307     108C                     __pstringtext23:
  1308     108C                     STR_12:
  1309     108C  342F               	retlw	47	;'/'
  1310     108D  3400               	retlw	0
  1311                           
  1312                           	psect	stringtext24
  1313     0000                     __pstringtext24:
  1314     108C                     
  1315                           	psect	cinit
  1316     07FB                     start_initialization:	
  1317                           ; #config settings
  1318                           
  1319     07FB                     __initialization:
  1320                           
  1321                           ; Clear objects allocated to BANK0
  1322     07FB  0020               	movlb	0	; select bank0
  1323     07FC  01E4               	clrf	__pbssBANK0& (0+127)
  1324     07FD                     end_of_initialization:	
  1325                           ;End of C runtime variable initialization code
  1326                           
  1327     07FD                     __end_of__initialization:
  1328     07FD  0020               	movlb	0
  1329     07FE  3181  299C         	ljmp	_main	;jump to C main() function
  1330                           
  1331                           	psect	bssBANK0
  1332     0064                     __pbssBANK0:
  1333     0064                     strtok@sp:
  1334     0064                     	ds	1
  1335                           
  1336                           	psect	cstackCOMMON
  1337     0070                     __pcstackCOMMON:
  1338     0070                     ?_isdigit:
  1339     0070                     ?_initUART:	
  1340                           ; 1 bit 
  1341                           
  1342     0070                     ??_initUART:	
  1343                           ; 1 bytes @ 0x0
  1344                           
  1345     0070                     ?_gets:	
  1346                           ; 1 bytes @ 0x0
  1347                           
  1348     0070                     ??_isdigit:	
  1349                           ; 1 bytes @ 0x0
  1350                           
  1351     0070                     ?_main:	
  1352                           ; 1 bytes @ 0x0
  1353                           
  1354     0070                     ?_putch:	
  1355                           ; 1 bytes @ 0x0
  1356                           
  1357     0070                     ??_putch:	
  1358                           ; 1 bytes @ 0x0
  1359                           
  1360     0070                     ?_getch:	
  1361                           ; 1 bytes @ 0x0
  1362                           
  1363     0070                     ??_getch:	
  1364                           ; 1 bytes @ 0x0
  1365                           
  1366     0070                     ?_getche:	
  1367                           ; 1 bytes @ 0x0
  1368                           
  1369     0070                     ?_strcmp:	
  1370                           ; 1 bytes @ 0x0
  1371                           
  1372     0070                     ?_strchr:	
  1373                           ; 2 bytes @ 0x0
  1374                           
  1375     0070                     ?___wmul:	
  1376                           ; 2 bytes @ 0x0
  1377                           
  1378     0070                     ?___awdiv:	
  1379                           ; 2 bytes @ 0x0
  1380                           
  1381     0070                     putch@byte:	
  1382                           ; 2 bytes @ 0x0
  1383                           
  1384     0070                     _isdigit$667:	
  1385                           ; 1 bytes @ 0x0
  1386                           
  1387     0070                     ___wmul@multiplier:	
  1388                           ; 1 bytes @ 0x0
  1389                           
  1390     0070                     ___awdiv@divisor:	
  1391                           ; 2 bytes @ 0x0
  1392                           
  1393     0070                     strcmp@s2:	
  1394                           ; 2 bytes @ 0x0
  1395                           
  1396     0070                     strchr@ptr:	
  1397                           ; 2 bytes @ 0x0
  1398                           
  1399                           
  1400                           ; 2 bytes @ 0x0
  1401     0070                     	ds	1
  1402     0071                     ??_getche:
  1403     0071                     ?_printf:	
  1404                           ; 1 bytes @ 0x1
  1405                           
  1406     0071                     getche@c:	
  1407                           ; 2 bytes @ 0x1
  1408                           
  1409     0071                     isdigit@c:	
  1410                           ; 1 bytes @ 0x1
  1411                           
  1412     0071                     printf@f:	
  1413                           ; 1 bytes @ 0x1
  1414                           
  1415                           
  1416                           ; 2 bytes @ 0x1
  1417     0071                     	ds	1
  1418     0072                     ??_strcmp:
  1419     0072                     ?_cgets:	
  1420                           ; 1 bytes @ 0x2
  1421                           
  1422     0072                     ___wmul@multiplicand:	
  1423                           ; 1 bytes @ 0x2
  1424                           
  1425     0072                     ___awdiv@dividend:	
  1426                           ; 2 bytes @ 0x2
  1427                           
  1428     0072                     strchr@chr:	
  1429                           ; 2 bytes @ 0x2
  1430                           
  1431                           
  1432                           ; 2 bytes @ 0x2
  1433     0072                     	ds	1
  1434     0073                     ??_printf:
  1435     0073                     strcmp@r:	
  1436                           ; 1 bytes @ 0x3
  1437                           
  1438                           
  1439                           ; 1 bytes @ 0x3
  1440     0073                     	ds	1
  1441     0074                     ??_cgets:
  1442     0074                     ??_strchr:	
  1443                           ; 1 bytes @ 0x4
  1444                           
  1445     0074                     ??___wmul:	
  1446                           ; 1 bytes @ 0x4
  1447                           
  1448     0074                     ??___awdiv:	
  1449                           ; 1 bytes @ 0x4
  1450                           
  1451     0074                     strcmp@s1:	
  1452                           ; 1 bytes @ 0x4
  1453                           
  1454     0074                     ___wmul@product:	
  1455                           ; 1 bytes @ 0x4
  1456                           
  1457                           
  1458                           ; 2 bytes @ 0x4
  1459     0074                     	ds	1
  1460     0075                     printf@ap:
  1461     0075                     ___awdiv@counter:	
  1462                           ; 1 bytes @ 0x5
  1463                           
  1464                           
  1465                           ; 1 bytes @ 0x5
  1466     0075                     	ds	1
  1467     0076                     ?_atoi:
  1468     0076                     printf@c:	
  1469                           ; 2 bytes @ 0x6
  1470                           
  1471     0076                     ___awdiv@sign:	
  1472                           ; 1 bytes @ 0x6
  1473                           
  1474     0076                     cgets@c:	
  1475                           ; 1 bytes @ 0x6
  1476                           
  1477                           
  1478                           ; 2 bytes @ 0x6
  1479     0076                     	ds	1
  1480     0077                     ?_strspn:
  1481     0077                     ?_strcspn:	
  1482                           ; 2 bytes @ 0x7
  1483                           
  1484     0077                     ___awdiv@quotient:	
  1485                           ; 2 bytes @ 0x7
  1486                           
  1487     0077                     strcspn@s2:	
  1488                           ; 2 bytes @ 0x7
  1489                           
  1490     0077                     strspn@s2:	
  1491                           ; 2 bytes @ 0x7
  1492                           
  1493                           
  1494                           ; 2 bytes @ 0x7
  1495     0077                     	ds	1
  1496     0078                     ??_atoi:
  1497     0078                     cgets@s:	
  1498                           ; 1 bytes @ 0x8
  1499                           
  1500                           
  1501                           ; 1 bytes @ 0x8
  1502     0078                     	ds	1
  1503     0079                     ??_strspn:
  1504     0079                     ??_strcspn:	
  1505                           ; 1 bytes @ 0x9
  1506                           
  1507     0079                     cgets@s1:	
  1508                           ; 1 bytes @ 0x9
  1509                           
  1510                           
  1511                           ; 1 bytes @ 0x9
  1512     0079                     	ds	1
  1513     007A                     ??_gets:
  1514     007A                     gets@s:	
  1515                           ; 1 bytes @ 0xA
  1516                           
  1517                           
  1518                           ; 1 bytes @ 0xA
  1519     007A                     	ds	1
  1520     007B                     strcspn@i:
  1521     007B                     strspn@i:	
  1522                           ; 2 bytes @ 0xB
  1523                           
  1524                           
  1525                           ; 2 bytes @ 0xB
  1526     007B                     	ds	2
  1527     007D                     strcspn@s1:
  1528     007D                     strspn@s1:	
  1529                           ; 1 bytes @ 0xD
  1530                           
  1531                           
  1532                           ; 1 bytes @ 0xD
  1533     007D                     	ds	1
  1534                           
  1535                           	psect	cstackBANK0
  1536     0020                     __pcstackBANK0:
  1537     0020                     ?_strtok:
  1538     0020                     atoi@sign:	
  1539                           ; 1 bytes @ 0x0
  1540                           
  1541     0020                     strtok@s2:	
  1542                           ; 1 bytes @ 0x0
  1543                           
  1544                           
  1545                           ; 2 bytes @ 0x0
  1546     0020                     	ds	1
  1547     0021                     atoi@a:
  1548                           
  1549                           ; 2 bytes @ 0x1
  1550     0021                     	ds	1
  1551     0022                     ??_strtok:
  1552                           
  1553                           ; 1 bytes @ 0x2
  1554     0022                     	ds	1
  1555     0023                     atoi@s:
  1556                           
  1557                           ; 1 bytes @ 0x3
  1558     0023                     	ds	1
  1559     0024                     strtok@s1:
  1560                           
  1561                           ; 1 bytes @ 0x4
  1562     0024                     	ds	1
  1563     0025                     ??_main:
  1564                           
  1565                           ; 1 bytes @ 0x5
  1566     0025                     	ds	1
  1567     0026                     main@tmp:
  1568                           
  1569                           ; 40 bytes @ 0x6
  1570     0026                     	ds	40
  1571     004E                     main@mx_spd:
  1572                           
  1573                           ; 2 bytes @ 0x2E
  1574     004E                     	ds	2
  1575     0050                     main@set_spd:
  1576                           
  1577                           ; 2 bytes @ 0x30
  1578     0050                     	ds	2
  1579     0052                     main@npd:
  1580                           
  1581                           ; 2 bytes @ 0x32
  1582     0052                     	ds	2
  1583     0054                     main@nsp:
  1584                           
  1585                           ; 2 bytes @ 0x34
  1586     0054                     	ds	2
  1587     0056                     main@cmd:
  1588                           
  1589                           ; 1 bytes @ 0x36
  1590     0056                     	ds	1
  1591     0057                     main@rcmd:
  1592                           
  1593                           ; 4 bytes @ 0x37
  1594     0057                     	ds	4
  1595     005B                     main@dist:
  1596                           
  1597                           ; 2 bytes @ 0x3B
  1598     005B                     	ds	2
  1599     005D                     main@ptr:
  1600                           
  1601                           ; 1 bytes @ 0x3D
  1602     005D                     	ds	1
  1603     005E                     main@k:
  1604                           
  1605                           ; 2 bytes @ 0x3E
  1606     005E                     	ds	2
  1607     0060                     main@intvl:
  1608                           
  1609                           ; 2 bytes @ 0x40
  1610     0060                     	ds	2
  1611     0062                     main@j:
  1612                           
  1613                           ; 2 bytes @ 0x42
  1614     0062                     	ds	2
  1615                           
  1616                           	psect	maintext
  1617     019C                     __pmaintext:	
  1618 ;;
  1619 ;;Main: autosize = 0, tempsize = 1, incstack = 0, save=0
  1620 ;;
  1621 ;; *************** function _main *****************
  1622 ;; Defined at:
  1623 ;;		line 59 in file "main.c"
  1624 ;; Parameters:    Size  Location     Type
  1625 ;;		None
  1626 ;; Auto vars:     Size  Location     Type
  1627 ;;  tmp            40    6[BANK0 ] unsigned char [40]
  1628 ;;  rcmd            4   55[BANK0 ] unsigned char [4]
  1629 ;;  ln              4    0        unsigned char [4]
  1630 ;;  j               2   66[BANK0 ] int 
  1631 ;;  intvl           2   64[BANK0 ] int 
  1632 ;;  k               2   62[BANK0 ] int 
  1633 ;;  dist            2   59[BANK0 ] int 
  1634 ;;  nsp             2   52[BANK0 ] int 
  1635 ;;  npd             2   50[BANK0 ] int 
  1636 ;;  set_spd         2   48[BANK0 ] int 
  1637 ;;  mx_spd          2   46[BANK0 ] int 
  1638 ;;  cnt             2    0        int 
  1639 ;;  ptr             1   61[BANK0 ] PTR unsigned char 
  1640 ;;		 -> NULL(0), main@tmp(40), 
  1641 ;;  cmd             1   54[BANK0 ] enum E5793
  1642 ;; Return value:  Size  Location     Type
  1643 ;;                  1    wreg      void 
  1644 ;; Registers used:
  1645 ;;		wreg, fsr0l, fsr0h, fsr1l, fsr1h, status,2, status,0, pclath, cstack
  1646 ;; Tracked objects:
  1647 ;;		On entry : B1F/0
  1648 ;;		On exit  : 0/0
  1649 ;;		Unchanged: 0/0
  1650 ;; Data sizes:     COMMON   BANK0   BANK1   BANK2   BANK3   BANK4   BANK5   BANK6   BANK7   BANK8   BANK9  BANK10  BANK1
      +1  BANK12  BANK13  BANK14  BANK15  BANK16  BANK17  BANK18  BANK19  BANK20  BANK21  BANK22  BANK23  BANK24  BANK25
  1651 ;;      Params:         0       0       0       0       0       0       0       0       0       0       0       0       
      +0       0       0       0       0       0       0       0       0       0       0       0       0       0       0
  1652 ;;      Locals:         0      62       0       0       0       0       0       0       0       0       0       0       
      +0       0       0       0       0       0       0       0       0       0       0       0       0       0       0
  1653 ;;      Temps:          0       1       0       0       0       0       0       0       0       0       0       0       
      +0       0       0       0       0       0       0       0       0       0       0       0       0       0       0
  1654 ;;      Totals:         0      63       0       0       0       0       0       0       0       0       0       0       
      +0       0       0       0       0       0       0       0       0       0       0       0       0       0       0
  1655 ;;Total ram usage:       63 bytes
  1656 ;; Hardware stack levels required when called: 4
  1657 ;; This function calls:
  1658 ;;		___awdiv
  1659 ;;		___wmul
  1660 ;;		_atoi
  1661 ;;		_gets
  1662 ;;		_initUART
  1663 ;;		_printf
  1664 ;;		_strcmp
  1665 ;;		_strtok
  1666 ;; This function is called by:
  1667 ;;		Startup code after reset
  1668 ;; This function uses a non-reentrant model
  1669 ;;
  1670                           
  1671     019C                     _main:	
  1672                           ;psect for function _main
  1673                           
  1674     019C                     l1859:	
  1675                           ;incstack = 0
  1676                           ; Regs used in _main: [wreg-fsr1h+status,2+status,0+pclath+cstack]
  1677                           
  1678                           
  1679                           ;main.c: 61: PORTA = 0x00;
  1680     019C  0020               	movlb	0	; select bank0
  1681     019D  018C               	clrf	12	;volatile
  1682                           
  1683                           ;main.c: 62: PORTB = 0x00;
  1684     019E  018D               	clrf	13	;volatile
  1685                           
  1686                           ;main.c: 63: TRISA = 0b00000000;
  1687     019F  0021               	movlb	1	; select bank1
  1688     01A0  018C               	clrf	12	;volatile
  1689     01A1                     l1861:
  1690                           
  1691                           ;main.c: 64: TRISB = 0b11111011;
  1692     01A1  30FB               	movlw	251
  1693     01A2  008D               	movwf	13	;volatile
  1694     01A3                     l1863:
  1695                           
  1696                           ;main.c: 66: initUART();
  1697     01A3  318F  2706  3181   	fcall	_initUART
  1698     01A6                     l1865:
  1699     01A6                     l1867:
  1700     01A6                     l1869:
  1701     01A6                     l1871:
  1702                           
  1703                           ;main.c: 72: int dist = 10;
  1704     01A6  300A               	movlw	10
  1705     01A7  0020               	movlb	0	; select bank0
  1706     01A8  00DB               	movwf	main@dist
  1707     01A9  3000               	movlw	0
  1708     01AA  00DC               	movwf	main@dist+1
  1709     01AB                     l1873:
  1710                           
  1711                           ;main.c: 73: int intvl = 20;
  1712     01AB  3014               	movlw	20
  1713     01AC  00E0               	movwf	main@intvl
  1714     01AD  3000               	movlw	0
  1715     01AE  00E1               	movwf	main@intvl+1
  1716     01AF                     l1875:
  1717                           
  1718                           ;main.c: 74: char rcmd[4];;main.c: 75: int mx_spd = 20250;
  1719     01AF  301A               	movlw	26
  1720     01B0  00CE               	movwf	main@mx_spd
  1721     01B1  304F               	movlw	79
  1722     01B2  00CF               	movwf	main@mx_spd+1
  1723     01B3                     l1877:
  1724                           
  1725                           ;main.c: 76: int set_spd;;main.c: 77: int npd = 2500;
  1726     01B3  30C4               	movlw	196
  1727     01B4  00D2               	movwf	main@npd
  1728     01B5  3009               	movlw	9
  1729     01B6  00D3               	movwf	main@npd+1
  1730     01B7                     l1879:
  1731                           
  1732                           ;main.c: 78: int nsp = 1000;
  1733     01B7  30E8               	movlw	232
  1734     01B8  00D4               	movwf	main@nsp
  1735     01B9  3003               	movlw	3
  1736     01BA  00D5               	movwf	main@nsp+1
  1737     01BB                     l1881:
  1738                           
  1739                           ;main.c: 79: char ln[4];;main.c: 81: char *ptr;;main.c: 83: enum command cmd;;main.c: 85
      +                          : RB6 = 1;
  1740     01BB  170D               	bsf	13,6	;volatile
  1741     01BC                     l1883:
  1742                           
  1743                           ;main.c: 86: RB5 = 1;
  1744     01BC  168D               	bsf	13,5	;volatile
  1745     01BD                     l1885:
  1746                           
  1747                           ;main.c: 87: RB4 = 1;
  1748     01BD  160D               	bsf	13,4	;volatile
  1749     01BE                     l1887:
  1750                           
  1751                           ;main.c: 88: RB3 = 1;
  1752     01BE  158D               	bsf	13,3	;volatile
  1753     01BF                     l1889:
  1754                           
  1755                           ;main.c: 93: cmd = NON;
  1756     01BF  300B               	movlw	11
  1757     01C0  0020               	movlb	0	; select bank0
  1758     01C1  00D6               	movwf	main@cmd
  1759     01C2                     l1891:
  1760                           
  1761                           ;main.c: 95: rcmd[0] = 'Q';
  1762     01C2  3051               	movlw	81
  1763     01C3  00D7               	movwf	main@rcmd
  1764     01C4                     l1893:
  1765                           
  1766                           ;main.c: 96: rcmd[1] = 'Q';
  1767     01C4  3051               	movlw	81
  1768     01C5  00D8               	movwf	main@rcmd+1
  1769     01C6                     l1895:
  1770                           
  1771                           ;main.c: 97: rcmd[2] = 'Q';
  1772     01C6  3051               	movlw	81
  1773     01C7  00D9               	movwf	main@rcmd+2
  1774     01C8                     l1897:
  1775                           
  1776                           ;main.c: 98: rcmd[3] = '\0';
  1777     01C8  01DA               	clrf	main@rcmd+3
  1778     01C9                     l1899:
  1779                           
  1780                           ;main.c: 100: tmp[0] = 'Q';
  1781     01C9  3051               	movlw	81
  1782     01CA  00A6               	movwf	main@tmp
  1783     01CB                     l1901:
  1784                           
  1785                           ;main.c: 101: tmp[1] = 'Q';
  1786     01CB  3051               	movlw	81
  1787     01CC  00A7               	movwf	main@tmp+1
  1788     01CD                     l1903:
  1789                           
  1790                           ;main.c: 102: tmp[2] = 'Q';
  1791     01CD  3051               	movlw	81
  1792     01CE  00A8               	movwf	main@tmp+2
  1793     01CF                     l1905:
  1794                           
  1795                           ;main.c: 103: tmp[3] = '\0';
  1796     01CF  01A9               	clrf	main@tmp+3
  1797     01D0                     l1907:
  1798                           
  1799                           ;main.c: 105: if (RB3 == 0){
  1800     01D0  198D               	btfsc	13,3	;volatile
  1801     01D1  29D3               	goto	u1421
  1802     01D2  29D4               	goto	u1420
  1803     01D3                     u1421:
  1804     01D3  29EA               	goto	l1917
  1805     01D4                     u1420:
  1806     01D4                     l1909:
  1807                           
  1808                           ;main.c: 106: if(RB6 == 0){
  1809     01D4  1B0D               	btfsc	13,6	;volatile
  1810     01D5  29D7               	goto	u1431
  1811     01D6  29D8               	goto	u1430
  1812     01D7                     u1431:
  1813     01D7  29DB               	goto	l43
  1814     01D8                     u1430:
  1815     01D8                     l1911:
  1816                           
  1817                           ;main.c: 107: cmd = NTD;
  1818     01D8  3003               	movlw	3
  1819     01D9  00D6               	movwf	main@cmd
  1820                           
  1821                           ;main.c: 108: }else if(RB5 == 0){
  1822     01DA  29EE               	goto	l1919
  1823     01DB                     l43:
  1824     01DB  1A8D               	btfsc	13,5	;volatile
  1825     01DC  29DE               	goto	u1441
  1826     01DD  29DF               	goto	u1440
  1827     01DE                     u1441:
  1828     01DE  29E2               	goto	l45
  1829     01DF                     u1440:
  1830     01DF                     l1913:
  1831                           
  1832                           ;main.c: 109: cmd = NSD;
  1833     01DF  3008               	movlw	8
  1834     01E0  00D6               	movwf	main@cmd
  1835                           
  1836                           ;main.c: 110: }else if(RB4 == 0){
  1837     01E1  29EE               	goto	l1919
  1838     01E2                     l45:
  1839     01E2  1A0D               	btfsc	13,4	;volatile
  1840     01E3  29E5               	goto	u1451
  1841     01E4  29E6               	goto	u1450
  1842     01E5                     u1451:
  1843     01E5  29E9               	goto	l44
  1844     01E6                     u1450:
  1845     01E6                     l1915:
  1846                           
  1847                           ;main.c: 111: cmd = NDD;
  1848     01E6  3005               	movlw	5
  1849     01E7  00D6               	movwf	main@cmd
  1850     01E8  29EE               	goto	l1919
  1851     01E9                     l44:
  1852                           
  1853                           ;main.c: 112: };main.c: 113: } else {
  1854     01E9  29EE               	goto	l1919
  1855     01EA                     l1917:
  1856                           
  1857                           ;main.c: 114: gets(tmp);
  1858     01EA  3026               	movlw	(low (main@tmp| 0))& (0+255)
  1859     01EB  3180  2004  3181   	fcall	_gets
  1860     01EE                     l1919:
  1861                           
  1862                           ;main.c: 115: };main.c: 119: rcmd[0] = tmp[1];
  1863     01EE  0020               	movlb	0	; select bank0
  1864     01EF  0827               	movf	main@tmp+1,w
  1865     01F0  00D7               	movwf	main@rcmd
  1866     01F1                     l1921:
  1867                           
  1868                           ;main.c: 120: rcmd[1] = tmp[2];
  1869     01F1  0828               	movf	main@tmp+2,w
  1870     01F2  00D8               	movwf	main@rcmd+1
  1871     01F3                     l1923:
  1872                           
  1873                           ;main.c: 121: rcmd[2] = tmp[3];
  1874     01F3  0829               	movf	main@tmp+3,w
  1875     01F4  00D9               	movwf	main@rcmd+2
  1876     01F5                     l1925:
  1877                           
  1878                           ;main.c: 122: rcmd[3] = '\0';
  1879     01F5  01DA               	clrf	main@rcmd+3
  1880     01F6                     l1927:
  1881                           
  1882                           ;main.c: 125: if(strcmp(rcmd,"RPS") == 0) {
  1883     01F6  3084               	movlw	low (STR_1| (0+32768))
  1884     01F7  00F0               	movwf	strcmp@s2
  1885     01F8  3090               	movlw	high (STR_1| (0+32768))
  1886     01F9  00F1               	movwf	strcmp@s2+1
  1887     01FA  3057               	movlw	(low (main@rcmd| 0))& (0+255)
  1888     01FB  318F  2779  3181   	fcall	_strcmp
  1889     01FE  0870               	movf	?_strcmp,w
  1890     01FF  0471               	iorwf	?_strcmp+1,w
  1891     0200  1D03               	btfss	3,2
  1892     0201  2A03               	goto	u1461
  1893     0202  2A04               	goto	u1460
  1894     0203                     u1461:
  1895     0203  2A07               	goto	l1931
  1896     0204                     u1460:
  1897     0204                     l1929:
  1898                           
  1899                           ;main.c: 126: cmd = RPS;
  1900     0204  0020               	movlb	0	; select bank0
  1901     0205  01D6               	clrf	main@cmd
  1902                           
  1903                           ;main.c: 127: }else if(strcmp(rcmd,"WTB") == 0){
  1904     0206  2ABB               	goto	l1971
  1905     0207                     l1931:
  1906     0207  3060               	movlw	low (STR_2| (0+32768))
  1907     0208  00F0               	movwf	strcmp@s2
  1908     0209  3090               	movlw	high (STR_2| (0+32768))
  1909     020A  00F1               	movwf	strcmp@s2+1
  1910     020B  3057               	movlw	(low (main@rcmd| 0))& (0+255)
  1911     020C  318F  2779  3181   	fcall	_strcmp
  1912     020F  0870               	movf	?_strcmp,w
  1913     0210  0471               	iorwf	?_strcmp+1,w
  1914     0211  1D03               	btfss	3,2
  1915     0212  2A14               	goto	u1471
  1916     0213  2A15               	goto	u1470
  1917     0214                     u1471:
  1918     0214  2A19               	goto	l1935
  1919     0215                     u1470:
  1920     0215                     l1933:
  1921                           
  1922                           ;main.c: 128: cmd = WTB;
  1923     0215  0020               	movlb	0	; select bank0
  1924     0216  01D6               	clrf	main@cmd
  1925     0217  0AD6               	incf	main@cmd,f
  1926                           
  1927                           ;main.c: 129: }else if(strcmp(rcmd,"OSC") == 0){
  1928     0218  2ABB               	goto	l1971
  1929     0219                     l1935:
  1930     0219  3064               	movlw	low (STR_3| (0+32768))
  1931     021A  00F0               	movwf	strcmp@s2
  1932     021B  3090               	movlw	high (STR_3| (0+32768))
  1933     021C  00F1               	movwf	strcmp@s2+1
  1934     021D  3057               	movlw	(low (main@rcmd| 0))& (0+255)
  1935     021E  318F  2779  3181   	fcall	_strcmp
  1936     0221  0870               	movf	?_strcmp,w
  1937     0222  0471               	iorwf	?_strcmp+1,w
  1938     0223  1D03               	btfss	3,2
  1939     0224  2A26               	goto	u1481
  1940     0225  2A27               	goto	u1480
  1941     0226                     u1481:
  1942     0226  2A2B               	goto	l1939
  1943     0227                     u1480:
  1944     0227                     l1937:
  1945                           
  1946                           ;main.c: 130: cmd = OSC;
  1947     0227  3002               	movlw	2
  1948     0228  0020               	movlb	0	; select bank0
  1949     0229  00D6               	movwf	main@cmd
  1950                           
  1951                           ;main.c: 131: }else if(strcmp(rcmd,"NTD") == 0){
  1952     022A  2ABB               	goto	l1971
  1953     022B                     l1939:
  1954     022B  3074               	movlw	low (STR_4| (0+32768))
  1955     022C  00F0               	movwf	strcmp@s2
  1956     022D  3090               	movlw	high (STR_4| (0+32768))
  1957     022E  00F1               	movwf	strcmp@s2+1
  1958     022F  3057               	movlw	(low (main@rcmd| 0))& (0+255)
  1959     0230  318F  2779  3181   	fcall	_strcmp
  1960     0233  0870               	movf	?_strcmp,w
  1961     0234  0471               	iorwf	?_strcmp+1,w
  1962     0235  1D03               	btfss	3,2
  1963     0236  2A38               	goto	u1491
  1964     0237  2A39               	goto	u1490
  1965     0238                     u1491:
  1966     0238  2A3D               	goto	l1943
  1967     0239                     u1490:
  1968     0239                     l1941:
  1969                           
  1970                           ;main.c: 132: cmd = NTD;
  1971     0239  3003               	movlw	3
  1972     023A  0020               	movlb	0	; select bank0
  1973     023B  00D6               	movwf	main@cmd
  1974                           
  1975                           ;main.c: 133: }else if(strcmp(rcmd,"NDO") == 0){
  1976     023C  2ABB               	goto	l1971
  1977     023D                     l1943:
  1978     023D  3078               	movlw	low (STR_5| (0+32768))
  1979     023E  00F0               	movwf	strcmp@s2
  1980     023F  3090               	movlw	high (STR_5| (0+32768))
  1981     0240  00F1               	movwf	strcmp@s2+1
  1982     0241  3057               	movlw	(low (main@rcmd| 0))& (0+255)
  1983     0242  318F  2779  3181   	fcall	_strcmp
  1984     0245  0870               	movf	?_strcmp,w
  1985     0246  0471               	iorwf	?_strcmp+1,w
  1986     0247  1D03               	btfss	3,2
  1987     0248  2A4A               	goto	u1501
  1988     0249  2A4B               	goto	u1500
  1989     024A                     u1501:
  1990     024A  2A4F               	goto	l1947
  1991     024B                     u1500:
  1992     024B                     l1945:
  1993                           
  1994                           ;main.c: 134: cmd = NDO;
  1995     024B  3004               	movlw	4
  1996     024C  0020               	movlb	0	; select bank0
  1997     024D  00D6               	movwf	main@cmd
  1998                           
  1999                           ;main.c: 135: }else if(strcmp(rcmd,"NDD") == 0){
  2000     024E  2ABB               	goto	l1971
  2001     024F                     l1947:
  2002     024F  3068               	movlw	low (STR_6| (0+32768))
  2003     0250  00F0               	movwf	strcmp@s2
  2004     0251  3090               	movlw	high (STR_6| (0+32768))
  2005     0252  00F1               	movwf	strcmp@s2+1
  2006     0253  3057               	movlw	(low (main@rcmd| 0))& (0+255)
  2007     0254  318F  2779  3181   	fcall	_strcmp
  2008     0257  0870               	movf	?_strcmp,w
  2009     0258  0471               	iorwf	?_strcmp+1,w
  2010     0259  1D03               	btfss	3,2
  2011     025A  2A5C               	goto	u1511
  2012     025B  2A5D               	goto	u1510
  2013     025C                     u1511:
  2014     025C  2A61               	goto	l1951
  2015     025D                     u1510:
  2016     025D                     l1949:
  2017                           
  2018                           ;main.c: 136: cmd = NDD;
  2019     025D  3005               	movlw	5
  2020     025E  0020               	movlb	0	; select bank0
  2021     025F  00D6               	movwf	main@cmd
  2022                           
  2023                           ;main.c: 137: }else if(strcmp(rcmd,"VER") == 0){
  2024     0260  2ABB               	goto	l1971
  2025     0261                     l1951:
  2026     0261  3080               	movlw	low (STR_7| (0+32768))
  2027     0262  00F0               	movwf	strcmp@s2
  2028     0263  3090               	movlw	high (STR_7| (0+32768))
  2029     0264  00F1               	movwf	strcmp@s2+1
  2030     0265  3057               	movlw	(low (main@rcmd| 0))& (0+255)
  2031     0266  318F  2779  3181   	fcall	_strcmp
  2032     0269  0870               	movf	?_strcmp,w
  2033     026A  0471               	iorwf	?_strcmp+1,w
  2034     026B  1D03               	btfss	3,2
  2035     026C  2A6E               	goto	u1521
  2036     026D  2A6F               	goto	u1520
  2037     026E                     u1521:
  2038     026E  2A73               	goto	l1955
  2039     026F                     u1520:
  2040     026F                     l1953:
  2041                           
  2042                           ;main.c: 138: cmd = VER;
  2043     026F  3009               	movlw	9
  2044     0270  0020               	movlb	0	; select bank0
  2045     0271  00D6               	movwf	main@cmd
  2046                           
  2047                           ;main.c: 139: }else if(strcmp(rcmd,"STS") == 0){
  2048     0272  2ABB               	goto	l1971
  2049     0273                     l1955:
  2050     0273  3088               	movlw	low (STR_8| (0+32768))
  2051     0274  00F0               	movwf	strcmp@s2
  2052     0275  3090               	movlw	high (STR_8| (0+32768))
  2053     0276  00F1               	movwf	strcmp@s2+1
  2054     0277  3057               	movlw	(low (main@rcmd| 0))& (0+255)
  2055     0278  318F  2779  3181   	fcall	_strcmp
  2056     027B  0870               	movf	?_strcmp,w
  2057     027C  0471               	iorwf	?_strcmp+1,w
  2058     027D  1D03               	btfss	3,2
  2059     027E  2A80               	goto	u1531
  2060     027F  2A81               	goto	u1530
  2061     0280                     u1531:
  2062     0280  2A85               	goto	l1959
  2063     0281                     u1530:
  2064     0281                     l1957:
  2065                           
  2066                           ;main.c: 140: cmd = STS;
  2067     0281  300A               	movlw	10
  2068     0282  0020               	movlb	0	; select bank0
  2069     0283  00D6               	movwf	main@cmd
  2070                           
  2071                           ;main.c: 141: }else if(strcmp(rcmd,"NPD") == 0){
  2072     0284  2ABB               	goto	l1971
  2073     0285                     l1959:
  2074     0285  306C               	movlw	low (STR_9| (0+32768))
  2075     0286  00F0               	movwf	strcmp@s2
  2076     0287  3090               	movlw	high (STR_9| (0+32768))
  2077     0288  00F1               	movwf	strcmp@s2+1
  2078     0289  3057               	movlw	(low (main@rcmd| 0))& (0+255)
  2079     028A  318F  2779  3181   	fcall	_strcmp
  2080     028D  0870               	movf	?_strcmp,w
  2081     028E  0471               	iorwf	?_strcmp+1,w
  2082     028F  1D03               	btfss	3,2
  2083     0290  2A92               	goto	u1541
  2084     0291  2A93               	goto	u1540
  2085     0292                     u1541:
  2086     0292  2A97               	goto	l1963
  2087     0293                     u1540:
  2088     0293                     l1961:
  2089                           
  2090                           ;main.c: 142: cmd = NPD;
  2091     0293  3006               	movlw	6
  2092     0294  0020               	movlb	0	; select bank0
  2093     0295  00D6               	movwf	main@cmd
  2094                           
  2095                           ;main.c: 143: }else if(strcmp(rcmd,"NSP") == 0){
  2096     0296  2ABB               	goto	l1971
  2097     0297                     l1963:
  2098     0297  307C               	movlw	low (STR_10| (0+32768))
  2099     0298  00F0               	movwf	strcmp@s2
  2100     0299  3090               	movlw	high (STR_10| (0+32768))
  2101     029A  00F1               	movwf	strcmp@s2+1
  2102     029B  3057               	movlw	(low (main@rcmd| 0))& (0+255)
  2103     029C  318F  2779  3181   	fcall	_strcmp
  2104     029F  0870               	movf	?_strcmp,w
  2105     02A0  0471               	iorwf	?_strcmp+1,w
  2106     02A1  1D03               	btfss	3,2
  2107     02A2  2AA4               	goto	u1551
  2108     02A3  2AA5               	goto	u1550
  2109     02A4                     u1551:
  2110     02A4  2AA9               	goto	l1967
  2111     02A5                     u1550:
  2112     02A5                     l1965:
  2113                           
  2114                           ;main.c: 144: cmd = NSP;
  2115     02A5  3007               	movlw	7
  2116     02A6  0020               	movlb	0	; select bank0
  2117     02A7  00D6               	movwf	main@cmd
  2118                           
  2119                           ;main.c: 145: }else if(strcmp(rcmd,"NSD") == 0){
  2120     02A8  2ABB               	goto	l1971
  2121     02A9                     l1967:
  2122     02A9  3070               	movlw	low (STR_11| (0+32768))
  2123     02AA  00F0               	movwf	strcmp@s2
  2124     02AB  3090               	movlw	high (STR_11| (0+32768))
  2125     02AC  00F1               	movwf	strcmp@s2+1
  2126     02AD  3057               	movlw	(low (main@rcmd| 0))& (0+255)
  2127     02AE  318F  2779  3181   	fcall	_strcmp
  2128     02B1  0870               	movf	?_strcmp,w
  2129     02B2  0471               	iorwf	?_strcmp+1,w
  2130     02B3  1D03               	btfss	3,2
  2131     02B4  2AB6               	goto	u1561
  2132     02B5  2AB7               	goto	u1560
  2133     02B6                     u1561:
  2134     02B6  2ABB               	goto	l64
  2135     02B7                     u1560:
  2136     02B7                     l1969:
  2137                           
  2138                           ;main.c: 146: cmd = NSD;
  2139     02B7  3008               	movlw	8
  2140     02B8  0020               	movlb	0	; select bank0
  2141     02B9  00D6               	movwf	main@cmd
  2142     02BA  2ABB               	goto	l1971
  2143     02BB                     l64:
  2144     02BB                     l1971:
  2145                           
  2146                           ;main.c: 147: };main.c: 148: ptr = strtok(tmp, "/");
  2147     02BB  308C               	movlw	low (STR_12| (0+32768))
  2148     02BC  0020               	movlb	0	; select bank0
  2149     02BD  00A0               	movwf	strtok@s2
  2150     02BE  3090               	movlw	high (STR_12| (0+32768))
  2151     02BF  00A1               	movwf	strtok@s2+1
  2152     02C0  3026               	movlw	(low (main@tmp| 0))& (0+255)
  2153     02C1  3180  201C  3181   	fcall	_strtok
  2154     02C4  0020               	movlb	0	; select bank0
  2155     02C5  00DD               	movwf	main@ptr
  2156                           
  2157                           ;main.c: 151: switch(cmd){
  2158     02C6  2FD6               	goto	l2207
  2159     02C7                     l1973:
  2160                           
  2161                           ;main.c: 154: ptr = strtok((0), "/");
  2162     02C7  308C               	movlw	low (STR_12| (0+32768))
  2163     02C8  00A0               	movwf	strtok@s2
  2164     02C9  3090               	movlw	high (STR_12| (0+32768))
  2165     02CA  00A1               	movwf	strtok@s2+1
  2166     02CB  0103               	clrw
  2167     02CC  3180  201C  3181   	fcall	_strtok
  2168     02CF  0020               	movlb	0	; select bank0
  2169     02D0  00DD               	movwf	main@ptr
  2170                           
  2171                           ;main.c: 155: ptr = strtok((0), "/");
  2172     02D1  308C               	movlw	low (STR_12| (0+32768))
  2173     02D2  00A0               	movwf	strtok@s2
  2174     02D3  3090               	movlw	high (STR_12| (0+32768))
  2175     02D4  00A1               	movwf	strtok@s2+1
  2176     02D5  0103               	clrw
  2177     02D6  3180  201C  3181   	fcall	_strtok
  2178     02D9  0020               	movlb	0	; select bank0
  2179     02DA  00DD               	movwf	main@ptr
  2180                           
  2181                           ;main.c: 156: ptr = strtok((0), "/");
  2182     02DB  308C               	movlw	low (STR_12| (0+32768))
  2183     02DC  00A0               	movwf	strtok@s2
  2184     02DD  3090               	movlw	high (STR_12| (0+32768))
  2185     02DE  00A1               	movwf	strtok@s2+1
  2186     02DF  0103               	clrw
  2187     02E0  3180  201C  3181   	fcall	_strtok
  2188     02E3  0020               	movlb	0	; select bank0
  2189     02E4  00DD               	movwf	main@ptr
  2190                           
  2191                           ;main.c: 157: ptr = strtok((0), "/");
  2192     02E5  308C               	movlw	low (STR_12| (0+32768))
  2193     02E6  00A0               	movwf	strtok@s2
  2194     02E7  3090               	movlw	high (STR_12| (0+32768))
  2195     02E8  00A1               	movwf	strtok@s2+1
  2196     02E9  0103               	clrw
  2197     02EA  3180  201C  3181   	fcall	_strtok
  2198     02ED  0020               	movlb	0	; select bank0
  2199     02EE  00DD               	movwf	main@ptr
  2200     02EF                     l1975:
  2201                           
  2202                           ;main.c: 158: if(ptr != (0)) {
  2203     02EF  085D               	movf	main@ptr,w
  2204     02F0  1903               	btfsc	3,2
  2205     02F1  2AF3               	goto	u1571
  2206     02F2  2AF4               	goto	u1570
  2207     02F3                     u1571:
  2208     02F3  2AFD               	goto	l1979
  2209     02F4                     u1570:
  2210     02F4                     l1977:
  2211                           
  2212                           ;main.c: 159: dist = atoi(ptr);
  2213     02F4  085D               	movf	main@ptr,w
  2214     02F5  3181  211E  3181   	fcall	_atoi
  2215     02F8  0877               	movf	?_atoi+1,w
  2216     02F9  0020               	movlb	0	; select bank0
  2217     02FA  00DC               	movwf	main@dist+1
  2218     02FB  0876               	movf	?_atoi,w
  2219     02FC  00DB               	movwf	main@dist
  2220     02FD                     l1979:
  2221                           
  2222                           ;main.c: 160: };main.c: 162: if (dist > 0){
  2223     02FD  085C               	movf	main@dist+1,w
  2224     02FE  3A80               	xorlw	128
  2225     02FF  00A5               	movwf	??_main
  2226     0300  3080               	movlw	128
  2227     0301  0225               	subwf	??_main,w
  2228     0302  1D03               	skipz
  2229     0303  2B06               	goto	u1585
  2230     0304  3001               	movlw	1
  2231     0305  025B               	subwf	main@dist,w
  2232     0306                     u1585:
  2233     0306  1C03               	skipc
  2234     0307  2B09               	goto	u1581
  2235     0308  2B0A               	goto	u1580
  2236     0309                     u1581:
  2237     0309  2B54               	goto	l1993
  2238     030A                     u1580:
  2239     030A                     l1981:
  2240                           
  2241                           ;main.c: 163: for(k = 0 ; k < dist ; k++){
  2242     030A  0020               	movlb	0	; select bank0
  2243     030B  01DE               	clrf	main@k
  2244     030C  01DF               	clrf	main@k+1
  2245     030D  2B45               	goto	l74
  2246     030E                     l75:
  2247                           
  2248                           ;main.c: 164: RA0 = 1;
  2249     030E  0020               	movlb	0	; select bank0
  2250     030F  140C               	bsf	12,0	;volatile
  2251     0310                     l1983:
  2252                           
  2253                           ;main.c: 165: for(j = 0 ; j < intvl ; j++){
  2254     0310  01E2               	clrf	main@j
  2255     0311  01E3               	clrf	main@j+1
  2256     0312  2B19               	goto	l76
  2257     0313                     l77:
  2258                           
  2259                           ;main.c: 166: _delay((unsigned long)((1)*(4000000/4000000.0)));
  2260     0313  0000               	nop
  2261     0314                     l1985:
  2262     0314  3001               	movlw	1
  2263     0315  0020               	movlb	0	; select bank0
  2264     0316  07E2               	addwf	main@j,f
  2265     0317  3000               	movlw	0
  2266     0318  3DE3               	addwfc	main@j+1,f
  2267     0319                     l76:
  2268     0319  0863               	movf	main@j+1,w
  2269     031A  3A80               	xorlw	128
  2270     031B  00A5               	movwf	??_main
  2271     031C  0861               	movf	main@intvl+1,w
  2272     031D  3A80               	xorlw	128
  2273     031E  0225               	subwf	??_main,w
  2274     031F  1D03               	skipz
  2275     0320  2B23               	goto	u1595
  2276     0321  0860               	movf	main@intvl,w
  2277     0322  0262               	subwf	main@j,w
  2278     0323                     u1595:
  2279     0323  1C03               	skipc
  2280     0324  2B26               	goto	u1591
  2281     0325  2B27               	goto	u1590
  2282     0326                     u1591:
  2283     0326  2B13               	goto	l77
  2284     0327                     u1590:
  2285     0327                     l78:
  2286                           
  2287                           ;main.c: 167: };main.c: 168: RA0 = 0;
  2288     0327  0020               	movlb	0	; select bank0
  2289     0328  100C               	bcf	12,0	;volatile
  2290     0329                     l1987:
  2291                           
  2292                           ;main.c: 169: for(j = 0 ; j < intvl ; j++){
  2293     0329  01E2               	clrf	main@j
  2294     032A  01E3               	clrf	main@j+1
  2295     032B  2B32               	goto	l79
  2296     032C                     l80:
  2297                           
  2298                           ;main.c: 170: _delay((unsigned long)((1)*(4000000/4000000.0)));
  2299     032C  0000               	nop
  2300     032D                     l1989:
  2301     032D  3001               	movlw	1
  2302     032E  0020               	movlb	0	; select bank0
  2303     032F  07E2               	addwf	main@j,f
  2304     0330  3000               	movlw	0
  2305     0331  3DE3               	addwfc	main@j+1,f
  2306     0332                     l79:
  2307     0332  0863               	movf	main@j+1,w
  2308     0333  3A80               	xorlw	128
  2309     0334  00A5               	movwf	??_main
  2310     0335  0861               	movf	main@intvl+1,w
  2311     0336  3A80               	xorlw	128
  2312     0337  0225               	subwf	??_main,w
  2313     0338  1D03               	skipz
  2314     0339  2B3C               	goto	u1605
  2315     033A  0860               	movf	main@intvl,w
  2316     033B  0262               	subwf	main@j,w
  2317     033C                     u1605:
  2318     033C  1C03               	skipc
  2319     033D  2B3F               	goto	u1601
  2320     033E  2B40               	goto	u1600
  2321     033F                     u1601:
  2322     033F  2B2C               	goto	l80
  2323     0340                     u1600:
  2324     0340                     l1991:
  2325     0340  3001               	movlw	1
  2326     0341  0020               	movlb	0	; select bank0
  2327     0342  07DE               	addwf	main@k,f
  2328     0343  3000               	movlw	0
  2329     0344  3DDF               	addwfc	main@k+1,f
  2330     0345                     l74:
  2331     0345  085F               	movf	main@k+1,w
  2332     0346  3A80               	xorlw	128
  2333     0347  00A5               	movwf	??_main
  2334     0348  085C               	movf	main@dist+1,w
  2335     0349  3A80               	xorlw	128
  2336     034A  0225               	subwf	??_main,w
  2337     034B  1D03               	skipz
  2338     034C  2B4F               	goto	u1615
  2339     034D  085B               	movf	main@dist,w
  2340     034E  025E               	subwf	main@k,w
  2341     034F                     u1615:
  2342     034F  1C03               	skipc
  2343     0350  2B52               	goto	u1611
  2344     0351  2B53               	goto	u1610
  2345     0352                     u1611:
  2346     0352  2B0E               	goto	l75
  2347     0353                     u1610:
  2348     0353  2BAD               	goto	l2007
  2349     0354                     l1993:
  2350                           
  2351                           ;main.c: 174: dist *= -1;
  2352     0354  30FF               	movlw	255
  2353     0355  00F0               	movwf	___wmul@multiplier
  2354     0356  30FF               	movlw	255
  2355     0357  00F1               	movwf	___wmul@multiplier+1
  2356     0358  0020               	movlb	0	; select bank0
  2357     0359  085C               	movf	main@dist+1,w
  2358     035A  00F3               	movwf	___wmul@multiplicand+1
  2359     035B  085B               	movf	main@dist,w
  2360     035C  00F2               	movwf	___wmul@multiplicand
  2361     035D  318F  275A  3181   	fcall	___wmul
  2362     0360  0871               	movf	?___wmul+1,w
  2363     0361  0020               	movlb	0	; select bank0
  2364     0362  00DC               	movwf	main@dist+1
  2365     0363  0870               	movf	?___wmul,w
  2366     0364  00DB               	movwf	main@dist
  2367     0365                     l1995:
  2368                           
  2369                           ;main.c: 175: for(k = 0 ; k < dist ; k++){
  2370     0365  01DE               	clrf	main@k
  2371     0366  01DF               	clrf	main@k+1
  2372     0367  2B9F               	goto	l84
  2373     0368                     l85:
  2374                           
  2375                           ;main.c: 176: RA1 = 1;
  2376     0368  0020               	movlb	0	; select bank0
  2377     0369  148C               	bsf	12,1	;volatile
  2378     036A                     l1997:
  2379                           
  2380                           ;main.c: 177: for(j = 0 ; j < intvl ; j++){
  2381     036A  01E2               	clrf	main@j
  2382     036B  01E3               	clrf	main@j+1
  2383     036C  2B73               	goto	l86
  2384     036D                     l87:
  2385                           
  2386                           ;main.c: 178: _delay((unsigned long)((1)*(4000000/4000000.0)));
  2387     036D  0000               	nop
  2388     036E                     l1999:
  2389     036E  3001               	movlw	1
  2390     036F  0020               	movlb	0	; select bank0
  2391     0370  07E2               	addwf	main@j,f
  2392     0371  3000               	movlw	0
  2393     0372  3DE3               	addwfc	main@j+1,f
  2394     0373                     l86:
  2395     0373  0863               	movf	main@j+1,w
  2396     0374  3A80               	xorlw	128
  2397     0375  00A5               	movwf	??_main
  2398     0376  0861               	movf	main@intvl+1,w
  2399     0377  3A80               	xorlw	128
  2400     0378  0225               	subwf	??_main,w
  2401     0379  1D03               	skipz
  2402     037A  2B7D               	goto	u1625
  2403     037B  0860               	movf	main@intvl,w
  2404     037C  0262               	subwf	main@j,w
  2405     037D                     u1625:
  2406     037D  1C03               	skipc
  2407     037E  2B80               	goto	u1621
  2408     037F  2B81               	goto	u1620
  2409     0380                     u1621:
  2410     0380  2B6D               	goto	l87
  2411     0381                     u1620:
  2412     0381                     l88:
  2413                           
  2414                           ;main.c: 179: };main.c: 180: RA1 = 0;
  2415     0381  0020               	movlb	0	; select bank0
  2416     0382  108C               	bcf	12,1	;volatile
  2417     0383                     l2001:
  2418                           
  2419                           ;main.c: 181: for(j = 0 ; j < intvl ; j++){
  2420     0383  01E2               	clrf	main@j
  2421     0384  01E3               	clrf	main@j+1
  2422     0385  2B8C               	goto	l89
  2423     0386                     l90:
  2424                           
  2425                           ;main.c: 182: _delay((unsigned long)((1)*(4000000/4000000.0)));
  2426     0386  0000               	nop
  2427     0387                     l2003:
  2428     0387  3001               	movlw	1
  2429     0388  0020               	movlb	0	; select bank0
  2430     0389  07E2               	addwf	main@j,f
  2431     038A  3000               	movlw	0
  2432     038B  3DE3               	addwfc	main@j+1,f
  2433     038C                     l89:
  2434     038C  0863               	movf	main@j+1,w
  2435     038D  3A80               	xorlw	128
  2436     038E  00A5               	movwf	??_main
  2437     038F  0861               	movf	main@intvl+1,w
  2438     0390  3A80               	xorlw	128
  2439     0391  0225               	subwf	??_main,w
  2440     0392  1D03               	skipz
  2441     0393  2B96               	goto	u1635
  2442     0394  0860               	movf	main@intvl,w
  2443     0395  0262               	subwf	main@j,w
  2444     0396                     u1635:
  2445     0396  1C03               	skipc
  2446     0397  2B99               	goto	u1631
  2447     0398  2B9A               	goto	u1630
  2448     0399                     u1631:
  2449     0399  2B86               	goto	l90
  2450     039A                     u1630:
  2451     039A                     l2005:
  2452     039A  3001               	movlw	1
  2453     039B  0020               	movlb	0	; select bank0
  2454     039C  07DE               	addwf	main@k,f
  2455     039D  3000               	movlw	0
  2456     039E  3DDF               	addwfc	main@k+1,f
  2457     039F                     l84:
  2458     039F  085F               	movf	main@k+1,w
  2459     03A0  3A80               	xorlw	128
  2460     03A1  00A5               	movwf	??_main
  2461     03A2  085C               	movf	main@dist+1,w
  2462     03A3  3A80               	xorlw	128
  2463     03A4  0225               	subwf	??_main,w
  2464     03A5  1D03               	skipz
  2465     03A6  2BA9               	goto	u1645
  2466     03A7  085B               	movf	main@dist,w
  2467     03A8  025E               	subwf	main@k,w
  2468     03A9                     u1645:
  2469     03A9  1C03               	skipc
  2470     03AA  2BAC               	goto	u1641
  2471     03AB  2BAD               	goto	u1640
  2472     03AC                     u1641:
  2473     03AC  2B68               	goto	l85
  2474     03AD                     u1640:
  2475     03AD                     l2007:
  2476                           
  2477                           ;main.c: 183: };main.c: 184: };main.c: 185: };main.c: 188: printf("C\tRPS\r\n");
  2478     03AD  3058               	movlw	low (STR_17| (0+32768))
  2479     03AE  00F1               	movwf	printf@f
  2480     03AF  3090               	movlw	high (STR_17| (0+32768))
  2481     03B0  00F2               	movwf	printf@f+1
  2482     03B1  318F  2722  3181   	fcall	_printf
  2483                           
  2484                           ;main.c: 189: break;
  2485     03B4  29BF               	goto	l1889
  2486     03B5                     l2009:
  2487                           
  2488                           ;main.c: 192: ptr = strtok((0), "/");
  2489     03B5  308C               	movlw	low (STR_12| (0+32768))
  2490     03B6  00A0               	movwf	strtok@s2
  2491     03B7  3090               	movlw	high (STR_12| (0+32768))
  2492     03B8  00A1               	movwf	strtok@s2+1
  2493     03B9  0103               	clrw
  2494     03BA  3180  201C  3181   	fcall	_strtok
  2495     03BD  0020               	movlb	0	; select bank0
  2496     03BE  00DD               	movwf	main@ptr
  2497                           
  2498                           ;main.c: 193: ptr = strtok((0), "/");
  2499     03BF  308C               	movlw	low (STR_12| (0+32768))
  2500     03C0  00A0               	movwf	strtok@s2
  2501     03C1  3090               	movlw	high (STR_12| (0+32768))
  2502     03C2  00A1               	movwf	strtok@s2+1
  2503     03C3  0103               	clrw
  2504     03C4  3180  201C  3181   	fcall	_strtok
  2505     03C7  0020               	movlb	0	; select bank0
  2506     03C8  00DD               	movwf	main@ptr
  2507                           
  2508                           ;main.c: 194: ptr = strtok((0), "/");
  2509     03C9  308C               	movlw	low (STR_12| (0+32768))
  2510     03CA  00A0               	movwf	strtok@s2
  2511     03CB  3090               	movlw	high (STR_12| (0+32768))
  2512     03CC  00A1               	movwf	strtok@s2+1
  2513     03CD  0103               	clrw
  2514     03CE  3180  201C  3181   	fcall	_strtok
  2515     03D1  0020               	movlb	0	; select bank0
  2516     03D2  00DD               	movwf	main@ptr
  2517     03D3                     l2011:
  2518                           
  2519                           ;main.c: 195: if(ptr != (0)) {
  2520     03D3  085D               	movf	main@ptr,w
  2521     03D4  1903               	btfsc	3,2
  2522     03D5  2BD7               	goto	u1651
  2523     03D6  2BD8               	goto	u1650
  2524     03D7                     u1651:
  2525     03D7  2BE1               	goto	l2015
  2526     03D8                     u1650:
  2527     03D8                     l2013:
  2528                           
  2529                           ;main.c: 196: set_spd = atoi(ptr);
  2530     03D8  085D               	movf	main@ptr,w
  2531     03D9  3181  211E  3181   	fcall	_atoi
  2532     03DC  0877               	movf	?_atoi+1,w
  2533     03DD  0020               	movlb	0	; select bank0
  2534     03DE  00D1               	movwf	main@set_spd+1
  2535     03DF  0876               	movf	?_atoi,w
  2536     03E0  00D0               	movwf	main@set_spd
  2537     03E1                     l2015:
  2538                           
  2539                           ;main.c: 197: };main.c: 198: intvl = mx_spd / set_spd;
  2540     03E1  0851               	movf	main@set_spd+1,w
  2541     03E2  00F1               	movwf	___awdiv@divisor+1
  2542     03E3  0850               	movf	main@set_spd,w
  2543     03E4  00F0               	movwf	___awdiv@divisor
  2544     03E5  084F               	movf	main@mx_spd+1,w
  2545     03E6  00F3               	movwf	___awdiv@dividend+1
  2546     03E7  084E               	movf	main@mx_spd,w
  2547     03E8  00F2               	movwf	___awdiv@dividend
  2548     03E9  3180  20BF  3181   	fcall	___awdiv
  2549     03EC  0871               	movf	?___awdiv+1,w
  2550     03ED  0020               	movlb	0	; select bank0
  2551     03EE  00E1               	movwf	main@intvl+1
  2552     03EF  0870               	movf	?___awdiv,w
  2553     03F0  00E0               	movwf	main@intvl
  2554     03F1                     l2017:
  2555                           
  2556                           ;main.c: 199: if (intvl == 0){
  2557     03F1  0860               	movf	main@intvl,w
  2558     03F2  0461               	iorwf	main@intvl+1,w
  2559     03F3  1D03               	btfss	3,2
  2560     03F4  2BF6               	goto	u1661
  2561     03F5  2BF7               	goto	u1660
  2562     03F6                     u1661:
  2563     03F6  2BFB               	goto	l2021
  2564     03F7                     u1660:
  2565     03F7                     l2019:
  2566                           
  2567                           ;main.c: 200: intvl = 1;
  2568     03F7  3001               	movlw	1
  2569     03F8  00E0               	movwf	main@intvl
  2570     03F9  3000               	movlw	0
  2571     03FA  00E1               	movwf	main@intvl+1
  2572     03FB                     l2021:
  2573                           
  2574                           ;main.c: 201: };main.c: 202: printf("C\tWTB\r\n");
  2575     03FB  3018               	movlw	low (STR_21| (0+32768))
  2576     03FC  00F1               	movwf	printf@f
  2577     03FD  3090               	movlw	high (STR_21| (0+32768))
  2578     03FE  00F2               	movwf	printf@f+1
  2579     03FF  318F  2722  3181   	fcall	_printf
  2580                           
  2581                           ;main.c: 204: break;
  2582     0402  29BF               	goto	l1889
  2583     0403                     l2023:
  2584                           
  2585                           ;main.c: 207: ptr = strtok((0), "/");
  2586     0403  308C               	movlw	low (STR_12| (0+32768))
  2587     0404  00A0               	movwf	strtok@s2
  2588     0405  3090               	movlw	high (STR_12| (0+32768))
  2589     0406  00A1               	movwf	strtok@s2+1
  2590     0407  0103               	clrw
  2591     0408  3180  201C  3181   	fcall	_strtok
  2592     040B  0020               	movlb	0	; select bank0
  2593     040C  00DD               	movwf	main@ptr
  2594                           
  2595                           ;main.c: 208: ptr = strtok((0), "/");
  2596     040D  308C               	movlw	low (STR_12| (0+32768))
  2597     040E  00A0               	movwf	strtok@s2
  2598     040F  3090               	movlw	high (STR_12| (0+32768))
  2599     0410  00A1               	movwf	strtok@s2+1
  2600     0411  0103               	clrw
  2601     0412  3180  201C  3181   	fcall	_strtok
  2602     0415  0020               	movlb	0	; select bank0
  2603     0416  00DD               	movwf	main@ptr
  2604                           
  2605                           ;main.c: 209: ptr = strtok((0), "/");
  2606     0417  308C               	movlw	low (STR_12| (0+32768))
  2607     0418  00A0               	movwf	strtok@s2
  2608     0419  3090               	movlw	high (STR_12| (0+32768))
  2609     041A  00A1               	movwf	strtok@s2+1
  2610     041B  0103               	clrw
  2611     041C  3180  201C  3181   	fcall	_strtok
  2612     041F  0020               	movlb	0	; select bank0
  2613     0420  00DD               	movwf	main@ptr
  2614                           
  2615                           ;main.c: 210: ptr = strtok((0), "/");
  2616     0421  308C               	movlw	low (STR_12| (0+32768))
  2617     0422  00A0               	movwf	strtok@s2
  2618     0423  3090               	movlw	high (STR_12| (0+32768))
  2619     0424  00A1               	movwf	strtok@s2+1
  2620     0425  0103               	clrw
  2621     0426  3180  201C  3181   	fcall	_strtok
  2622     0429  0020               	movlb	0	; select bank0
  2623     042A  00DD               	movwf	main@ptr
  2624                           
  2625                           ;main.c: 211: ptr = strtok((0), "/");
  2626     042B  308C               	movlw	low (STR_12| (0+32768))
  2627     042C  00A0               	movwf	strtok@s2
  2628     042D  3090               	movlw	high (STR_12| (0+32768))
  2629     042E  00A1               	movwf	strtok@s2+1
  2630     042F  0103               	clrw
  2631     0430  3180  201C  3181   	fcall	_strtok
  2632     0433  0020               	movlb	0	; select bank0
  2633     0434  00DD               	movwf	main@ptr
  2634     0435                     l2025:
  2635                           
  2636                           ;main.c: 212: if(ptr != (0)) {
  2637     0435  085D               	movf	main@ptr,w
  2638     0436  1903               	btfsc	3,2
  2639     0437  2C39               	goto	u1671
  2640     0438  2C3A               	goto	u1670
  2641     0439                     u1671:
  2642     0439  2C43               	goto	l2029
  2643     043A                     u1670:
  2644     043A                     l2027:
  2645                           
  2646                           ;main.c: 213: dist = atoi(ptr);
  2647     043A  085D               	movf	main@ptr,w
  2648     043B  3181  211E  3181   	fcall	_atoi
  2649     043E  0877               	movf	?_atoi+1,w
  2650     043F  0020               	movlb	0	; select bank0
  2651     0440  00DC               	movwf	main@dist+1
  2652     0441  0876               	movf	?_atoi,w
  2653     0442  00DB               	movwf	main@dist
  2654     0443                     l2029:
  2655                           
  2656                           ;main.c: 214: };main.c: 216: if (dist > 0){
  2657     0443  085C               	movf	main@dist+1,w
  2658     0444  3A80               	xorlw	128
  2659     0445  00A5               	movwf	??_main
  2660     0446  3080               	movlw	128
  2661     0447  0225               	subwf	??_main,w
  2662     0448  1D03               	skipz
  2663     0449  2C4C               	goto	u1685
  2664     044A  3001               	movlw	1
  2665     044B  025B               	subwf	main@dist,w
  2666     044C                     u1685:
  2667     044C  1C03               	skipc
  2668     044D  2C4F               	goto	u1681
  2669     044E  2C50               	goto	u1680
  2670     044F                     u1681:
  2671     044F  2CE3               	goto	l2055
  2672     0450                     u1680:
  2673     0450                     l2031:
  2674                           
  2675                           ;main.c: 217: for(k = 0 ; k < dist ; k++){
  2676     0450  0020               	movlb	0	; select bank0
  2677     0451  01DE               	clrf	main@k
  2678     0452  01DF               	clrf	main@k+1
  2679     0453  2C8B               	goto	l100
  2680     0454                     l101:
  2681                           
  2682                           ;main.c: 218: RA0 = 1;
  2683     0454  0020               	movlb	0	; select bank0
  2684     0455  140C               	bsf	12,0	;volatile
  2685     0456                     l2033:
  2686                           
  2687                           ;main.c: 219: for(j = 0 ; j < intvl ; j++){
  2688     0456  01E2               	clrf	main@j
  2689     0457  01E3               	clrf	main@j+1
  2690     0458  2C5F               	goto	l102
  2691     0459                     l103:
  2692                           
  2693                           ;main.c: 220: _delay((unsigned long)((1)*(4000000/4000000.0)));
  2694     0459  0000               	nop
  2695     045A                     l2035:
  2696     045A  3001               	movlw	1
  2697     045B  0020               	movlb	0	; select bank0
  2698     045C  07E2               	addwf	main@j,f
  2699     045D  3000               	movlw	0
  2700     045E  3DE3               	addwfc	main@j+1,f
  2701     045F                     l102:
  2702     045F  0863               	movf	main@j+1,w
  2703     0460  3A80               	xorlw	128
  2704     0461  00A5               	movwf	??_main
  2705     0462  0861               	movf	main@intvl+1,w
  2706     0463  3A80               	xorlw	128
  2707     0464  0225               	subwf	??_main,w
  2708     0465  1D03               	skipz
  2709     0466  2C69               	goto	u1695
  2710     0467  0860               	movf	main@intvl,w
  2711     0468  0262               	subwf	main@j,w
  2712     0469                     u1695:
  2713     0469  1C03               	skipc
  2714     046A  2C6C               	goto	u1691
  2715     046B  2C6D               	goto	u1690
  2716     046C                     u1691:
  2717     046C  2C59               	goto	l103
  2718     046D                     u1690:
  2719     046D                     l104:
  2720                           
  2721                           ;main.c: 221: };main.c: 222: RA0 = 0;
  2722     046D  0020               	movlb	0	; select bank0
  2723     046E  100C               	bcf	12,0	;volatile
  2724     046F                     l2037:
  2725                           
  2726                           ;main.c: 223: for(j = 0 ; j < intvl ; j++){
  2727     046F  01E2               	clrf	main@j
  2728     0470  01E3               	clrf	main@j+1
  2729     0471  2C78               	goto	l105
  2730     0472                     l106:
  2731                           
  2732                           ;main.c: 224: _delay((unsigned long)((1)*(4000000/4000000.0)));
  2733     0472  0000               	nop
  2734     0473                     l2039:
  2735     0473  3001               	movlw	1
  2736     0474  0020               	movlb	0	; select bank0
  2737     0475  07E2               	addwf	main@j,f
  2738     0476  3000               	movlw	0
  2739     0477  3DE3               	addwfc	main@j+1,f
  2740     0478                     l105:
  2741     0478  0863               	movf	main@j+1,w
  2742     0479  3A80               	xorlw	128
  2743     047A  00A5               	movwf	??_main
  2744     047B  0861               	movf	main@intvl+1,w
  2745     047C  3A80               	xorlw	128
  2746     047D  0225               	subwf	??_main,w
  2747     047E  1D03               	skipz
  2748     047F  2C82               	goto	u1705
  2749     0480  0860               	movf	main@intvl,w
  2750     0481  0262               	subwf	main@j,w
  2751     0482                     u1705:
  2752     0482  1C03               	skipc
  2753     0483  2C85               	goto	u1701
  2754     0484  2C86               	goto	u1700
  2755     0485                     u1701:
  2756     0485  2C72               	goto	l106
  2757     0486                     u1700:
  2758     0486                     l2041:
  2759     0486  3001               	movlw	1
  2760     0487  0020               	movlb	0	; select bank0
  2761     0488  07DE               	addwf	main@k,f
  2762     0489  3000               	movlw	0
  2763     048A  3DDF               	addwfc	main@k+1,f
  2764     048B                     l100:
  2765     048B  085F               	movf	main@k+1,w
  2766     048C  3A80               	xorlw	128
  2767     048D  00A5               	movwf	??_main
  2768     048E  085C               	movf	main@dist+1,w
  2769     048F  3A80               	xorlw	128
  2770     0490  0225               	subwf	??_main,w
  2771     0491  1D03               	skipz
  2772     0492  2C95               	goto	u1715
  2773     0493  085B               	movf	main@dist,w
  2774     0494  025E               	subwf	main@k,w
  2775     0495                     u1715:
  2776     0495  1C03               	skipc
  2777     0496  2C98               	goto	u1711
  2778     0497  2C99               	goto	u1710
  2779     0498                     u1711:
  2780     0498  2C54               	goto	l101
  2781     0499                     u1710:
  2782     0499                     l2043:
  2783                           
  2784                           ;main.c: 225: };main.c: 226: };main.c: 227: for(k = 0 ; k < dist ; k++){
  2785     0499  0020               	movlb	0	; select bank0
  2786     049A  01DE               	clrf	main@k
  2787     049B  01DF               	clrf	main@k+1
  2788     049C  2CD4               	goto	l109
  2789     049D                     l110:
  2790                           
  2791                           ;main.c: 228: RA1 = 1;
  2792     049D  0020               	movlb	0	; select bank0
  2793     049E  148C               	bsf	12,1	;volatile
  2794     049F                     l2045:
  2795                           
  2796                           ;main.c: 229: for(j = 0 ; j < intvl ; j++){
  2797     049F  01E2               	clrf	main@j
  2798     04A0  01E3               	clrf	main@j+1
  2799     04A1  2CA8               	goto	l111
  2800     04A2                     l112:
  2801                           
  2802                           ;main.c: 230: _delay((unsigned long)((1)*(4000000/4000000.0)));
  2803     04A2  0000               	nop
  2804     04A3                     l2047:
  2805     04A3  3001               	movlw	1
  2806     04A4  0020               	movlb	0	; select bank0
  2807     04A5  07E2               	addwf	main@j,f
  2808     04A6  3000               	movlw	0
  2809     04A7  3DE3               	addwfc	main@j+1,f
  2810     04A8                     l111:
  2811     04A8  0863               	movf	main@j+1,w
  2812     04A9  3A80               	xorlw	128
  2813     04AA  00A5               	movwf	??_main
  2814     04AB  0861               	movf	main@intvl+1,w
  2815     04AC  3A80               	xorlw	128
  2816     04AD  0225               	subwf	??_main,w
  2817     04AE  1D03               	skipz
  2818     04AF  2CB2               	goto	u1725
  2819     04B0  0860               	movf	main@intvl,w
  2820     04B1  0262               	subwf	main@j,w
  2821     04B2                     u1725:
  2822     04B2  1C03               	skipc
  2823     04B3  2CB5               	goto	u1721
  2824     04B4  2CB6               	goto	u1720
  2825     04B5                     u1721:
  2826     04B5  2CA2               	goto	l112
  2827     04B6                     u1720:
  2828     04B6                     l113:
  2829                           
  2830                           ;main.c: 231: };main.c: 232: RA1 = 0;
  2831     04B6  0020               	movlb	0	; select bank0
  2832     04B7  108C               	bcf	12,1	;volatile
  2833     04B8                     l2049:
  2834                           
  2835                           ;main.c: 233: for(j = 0 ; j < intvl ; j++){
  2836     04B8  01E2               	clrf	main@j
  2837     04B9  01E3               	clrf	main@j+1
  2838     04BA  2CC1               	goto	l114
  2839     04BB                     l115:
  2840                           
  2841                           ;main.c: 234: _delay((unsigned long)((1)*(4000000/4000000.0)));
  2842     04BB  0000               	nop
  2843     04BC                     l2051:
  2844     04BC  3001               	movlw	1
  2845     04BD  0020               	movlb	0	; select bank0
  2846     04BE  07E2               	addwf	main@j,f
  2847     04BF  3000               	movlw	0
  2848     04C0  3DE3               	addwfc	main@j+1,f
  2849     04C1                     l114:
  2850     04C1  0863               	movf	main@j+1,w
  2851     04C2  3A80               	xorlw	128
  2852     04C3  00A5               	movwf	??_main
  2853     04C4  0861               	movf	main@intvl+1,w
  2854     04C5  3A80               	xorlw	128
  2855     04C6  0225               	subwf	??_main,w
  2856     04C7  1D03               	skipz
  2857     04C8  2CCB               	goto	u1735
  2858     04C9  0860               	movf	main@intvl,w
  2859     04CA  0262               	subwf	main@j,w
  2860     04CB                     u1735:
  2861     04CB  1C03               	skipc
  2862     04CC  2CCE               	goto	u1731
  2863     04CD  2CCF               	goto	u1730
  2864     04CE                     u1731:
  2865     04CE  2CBB               	goto	l115
  2866     04CF                     u1730:
  2867     04CF                     l2053:
  2868     04CF  3001               	movlw	1
  2869     04D0  0020               	movlb	0	; select bank0
  2870     04D1  07DE               	addwf	main@k,f
  2871     04D2  3000               	movlw	0
  2872     04D3  3DDF               	addwfc	main@k+1,f
  2873     04D4                     l109:
  2874     04D4  085F               	movf	main@k+1,w
  2875     04D5  3A80               	xorlw	128
  2876     04D6  00A5               	movwf	??_main
  2877     04D7  085C               	movf	main@dist+1,w
  2878     04D8  3A80               	xorlw	128
  2879     04D9  0225               	subwf	??_main,w
  2880     04DA  1D03               	skipz
  2881     04DB  2CDE               	goto	u1745
  2882     04DC  085B               	movf	main@dist,w
  2883     04DD  025E               	subwf	main@k,w
  2884     04DE                     u1745:
  2885     04DE  1C03               	skipc
  2886     04DF  2CE1               	goto	u1741
  2887     04E0  2CE2               	goto	u1740
  2888     04E1                     u1741:
  2889     04E1  2C9D               	goto	l110
  2890     04E2                     u1740:
  2891     04E2  2D85               	goto	l2081
  2892     04E3                     l2055:
  2893                           
  2894                           ;main.c: 238: dist *= -1;
  2895     04E3  30FF               	movlw	255
  2896     04E4  00F0               	movwf	___wmul@multiplier
  2897     04E5  30FF               	movlw	255
  2898     04E6  00F1               	movwf	___wmul@multiplier+1
  2899     04E7  0020               	movlb	0	; select bank0
  2900     04E8  085C               	movf	main@dist+1,w
  2901     04E9  00F3               	movwf	___wmul@multiplicand+1
  2902     04EA  085B               	movf	main@dist,w
  2903     04EB  00F2               	movwf	___wmul@multiplicand
  2904     04EC  318F  275A  3181   	fcall	___wmul
  2905     04EF  0871               	movf	?___wmul+1,w
  2906     04F0  0020               	movlb	0	; select bank0
  2907     04F1  00DC               	movwf	main@dist+1
  2908     04F2  0870               	movf	?___wmul,w
  2909     04F3  00DB               	movwf	main@dist
  2910     04F4                     l2057:
  2911                           
  2912                           ;main.c: 239: for(k = 0 ; k < dist ; k++){
  2913     04F4  01DE               	clrf	main@k
  2914     04F5  01DF               	clrf	main@k+1
  2915     04F6  2D2E               	goto	l119
  2916     04F7                     l120:
  2917                           
  2918                           ;main.c: 240: RA1 = 1;
  2919     04F7  0020               	movlb	0	; select bank0
  2920     04F8  148C               	bsf	12,1	;volatile
  2921     04F9                     l2059:
  2922                           
  2923                           ;main.c: 241: for(j = 0 ; j < intvl ; j++){
  2924     04F9  01E2               	clrf	main@j
  2925     04FA  01E3               	clrf	main@j+1
  2926     04FB  2D02               	goto	l121
  2927     04FC                     l122:
  2928                           
  2929                           ;main.c: 242: _delay((unsigned long)((1)*(4000000/4000000.0)));
  2930     04FC  0000               	nop
  2931     04FD                     l2061:
  2932     04FD  3001               	movlw	1
  2933     04FE  0020               	movlb	0	; select bank0
  2934     04FF  07E2               	addwf	main@j,f
  2935     0500  3000               	movlw	0
  2936     0501  3DE3               	addwfc	main@j+1,f
  2937     0502                     l121:
  2938     0502  0863               	movf	main@j+1,w
  2939     0503  3A80               	xorlw	128
  2940     0504  00A5               	movwf	??_main
  2941     0505  0861               	movf	main@intvl+1,w
  2942     0506  3A80               	xorlw	128
  2943     0507  0225               	subwf	??_main,w
  2944     0508  1D03               	skipz
  2945     0509  2D0C               	goto	u1755
  2946     050A  0860               	movf	main@intvl,w
  2947     050B  0262               	subwf	main@j,w
  2948     050C                     u1755:
  2949     050C  1C03               	skipc
  2950     050D  2D0F               	goto	u1751
  2951     050E  2D10               	goto	u1750
  2952     050F                     u1751:
  2953     050F  2CFC               	goto	l122
  2954     0510                     u1750:
  2955     0510                     l123:
  2956                           
  2957                           ;main.c: 243: };main.c: 244: RA1 = 0;
  2958     0510  0020               	movlb	0	; select bank0
  2959     0511  108C               	bcf	12,1	;volatile
  2960     0512                     l2063:
  2961                           
  2962                           ;main.c: 245: for(j = 0 ; j < intvl ; j++){
  2963     0512  01E2               	clrf	main@j
  2964     0513  01E3               	clrf	main@j+1
  2965     0514  2D1B               	goto	l124
  2966     0515                     l125:
  2967                           
  2968                           ;main.c: 246: _delay((unsigned long)((1)*(4000000/4000000.0)));
  2969     0515  0000               	nop
  2970     0516                     l2065:
  2971     0516  3001               	movlw	1
  2972     0517  0020               	movlb	0	; select bank0
  2973     0518  07E2               	addwf	main@j,f
  2974     0519  3000               	movlw	0
  2975     051A  3DE3               	addwfc	main@j+1,f
  2976     051B                     l124:
  2977     051B  0863               	movf	main@j+1,w
  2978     051C  3A80               	xorlw	128
  2979     051D  00A5               	movwf	??_main
  2980     051E  0861               	movf	main@intvl+1,w
  2981     051F  3A80               	xorlw	128
  2982     0520  0225               	subwf	??_main,w
  2983     0521  1D03               	skipz
  2984     0522  2D25               	goto	u1765
  2985     0523  0860               	movf	main@intvl,w
  2986     0524  0262               	subwf	main@j,w
  2987     0525                     u1765:
  2988     0525  1C03               	skipc
  2989     0526  2D28               	goto	u1761
  2990     0527  2D29               	goto	u1760
  2991     0528                     u1761:
  2992     0528  2D15               	goto	l125
  2993     0529                     u1760:
  2994     0529                     l2067:
  2995     0529  3001               	movlw	1
  2996     052A  0020               	movlb	0	; select bank0
  2997     052B  07DE               	addwf	main@k,f
  2998     052C  3000               	movlw	0
  2999     052D  3DDF               	addwfc	main@k+1,f
  3000     052E                     l119:
  3001     052E  085F               	movf	main@k+1,w
  3002     052F  3A80               	xorlw	128
  3003     0530  00A5               	movwf	??_main
  3004     0531  085C               	movf	main@dist+1,w
  3005     0532  3A80               	xorlw	128
  3006     0533  0225               	subwf	??_main,w
  3007     0534  1D03               	skipz
  3008     0535  2D38               	goto	u1775
  3009     0536  085B               	movf	main@dist,w
  3010     0537  025E               	subwf	main@k,w
  3011     0538                     u1775:
  3012     0538  1C03               	skipc
  3013     0539  2D3B               	goto	u1771
  3014     053A  2D3C               	goto	u1770
  3015     053B                     u1771:
  3016     053B  2CF7               	goto	l120
  3017     053C                     u1770:
  3018     053C                     l2069:
  3019                           
  3020                           ;main.c: 247: };main.c: 248: };main.c: 249: for(k = 0 ; k < dist ; k++){
  3021     053C  0020               	movlb	0	; select bank0
  3022     053D  01DE               	clrf	main@k
  3023     053E  01DF               	clrf	main@k+1
  3024     053F  2D77               	goto	l128
  3025     0540                     l129:
  3026                           
  3027                           ;main.c: 250: RA0 = 1;
  3028     0540  0020               	movlb	0	; select bank0
  3029     0541  140C               	bsf	12,0	;volatile
  3030     0542                     l2071:
  3031                           
  3032                           ;main.c: 251: for(j = 0 ; j < intvl ; j++){
  3033     0542  01E2               	clrf	main@j
  3034     0543  01E3               	clrf	main@j+1
  3035     0544  2D4B               	goto	l130
  3036     0545                     l131:
  3037                           
  3038                           ;main.c: 252: _delay((unsigned long)((1)*(4000000/4000000.0)));
  3039     0545  0000               	nop
  3040     0546                     l2073:
  3041     0546  3001               	movlw	1
  3042     0547  0020               	movlb	0	; select bank0
  3043     0548  07E2               	addwf	main@j,f
  3044     0549  3000               	movlw	0
  3045     054A  3DE3               	addwfc	main@j+1,f
  3046     054B                     l130:
  3047     054B  0863               	movf	main@j+1,w
  3048     054C  3A80               	xorlw	128
  3049     054D  00A5               	movwf	??_main
  3050     054E  0861               	movf	main@intvl+1,w
  3051     054F  3A80               	xorlw	128
  3052     0550  0225               	subwf	??_main,w
  3053     0551  1D03               	skipz
  3054     0552  2D55               	goto	u1785
  3055     0553  0860               	movf	main@intvl,w
  3056     0554  0262               	subwf	main@j,w
  3057     0555                     u1785:
  3058     0555  1C03               	skipc
  3059     0556  2D58               	goto	u1781
  3060     0557  2D59               	goto	u1780
  3061     0558                     u1781:
  3062     0558  2D45               	goto	l131
  3063     0559                     u1780:
  3064     0559                     l132:
  3065                           
  3066                           ;main.c: 253: };main.c: 254: RA0 = 0;
  3067     0559  0020               	movlb	0	; select bank0
  3068     055A  100C               	bcf	12,0	;volatile
  3069     055B                     l2075:
  3070                           
  3071                           ;main.c: 255: for(j = 0 ; j < intvl ; j++){
  3072     055B  01E2               	clrf	main@j
  3073     055C  01E3               	clrf	main@j+1
  3074     055D  2D64               	goto	l133
  3075     055E                     l134:
  3076                           
  3077                           ;main.c: 256: _delay((unsigned long)((1)*(4000000/4000000.0)));
  3078     055E  0000               	nop
  3079     055F                     l2077:
  3080     055F  3001               	movlw	1
  3081     0560  0020               	movlb	0	; select bank0
  3082     0561  07E2               	addwf	main@j,f
  3083     0562  3000               	movlw	0
  3084     0563  3DE3               	addwfc	main@j+1,f
  3085     0564                     l133:
  3086     0564  0863               	movf	main@j+1,w
  3087     0565  3A80               	xorlw	128
  3088     0566  00A5               	movwf	??_main
  3089     0567  0861               	movf	main@intvl+1,w
  3090     0568  3A80               	xorlw	128
  3091     0569  0225               	subwf	??_main,w
  3092     056A  1D03               	skipz
  3093     056B  2D6E               	goto	u1795
  3094     056C  0860               	movf	main@intvl,w
  3095     056D  0262               	subwf	main@j,w
  3096     056E                     u1795:
  3097     056E  1C03               	skipc
  3098     056F  2D71               	goto	u1791
  3099     0570  2D72               	goto	u1790
  3100     0571                     u1791:
  3101     0571  2D5E               	goto	l134
  3102     0572                     u1790:
  3103     0572                     l2079:
  3104     0572  3001               	movlw	1
  3105     0573  0020               	movlb	0	; select bank0
  3106     0574  07DE               	addwf	main@k,f
  3107     0575  3000               	movlw	0
  3108     0576  3DDF               	addwfc	main@k+1,f
  3109     0577                     l128:
  3110     0577  085F               	movf	main@k+1,w
  3111     0578  3A80               	xorlw	128
  3112     0579  00A5               	movwf	??_main
  3113     057A  085C               	movf	main@dist+1,w
  3114     057B  3A80               	xorlw	128
  3115     057C  0225               	subwf	??_main,w
  3116     057D  1D03               	skipz
  3117     057E  2D81               	goto	u1805
  3118     057F  085B               	movf	main@dist,w
  3119     0580  025E               	subwf	main@k,w
  3120     0581                     u1805:
  3121     0581  1C03               	skipc
  3122     0582  2D84               	goto	u1801
  3123     0583  2D85               	goto	u1800
  3124     0584                     u1801:
  3125     0584  2D40               	goto	l129
  3126     0585                     u1800:
  3127     0585                     l2081:
  3128                           
  3129                           ;main.c: 257: };main.c: 258: };main.c: 259: };main.c: 262: printf("C\tOSC\r\n");
  3130     0585  3020               	movlw	low (STR_27| (0+32768))
  3131     0586  00F1               	movwf	printf@f
  3132     0587  3090               	movlw	high (STR_27| (0+32768))
  3133     0588  00F2               	movwf	printf@f+1
  3134     0589  318F  2722  3181   	fcall	_printf
  3135                           
  3136                           ;main.c: 263: break;
  3137     058C  29BF               	goto	l1889
  3138     058D                     l2083:
  3139                           
  3140                           ;main.c: 266: dist = 10000;
  3141     058D  3010               	movlw	16
  3142     058E  00DB               	movwf	main@dist
  3143     058F  3027               	movlw	39
  3144     0590  00DC               	movwf	main@dist+1
  3145     0591                     l2085:
  3146                           
  3147                           ;main.c: 267: for(k = 0 ; k < dist ; k++){
  3148     0591  01DE               	clrf	main@k
  3149     0592  01DF               	clrf	main@k+1
  3150     0593  2DD0               	goto	l138
  3151     0594                     l139:
  3152                           
  3153                           ;main.c: 268: RA0 = 1;
  3154     0594  0020               	movlb	0	; select bank0
  3155     0595  140C               	bsf	12,0	;volatile
  3156     0596                     l2087:
  3157                           
  3158                           ;main.c: 269: for(j = 0 ; j < intvl ; j++){
  3159     0596  01E2               	clrf	main@j
  3160     0597  01E3               	clrf	main@j+1
  3161     0598  2D9F               	goto	l140
  3162     0599                     l141:
  3163                           
  3164                           ;main.c: 270: _delay((unsigned long)((1)*(4000000/4000000.0)));
  3165     0599  0000               	nop
  3166     059A                     l2089:
  3167     059A  3001               	movlw	1
  3168     059B  0020               	movlb	0	; select bank0
  3169     059C  07E2               	addwf	main@j,f
  3170     059D  3000               	movlw	0
  3171     059E  3DE3               	addwfc	main@j+1,f
  3172     059F                     l140:
  3173     059F  0863               	movf	main@j+1,w
  3174     05A0  3A80               	xorlw	128
  3175     05A1  00A5               	movwf	??_main
  3176     05A2  0861               	movf	main@intvl+1,w
  3177     05A3  3A80               	xorlw	128
  3178     05A4  0225               	subwf	??_main,w
  3179     05A5  1D03               	skipz
  3180     05A6  2DA9               	goto	u1815
  3181     05A7  0860               	movf	main@intvl,w
  3182     05A8  0262               	subwf	main@j,w
  3183     05A9                     u1815:
  3184     05A9  1C03               	skipc
  3185     05AA  2DAC               	goto	u1811
  3186     05AB  2DAD               	goto	u1810
  3187     05AC                     u1811:
  3188     05AC  2D99               	goto	l141
  3189     05AD                     u1810:
  3190     05AD                     l142:
  3191                           
  3192                           ;main.c: 271: };main.c: 272: RA0 = 0;
  3193     05AD  0020               	movlb	0	; select bank0
  3194     05AE  100C               	bcf	12,0	;volatile
  3195     05AF                     l2091:
  3196                           
  3197                           ;main.c: 273: for(j = 0 ; j < intvl ; j++){
  3198     05AF  01E2               	clrf	main@j
  3199     05B0  01E3               	clrf	main@j+1
  3200     05B1  2DB8               	goto	l143
  3201     05B2                     l144:
  3202                           
  3203                           ;main.c: 274: _delay((unsigned long)((1)*(4000000/4000000.0)));
  3204     05B2  0000               	nop
  3205     05B3                     l2093:
  3206     05B3  3001               	movlw	1
  3207     05B4  0020               	movlb	0	; select bank0
  3208     05B5  07E2               	addwf	main@j,f
  3209     05B6  3000               	movlw	0
  3210     05B7  3DE3               	addwfc	main@j+1,f
  3211     05B8                     l143:
  3212     05B8  0863               	movf	main@j+1,w
  3213     05B9  3A80               	xorlw	128
  3214     05BA  00A5               	movwf	??_main
  3215     05BB  0861               	movf	main@intvl+1,w
  3216     05BC  3A80               	xorlw	128
  3217     05BD  0225               	subwf	??_main,w
  3218     05BE  1D03               	skipz
  3219     05BF  2DC2               	goto	u1825
  3220     05C0  0860               	movf	main@intvl,w
  3221     05C1  0262               	subwf	main@j,w
  3222     05C2                     u1825:
  3223     05C2  1C03               	skipc
  3224     05C3  2DC5               	goto	u1821
  3225     05C4  2DC6               	goto	u1820
  3226     05C5                     u1821:
  3227     05C5  2DB2               	goto	l144
  3228     05C6                     u1820:
  3229     05C6                     l145:
  3230                           
  3231                           ;main.c: 275: };main.c: 277: if(RB0 == 0){
  3232     05C6  0020               	movlb	0	; select bank0
  3233     05C7  180D               	btfsc	13,0	;volatile
  3234     05C8  2DCA               	goto	u1831
  3235     05C9  2DCB               	goto	u1830
  3236     05CA                     u1831:
  3237     05CA  2DCC               	goto	l2097
  3238     05CB                     u1830:
  3239     05CB  2DDE               	goto	l2099
  3240     05CC                     l2097:
  3241     05CC  3001               	movlw	1
  3242     05CD  07DE               	addwf	main@k,f
  3243     05CE  3000               	movlw	0
  3244     05CF  3DDF               	addwfc	main@k+1,f
  3245     05D0                     l138:
  3246     05D0  085F               	movf	main@k+1,w
  3247     05D1  3A80               	xorlw	128
  3248     05D2  00A5               	movwf	??_main
  3249     05D3  085C               	movf	main@dist+1,w
  3250     05D4  3A80               	xorlw	128
  3251     05D5  0225               	subwf	??_main,w
  3252     05D6  1D03               	skipz
  3253     05D7  2DDA               	goto	u1845
  3254     05D8  085B               	movf	main@dist,w
  3255     05D9  025E               	subwf	main@k,w
  3256     05DA                     u1845:
  3257     05DA  1C03               	skipc
  3258     05DB  2DDD               	goto	u1841
  3259     05DC  2DDE               	goto	u1840
  3260     05DD                     u1841:
  3261     05DD  2D94               	goto	l139
  3262     05DE                     u1840:
  3263     05DE                     l2099:
  3264                           
  3265                           ;main.c: 279: };main.c: 281: };main.c: 283: printf("C\tNTD\r\n");
  3266     05DE  3040               	movlw	low (STR_28| (0+32768))
  3267     05DF  00F1               	movwf	printf@f
  3268     05E0  3090               	movlw	high (STR_28| (0+32768))
  3269     05E1  00F2               	movwf	printf@f+1
  3270     05E2  318F  2722  3181   	fcall	_printf
  3271                           
  3272                           ;main.c: 285: break;
  3273     05E5  29BF               	goto	l1889
  3274     05E6                     l2101:
  3275                           
  3276                           ;main.c: 288: ptr = strtok((0), "/");
  3277     05E6  308C               	movlw	low (STR_12| (0+32768))
  3278     05E7  00A0               	movwf	strtok@s2
  3279     05E8  3090               	movlw	high (STR_12| (0+32768))
  3280     05E9  00A1               	movwf	strtok@s2+1
  3281     05EA  0103               	clrw
  3282     05EB  3180  201C  3181   	fcall	_strtok
  3283     05EE  0020               	movlb	0	; select bank0
  3284     05EF  00DD               	movwf	main@ptr
  3285     05F0                     l2103:
  3286                           
  3287                           ;main.c: 289: if(ptr != (0)) {
  3288     05F0  085D               	movf	main@ptr,w
  3289     05F1  1903               	btfsc	3,2
  3290     05F2  2DF4               	goto	u1851
  3291     05F3  2DF5               	goto	u1850
  3292     05F4                     u1851:
  3293     05F4  2DFE               	goto	l2107
  3294     05F5                     u1850:
  3295     05F5                     l2105:
  3296                           
  3297                           ;main.c: 290: dist = atoi(ptr);
  3298     05F5  085D               	movf	main@ptr,w
  3299     05F6  3181  211E  3181   	fcall	_atoi
  3300     05F9  0877               	movf	?_atoi+1,w
  3301     05FA  0020               	movlb	0	; select bank0
  3302     05FB  00DC               	movwf	main@dist+1
  3303     05FC  0876               	movf	?_atoi,w
  3304     05FD  00DB               	movwf	main@dist
  3305     05FE                     l2107:
  3306                           
  3307                           ;main.c: 291: };main.c: 293: for(k = 0 ; k < 10000 ; k++){
  3308     05FE  01DE               	clrf	main@k
  3309     05FF  01DF               	clrf	main@k+1
  3310     0600                     l150:
  3311                           
  3312                           ;main.c: 294: RA0 = 1;
  3313     0600  0020               	movlb	0	; select bank0
  3314     0601  140C               	bsf	12,0	;volatile
  3315     0602                     l2113:
  3316                           
  3317                           ;main.c: 295: for(j = 0 ; j < intvl ; j++){
  3318     0602  01E2               	clrf	main@j
  3319     0603  01E3               	clrf	main@j+1
  3320     0604  2E0B               	goto	l152
  3321     0605                     l153:
  3322                           
  3323                           ;main.c: 296: _delay((unsigned long)((1)*(4000000/4000000.0)));
  3324     0605  0000               	nop
  3325     0606                     l2115:
  3326     0606  3001               	movlw	1
  3327     0607  0020               	movlb	0	; select bank0
  3328     0608  07E2               	addwf	main@j,f
  3329     0609  3000               	movlw	0
  3330     060A  3DE3               	addwfc	main@j+1,f
  3331     060B                     l152:
  3332     060B  0863               	movf	main@j+1,w
  3333     060C  3A80               	xorlw	128
  3334     060D  00A5               	movwf	??_main
  3335     060E  0861               	movf	main@intvl+1,w
  3336     060F  3A80               	xorlw	128
  3337     0610  0225               	subwf	??_main,w
  3338     0611  1D03               	skipz
  3339     0612  2E15               	goto	u1865
  3340     0613  0860               	movf	main@intvl,w
  3341     0614  0262               	subwf	main@j,w
  3342     0615                     u1865:
  3343     0615  1C03               	skipc
  3344     0616  2E18               	goto	u1861
  3345     0617  2E19               	goto	u1860
  3346     0618                     u1861:
  3347     0618  2E05               	goto	l153
  3348     0619                     u1860:
  3349     0619                     l154:
  3350                           
  3351                           ;main.c: 297: };main.c: 298: RA0 = 0;
  3352     0619  0020               	movlb	0	; select bank0
  3353     061A  100C               	bcf	12,0	;volatile
  3354     061B                     l2117:
  3355                           
  3356                           ;main.c: 299: for(j = 0 ; j < intvl ; j++){
  3357     061B  01E2               	clrf	main@j
  3358     061C  01E3               	clrf	main@j+1
  3359     061D  2E24               	goto	l155
  3360     061E                     l156:
  3361                           
  3362                           ;main.c: 300: _delay((unsigned long)((1)*(4000000/4000000.0)));
  3363     061E  0000               	nop
  3364     061F                     l2119:
  3365     061F  3001               	movlw	1
  3366     0620  0020               	movlb	0	; select bank0
  3367     0621  07E2               	addwf	main@j,f
  3368     0622  3000               	movlw	0
  3369     0623  3DE3               	addwfc	main@j+1,f
  3370     0624                     l155:
  3371     0624  0863               	movf	main@j+1,w
  3372     0625  3A80               	xorlw	128
  3373     0626  00A5               	movwf	??_main
  3374     0627  0861               	movf	main@intvl+1,w
  3375     0628  3A80               	xorlw	128
  3376     0629  0225               	subwf	??_main,w
  3377     062A  1D03               	skipz
  3378     062B  2E2E               	goto	u1875
  3379     062C  0860               	movf	main@intvl,w
  3380     062D  0262               	subwf	main@j,w
  3381     062E                     u1875:
  3382     062E  1C03               	skipc
  3383     062F  2E31               	goto	u1871
  3384     0630  2E32               	goto	u1870
  3385     0631                     u1871:
  3386     0631  2E1E               	goto	l156
  3387     0632                     u1870:
  3388     0632                     l157:
  3389                           
  3390                           ;main.c: 301: };main.c: 303: if(RB0 == 0){
  3391     0632  0020               	movlb	0	; select bank0
  3392     0633  180D               	btfsc	13,0	;volatile
  3393     0634  2E36               	goto	u1881
  3394     0635  2E37               	goto	u1880
  3395     0636                     u1881:
  3396     0636  2E38               	goto	l2123
  3397     0637                     u1880:
  3398     0637  2E49               	goto	l2125
  3399     0638                     l2123:
  3400     0638  3001               	movlw	1
  3401     0639  07DE               	addwf	main@k,f
  3402     063A  3000               	movlw	0
  3403     063B  3DDF               	addwfc	main@k+1,f
  3404     063C  085F               	movf	main@k+1,w
  3405     063D  3A80               	xorlw	128
  3406     063E  00A5               	movwf	??_main
  3407     063F  30A7               	movlw	167
  3408     0640  0225               	subwf	??_main,w
  3409     0641  1D03               	skipz
  3410     0642  2E45               	goto	u1895
  3411     0643  3010               	movlw	16
  3412     0644  025E               	subwf	main@k,w
  3413     0645                     u1895:
  3414     0645  1C03               	skipc
  3415     0646  2E48               	goto	u1891
  3416     0647  2E49               	goto	u1890
  3417     0648                     u1891:
  3418     0648  2E00               	goto	l150
  3419     0649                     u1890:
  3420     0649                     l2125:
  3421                           
  3422                           ;main.c: 305: };main.c: 307: };main.c: 309: for(k = 0 ; k < dist ; k++){
  3423     0649  0020               	movlb	0	; select bank0
  3424     064A  01DE               	clrf	main@k
  3425     064B  01DF               	clrf	main@k+1
  3426     064C  2E84               	goto	l159
  3427     064D                     l160:
  3428                           
  3429                           ;main.c: 310: RA1 = 1;
  3430     064D  0020               	movlb	0	; select bank0
  3431     064E  148C               	bsf	12,1	;volatile
  3432     064F                     l2127:
  3433                           
  3434                           ;main.c: 311: for(j = 0 ; j < intvl ; j++){
  3435     064F  01E2               	clrf	main@j
  3436     0650  01E3               	clrf	main@j+1
  3437     0651  2E58               	goto	l161
  3438     0652                     l162:
  3439                           
  3440                           ;main.c: 312: _delay((unsigned long)((1)*(4000000/4000000.0)));
  3441     0652  0000               	nop
  3442     0653                     l2129:
  3443     0653  3001               	movlw	1
  3444     0654  0020               	movlb	0	; select bank0
  3445     0655  07E2               	addwf	main@j,f
  3446     0656  3000               	movlw	0
  3447     0657  3DE3               	addwfc	main@j+1,f
  3448     0658                     l161:
  3449     0658  0863               	movf	main@j+1,w
  3450     0659  3A80               	xorlw	128
  3451     065A  00A5               	movwf	??_main
  3452     065B  0861               	movf	main@intvl+1,w
  3453     065C  3A80               	xorlw	128
  3454     065D  0225               	subwf	??_main,w
  3455     065E  1D03               	skipz
  3456     065F  2E62               	goto	u1905
  3457     0660  0860               	movf	main@intvl,w
  3458     0661  0262               	subwf	main@j,w
  3459     0662                     u1905:
  3460     0662  1C03               	skipc
  3461     0663  2E65               	goto	u1901
  3462     0664  2E66               	goto	u1900
  3463     0665                     u1901:
  3464     0665  2E52               	goto	l162
  3465     0666                     u1900:
  3466     0666                     l163:
  3467                           
  3468                           ;main.c: 313: };main.c: 314: RA1 = 0;
  3469     0666  0020               	movlb	0	; select bank0
  3470     0667  108C               	bcf	12,1	;volatile
  3471     0668                     l2131:
  3472                           
  3473                           ;main.c: 315: for(j = 0 ; j < intvl ; j++){
  3474     0668  01E2               	clrf	main@j
  3475     0669  01E3               	clrf	main@j+1
  3476     066A  2E71               	goto	l164
  3477     066B                     l165:
  3478                           
  3479                           ;main.c: 316: _delay((unsigned long)((1)*(4000000/4000000.0)));
  3480     066B  0000               	nop
  3481     066C                     l2133:
  3482     066C  3001               	movlw	1
  3483     066D  0020               	movlb	0	; select bank0
  3484     066E  07E2               	addwf	main@j,f
  3485     066F  3000               	movlw	0
  3486     0670  3DE3               	addwfc	main@j+1,f
  3487     0671                     l164:
  3488     0671  0863               	movf	main@j+1,w
  3489     0672  3A80               	xorlw	128
  3490     0673  00A5               	movwf	??_main
  3491     0674  0861               	movf	main@intvl+1,w
  3492     0675  3A80               	xorlw	128
  3493     0676  0225               	subwf	??_main,w
  3494     0677  1D03               	skipz
  3495     0678  2E7B               	goto	u1915
  3496     0679  0860               	movf	main@intvl,w
  3497     067A  0262               	subwf	main@j,w
  3498     067B                     u1915:
  3499     067B  1C03               	skipc
  3500     067C  2E7E               	goto	u1911
  3501     067D  2E7F               	goto	u1910
  3502     067E                     u1911:
  3503     067E  2E6B               	goto	l165
  3504     067F                     u1910:
  3505     067F                     l2135:
  3506     067F  3001               	movlw	1
  3507     0680  0020               	movlb	0	; select bank0
  3508     0681  07DE               	addwf	main@k,f
  3509     0682  3000               	movlw	0
  3510     0683  3DDF               	addwfc	main@k+1,f
  3511     0684                     l159:
  3512     0684  085F               	movf	main@k+1,w
  3513     0685  3A80               	xorlw	128
  3514     0686  00A5               	movwf	??_main
  3515     0687  085C               	movf	main@dist+1,w
  3516     0688  3A80               	xorlw	128
  3517     0689  0225               	subwf	??_main,w
  3518     068A  1D03               	skipz
  3519     068B  2E8E               	goto	u1925
  3520     068C  085B               	movf	main@dist,w
  3521     068D  025E               	subwf	main@k,w
  3522     068E                     u1925:
  3523     068E  1C03               	skipc
  3524     068F  2E91               	goto	u1921
  3525     0690  2E92               	goto	u1920
  3526     0691                     u1921:
  3527     0691  2E4D               	goto	l160
  3528     0692                     u1920:
  3529     0692                     l2137:
  3530                           
  3531                           ;main.c: 317: };main.c: 318: };main.c: 321: printf("C\tNDO\r\n");
  3532     0692  3048               	movlw	low (STR_30| (0+32768))
  3533     0693  00F1               	movwf	printf@f
  3534     0694  3090               	movlw	high (STR_30| (0+32768))
  3535     0695  00F2               	movwf	printf@f+1
  3536     0696  318F  2722  3181   	fcall	_printf
  3537                           
  3538                           ;main.c: 322: break;
  3539     0699  29BF               	goto	l1889
  3540     069A                     l2139:
  3541                           
  3542                           ;main.c: 325: for(k = 0 ; k < 10000 ; k++){
  3543     069A  01DE               	clrf	main@k
  3544     069B  01DF               	clrf	main@k+1
  3545     069C                     l169:
  3546                           
  3547                           ;main.c: 326: RA0 = 1;
  3548     069C  0020               	movlb	0	; select bank0
  3549     069D  140C               	bsf	12,0	;volatile
  3550     069E                     l2145:
  3551                           
  3552                           ;main.c: 327: for(j = 0 ; j < intvl ; j++){
  3553     069E  01E2               	clrf	main@j
  3554     069F  01E3               	clrf	main@j+1
  3555     06A0  2EA7               	goto	l171
  3556     06A1                     l172:
  3557                           
  3558                           ;main.c: 328: _delay((unsigned long)((1)*(4000000/4000000.0)));
  3559     06A1  0000               	nop
  3560     06A2                     l2147:
  3561     06A2  3001               	movlw	1
  3562     06A3  0020               	movlb	0	; select bank0
  3563     06A4  07E2               	addwf	main@j,f
  3564     06A5  3000               	movlw	0
  3565     06A6  3DE3               	addwfc	main@j+1,f
  3566     06A7                     l171:
  3567     06A7  0863               	movf	main@j+1,w
  3568     06A8  3A80               	xorlw	128
  3569     06A9  00A5               	movwf	??_main
  3570     06AA  0861               	movf	main@intvl+1,w
  3571     06AB  3A80               	xorlw	128
  3572     06AC  0225               	subwf	??_main,w
  3573     06AD  1D03               	skipz
  3574     06AE  2EB1               	goto	u1935
  3575     06AF  0860               	movf	main@intvl,w
  3576     06B0  0262               	subwf	main@j,w
  3577     06B1                     u1935:
  3578     06B1  1C03               	skipc
  3579     06B2  2EB4               	goto	u1931
  3580     06B3  2EB5               	goto	u1930
  3581     06B4                     u1931:
  3582     06B4  2EA1               	goto	l172
  3583     06B5                     u1930:
  3584     06B5                     l173:
  3585                           
  3586                           ;main.c: 329: };main.c: 330: RA0 = 0;
  3587     06B5  0020               	movlb	0	; select bank0
  3588     06B6  100C               	bcf	12,0	;volatile
  3589     06B7                     l2149:
  3590                           
  3591                           ;main.c: 331: for(j = 0 ; j < intvl ; j++){
  3592     06B7  01E2               	clrf	main@j
  3593     06B8  01E3               	clrf	main@j+1
  3594     06B9  2EC0               	goto	l174
  3595     06BA                     l175:
  3596                           
  3597                           ;main.c: 332: _delay((unsigned long)((1)*(4000000/4000000.0)));
  3598     06BA  0000               	nop
  3599     06BB                     l2151:
  3600     06BB  3001               	movlw	1
  3601     06BC  0020               	movlb	0	; select bank0
  3602     06BD  07E2               	addwf	main@j,f
  3603     06BE  3000               	movlw	0
  3604     06BF  3DE3               	addwfc	main@j+1,f
  3605     06C0                     l174:
  3606     06C0  0863               	movf	main@j+1,w
  3607     06C1  3A80               	xorlw	128
  3608     06C2  00A5               	movwf	??_main
  3609     06C3  0861               	movf	main@intvl+1,w
  3610     06C4  3A80               	xorlw	128
  3611     06C5  0225               	subwf	??_main,w
  3612     06C6  1D03               	skipz
  3613     06C7  2ECA               	goto	u1945
  3614     06C8  0860               	movf	main@intvl,w
  3615     06C9  0262               	subwf	main@j,w
  3616     06CA                     u1945:
  3617     06CA  1C03               	skipc
  3618     06CB  2ECD               	goto	u1941
  3619     06CC  2ECE               	goto	u1940
  3620     06CD                     u1941:
  3621     06CD  2EBA               	goto	l175
  3622     06CE                     u1940:
  3623     06CE                     l176:
  3624                           
  3625                           ;main.c: 333: };main.c: 335: if(RB0 == 0){
  3626     06CE  0020               	movlb	0	; select bank0
  3627     06CF  180D               	btfsc	13,0	;volatile
  3628     06D0  2ED2               	goto	u1951
  3629     06D1  2ED3               	goto	u1950
  3630     06D2                     u1951:
  3631     06D2  2ED4               	goto	l2155
  3632     06D3                     u1950:
  3633     06D3  2EE5               	goto	l2157
  3634     06D4                     l2155:
  3635     06D4  3001               	movlw	1
  3636     06D5  07DE               	addwf	main@k,f
  3637     06D6  3000               	movlw	0
  3638     06D7  3DDF               	addwfc	main@k+1,f
  3639     06D8  085F               	movf	main@k+1,w
  3640     06D9  3A80               	xorlw	128
  3641     06DA  00A5               	movwf	??_main
  3642     06DB  30A7               	movlw	167
  3643     06DC  0225               	subwf	??_main,w
  3644     06DD  1D03               	skipz
  3645     06DE  2EE1               	goto	u1965
  3646     06DF  3010               	movlw	16
  3647     06E0  025E               	subwf	main@k,w
  3648     06E1                     u1965:
  3649     06E1  1C03               	skipc
  3650     06E2  2EE4               	goto	u1961
  3651     06E3  2EE5               	goto	u1960
  3652     06E4                     u1961:
  3653     06E4  2E9C               	goto	l169
  3654     06E5                     u1960:
  3655     06E5                     l2157:
  3656                           
  3657                           ;main.c: 337: };main.c: 338: };main.c: 340: for(k = 0 ; k < npd ; k++){
  3658     06E5  0020               	movlb	0	; select bank0
  3659     06E6  01DE               	clrf	main@k
  3660     06E7  01DF               	clrf	main@k+1
  3661     06E8  2F20               	goto	l178
  3662     06E9                     l179:
  3663                           
  3664                           ;main.c: 341: RA1 = 1;
  3665     06E9  0020               	movlb	0	; select bank0
  3666     06EA  148C               	bsf	12,1	;volatile
  3667     06EB                     l2159:
  3668                           
  3669                           ;main.c: 342: for(j = 0 ; j < intvl ; j++){
  3670     06EB  01E2               	clrf	main@j
  3671     06EC  01E3               	clrf	main@j+1
  3672     06ED  2EF4               	goto	l180
  3673     06EE                     l181:
  3674                           
  3675                           ;main.c: 343: _delay((unsigned long)((1)*(4000000/4000000.0)));
  3676     06EE  0000               	nop
  3677     06EF                     l2161:
  3678     06EF  3001               	movlw	1
  3679     06F0  0020               	movlb	0	; select bank0
  3680     06F1  07E2               	addwf	main@j,f
  3681     06F2  3000               	movlw	0
  3682     06F3  3DE3               	addwfc	main@j+1,f
  3683     06F4                     l180:
  3684     06F4  0863               	movf	main@j+1,w
  3685     06F5  3A80               	xorlw	128
  3686     06F6  00A5               	movwf	??_main
  3687     06F7  0861               	movf	main@intvl+1,w
  3688     06F8  3A80               	xorlw	128
  3689     06F9  0225               	subwf	??_main,w
  3690     06FA  1D03               	skipz
  3691     06FB  2EFE               	goto	u1975
  3692     06FC  0860               	movf	main@intvl,w
  3693     06FD  0262               	subwf	main@j,w
  3694     06FE                     u1975:
  3695     06FE  1C03               	skipc
  3696     06FF  2F01               	goto	u1971
  3697     0700  2F02               	goto	u1970
  3698     0701                     u1971:
  3699     0701  2EEE               	goto	l181
  3700     0702                     u1970:
  3701     0702                     l182:
  3702                           
  3703                           ;main.c: 344: };main.c: 345: RA1 = 0;
  3704     0702  0020               	movlb	0	; select bank0
  3705     0703  108C               	bcf	12,1	;volatile
  3706     0704                     l2163:
  3707                           
  3708                           ;main.c: 346: for(j = 0 ; j < intvl ; j++){
  3709     0704  01E2               	clrf	main@j
  3710     0705  01E3               	clrf	main@j+1
  3711     0706  2F0D               	goto	l183
  3712     0707                     l184:
  3713                           
  3714                           ;main.c: 347: _delay((unsigned long)((1)*(4000000/4000000.0)));
  3715     0707  0000               	nop
  3716     0708                     l2165:
  3717     0708  3001               	movlw	1
  3718     0709  0020               	movlb	0	; select bank0
  3719     070A  07E2               	addwf	main@j,f
  3720     070B  3000               	movlw	0
  3721     070C  3DE3               	addwfc	main@j+1,f
  3722     070D                     l183:
  3723     070D  0863               	movf	main@j+1,w
  3724     070E  3A80               	xorlw	128
  3725     070F  00A5               	movwf	??_main
  3726     0710  0861               	movf	main@intvl+1,w
  3727     0711  3A80               	xorlw	128
  3728     0712  0225               	subwf	??_main,w
  3729     0713  1D03               	skipz
  3730     0714  2F17               	goto	u1985
  3731     0715  0860               	movf	main@intvl,w
  3732     0716  0262               	subwf	main@j,w
  3733     0717                     u1985:
  3734     0717  1C03               	skipc
  3735     0718  2F1A               	goto	u1981
  3736     0719  2F1B               	goto	u1980
  3737     071A                     u1981:
  3738     071A  2F07               	goto	l184
  3739     071B                     u1980:
  3740     071B                     l2167:
  3741     071B  3001               	movlw	1
  3742     071C  0020               	movlb	0	; select bank0
  3743     071D  07DE               	addwf	main@k,f
  3744     071E  3000               	movlw	0
  3745     071F  3DDF               	addwfc	main@k+1,f
  3746     0720                     l178:
  3747     0720  085F               	movf	main@k+1,w
  3748     0721  3A80               	xorlw	128
  3749     0722  00A5               	movwf	??_main
  3750     0723  0853               	movf	main@npd+1,w
  3751     0724  3A80               	xorlw	128
  3752     0725  0225               	subwf	??_main,w
  3753     0726  1D03               	skipz
  3754     0727  2F2A               	goto	u1995
  3755     0728  0852               	movf	main@npd,w
  3756     0729  025E               	subwf	main@k,w
  3757     072A                     u1995:
  3758     072A  1C03               	skipc
  3759     072B  2F2D               	goto	u1991
  3760     072C  2F2E               	goto	u1990
  3761     072D                     u1991:
  3762     072D  2EE9               	goto	l179
  3763     072E                     u1990:
  3764     072E                     l2169:
  3765                           
  3766                           ;main.c: 348: };main.c: 349: };main.c: 352: printf("C\tNDD\r\n");
  3767     072E  3028               	movlw	low (STR_31| (0+32768))
  3768     072F  00F1               	movwf	printf@f
  3769     0730  3090               	movlw	high (STR_31| (0+32768))
  3770     0731  00F2               	movwf	printf@f+1
  3771     0732  318F  2722  3181   	fcall	_printf
  3772                           
  3773                           ;main.c: 353: break;
  3774     0735  29BF               	goto	l1889
  3775     0736                     l2171:
  3776                           
  3777                           ;main.c: 357: for(k = 0 ; k < nsp ; k++){
  3778     0736  01DE               	clrf	main@k
  3779     0737  01DF               	clrf	main@k+1
  3780     0738  2F70               	goto	l188
  3781     0739                     l189:
  3782                           
  3783                           ;main.c: 358: RA1 = 1;
  3784     0739  0020               	movlb	0	; select bank0
  3785     073A  148C               	bsf	12,1	;volatile
  3786     073B                     l2173:
  3787                           
  3788                           ;main.c: 359: for(j = 0 ; j < intvl ; j++){
  3789     073B  01E2               	clrf	main@j
  3790     073C  01E3               	clrf	main@j+1
  3791     073D  2F44               	goto	l190
  3792     073E                     l191:
  3793                           
  3794                           ;main.c: 360: _delay((unsigned long)((1)*(4000000/4000000.0)));
  3795     073E  0000               	nop
  3796     073F                     l2175:
  3797     073F  3001               	movlw	1
  3798     0740  0020               	movlb	0	; select bank0
  3799     0741  07E2               	addwf	main@j,f
  3800     0742  3000               	movlw	0
  3801     0743  3DE3               	addwfc	main@j+1,f
  3802     0744                     l190:
  3803     0744  0863               	movf	main@j+1,w
  3804     0745  3A80               	xorlw	128
  3805     0746  00A5               	movwf	??_main
  3806     0747  0861               	movf	main@intvl+1,w
  3807     0748  3A80               	xorlw	128
  3808     0749  0225               	subwf	??_main,w
  3809     074A  1D03               	skipz
  3810     074B  2F4E               	goto	u2005
  3811     074C  0860               	movf	main@intvl,w
  3812     074D  0262               	subwf	main@j,w
  3813     074E                     u2005:
  3814     074E  1C03               	skipc
  3815     074F  2F51               	goto	u2001
  3816     0750  2F52               	goto	u2000
  3817     0751                     u2001:
  3818     0751  2F3E               	goto	l191
  3819     0752                     u2000:
  3820     0752                     l192:
  3821                           
  3822                           ;main.c: 361: };main.c: 362: RA1 = 0;
  3823     0752  0020               	movlb	0	; select bank0
  3824     0753  108C               	bcf	12,1	;volatile
  3825     0754                     l2177:
  3826                           
  3827                           ;main.c: 363: for(j = 0 ; j < intvl ; j++){
  3828     0754  01E2               	clrf	main@j
  3829     0755  01E3               	clrf	main@j+1
  3830     0756  2F5D               	goto	l193
  3831     0757                     l194:
  3832                           
  3833                           ;main.c: 364: _delay((unsigned long)((1)*(4000000/4000000.0)));
  3834     0757  0000               	nop
  3835     0758                     l2179:
  3836     0758  3001               	movlw	1
  3837     0759  0020               	movlb	0	; select bank0
  3838     075A  07E2               	addwf	main@j,f
  3839     075B  3000               	movlw	0
  3840     075C  3DE3               	addwfc	main@j+1,f
  3841     075D                     l193:
  3842     075D  0863               	movf	main@j+1,w
  3843     075E  3A80               	xorlw	128
  3844     075F  00A5               	movwf	??_main
  3845     0760  0861               	movf	main@intvl+1,w
  3846     0761  3A80               	xorlw	128
  3847     0762  0225               	subwf	??_main,w
  3848     0763  1D03               	skipz
  3849     0764  2F67               	goto	u2015
  3850     0765  0860               	movf	main@intvl,w
  3851     0766  0262               	subwf	main@j,w
  3852     0767                     u2015:
  3853     0767  1C03               	skipc
  3854     0768  2F6A               	goto	u2011
  3855     0769  2F6B               	goto	u2010
  3856     076A                     u2011:
  3857     076A  2F57               	goto	l194
  3858     076B                     u2010:
  3859     076B                     l2181:
  3860     076B  3001               	movlw	1
  3861     076C  0020               	movlb	0	; select bank0
  3862     076D  07DE               	addwf	main@k,f
  3863     076E  3000               	movlw	0
  3864     076F  3DDF               	addwfc	main@k+1,f
  3865     0770                     l188:
  3866     0770  085F               	movf	main@k+1,w
  3867     0771  3A80               	xorlw	128
  3868     0772  00A5               	movwf	??_main
  3869     0773  0855               	movf	main@nsp+1,w
  3870     0774  3A80               	xorlw	128
  3871     0775  0225               	subwf	??_main,w
  3872     0776  1D03               	skipz
  3873     0777  2F7A               	goto	u2025
  3874     0778  0854               	movf	main@nsp,w
  3875     0779  025E               	subwf	main@k,w
  3876     077A                     u2025:
  3877     077A  1C03               	skipc
  3878     077B  2F7D               	goto	u2021
  3879     077C  2F7E               	goto	u2020
  3880     077D                     u2021:
  3881     077D  2F39               	goto	l189
  3882     077E                     u2020:
  3883     077E                     l2183:
  3884                           
  3885                           ;main.c: 365: };main.c: 366: };main.c: 369: printf("C\tNSD\r\n");
  3886     077E  3038               	movlw	low (STR_32| (0+32768))
  3887     077F  00F1               	movwf	printf@f
  3888     0780  3090               	movlw	high (STR_32| (0+32768))
  3889     0781  00F2               	movwf	printf@f+1
  3890     0782  318F  2722  3181   	fcall	_printf
  3891                           
  3892                           ;main.c: 370: break;
  3893     0785  29BF               	goto	l1889
  3894     0786                     l2185:
  3895                           
  3896                           ;main.c: 373: ptr = strtok((0), "/");
  3897     0786  308C               	movlw	low (STR_12| (0+32768))
  3898     0787  00A0               	movwf	strtok@s2
  3899     0788  3090               	movlw	high (STR_12| (0+32768))
  3900     0789  00A1               	movwf	strtok@s2+1
  3901     078A  0103               	clrw
  3902     078B  3180  201C  3181   	fcall	_strtok
  3903     078E  0020               	movlb	0	; select bank0
  3904     078F  00DD               	movwf	main@ptr
  3905     0790                     l2187:
  3906                           
  3907                           ;main.c: 374: if(ptr != (0)) {
  3908     0790  085D               	movf	main@ptr,w
  3909     0791  1903               	btfsc	3,2
  3910     0792  2F94               	goto	u2031
  3911     0793  2F95               	goto	u2030
  3912     0794                     u2031:
  3913     0794  2F9E               	goto	l2191
  3914     0795                     u2030:
  3915     0795                     l2189:
  3916                           
  3917                           ;main.c: 375: npd = atoi(ptr);
  3918     0795  085D               	movf	main@ptr,w
  3919     0796  3181  211E  3181   	fcall	_atoi
  3920     0799  0877               	movf	?_atoi+1,w
  3921     079A  0020               	movlb	0	; select bank0
  3922     079B  00D3               	movwf	main@npd+1
  3923     079C  0876               	movf	?_atoi,w
  3924     079D  00D2               	movwf	main@npd
  3925     079E                     l2191:
  3926                           
  3927                           ;main.c: 376: };main.c: 377: printf("C\tNPD\r\n");
  3928     079E  3030               	movlw	low (STR_34| (0+32768))
  3929     079F  00F1               	movwf	printf@f
  3930     07A0  3090               	movlw	high (STR_34| (0+32768))
  3931     07A1  00F2               	movwf	printf@f+1
  3932     07A2  318F  2722  3181   	fcall	_printf
  3933                           
  3934                           ;main.c: 378: break;
  3935     07A5  29BF               	goto	l1889
  3936     07A6                     l2193:
  3937                           
  3938                           ;main.c: 381: ptr = strtok((0), "/");
  3939     07A6  308C               	movlw	low (STR_12| (0+32768))
  3940     07A7  00A0               	movwf	strtok@s2
  3941     07A8  3090               	movlw	high (STR_12| (0+32768))
  3942     07A9  00A1               	movwf	strtok@s2+1
  3943     07AA  0103               	clrw
  3944     07AB  3180  201C  3181   	fcall	_strtok
  3945     07AE  0020               	movlb	0	; select bank0
  3946     07AF  00DD               	movwf	main@ptr
  3947     07B0                     l2195:
  3948                           
  3949                           ;main.c: 382: if(ptr != (0)) {
  3950     07B0  085D               	movf	main@ptr,w
  3951     07B1  1903               	btfsc	3,2
  3952     07B2  2FB4               	goto	u2041
  3953     07B3  2FB5               	goto	u2040
  3954     07B4                     u2041:
  3955     07B4  2FBE               	goto	l2199
  3956     07B5                     u2040:
  3957     07B5                     l2197:
  3958                           
  3959                           ;main.c: 383: nsp = atoi(ptr);
  3960     07B5  085D               	movf	main@ptr,w
  3961     07B6  3181  211E  3181   	fcall	_atoi
  3962     07B9  0877               	movf	?_atoi+1,w
  3963     07BA  0020               	movlb	0	; select bank0
  3964     07BB  00D5               	movwf	main@nsp+1
  3965     07BC  0876               	movf	?_atoi,w
  3966     07BD  00D4               	movwf	main@nsp
  3967     07BE                     l2199:
  3968                           
  3969                           ;main.c: 384: };main.c: 385: printf("C\tNSP\r\n");
  3970     07BE  3050               	movlw	low (STR_36| (0+32768))
  3971     07BF  00F1               	movwf	printf@f
  3972     07C0  3090               	movlw	high (STR_36| (0+32768))
  3973     07C1  00F2               	movwf	printf@f+1
  3974     07C2  318F  2722  3181   	fcall	_printf
  3975                           
  3976                           ;main.c: 386: break;
  3977     07C5  29BF               	goto	l1889
  3978     07C6                     l2201:
  3979                           
  3980                           ;main.c: 389: printf("C\tREADY\r\n");
  3981     07C6  300E               	movlw	low (STR_37| (0+32768))
  3982     07C7  00F1               	movwf	printf@f
  3983     07C8  3090               	movlw	high (STR_37| (0+32768))
  3984     07C9  00F2               	movwf	printf@f+1
  3985     07CA  318F  2722  3181   	fcall	_printf
  3986                           
  3987                           ;main.c: 390: break;
  3988     07CD  29BF               	goto	l1889
  3989     07CE                     l2203:
  3990                           
  3991                           ;main.c: 393: printf("C\tVERSION 2\r\n");
  3992     07CE  3000               	movlw	low (STR_38| (0+32768))
  3993     07CF  00F1               	movwf	printf@f
  3994     07D0  3090               	movlw	high (STR_38| (0+32768))
  3995     07D1  00F2               	movwf	printf@f+1
  3996     07D2  318F  2722  3181   	fcall	_printf
  3997                           
  3998                           ;main.c: 394: break;
  3999     07D5  29BF               	goto	l1889
  4000     07D6                     l2207:
  4001     07D6  0856               	movf	main@cmd,w
  4002                           
  4003                           ; Switch size 1, requested type "simple"
  4004                           ; Number of cases is 11, Range of values is 0 to 10
  4005                           ; switch strategies available:
  4006                           ; Name         Instructions Cycles
  4007                           ; direct_byte           28     6 (fixed)
  4008                           ; simple_byte           34    18 (average)
  4009                           ; jumptable            260     6 (fixed)
  4010                           ;	Chosen strategy is simple_byte
  4011     07D7  3A00               	xorlw	0	; case 0
  4012     07D8  1903               	skipnz
  4013     07D9  2AC7               	goto	l1973
  4014     07DA  3A01               	xorlw	1	; case 1
  4015     07DB  1903               	skipnz
  4016     07DC  2BB5               	goto	l2009
  4017     07DD  3A03               	xorlw	3	; case 2
  4018     07DE  1903               	skipnz
  4019     07DF  2C03               	goto	l2023
  4020     07E0  3A01               	xorlw	1	; case 3
  4021     07E1  1903               	skipnz
  4022     07E2  2D8D               	goto	l2083
  4023     07E3  3A07               	xorlw	7	; case 4
  4024     07E4  1903               	skipnz
  4025     07E5  2DE6               	goto	l2101
  4026     07E6  3A01               	xorlw	1	; case 5
  4027     07E7  1903               	skipnz
  4028     07E8  2E9A               	goto	l2139
  4029     07E9  3A03               	xorlw	3	; case 6
  4030     07EA  1903               	skipnz
  4031     07EB  2F86               	goto	l2185
  4032     07EC  3A01               	xorlw	1	; case 7
  4033     07ED  1903               	skipnz
  4034     07EE  2FA6               	goto	l2193
  4035     07EF  3A0F               	xorlw	15	; case 8
  4036     07F0  1903               	skipnz
  4037     07F1  2F36               	goto	l2171
  4038     07F2  3A01               	xorlw	1	; case 9
  4039     07F3  1903               	skipnz
  4040     07F4  2FCE               	goto	l2203
  4041     07F5  3A03               	xorlw	3	; case 10
  4042     07F6  1903               	skipnz
  4043     07F7  2FC6               	goto	l2201
  4044     07F8  29BF               	goto	l1889
  4045     07F9  3180  2802         	ljmp	start
  4046     07FB                     __end_of_main:
  4047                           
  4048                           	psect	text1
  4049     001C                     __ptext1:	
  4050 ;; *************** function _strtok *****************
  4051 ;; Defined at:
  4052 ;;		line 8 in file "C:\Program Files\Microchip\xc8\v2.41\pic\sources\c90\common\strtok.c"
  4053 ;; Parameters:    Size  Location     Type
  4054 ;;  s1              1    wreg     PTR unsigned char 
  4055 ;;		 -> NULL(0), main@tmp(40), 
  4056 ;;  s2              2    0[BANK0 ] PTR const unsigned char 
  4057 ;;		 -> STR_35(2), STR_33(2), STR_29(2), STR_26(2), 
  4058 ;;		 -> STR_25(2), STR_24(2), STR_23(2), STR_22(2), 
  4059 ;;		 -> STR_20(2), STR_19(2), STR_18(2), STR_16(2), 
  4060 ;;		 -> STR_15(2), STR_14(2), STR_13(2), STR_12(2), 
  4061 ;; Auto vars:     Size  Location     Type
  4062 ;;  s1              1    4[BANK0 ] PTR unsigned char 
  4063 ;;		 -> NULL(0), main@tmp(40), 
  4064 ;; Return value:  Size  Location     Type
  4065 ;;                  1    wreg      PTR unsigned char 
  4066 ;; Registers used:
  4067 ;;		wreg, fsr0l, fsr0h, fsr1l, fsr1h, status,2, status,0, pclath, cstack
  4068 ;; Tracked objects:
  4069 ;;		On entry : 0/0
  4070 ;;		On exit  : 0/0
  4071 ;;		Unchanged: 0/0
  4072 ;; Data sizes:     COMMON   BANK0   BANK1   BANK2   BANK3   BANK4   BANK5   BANK6   BANK7   BANK8   BANK9  BANK10  BANK1
      +1  BANK12  BANK13  BANK14  BANK15  BANK16  BANK17  BANK18  BANK19  BANK20  BANK21  BANK22  BANK23  BANK24  BANK25
  4073 ;;      Params:         0       2       0       0       0       0       0       0       0       0       0       0       
      +0       0       0       0       0       0       0       0       0       0       0       0       0       0       0
  4074 ;;      Locals:         0       1       0       0       0       0       0       0       0       0       0       0       
      +0       0       0       0       0       0       0       0       0       0       0       0       0       0       0
  4075 ;;      Temps:          0       2       0       0       0       0       0       0       0       0       0       0       
      +0       0       0       0       0       0       0       0       0       0       0       0       0       0       0
  4076 ;;      Totals:         0       5       0       0       0       0       0       0       0       0       0       0       
      +0       0       0       0       0       0       0       0       0       0       0       0       0       0       0
  4077 ;;Total ram usage:        5 bytes
  4078 ;; Hardware stack levels used: 1
  4079 ;; Hardware stack levels required when called: 2
  4080 ;; This function calls:
  4081 ;;		_strcspn
  4082 ;;		_strspn
  4083 ;; This function is called by:
  4084 ;;		_main
  4085 ;; This function uses a non-reentrant model
  4086 ;;
  4087                           
  4088     001C                     _strtok:	
  4089                           ;psect for function _strtok
  4090                           
  4091                           
  4092                           ;incstack = 0
  4093                           ; Regs used in _strtok: [wreg-fsr1h+status,2+status,0+pclath+cstack]
  4094                           ;strtok@s1 stored from wreg
  4095     001C  0020               	movlb	0	; select bank0
  4096     001D  00A4               	movwf	strtok@s1
  4097     001E                     l1743:
  4098     001E  0824               	movf	strtok@s1,w
  4099     001F  1D03               	btfss	3,2
  4100     0020  2822               	goto	u1211
  4101     0021  2823               	goto	u1210
  4102     0022                     u1211:
  4103     0022  2825               	goto	l1747
  4104     0023                     u1210:
  4105     0023                     l1745:
  4106     0023  0864               	movf	strtok@sp,w
  4107     0024  00A4               	movwf	strtok@s1
  4108     0025                     l1747:
  4109     0025  0824               	movf	strtok@s1,w
  4110     0026  1D03               	btfss	3,2
  4111     0027  2829               	goto	u1221
  4112     0028  282A               	goto	u1220
  4113     0029                     u1221:
  4114     0029  282C               	goto	l1753
  4115     002A                     u1220:
  4116     002A                     l1749:
  4117     002A  3000               	movlw	0
  4118     002B  2867               	goto	l910
  4119     002C                     l1753:
  4120     002C  0821               	movf	strtok@s2+1,w
  4121     002D  00F8               	movwf	strspn@s2+1
  4122     002E  0820               	movf	strtok@s2,w
  4123     002F  00F7               	movwf	strspn@s2
  4124     0030  0824               	movf	strtok@s1,w
  4125     0031  318F  27D0  3180   	fcall	_strspn
  4126     0034  0877               	movf	?_strspn,w
  4127     0035  0020               	movlb	0	; select bank0
  4128     0036  00A2               	movwf	??_strtok
  4129     0037  0822               	movf	??_strtok,w
  4130     0038  07A4               	addwf	strtok@s1,f
  4131     0039                     l1755:
  4132     0039  0824               	movf	strtok@s1,w
  4133     003A  0086               	movwf	6
  4134     003B  0187               	clrf	7
  4135     003C  0801               	movf	1,w
  4136     003D  1D03               	btfss	3,2
  4137     003E  2840               	goto	u1231
  4138     003F  2841               	goto	u1230
  4139     0040                     u1231:
  4140     0040  2844               	goto	l1761
  4141     0041                     u1230:
  4142     0041                     l1757:
  4143     0041  01E4               	clrf	strtok@sp
  4144     0042  3000               	movlw	0
  4145     0043  2867               	goto	l910
  4146     0044                     l1761:
  4147     0044  0821               	movf	strtok@s2+1,w
  4148     0045  00F8               	movwf	strcspn@s2+1
  4149     0046  0820               	movf	strtok@s2,w
  4150     0047  00F7               	movwf	strcspn@s2
  4151     0048  0824               	movf	strtok@s1,w
  4152     0049  318F  27A0  3180   	fcall	_strcspn
  4153     004C  0877               	movf	?_strcspn,w
  4154     004D  0020               	movlb	0	; select bank0
  4155     004E  00A2               	movwf	??_strtok
  4156     004F  0878               	movf	?_strcspn+1,w
  4157     0050  00A3               	movwf	??_strtok+1
  4158     0051  0824               	movf	strtok@s1,w
  4159     0052  0722               	addwf	??_strtok,w
  4160     0053  00E4               	movwf	strtok@sp
  4161     0054                     l1763:
  4162     0054  0864               	movf	strtok@sp,w
  4163     0055  0086               	movwf	6
  4164     0056  0187               	clrf	7
  4165     0057  0801               	movf	1,w
  4166     0058  1903               	btfsc	3,2
  4167     0059  285B               	goto	u1241
  4168     005A  285C               	goto	u1240
  4169     005B                     u1241:
  4170     005B  2865               	goto	l1769
  4171     005C                     u1240:
  4172     005C                     l1765:
  4173     005C  0864               	movf	strtok@sp,w
  4174     005D  0086               	movwf	6
  4175     005E  0187               	clrf	7
  4176     005F  0181               	clrf	1
  4177     0060                     l1767:
  4178     0060  3001               	movlw	1
  4179     0061  00A2               	movwf	??_strtok
  4180     0062  0822               	movf	??_strtok,w
  4181     0063  07E4               	addwf	strtok@sp,f
  4182     0064  2866               	goto	l1771
  4183     0065                     l1769:
  4184     0065  01E4               	clrf	strtok@sp
  4185     0066                     l1771:
  4186     0066  0824               	movf	strtok@s1,w
  4187     0067                     l910:
  4188     0067  0008               	return
  4189     0068                     __end_of_strtok:
  4190                           
  4191                           	psect	text2
  4192     0FD0                     __ptext2:	
  4193 ;; *************** function _strspn *****************
  4194 ;; Defined at:
  4195 ;;		line 4 in file "C:\Program Files\Microchip\xc8\v2.41\pic\sources\c90\common\strspn.c"
  4196 ;; Parameters:    Size  Location     Type
  4197 ;;  s1              1    wreg     PTR const unsigned char 
  4198 ;;		 -> NULL(0), main@tmp(40), 
  4199 ;;  s2              2    7[COMMON] PTR const unsigned char 
  4200 ;;		 -> STR_35(2), STR_33(2), STR_29(2), STR_26(2), 
  4201 ;;		 -> STR_25(2), STR_24(2), STR_23(2), STR_22(2), 
  4202 ;;		 -> STR_20(2), STR_19(2), STR_18(2), STR_16(2), 
  4203 ;;		 -> STR_15(2), STR_14(2), STR_13(2), STR_12(2), 
  4204 ;; Auto vars:     Size  Location     Type
  4205 ;;  s1              1   13[COMMON] PTR const unsigned char 
  4206 ;;		 -> NULL(0), main@tmp(40), 
  4207 ;;  i               2   11[COMMON] unsigned int 
  4208 ;; Return value:  Size  Location     Type
  4209 ;;                  2    7[COMMON] unsigned int 
  4210 ;; Registers used:
  4211 ;;		wreg, fsr0l, fsr0h, fsr1l, fsr1h, status,2, status,0, pclath, cstack
  4212 ;; Tracked objects:
  4213 ;;		On entry : 0/0
  4214 ;;		On exit  : 0/0
  4215 ;;		Unchanged: 0/0
  4216 ;; Data sizes:     COMMON   BANK0   BANK1   BANK2   BANK3   BANK4   BANK5   BANK6   BANK7   BANK8   BANK9  BANK10  BANK1
      +1  BANK12  BANK13  BANK14  BANK15  BANK16  BANK17  BANK18  BANK19  BANK20  BANK21  BANK22  BANK23  BANK24  BANK25
  4217 ;;      Params:         2       0       0       0       0       0       0       0       0       0       0       0       
      +0       0       0       0       0       0       0       0       0       0       0       0       0       0       0
  4218 ;;      Locals:         3       0       0       0       0       0       0       0       0       0       0       0       
      +0       0       0       0       0       0       0       0       0       0       0       0       0       0       0
  4219 ;;      Temps:          2       0       0       0       0       0       0       0       0       0       0       0       
      +0       0       0       0       0       0       0       0       0       0       0       0       0       0       0
  4220 ;;      Totals:         7       0       0       0       0       0       0       0       0       0       0       0       
      +0       0       0       0       0       0       0       0       0       0       0       0       0       0       0
  4221 ;;Total ram usage:        7 bytes
  4222 ;; Hardware stack levels used: 1
  4223 ;; Hardware stack levels required when called: 1
  4224 ;; This function calls:
  4225 ;;		_strchr
  4226 ;; This function is called by:
  4227 ;;		_strtok
  4228 ;; This function uses a non-reentrant model
  4229 ;;
  4230                           
  4231     0FD0                     _strspn:	
  4232                           ;psect for function _strspn
  4233                           
  4234                           
  4235                           ;incstack = 0
  4236                           ; Regs used in _strspn: [wreg-fsr1h+status,2+status,0+pclath+cstack]
  4237                           ;strspn@s1 stored from wreg
  4238     0FD0  00FD               	movwf	strspn@s1
  4239     0FD1                     l1701:
  4240     0FD1  01FB               	clrf	strspn@i
  4241     0FD2  01FC               	clrf	strspn@i+1
  4242     0FD3  2FDC               	goto	l1705
  4243     0FD4                     l1703:
  4244     0FD4  3001               	movlw	1
  4245     0FD5  00F9               	movwf	??_strspn
  4246     0FD6  0879               	movf	??_strspn,w
  4247     0FD7  07FD               	addwf	strspn@s1,f
  4248     0FD8  3001               	movlw	1
  4249     0FD9  07FB               	addwf	strspn@i,f
  4250     0FDA  3000               	movlw	0
  4251     0FDB  3DFC               	addwfc	strspn@i+1,f
  4252     0FDC                     l1705:
  4253     0FDC  087D               	movf	strspn@s1,w
  4254     0FDD  0086               	movwf	6
  4255     0FDE  0187               	clrf	7
  4256     0FDF  0801               	movf	1,w
  4257     0FE0  1903               	btfsc	3,2
  4258     0FE1  2FE3               	goto	u1151
  4259     0FE2  2FE4               	goto	u1150
  4260     0FE3                     u1151:
  4261     0FE3  2FFB               	goto	l1709
  4262     0FE4                     u1150:
  4263     0FE4                     l1707:
  4264     0FE4  0878               	movf	strspn@s2+1,w
  4265     0FE5  00F1               	movwf	strchr@ptr+1
  4266     0FE6  0877               	movf	strspn@s2,w
  4267     0FE7  00F0               	movwf	strchr@ptr
  4268     0FE8  087D               	movf	strspn@s1,w
  4269     0FE9  0086               	movwf	6
  4270     0FEA  0187               	clrf	7
  4271     0FEB  0801               	movf	1,w
  4272     0FEC  00F9               	movwf	??_strspn
  4273     0FED  01FA               	clrf	??_strspn+1
  4274     0FEE  0879               	movf	??_strspn,w
  4275     0FEF  00F2               	movwf	strchr@chr
  4276     0FF0  087A               	movf	??_strspn+1,w
  4277     0FF1  00F3               	movwf	strchr@chr+1
  4278     0FF2  318F  273C  318F   	fcall	_strchr
  4279     0FF5  0870               	movf	?_strchr,w
  4280     0FF6  0471               	iorwf	?_strchr+1,w
  4281     0FF7  1D03               	btfss	3,2
  4282     0FF8  2FFA               	goto	u1161
  4283     0FF9  2FFB               	goto	u1160
  4284     0FFA                     u1161:
  4285     0FFA  2FD4               	goto	l1703
  4286     0FFB                     u1160:
  4287     0FFB                     l1709:
  4288     0FFB  087C               	movf	strspn@i+1,w
  4289     0FFC  00F8               	movwf	?_strspn+1
  4290     0FFD  087B               	movf	strspn@i,w
  4291     0FFE  00F7               	movwf	?_strspn
  4292     0FFF                     l939:
  4293     0FFF  0008               	return
  4294     1000                     __end_of_strspn:
  4295                           
  4296                           	psect	text3
  4297     0FA0                     __ptext3:	
  4298 ;; *************** function _strcspn *****************
  4299 ;; Defined at:
  4300 ;;		line 4 in file "C:\Program Files\Microchip\xc8\v2.41\pic\sources\c90\common\strcspn.c"
  4301 ;; Parameters:    Size  Location     Type
  4302 ;;  s1              1    wreg     PTR const unsigned char 
  4303 ;;		 -> NULL(0), main@tmp(40), 
  4304 ;;  s2              2    7[COMMON] PTR const unsigned char 
  4305 ;;		 -> STR_35(2), STR_33(2), STR_29(2), STR_26(2), 
  4306 ;;		 -> STR_25(2), STR_24(2), STR_23(2), STR_22(2), 
  4307 ;;		 -> STR_20(2), STR_19(2), STR_18(2), STR_16(2), 
  4308 ;;		 -> STR_15(2), STR_14(2), STR_13(2), STR_12(2), 
  4309 ;; Auto vars:     Size  Location     Type
  4310 ;;  s1              1   13[COMMON] PTR const unsigned char 
  4311 ;;		 -> NULL(0), main@tmp(40), 
  4312 ;;  i               2   11[COMMON] unsigned int 
  4313 ;; Return value:  Size  Location     Type
  4314 ;;                  2    7[COMMON] unsigned int 
  4315 ;; Registers used:
  4316 ;;		wreg, fsr0l, fsr0h, fsr1l, fsr1h, status,2, status,0, pclath, cstack
  4317 ;; Tracked objects:
  4318 ;;		On entry : 0/0
  4319 ;;		On exit  : 0/0
  4320 ;;		Unchanged: 0/0
  4321 ;; Data sizes:     COMMON   BANK0   BANK1   BANK2   BANK3   BANK4   BANK5   BANK6   BANK7   BANK8   BANK9  BANK10  BANK1
      +1  BANK12  BANK13  BANK14  BANK15  BANK16  BANK17  BANK18  BANK19  BANK20  BANK21  BANK22  BANK23  BANK24  BANK25
  4322 ;;      Params:         2       0       0       0       0       0       0       0       0       0       0       0       
      +0       0       0       0       0       0       0       0       0       0       0       0       0       0       0
  4323 ;;      Locals:         3       0       0       0       0       0       0       0       0       0       0       0       
      +0       0       0       0       0       0       0       0       0       0       0       0       0       0       0
  4324 ;;      Temps:          2       0       0       0       0       0       0       0       0       0       0       0       
      +0       0       0       0       0       0       0       0       0       0       0       0       0       0       0
  4325 ;;      Totals:         7       0       0       0       0       0       0       0       0       0       0       0       
      +0       0       0       0       0       0       0       0       0       0       0       0       0       0       0
  4326 ;;Total ram usage:        7 bytes
  4327 ;; Hardware stack levels used: 1
  4328 ;; Hardware stack levels required when called: 1
  4329 ;; This function calls:
  4330 ;;		_strchr
  4331 ;; This function is called by:
  4332 ;;		_strtok
  4333 ;; This function uses a non-reentrant model
  4334 ;;
  4335                           
  4336     0FA0                     _strcspn:	
  4337                           ;psect for function _strcspn
  4338                           
  4339                           
  4340                           ;incstack = 0
  4341                           ; Regs used in _strcspn: [wreg-fsr1h+status,2+status,0+pclath+cstack]
  4342                           ;strcspn@s1 stored from wreg
  4343     0FA0  00FD               	movwf	strcspn@s1
  4344     0FA1                     l1713:
  4345     0FA1  01FB               	clrf	strcspn@i
  4346     0FA2  01FC               	clrf	strcspn@i+1
  4347     0FA3  2FAC               	goto	l1717
  4348     0FA4                     l1715:
  4349     0FA4  3001               	movlw	1
  4350     0FA5  00F9               	movwf	??_strcspn
  4351     0FA6  0879               	movf	??_strcspn,w
  4352     0FA7  07FD               	addwf	strcspn@s1,f
  4353     0FA8  3001               	movlw	1
  4354     0FA9  07FB               	addwf	strcspn@i,f
  4355     0FAA  3000               	movlw	0
  4356     0FAB  3DFC               	addwfc	strcspn@i+1,f
  4357     0FAC                     l1717:
  4358     0FAC  087D               	movf	strcspn@s1,w
  4359     0FAD  0086               	movwf	6
  4360     0FAE  0187               	clrf	7
  4361     0FAF  0801               	movf	1,w
  4362     0FB0  1903               	btfsc	3,2
  4363     0FB1  2FB3               	goto	u1171
  4364     0FB2  2FB4               	goto	u1170
  4365     0FB3                     u1171:
  4366     0FB3  2FCB               	goto	l1721
  4367     0FB4                     u1170:
  4368     0FB4                     l1719:
  4369     0FB4  0878               	movf	strcspn@s2+1,w
  4370     0FB5  00F1               	movwf	strchr@ptr+1
  4371     0FB6  0877               	movf	strcspn@s2,w
  4372     0FB7  00F0               	movwf	strchr@ptr
  4373     0FB8  087D               	movf	strcspn@s1,w
  4374     0FB9  0086               	movwf	6
  4375     0FBA  0187               	clrf	7
  4376     0FBB  0801               	movf	1,w
  4377     0FBC  00F9               	movwf	??_strcspn
  4378     0FBD  01FA               	clrf	??_strcspn+1
  4379     0FBE  0879               	movf	??_strcspn,w
  4380     0FBF  00F2               	movwf	strchr@chr
  4381     0FC0  087A               	movf	??_strcspn+1,w
  4382     0FC1  00F3               	movwf	strchr@chr+1
  4383     0FC2  318F  273C  318F   	fcall	_strchr
  4384     0FC5  0870               	movf	?_strchr,w
  4385     0FC6  0471               	iorwf	?_strchr+1,w
  4386     0FC7  1903               	btfsc	3,2
  4387     0FC8  2FCA               	goto	u1181
  4388     0FC9  2FCB               	goto	u1180
  4389     0FCA                     u1181:
  4390     0FCA  2FA4               	goto	l1715
  4391     0FCB                     u1180:
  4392     0FCB                     l1721:
  4393     0FCB  087C               	movf	strcspn@i+1,w
  4394     0FCC  00F8               	movwf	?_strcspn+1
  4395     0FCD  087B               	movf	strcspn@i,w
  4396     0FCE  00F7               	movwf	?_strcspn
  4397     0FCF                     l923:
  4398     0FCF  0008               	return
  4399     0FD0                     __end_of_strcspn:
  4400                           
  4401                           	psect	text4
  4402     0F3C                     __ptext4:	
  4403 ;; *************** function _strchr *****************
  4404 ;; Defined at:
  4405 ;;		line 4 in file "C:\Program Files\Microchip\xc8\v2.41\pic\sources\c90\common\strchr.c"
  4406 ;; Parameters:    Size  Location     Type
  4407 ;;  ptr             2    0[COMMON] PTR const unsigned char 
  4408 ;;		 -> STR_35(2), STR_33(2), STR_29(2), STR_26(2), 
  4409 ;;		 -> STR_25(2), STR_24(2), STR_23(2), STR_22(2), 
  4410 ;;		 -> STR_20(2), STR_19(2), STR_18(2), STR_16(2), 
  4411 ;;		 -> STR_15(2), STR_14(2), STR_13(2), STR_12(2), 
  4412 ;;  chr             2    2[COMMON] int 
  4413 ;; Auto vars:     Size  Location     Type
  4414 ;;		None
  4415 ;; Return value:  Size  Location     Type
  4416 ;;                  2    0[COMMON] PTR unsigned char 
  4417 ;; Registers used:
  4418 ;;		wreg, fsr0l, fsr0h, status,2, status,0, pclath
  4419 ;; Tracked objects:
  4420 ;;		On entry : 0/0
  4421 ;;		On exit  : 0/0
  4422 ;;		Unchanged: 0/0
  4423 ;; Data sizes:     COMMON   BANK0   BANK1   BANK2   BANK3   BANK4   BANK5   BANK6   BANK7   BANK8   BANK9  BANK10  BANK1
      +1  BANK12  BANK13  BANK14  BANK15  BANK16  BANK17  BANK18  BANK19  BANK20  BANK21  BANK22  BANK23  BANK24  BANK25
  4424 ;;      Params:         4       0       0       0       0       0       0       0       0       0       0       0       
      +0       0       0       0       0       0       0       0       0       0       0       0       0       0       0
  4425 ;;      Locals:         0       0       0       0       0       0       0       0       0       0       0       0       
      +0       0       0       0       0       0       0       0       0       0       0       0       0       0       0
  4426 ;;      Temps:          3       0       0       0       0       0       0       0       0       0       0       0       
      +0       0       0       0       0       0       0       0       0       0       0       0       0       0       0
  4427 ;;      Totals:         7       0       0       0       0       0       0       0       0       0       0       0       
      +0       0       0       0       0       0       0       0       0       0       0       0       0       0       0
  4428 ;;Total ram usage:        7 bytes
  4429 ;; Hardware stack levels used: 1
  4430 ;; This function calls:
  4431 ;;		Nothing
  4432 ;; This function is called by:
  4433 ;;		_strcspn
  4434 ;;		_strspn
  4435 ;; This function uses a non-reentrant model
  4436 ;;
  4437                           
  4438     0F3C                     _strchr:	
  4439                           ;psect for function _strchr
  4440                           
  4441     0F3C                     l926:	
  4442                           ;incstack = 0
  4443                           ; Regs used in _strchr: [wreg-fsr0h+status,2+status,0+pclath]
  4444                           
  4445     0F3C                     l1631:
  4446     0F3C  0870               	movf	strchr@ptr,w
  4447     0F3D  0084               	movwf	4
  4448     0F3E  0871               	movf	strchr@ptr+1,w
  4449     0F3F  0085               	movwf	5
  4450     0F40  0800               	movf	0,w	;code access
  4451     0F41  0672               	xorwf	strchr@chr,w
  4452     0F42  1D03               	skipz
  4453     0F43  2F45               	goto	u1051
  4454     0F44  2F46               	goto	u1050
  4455     0F45                     u1051:
  4456     0F45  2F47               	goto	l1635
  4457     0F46                     u1050:
  4458     0F46                     l1633:
  4459     0F46  2F59               	goto	l928
  4460     0F47                     l1635:
  4461     0F47  0871               	movf	strchr@ptr+1,w
  4462     0F48  00F5               	movwf	??_strchr+1
  4463     0F49  0870               	movf	strchr@ptr,w
  4464     0F4A  00F4               	movwf	??_strchr
  4465     0F4B  0AF0               	incf	strchr@ptr,f
  4466     0F4C  1903               	skipnz
  4467     0F4D  0AF1               	incf	strchr@ptr+1,f
  4468     0F4E  0874               	movf	??_strchr,w
  4469     0F4F  0084               	movwf	4
  4470     0F50  0875               	movf	??_strchr+1,w
  4471     0F51  0085               	movwf	5
  4472     0F52  0012               	moviw fsr0++
  4473     0F53  1D03               	btfss	3,2
  4474     0F54  2F56               	goto	u1061
  4475     0F55  2F57               	goto	u1060
  4476     0F56                     u1061:
  4477     0F56  2F3C               	goto	l926
  4478     0F57                     u1060:
  4479     0F57                     l1637:
  4480     0F57  01F0               	clrf	?_strchr
  4481     0F58  01F1               	clrf	?_strchr+1
  4482     0F59                     l928:
  4483     0F59  0008               	return
  4484     0F5A                     __end_of_strchr:
  4485                           
  4486                           	psect	text5
  4487     0F79                     __ptext5:	
  4488 ;; *************** function _strcmp *****************
  4489 ;; Defined at:
  4490 ;;		line 33 in file "C:\Program Files\Microchip\xc8\v2.41\pic\sources\c90\common\strcmp.c"
  4491 ;; Parameters:    Size  Location     Type
  4492 ;;  s1              1    wreg     PTR const unsigned char 
  4493 ;;		 -> main@rcmd(4), 
  4494 ;;  s2              2    0[COMMON] PTR const unsigned char 
  4495 ;;		 -> STR_11(4), STR_10(4), STR_9(4), STR_8(4), 
  4496 ;;		 -> STR_7(4), STR_6(4), STR_5(4), STR_4(4), 
  4497 ;;		 -> STR_3(4), STR_2(4), STR_1(4), 
  4498 ;; Auto vars:     Size  Location     Type
  4499 ;;  s1              1    4[COMMON] PTR const unsigned char 
  4500 ;;		 -> main@rcmd(4), 
  4501 ;;  r               1    3[COMMON] char 
  4502 ;; Return value:  Size  Location     Type
  4503 ;;                  2    0[COMMON] int 
  4504 ;; Registers used:
  4505 ;;		wreg, fsr0l, fsr0h, fsr1l, fsr1h, status,2, status,0, pclath
  4506 ;; Tracked objects:
  4507 ;;		On entry : 0/0
  4508 ;;		On exit  : 0/0
  4509 ;;		Unchanged: 0/0
  4510 ;; Data sizes:     COMMON   BANK0   BANK1   BANK2   BANK3   BANK4   BANK5   BANK6   BANK7   BANK8   BANK9  BANK10  BANK1
      +1  BANK12  BANK13  BANK14  BANK15  BANK16  BANK17  BANK18  BANK19  BANK20  BANK21  BANK22  BANK23  BANK24  BANK25
  4511 ;;      Params:         2       0       0       0       0       0       0       0       0       0       0       0       
      +0       0       0       0       0       0       0       0       0       0       0       0       0       0       0
  4512 ;;      Locals:         2       0       0       0       0       0       0       0       0       0       0       0       
      +0       0       0       0       0       0       0       0       0       0       0       0       0       0       0
  4513 ;;      Temps:          1       0       0       0       0       0       0       0       0       0       0       0       
      +0       0       0       0       0       0       0       0       0       0       0       0       0       0       0
  4514 ;;      Totals:         5       0       0       0       0       0       0       0       0       0       0       0       
      +0       0       0       0       0       0       0       0       0       0       0       0       0       0       0
  4515 ;;Total ram usage:        5 bytes
  4516 ;; Hardware stack levels used: 1
  4517 ;; This function calls:
  4518 ;;		Nothing
  4519 ;; This function is called by:
  4520 ;;		_main
  4521 ;; This function uses a non-reentrant model
  4522 ;;
  4523                           
  4524     0F79                     _strcmp:	
  4525                           ;psect for function _strcmp
  4526                           
  4527                           
  4528                           ;incstack = 0
  4529                           ; Regs used in _strcmp: [wreg-fsr1h+status,2+status,0+pclath]
  4530                           ;strcmp@s1 stored from wreg
  4531     0F79  00F4               	movwf	strcmp@s1
  4532     0F7A                     l1731:
  4533     0F7A  2F83               	goto	l1735
  4534     0F7B                     l1733:
  4535     0F7B  3001               	movlw	1
  4536     0F7C  00F2               	movwf	??_strcmp
  4537     0F7D  0872               	movf	??_strcmp,w
  4538     0F7E  07F4               	addwf	strcmp@s1,f
  4539     0F7F  3001               	movlw	1
  4540     0F80  07F0               	addwf	strcmp@s2,f
  4541     0F81  3000               	movlw	0
  4542     0F82  3DF1               	addwfc	strcmp@s2+1,f
  4543     0F83                     l1735:
  4544     0F83  0874               	movf	strcmp@s1,w
  4545     0F84  0086               	movwf	6
  4546     0F85  0187               	clrf	7
  4547     0F86  0870               	movf	strcmp@s2,w
  4548     0F87  0084               	movwf	4
  4549     0F88  0871               	movf	strcmp@s2+1,w
  4550     0F89  0085               	movwf	5
  4551     0F8A  0800               	movf	0,w	;code access
  4552     0F8B  0201               	subwf	1,w
  4553     0F8C  00F3               	movwf	strcmp@r
  4554     0F8D  0873               	movf	strcmp@r,w
  4555     0F8E  1D03               	btfss	3,2
  4556     0F8F  2F91               	goto	u1191
  4557     0F90  2F92               	goto	u1190
  4558     0F91                     u1191:
  4559     0F91  2F9A               	goto	l1739
  4560     0F92                     u1190:
  4561     0F92                     l1737:
  4562     0F92  0874               	movf	strcmp@s1,w
  4563     0F93  0086               	movwf	6
  4564     0F94  0187               	clrf	7
  4565     0F95  0801               	movf	1,w
  4566     0F96  1D03               	btfss	3,2
  4567     0F97  2F99               	goto	u1201
  4568     0F98  2F9A               	goto	u1200
  4569     0F99                     u1201:
  4570     0F99  2F7B               	goto	l1733
  4571     0F9A                     u1200:
  4572     0F9A                     l1739:
  4573     0F9A  0873               	movf	strcmp@r,w
  4574     0F9B  00F0               	movwf	?_strcmp
  4575     0F9C  01F1               	clrf	?_strcmp+1
  4576     0F9D  1BF0               	btfsc	?_strcmp,7
  4577     0F9E  03F1               	decf	?_strcmp+1,f
  4578     0F9F                     l899:
  4579     0F9F  0008               	return
  4580     0FA0                     __end_of_strcmp:
  4581                           
  4582                           	psect	text6
  4583     0F22                     __ptext6:	
  4584 ;; *************** function _printf *****************
  4585 ;; Defined at:
  4586 ;;		line 477 in file "C:\Program Files\Microchip\xc8\v2.41\pic\sources\c90\common\doprnt.c"
  4587 ;; Parameters:    Size  Location     Type
  4588 ;;  f               2    1[COMMON] PTR const unsigned char 
  4589 ;;		 -> STR_38(14), STR_37(10), STR_36(8), STR_34(8), 
  4590 ;;		 -> STR_32(8), STR_31(8), STR_30(8), STR_28(8), 
  4591 ;;		 -> STR_27(8), STR_21(8), STR_17(8), 
  4592 ;; Auto vars:     Size  Location     Type
  4593 ;;  tmpval          4    0        struct .
  4594 ;;  cp              2    0        PTR const unsigned char 
  4595 ;;  len             2    0        unsigned int 
  4596 ;;  val             2    0        unsigned int 
  4597 ;;  c               1    6[COMMON] unsigned char 
  4598 ;;  ap              1    5[COMMON] PTR void [1]
  4599 ;;		 -> ?_printf(2), 
  4600 ;;  flag            1    0        unsigned char 
  4601 ;;  prec            1    0        char 
  4602 ;; Return value:  Size  Location     Type
  4603 ;;                  2    1[COMMON] int 
  4604 ;; Registers used:
  4605 ;;		wreg, fsr0l, fsr0h, status,2, status,0, pclath, cstack
  4606 ;; Tracked objects:
  4607 ;;		On entry : 0/0
  4608 ;;		On exit  : 0/0
  4609 ;;		Unchanged: 0/0
  4610 ;; Data sizes:     COMMON   BANK0   BANK1   BANK2   BANK3   BANK4   BANK5   BANK6   BANK7   BANK8   BANK9  BANK10  BANK1
      +1  BANK12  BANK13  BANK14  BANK15  BANK16  BANK17  BANK18  BANK19  BANK20  BANK21  BANK22  BANK23  BANK24  BANK25
  4611 ;;      Params:         2       0       0       0       0       0       0       0       0       0       0       0       
      +0       0       0       0       0       0       0       0       0       0       0       0       0       0       0
  4612 ;;      Locals:         2       0       0       0       0       0       0       0       0       0       0       0       
      +0       0       0       0       0       0       0       0       0       0       0       0       0       0       0
  4613 ;;      Temps:          2       0       0       0       0       0       0       0       0       0       0       0       
      +0       0       0       0       0       0       0       0       0       0       0       0       0       0       0
  4614 ;;      Totals:         6       0       0       0       0       0       0       0       0       0       0       0       
      +0       0       0       0       0       0       0       0       0       0       0       0       0       0       0
  4615 ;;Total ram usage:        6 bytes
  4616 ;; Hardware stack levels used: 1
  4617 ;; Hardware stack levels required when called: 1
  4618 ;; This function calls:
  4619 ;;		_putch
  4620 ;; This function is called by:
  4621 ;;		_main
  4622 ;; This function uses a non-reentrant model
  4623 ;;
  4624                           
  4625     0F22                     _printf:	
  4626                           ;psect for function _printf
  4627                           
  4628     0F22                     l1809:	
  4629                           ;incstack = 0
  4630                           ; Regs used in _printf: [wreg-fsr0h+status,2+status,0+pclath+cstack]
  4631                           
  4632                           
  4633                           ;doprnt.c: 479: va_list ap;;doprnt.c: 512: char c;;doprnt.c: 521: signed char prec;;dopr
      +                          nt.c: 525: unsigned char flag;;doprnt.c: 540: union {;doprnt.c: 541: unsigned long vd;;d
      +                          oprnt.c: 542: double integ;;doprnt.c: 543: } tmpval;;doprnt.c: 545: unsigned int val;;do
      +                          prnt.c: 546: unsigned len;;doprnt.c: 547: const char * cp;;doprnt.c: 550: *ap = __va_sta
      +                          rt();
  4634     0F22  3073               	movlw	(low ((?_printf| 0+2)))& (0+255)
  4635     0F23  00F5               	movwf	printf@ap
  4636                           
  4637                           ;doprnt.c: 553: while((c = *f++)) {
  4638     0F24  2F29               	goto	l1813
  4639     0F25                     l1811:
  4640                           
  4641                           ;doprnt.c: 557: {;doprnt.c: 558: (putch(c) );
  4642     0F25  0876               	movf	printf@c,w
  4643     0F26  318F  270E  318F   	fcall	_putch
  4644     0F29                     l1813:	
  4645                           ;doprnt.c: 559: continue;
  4646                           
  4647     0F29  0872               	movf	printf@f+1,w
  4648     0F2A  00F4               	movwf	??_printf+1
  4649     0F2B  0871               	movf	printf@f,w
  4650     0F2C  00F3               	movwf	??_printf
  4651     0F2D  0AF1               	incf	printf@f,f
  4652     0F2E  1903               	skipnz
  4653     0F2F  0AF2               	incf	printf@f+1,f
  4654     0F30  0873               	movf	??_printf,w
  4655     0F31  0084               	movwf	4
  4656     0F32  0874               	movf	??_printf+1,w
  4657     0F33  0085               	movwf	5
  4658     0F34  0800               	movf	0,w	;code access
  4659     0F35  00F6               	movwf	printf@c
  4660     0F36  0876               	movf	printf@c,w
  4661     0F37  1D03               	btfss	3,2
  4662     0F38  2F3A               	goto	u1311
  4663     0F39  2F3B               	goto	u1310
  4664     0F3A                     u1311:
  4665     0F3A  2F25               	goto	l1811
  4666     0F3B                     u1310:
  4667     0F3B                     l394:
  4668     0F3B  0008               	return
  4669     0F3C                     __end_of_printf:
  4670                           
  4671                           	psect	text7
  4672     0F06                     __ptext7:	
  4673 ;; *************** function _initUART *****************
  4674 ;; Defined at:
  4675 ;;		line 6 in file "uart.c"
  4676 ;; Parameters:    Size  Location     Type
  4677 ;;		None
  4678 ;; Auto vars:     Size  Location     Type
  4679 ;;		None
  4680 ;; Return value:  Size  Location     Type
  4681 ;;                  1    wreg      void 
  4682 ;; Registers used:
  4683 ;;		wreg
  4684 ;; Tracked objects:
  4685 ;;		On entry : 0/0
  4686 ;;		On exit  : 0/0
  4687 ;;		Unchanged: 0/0
  4688 ;; Data sizes:     COMMON   BANK0   BANK1   BANK2   BANK3   BANK4   BANK5   BANK6   BANK7   BANK8   BANK9  BANK10  BANK1
      +1  BANK12  BANK13  BANK14  BANK15  BANK16  BANK17  BANK18  BANK19  BANK20  BANK21  BANK22  BANK23  BANK24  BANK25
  4689 ;;      Params:         0       0       0       0       0       0       0       0       0       0       0       0       
      +0       0       0       0       0       0       0       0       0       0       0       0       0       0       0
  4690 ;;      Locals:         0       0       0       0       0       0       0       0       0       0       0       0       
      +0       0       0       0       0       0       0       0       0       0       0       0       0       0       0
  4691 ;;      Temps:          0       0       0       0       0       0       0       0       0       0       0       0       
      +0       0       0       0       0       0       0       0       0       0       0       0       0       0       0
  4692 ;;      Totals:         0       0       0       0       0       0       0       0       0       0       0       0       
      +0       0       0       0       0       0       0       0       0       0       0       0       0       0       0
  4693 ;;Total ram usage:        0 bytes
  4694 ;; Hardware stack levels used: 1
  4695 ;; This function calls:
  4696 ;;		Nothing
  4697 ;; This function is called by:
  4698 ;;		_main
  4699 ;; This function uses a non-reentrant model
  4700 ;;
  4701                           
  4702     0F06                     _initUART:	
  4703                           ;psect for function _initUART
  4704                           
  4705     0F06                     l1725:	
  4706                           ;incstack = 0
  4707                           ; Regs used in _initUART: [wreg]
  4708                           
  4709                           
  4710                           ;uart.c: 8: SPBRG = ((unsigned char)(((4000000 / 16) / 9600) - 1));
  4711     0F06  3019               	movlw	25
  4712     0F07  0023               	movlb	3	; select bank3
  4713     0F08  009B               	movwf	27	;volatile
  4714                           
  4715                           ;uart.c: 9: TXSTA = (0x00 | 0x04 | 0x20);
  4716     0F09  3024               	movlw	36
  4717     0F0A  009E               	movwf	30	;volatile
  4718                           
  4719                           ;uart.c: 10: RCSTA = (0x00 | 0x90);
  4720     0F0B  3090               	movlw	144
  4721     0F0C  009D               	movwf	29	;volatile
  4722     0F0D                     l223:
  4723     0F0D  0008               	return
  4724     0F0E                     __end_of_initUART:
  4725                           
  4726                           	psect	text8
  4727     0004                     __ptext8:	
  4728 ;; *************** function _gets *****************
  4729 ;; Defined at:
  4730 ;;		line 10 in file "C:\Program Files\Microchip\xc8\v2.41\pic\sources\c90\common\gets.c"
  4731 ;; Parameters:    Size  Location     Type
  4732 ;;  s               1    wreg     PTR unsigned char 
  4733 ;;		 -> main@tmp(40), 
  4734 ;; Auto vars:     Size  Location     Type
  4735 ;;  s               1   10[COMMON] PTR unsigned char 
  4736 ;;		 -> main@tmp(40), 
  4737 ;; Return value:  Size  Location     Type
  4738 ;;                  1    wreg      PTR unsigned char 
  4739 ;; Registers used:
  4740 ;;		wreg, fsr0l, fsr0h, fsr1l, fsr1h, status,2, status,0, pclath, cstack
  4741 ;; Tracked objects:
  4742 ;;		On entry : 0/0
  4743 ;;		On exit  : 0/0
  4744 ;;		Unchanged: 0/0
  4745 ;; Data sizes:     COMMON   BANK0   BANK1   BANK2   BANK3   BANK4   BANK5   BANK6   BANK7   BANK8   BANK9  BANK10  BANK1
      +1  BANK12  BANK13  BANK14  BANK15  BANK16  BANK17  BANK18  BANK19  BANK20  BANK21  BANK22  BANK23  BANK24  BANK25
  4746 ;;      Params:         0       0       0       0       0       0       0       0       0       0       0       0       
      +0       0       0       0       0       0       0       0       0       0       0       0       0       0       0
  4747 ;;      Locals:         1       0       0       0       0       0       0       0       0       0       0       0       
      +0       0       0       0       0       0       0       0       0       0       0       0       0       0       0
  4748 ;;      Temps:          0       0       0       0       0       0       0       0       0       0       0       0       
      +0       0       0       0       0       0       0       0       0       0       0       0       0       0       0
  4749 ;;      Totals:         1       0       0       0       0       0       0       0       0       0       0       0       
      +0       0       0       0       0       0       0       0       0       0       0       0       0       0       0
  4750 ;;Total ram usage:        1 bytes
  4751 ;; Hardware stack levels used: 1
  4752 ;; Hardware stack levels required when called: 3
  4753 ;; This function calls:
  4754 ;;		_cgets
  4755 ;; This function is called by:
  4756 ;;		_main
  4757 ;; This function uses a non-reentrant model
  4758 ;;
  4759                           
  4760     0004                     _gets:	
  4761                           ;psect for function _gets
  4762                           
  4763                           
  4764                           ;incstack = 0
  4765                           ; Regs used in _gets: [wreg-fsr1h+status,2+status,0+pclath+cstack]
  4766                           ;gets@s stored from wreg
  4767     0004  00FA               	movwf	gets@s
  4768     0005                     l1727:
  4769                           
  4770                           ;	Return value of _gets is never used
  4771     0005  087A               	movf	gets@s,w
  4772     0006  3180  2068  3180   	fcall	_cgets
  4773     0009                     l866:
  4774     0009  0008               	return
  4775     000A                     __end_of_gets:
  4776                           
  4777                           	psect	text9
  4778     0068                     __ptext9:	
  4779 ;; *************** function _cgets *****************
  4780 ;; Defined at:
  4781 ;;		line 4 in file "C:\Program Files\Microchip\xc8\v2.41\pic\sources\c90\common\cgets.c"
  4782 ;; Parameters:    Size  Location     Type
  4783 ;;  s               1    wreg     PTR unsigned char 
  4784 ;;		 -> main@tmp(40), 
  4785 ;; Auto vars:     Size  Location     Type
  4786 ;;  s               1    8[COMMON] PTR unsigned char 
  4787 ;;		 -> main@tmp(40), 
  4788 ;;  c               2    6[COMMON] int 
  4789 ;;  s1              1    9[COMMON] PTR unsigned char 
  4790 ;;		 -> main@tmp(40), 
  4791 ;; Return value:  Size  Location     Type
  4792 ;;                  1    wreg      PTR unsigned char 
  4793 ;; Registers used:
  4794 ;;		wreg, fsr0l, fsr0h, fsr1l, fsr1h, status,2, status,0, pclath, cstack
  4795 ;; Tracked objects:
  4796 ;;		On entry : 0/0
  4797 ;;		On exit  : 0/0
  4798 ;;		Unchanged: 0/0
  4799 ;; Data sizes:     COMMON   BANK0   BANK1   BANK2   BANK3   BANK4   BANK5   BANK6   BANK7   BANK8   BANK9  BANK10  BANK1
      +1  BANK12  BANK13  BANK14  BANK15  BANK16  BANK17  BANK18  BANK19  BANK20  BANK21  BANK22  BANK23  BANK24  BANK25
  4800 ;;      Params:         2       0       0       0       0       0       0       0       0       0       0       0       
      +0       0       0       0       0       0       0       0       0       0       0       0       0       0       0
  4801 ;;      Locals:         4       0       0       0       0       0       0       0       0       0       0       0       
      +0       0       0       0       0       0       0       0       0       0       0       0       0       0       0
  4802 ;;      Temps:          2       0       0       0       0       0       0       0       0       0       0       0       
      +0       0       0       0       0       0       0       0       0       0       0       0       0       0       0
  4803 ;;      Totals:         8       0       0       0       0       0       0       0       0       0       0       0       
      +0       0       0       0       0       0       0       0       0       0       0       0       0       0       0
  4804 ;;Total ram usage:        8 bytes
  4805 ;; Hardware stack levels used: 1
  4806 ;; Hardware stack levels required when called: 2
  4807 ;; This function calls:
  4808 ;;		_getche
  4809 ;;		_putch
  4810 ;; This function is called by:
  4811 ;;		_gets
  4812 ;; This function uses a non-reentrant model
  4813 ;;
  4814                           
  4815     0068                     _cgets:	
  4816                           ;psect for function _cgets
  4817                           
  4818                           
  4819                           ;incstack = 0
  4820                           ; Regs used in _cgets: [wreg-fsr1h+status,2+status,0+pclath+cstack]
  4821                           ;cgets@s stored from wreg
  4822     0068  00F8               	movwf	cgets@s
  4823     0069                     l1667:
  4824     0069  0878               	movf	cgets@s,w
  4825     006A  00F9               	movwf	cgets@s1
  4826     006B  28A2               	goto	l1695
  4827     006C                     l1669:
  4828     006C  0878               	movf	cgets@s,w
  4829     006D  0679               	xorwf	cgets@s1,w
  4830     006E  1D03               	skipz
  4831     006F  2871               	goto	u1131
  4832     0070  2872               	goto	u1130
  4833     0071                     u1131:
  4834     0071  2873               	goto	l1673
  4835     0072                     u1130:
  4836     0072  28A2               	goto	l1695
  4837     0073                     l1673:
  4838     0073  3020               	movlw	32
  4839     0074  318F  270E  3180   	fcall	_putch
  4840     0077  3008               	movlw	8
  4841     0078  318F  270E  3180   	fcall	_putch
  4842     007B                     l1675:
  4843     007B  3001               	movlw	1
  4844     007C  02F9               	subwf	cgets@s1,f
  4845     007D  28A2               	goto	l1695
  4846     007E                     l1677:
  4847     007E  3008               	movlw	8
  4848     007F  318F  270E  3180   	fcall	_putch
  4849     0082  3020               	movlw	32
  4850     0083  318F  270E  3180   	fcall	_putch
  4851     0086  3008               	movlw	8
  4852     0087  318F  270E  3180   	fcall	_putch
  4853     008A                     l1679:
  4854     008A  3001               	movlw	1
  4855     008B  02F9               	subwf	cgets@s1,f
  4856     008C                     l1681:
  4857     008C  0879               	movf	cgets@s1,w
  4858     008D  0278               	subwf	cgets@s,w
  4859     008E  1C03               	skipc
  4860     008F  2891               	goto	u1141
  4861     0090  2892               	goto	u1140
  4862     0091                     u1141:
  4863     0091  287E               	goto	l1677
  4864     0092                     u1140:
  4865     0092  28A2               	goto	l1695
  4866     0093                     l1683:
  4867     0093  0879               	movf	cgets@s1,w
  4868     0094  0086               	movwf	6
  4869     0095  0187               	clrf	7
  4870     0096  0181               	clrf	1
  4871     0097                     l1685:
  4872     0097  0878               	movf	cgets@s,w
  4873     0098  28BE               	goto	l884
  4874     0099                     l1689:
  4875     0099  0879               	movf	cgets@s1,w
  4876     009A  0086               	movwf	6
  4877     009B  0187               	clrf	7
  4878     009C  0876               	movf	cgets@c,w
  4879     009D  0081               	movwf	1
  4880     009E                     l1691:
  4881     009E  3001               	movlw	1
  4882     009F  00F4               	movwf	??_cgets
  4883     00A0  0874               	movf	??_cgets,w
  4884     00A1  07F9               	addwf	cgets@s1,f
  4885     00A2                     l1695:
  4886     00A2  318F  2718  3180   	fcall	_getche
  4887     00A5  00F4               	movwf	??_cgets
  4888     00A6  01F5               	clrf	??_cgets+1
  4889     00A7  0874               	movf	??_cgets,w
  4890     00A8  00F6               	movwf	cgets@c
  4891     00A9  0875               	movf	??_cgets+1,w
  4892     00AA  00F7               	movwf	cgets@c+1
  4893                           
  4894                           ; Switch on 2 bytes has been partitioned into a top level switch of size 1, and 1 sub-sw
      +                          itches
  4895                           ; Switch size 1, requested type "simple"
  4896                           ; Number of cases is 1, Range of values is 0 to 0
  4897                           ; switch strategies available:
  4898                           ; Name         Instructions Cycles
  4899                           ; simple_byte            4     3 (average)
  4900                           ; direct_byte            8     6 (fixed)
  4901                           ; jumptable            260     6 (fixed)
  4902                           ;	Chosen strategy is simple_byte
  4903     00AB  0877               	movf	cgets@c+1,w
  4904     00AC  3A00               	xorlw	0	; case 0
  4905     00AD  1903               	skipnz
  4906     00AE  28B0               	goto	l2229
  4907     00AF  2899               	goto	l1689
  4908     00B0                     l2229:
  4909                           
  4910                           ; Switch size 1, requested type "simple"
  4911                           ; Number of cases is 4, Range of values is 8 to 21
  4912                           ; switch strategies available:
  4913                           ; Name         Instructions Cycles
  4914                           ; simple_byte           13     7 (average)
  4915                           ; direct_byte           37     9 (fixed)
  4916                           ; jumptable            263     9 (fixed)
  4917                           ;	Chosen strategy is simple_byte
  4918     00B0  0876               	movf	cgets@c,w
  4919     00B1  3A08               	xorlw	8	; case 8
  4920     00B2  1903               	skipnz
  4921     00B3  286C               	goto	l1669
  4922     00B4  3A02               	xorlw	2	; case 10
  4923     00B5  1903               	skipnz
  4924     00B6  2893               	goto	l1683
  4925     00B7  3A07               	xorlw	7	; case 13
  4926     00B8  1903               	skipnz
  4927     00B9  2893               	goto	l1683
  4928     00BA  3A18               	xorlw	24	; case 21
  4929     00BB  1903               	skipnz
  4930     00BC  288C               	goto	l1681
  4931     00BD  2899               	goto	l1689
  4932     00BE                     l884:
  4933     00BE  0008               	return
  4934     00BF                     __end_of_cgets:
  4935                           
  4936                           	psect	text10
  4937     0F18                     __ptext10:	
  4938 ;; *************** function _getche *****************
  4939 ;; Defined at:
  4940 ;;		line 28 in file "uart.c"
  4941 ;; Parameters:    Size  Location     Type
  4942 ;;		None
  4943 ;; Auto vars:     Size  Location     Type
  4944 ;;  c               1    1[COMMON] unsigned char 
  4945 ;; Return value:  Size  Location     Type
  4946 ;;                  1    wreg      unsigned char 
  4947 ;; Registers used:
  4948 ;;		wreg, status,2, status,0, pclath, cstack
  4949 ;; Tracked objects:
  4950 ;;		On entry : 0/0
  4951 ;;		On exit  : 0/0
  4952 ;;		Unchanged: 0/0
  4953 ;; Data sizes:     COMMON   BANK0   BANK1   BANK2   BANK3   BANK4   BANK5   BANK6   BANK7   BANK8   BANK9  BANK10  BANK1
      +1  BANK12  BANK13  BANK14  BANK15  BANK16  BANK17  BANK18  BANK19  BANK20  BANK21  BANK22  BANK23  BANK24  BANK25
  4954 ;;      Params:         0       0       0       0       0       0       0       0       0       0       0       0       
      +0       0       0       0       0       0       0       0       0       0       0       0       0       0       0
  4955 ;;      Locals:         1       0       0       0       0       0       0       0       0       0       0       0       
      +0       0       0       0       0       0       0       0       0       0       0       0       0       0       0
  4956 ;;      Temps:          0       0       0       0       0       0       0       0       0       0       0       0       
      +0       0       0       0       0       0       0       0       0       0       0       0       0       0       0
  4957 ;;      Totals:         1       0       0       0       0       0       0       0       0       0       0       0       
      +0       0       0       0       0       0       0       0       0       0       0       0       0       0       0
  4958 ;;Total ram usage:        1 bytes
  4959 ;; Hardware stack levels used: 1
  4960 ;; Hardware stack levels required when called: 1
  4961 ;; This function calls:
  4962 ;;		_getch
  4963 ;;		_putch
  4964 ;; This function is called by:
  4965 ;;		_cgets
  4966 ;; This function uses a non-reentrant model
  4967 ;;
  4968                           
  4969     0F18                     _getche:	
  4970                           ;psect for function _getche
  4971                           
  4972     0F18                     l1623:	
  4973                           ;incstack = 0
  4974                           ; Regs used in _getche: [wreg+status,2+status,0+pclath+cstack]
  4975                           
  4976                           
  4977                           ;uart.c: 30: unsigned char c;;uart.c: 32: c = getch();
  4978     0F18  318E  26FE  318F   	fcall	_getch
  4979     0F1B  00F1               	movwf	getche@c
  4980     0F1C                     l1625:
  4981                           
  4982                           ;uart.c: 33: putch(c);
  4983     0F1C  0871               	movf	getche@c,w
  4984     0F1D  318F  270E  318F   	fcall	_putch
  4985     0F20                     l1627:
  4986                           
  4987                           ;uart.c: 35: return c;
  4988     0F20  0871               	movf	getche@c,w
  4989     0F21                     l238:
  4990     0F21  0008               	return
  4991     0F22                     __end_of_getche:
  4992                           
  4993                           	psect	text11
  4994     0F0E                     __ptext11:	
  4995 ;; *************** function _putch *****************
  4996 ;; Defined at:
  4997 ;;		line 13 in file "uart.c"
  4998 ;; Parameters:    Size  Location     Type
  4999 ;;  byte            1    wreg     unsigned char 
  5000 ;; Auto vars:     Size  Location     Type
  5001 ;;  byte            1    0[COMMON] unsigned char 
  5002 ;; Return value:  Size  Location     Type
  5003 ;;                  1    wreg      void 
  5004 ;; Registers used:
  5005 ;;		wreg
  5006 ;; Tracked objects:
  5007 ;;		On entry : 0/0
  5008 ;;		On exit  : 0/0
  5009 ;;		Unchanged: 0/0
  5010 ;; Data sizes:     COMMON   BANK0   BANK1   BANK2   BANK3   BANK4   BANK5   BANK6   BANK7   BANK8   BANK9  BANK10  BANK1
      +1  BANK12  BANK13  BANK14  BANK15  BANK16  BANK17  BANK18  BANK19  BANK20  BANK21  BANK22  BANK23  BANK24  BANK25
  5011 ;;      Params:         0       0       0       0       0       0       0       0       0       0       0       0       
      +0       0       0       0       0       0       0       0       0       0       0       0       0       0       0
  5012 ;;      Locals:         1       0       0       0       0       0       0       0       0       0       0       0       
      +0       0       0       0       0       0       0       0       0       0       0       0       0       0       0
  5013 ;;      Temps:          0       0       0       0       0       0       0       0       0       0       0       0       
      +0       0       0       0       0       0       0       0       0       0       0       0       0       0       0
  5014 ;;      Totals:         1       0       0       0       0       0       0       0       0       0       0       0       
      +0       0       0       0       0       0       0       0       0       0       0       0       0       0       0
  5015 ;;Total ram usage:        1 bytes
  5016 ;; Hardware stack levels used: 1
  5017 ;; This function calls:
  5018 ;;		Nothing
  5019 ;; This function is called by:
  5020 ;;		_getche
  5021 ;;		_printf
  5022 ;;		_cgets
  5023 ;; This function uses a non-reentrant model
  5024 ;;
  5025                           
  5026     0F0E                     _putch:	
  5027                           ;psect for function _putch
  5028                           
  5029                           
  5030                           ;incstack = 0
  5031                           ; Regs used in _putch: [wreg]
  5032                           ;putch@byte stored from wreg
  5033     0F0E  00F0               	movwf	putch@byte
  5034     0F0F                     l1613:
  5035     0F0F                     l226:	
  5036                           ;uart.c: 15: while(!TXIF){
  5037                           
  5038     0F0F  0020               	movlb	0	; select bank0
  5039     0F10  1E11               	btfss	17,4	;volatile
  5040     0F11  2F13               	goto	u1031
  5041     0F12  2F14               	goto	u1030
  5042     0F13                     u1031:
  5043     0F13  2F0F               	goto	l226
  5044     0F14                     u1030:
  5045     0F14                     l1615:
  5046                           
  5047                           ;uart.c: 16: };uart.c: 17: TXREG = byte;
  5048     0F14  0870               	movf	putch@byte,w
  5049     0F15  0023               	movlb	3	; select bank3
  5050     0F16  009A               	movwf	26	;volatile
  5051     0F17                     l229:
  5052     0F17  0008               	return
  5053     0F18                     __end_of_putch:
  5054                           
  5055                           	psect	text12
  5056     0EFE                     __ptext12:	
  5057 ;; *************** function _getch *****************
  5058 ;; Defined at:
  5059 ;;		line 20 in file "uart.c"
  5060 ;; Parameters:    Size  Location     Type
  5061 ;;		None
  5062 ;; Auto vars:     Size  Location     Type
  5063 ;;		None
  5064 ;; Return value:  Size  Location     Type
  5065 ;;                  1    wreg      unsigned char 
  5066 ;; Registers used:
  5067 ;;		wreg
  5068 ;; Tracked objects:
  5069 ;;		On entry : 0/0
  5070 ;;		On exit  : 0/0
  5071 ;;		Unchanged: 0/0
  5072 ;; Data sizes:     COMMON   BANK0   BANK1   BANK2   BANK3   BANK4   BANK5   BANK6   BANK7   BANK8   BANK9  BANK10  BANK1
      +1  BANK12  BANK13  BANK14  BANK15  BANK16  BANK17  BANK18  BANK19  BANK20  BANK21  BANK22  BANK23  BANK24  BANK25
  5073 ;;      Params:         0       0       0       0       0       0       0       0       0       0       0       0       
      +0       0       0       0       0       0       0       0       0       0       0       0       0       0       0
  5074 ;;      Locals:         0       0       0       0       0       0       0       0       0       0       0       0       
      +0       0       0       0       0       0       0       0       0       0       0       0       0       0       0
  5075 ;;      Temps:          0       0       0       0       0       0       0       0       0       0       0       0       
      +0       0       0       0       0       0       0       0       0       0       0       0       0       0       0
  5076 ;;      Totals:         0       0       0       0       0       0       0       0       0       0       0       0       
      +0       0       0       0       0       0       0       0       0       0       0       0       0       0       0
  5077 ;;Total ram usage:        0 bytes
  5078 ;; Hardware stack levels used: 1
  5079 ;; This function calls:
  5080 ;;		Nothing
  5081 ;; This function is called by:
  5082 ;;		_getche
  5083 ;; This function uses a non-reentrant model
  5084 ;;
  5085                           
  5086     0EFE                     _getch:	
  5087                           ;psect for function _getch
  5088                           
  5089     0EFE                     l1617:	
  5090                           ;incstack = 0
  5091                           ; Regs used in _getch: [wreg]
  5092                           
  5093     0EFE                     l232:	
  5094                           ;uart.c: 22: while(!RCIF){
  5095                           
  5096     0EFE  0020               	movlb	0	; select bank0
  5097     0EFF  1E91               	btfss	17,5	;volatile
  5098     0F00  2F02               	goto	u1041
  5099     0F01  2F03               	goto	u1040
  5100     0F02                     u1041:
  5101     0F02  2EFE               	goto	l232
  5102     0F03                     u1040:
  5103     0F03                     l1619:
  5104                           
  5105                           ;uart.c: 23: };uart.c: 25: return RCREG;
  5106     0F03  0023               	movlb	3	; select bank3
  5107     0F04  0819               	movf	25,w	;volatile
  5108     0F05                     l235:
  5109     0F05  0008               	return
  5110     0F06                     __end_of_getch:
  5111                           
  5112                           	psect	text13
  5113     011E                     __ptext13:	
  5114 ;; *************** function _atoi *****************
  5115 ;; Defined at:
  5116 ;;		line 5 in file "C:\Program Files\Microchip\xc8\v2.41\pic\sources\c90\common\atoi.c"
  5117 ;; Parameters:    Size  Location     Type
  5118 ;;  s               1    wreg     PTR const unsigned char 
  5119 ;;		 -> NULL(0), main@tmp(40), 
  5120 ;; Auto vars:     Size  Location     Type
  5121 ;;  s               1    3[BANK0 ] PTR const unsigned char 
  5122 ;;		 -> NULL(0), main@tmp(40), 
  5123 ;;  a               2    1[BANK0 ] int 
  5124 ;;  sign            1    0[BANK0 ] unsigned char 
  5125 ;; Return value:  Size  Location     Type
  5126 ;;                  2    6[COMMON] int 
  5127 ;; Registers used:
  5128 ;;		wreg, fsr1l, fsr1h, status,2, status,0, pclath, cstack
  5129 ;; Tracked objects:
  5130 ;;		On entry : 0/0
  5131 ;;		On exit  : 0/0
  5132 ;;		Unchanged: 0/0
  5133 ;; Data sizes:     COMMON   BANK0   BANK1   BANK2   BANK3   BANK4   BANK5   BANK6   BANK7   BANK8   BANK9  BANK10  BANK1
      +1  BANK12  BANK13  BANK14  BANK15  BANK16  BANK17  BANK18  BANK19  BANK20  BANK21  BANK22  BANK23  BANK24  BANK25
  5134 ;;      Params:         2       0       0       0       0       0       0       0       0       0       0       0       
      +0       0       0       0       0       0       0       0       0       0       0       0       0       0       0
  5135 ;;      Locals:         0       4       0       0       0       0       0       0       0       0       0       0       
      +0       0       0       0       0       0       0       0       0       0       0       0       0       0       0
  5136 ;;      Temps:          4       0       0       0       0       0       0       0       0       0       0       0       
      +0       0       0       0       0       0       0       0       0       0       0       0       0       0       0
  5137 ;;      Totals:         6       4       0       0       0       0       0       0       0       0       0       0       
      +0       0       0       0       0       0       0       0       0       0       0       0       0       0       0
  5138 ;;Total ram usage:       10 bytes
  5139 ;; Hardware stack levels used: 1
  5140 ;; Hardware stack levels required when called: 1
  5141 ;; This function calls:
  5142 ;;		___wmul
  5143 ;;		_isdigit
  5144 ;; This function is called by:
  5145 ;;		_main
  5146 ;; This function uses a non-reentrant model
  5147 ;;
  5148                           
  5149     011E                     _atoi:	
  5150                           ;psect for function _atoi
  5151                           
  5152                           
  5153                           ;incstack = 0
  5154                           ; Regs used in _atoi: [wreg+fsr1l+fsr1h+status,2+status,0+pclath+cstack]
  5155                           ;atoi@s stored from wreg
  5156     011E  0020               	movlb	0	; select bank0
  5157     011F  00A3               	movwf	atoi@s
  5158     0120                     l1775:
  5159     0120  2925               	goto	l1779
  5160     0121                     l1777:
  5161     0121  3001               	movlw	1
  5162     0122  00F8               	movwf	??_atoi
  5163     0123  0878               	movf	??_atoi,w
  5164     0124  07A3               	addwf	atoi@s,f
  5165     0125                     l1779:
  5166     0125  0823               	movf	atoi@s,w
  5167     0126  0086               	movwf	6
  5168     0127  0187               	clrf	7
  5169     0128  3020               	movlw	32
  5170     0129  0601               	xorwf	1,w
  5171     012A  1903               	btfsc	3,2
  5172     012B  292D               	goto	u1251
  5173     012C  292E               	goto	u1250
  5174     012D                     u1251:
  5175     012D  2921               	goto	l1777
  5176     012E                     u1250:
  5177     012E                     l1781:
  5178     012E  0823               	movf	atoi@s,w
  5179     012F  0086               	movwf	6
  5180     0130  0187               	clrf	7
  5181     0131  3009               	movlw	9
  5182     0132  0601               	xorwf	1,w
  5183     0133  1903               	btfsc	3,2
  5184     0134  2936               	goto	u1261
  5185     0135  2937               	goto	u1260
  5186     0136                     u1261:
  5187     0136  2921               	goto	l1777
  5188     0137                     u1260:
  5189     0137                     l1783:
  5190     0137  01A1               	clrf	atoi@a
  5191     0138  01A2               	clrf	atoi@a+1
  5192     0139  01A0               	clrf	atoi@sign
  5193     013A                     l1785:
  5194     013A  0823               	movf	atoi@s,w
  5195     013B  0086               	movwf	6
  5196     013C  0187               	clrf	7
  5197     013D  302D               	movlw	45
  5198     013E  0601               	xorwf	1,w
  5199     013F  1D03               	btfss	3,2
  5200     0140  2942               	goto	u1271
  5201     0141  2943               	goto	u1270
  5202     0142                     u1271:
  5203     0142  294C               	goto	l1789
  5204     0143                     u1270:
  5205     0143                     l1787:
  5206     0143  3001               	movlw	1
  5207     0144  00F8               	movwf	??_atoi
  5208     0145  0878               	movf	??_atoi,w
  5209     0146  07A0               	addwf	atoi@sign,f
  5210     0147  3001               	movlw	1
  5211     0148  00F8               	movwf	??_atoi
  5212     0149  0878               	movf	??_atoi,w
  5213     014A  07A3               	addwf	atoi@s,f
  5214     014B  297A               	goto	l1797
  5215     014C                     l1789:
  5216     014C  0823               	movf	atoi@s,w
  5217     014D  0086               	movwf	6
  5218     014E  0187               	clrf	7
  5219     014F  302B               	movlw	43
  5220     0150  0601               	xorwf	1,w
  5221     0151  1D03               	btfss	3,2
  5222     0152  2954               	goto	u1281
  5223     0153  2955               	goto	u1280
  5224     0154                     u1281:
  5225     0154  297A               	goto	l1797
  5226     0155                     u1280:
  5227     0155                     l1791:
  5228     0155  3001               	movlw	1
  5229     0156  00F8               	movwf	??_atoi
  5230     0157  0878               	movf	??_atoi,w
  5231     0158  07A3               	addwf	atoi@s,f
  5232     0159  297A               	goto	l1797
  5233     015A                     l1793:
  5234     015A  0020               	movlb	0	; select bank0
  5235     015B  0823               	movf	atoi@s,w
  5236     015C  0086               	movwf	6
  5237     015D  0187               	clrf	7
  5238     015E  0801               	movf	1,w
  5239     015F  00F8               	movwf	??_atoi
  5240     0160  01F9               	clrf	??_atoi+1
  5241     0161  0822               	movf	atoi@a+1,w
  5242     0162  00F1               	movwf	___wmul@multiplier+1
  5243     0163  0821               	movf	atoi@a,w
  5244     0164  00F0               	movwf	___wmul@multiplier
  5245     0165  300A               	movlw	10
  5246     0166  00F2               	movwf	___wmul@multiplicand
  5247     0167  3000               	movlw	0
  5248     0168  00F3               	movwf	___wmul@multiplicand+1
  5249     0169  318F  275A  3181   	fcall	___wmul
  5250     016C  0878               	movf	??_atoi,w
  5251     016D  0770               	addwf	?___wmul,w
  5252     016E  00FA               	movwf	??_atoi+2
  5253     016F  0879               	movf	??_atoi+1,w
  5254     0170  3D71               	addwfc	?___wmul+1,w
  5255     0171  00FB               	movwf	??_atoi+3
  5256     0172  087A               	movf	??_atoi+2,w
  5257     0173  3ED0               	addlw	208
  5258     0174  0020               	movlb	0	; select bank0
  5259     0175  00A1               	movwf	atoi@a
  5260     0176  30FF               	movlw	255
  5261     0177  3D7B               	addwfc	??_atoi+3,w
  5262     0178  00A2               	movwf	atoi@a+1
  5263     0179  2955               	goto	l1791
  5264     017A                     l1797:
  5265     017A  0823               	movf	atoi@s,w
  5266     017B  0086               	movwf	6
  5267     017C  0187               	clrf	7
  5268     017D  0801               	movf	1,w
  5269     017E  3180  200A  3181   	fcall	_isdigit
  5270     0181  1803               	btfsc	3,0
  5271     0182  2984               	goto	u1291
  5272     0183  2985               	goto	u1290
  5273     0184                     u1291:
  5274     0184  295A               	goto	l1793
  5275     0185                     u1290:
  5276     0185                     l1799:
  5277     0185  0020               	movlb	0	; select bank0
  5278     0186  0820               	movf	atoi@sign,w
  5279     0187  1903               	btfsc	3,2
  5280     0188  298A               	goto	u1301
  5281     0189  298B               	goto	u1300
  5282     018A                     u1301:
  5283     018A  2997               	goto	l1805
  5284     018B                     u1300:
  5285     018B                     l1801:
  5286     018B  0921               	comf	atoi@a,w
  5287     018C  00F8               	movwf	??_atoi
  5288     018D  0922               	comf	atoi@a+1,w
  5289     018E  00F9               	movwf	??_atoi+1
  5290     018F  0AF8               	incf	??_atoi,f
  5291     0190  1903               	skipnz
  5292     0191  0AF9               	incf	??_atoi+1,f
  5293     0192  0878               	movf	??_atoi,w
  5294     0193  00F6               	movwf	?_atoi
  5295     0194  0879               	movf	??_atoi+1,w
  5296     0195  00F7               	movwf	?_atoi+1
  5297     0196  299B               	goto	l861
  5298     0197                     l1805:
  5299     0197  0822               	movf	atoi@a+1,w
  5300     0198  00F7               	movwf	?_atoi+1
  5301     0199  0821               	movf	atoi@a,w
  5302     019A  00F6               	movwf	?_atoi
  5303     019B                     l861:
  5304     019B  0008               	return
  5305     019C                     __end_of_atoi:
  5306                           
  5307                           	psect	text14
  5308     000A                     __ptext14:	
  5309 ;; *************** function _isdigit *****************
  5310 ;; Defined at:
  5311 ;;		line 8 in file "C:\Program Files\Microchip\xc8\v2.41\pic\sources\c90\common\isdigit.c"
  5312 ;; Parameters:    Size  Location     Type
  5313 ;;  c               1    wreg     unsigned char 
  5314 ;; Auto vars:     Size  Location     Type
  5315 ;;  c               1    1[COMMON] unsigned char 
  5316 ;; Return value:  Size  Location     Type
  5317 ;;		None               void
  5318 ;; Registers used:
  5319 ;;		wreg, status,2, status,0
  5320 ;; Tracked objects:
  5321 ;;		On entry : 0/0
  5322 ;;		On exit  : 0/0
  5323 ;;		Unchanged: 0/0
  5324 ;; Data sizes:     COMMON   BANK0   BANK1   BANK2   BANK3   BANK4   BANK5   BANK6   BANK7   BANK8   BANK9  BANK10  BANK1
      +1  BANK12  BANK13  BANK14  BANK15  BANK16  BANK17  BANK18  BANK19  BANK20  BANK21  BANK22  BANK23  BANK24  BANK25
  5325 ;;      Params:         0       0       0       0       0       0       0       0       0       0       0       0       
      +0       0       0       0       0       0       0       0       0       0       0       0       0       0       0
  5326 ;;      Locals:         2       0       0       0       0       0       0       0       0       0       0       0       
      +0       0       0       0       0       0       0       0       0       0       0       0       0       0       0
  5327 ;;      Temps:          0       0       0       0       0       0       0       0       0       0       0       0       
      +0       0       0       0       0       0       0       0       0       0       0       0       0       0       0
  5328 ;;      Totals:         2       0       0       0       0       0       0       0       0       0       0       0       
      +0       0       0       0       0       0       0       0       0       0       0       0       0       0       0
  5329 ;;Total ram usage:        2 bytes
  5330 ;; Hardware stack levels used: 1
  5331 ;; This function calls:
  5332 ;;		Nothing
  5333 ;; This function is called by:
  5334 ;;		_atoi
  5335 ;; This function uses a non-reentrant model
  5336 ;;
  5337                           
  5338     000A                     _isdigit:	
  5339                           ;psect for function _isdigit
  5340                           
  5341                           
  5342                           ;incstack = 0
  5343                           ; Regs used in _isdigit: [wreg+status,2+status,0]
  5344                           ;isdigit@c stored from wreg
  5345     000A  00F1               	movwf	isdigit@c
  5346     000B                     l1655:
  5347     000B  01F0               	clrf	_isdigit$667
  5348     000C                     l1657:
  5349     000C  303A               	movlw	58
  5350     000D  0271               	subwf	isdigit@c,w
  5351     000E  1803               	skipnc
  5352     000F  2811               	goto	u1111
  5353     0010  2812               	goto	u1110
  5354     0011                     u1111:
  5355     0011  281A               	goto	l1663
  5356     0012                     u1110:
  5357     0012                     l1659:
  5358     0012  3030               	movlw	48
  5359     0013  0271               	subwf	isdigit@c,w
  5360     0014  1C03               	skipc
  5361     0015  2817               	goto	u1121
  5362     0016  2818               	goto	u1120
  5363     0017                     u1121:
  5364     0017  281A               	goto	l1663
  5365     0018                     u1120:
  5366     0018                     l1661:
  5367     0018  01F0               	clrf	_isdigit$667
  5368     0019  0AF0               	incf	_isdigit$667,f
  5369     001A                     l1663:
  5370     001A  0C70               	rrf	_isdigit$667,w
  5371     001B                     l891:
  5372     001B  0008               	return
  5373     001C                     __end_of_isdigit:
  5374                           
  5375                           	psect	text15
  5376     0F5A                     __ptext15:	
  5377 ;; *************** function ___wmul *****************
  5378 ;; Defined at:
  5379 ;;		line 15 in file "C:\Program Files\Microchip\xc8\v2.41\pic\sources\c90\common\Umul16.c"
  5380 ;; Parameters:    Size  Location     Type
  5381 ;;  multiplier      2    0[COMMON] unsigned int 
  5382 ;;  multiplicand    2    2[COMMON] unsigned int 
  5383 ;; Auto vars:     Size  Location     Type
  5384 ;;  product         2    4[COMMON] unsigned int 
  5385 ;; Return value:  Size  Location     Type
  5386 ;;                  2    0[COMMON] unsigned int 
  5387 ;; Registers used:
  5388 ;;		wreg, status,2, status,0
  5389 ;; Tracked objects:
  5390 ;;		On entry : 0/0
  5391 ;;		On exit  : 0/0
  5392 ;;		Unchanged: 0/0
  5393 ;; Data sizes:     COMMON   BANK0   BANK1   BANK2   BANK3   BANK4   BANK5   BANK6   BANK7   BANK8   BANK9  BANK10  BANK1
      +1  BANK12  BANK13  BANK14  BANK15  BANK16  BANK17  BANK18  BANK19  BANK20  BANK21  BANK22  BANK23  BANK24  BANK25
  5394 ;;      Params:         4       0       0       0       0       0       0       0       0       0       0       0       
      +0       0       0       0       0       0       0       0       0       0       0       0       0       0       0
  5395 ;;      Locals:         2       0       0       0       0       0       0       0       0       0       0       0       
      +0       0       0       0       0       0       0       0       0       0       0       0       0       0       0
  5396 ;;      Temps:          0       0       0       0       0       0       0       0       0       0       0       0       
      +0       0       0       0       0       0       0       0       0       0       0       0       0       0       0
  5397 ;;      Totals:         6       0       0       0       0       0       0       0       0       0       0       0       
      +0       0       0       0       0       0       0       0       0       0       0       0       0       0       0
  5398 ;;Total ram usage:        6 bytes
  5399 ;; Hardware stack levels used: 1
  5400 ;; This function calls:
  5401 ;;		Nothing
  5402 ;; This function is called by:
  5403 ;;		_main
  5404 ;;		_atoi
  5405 ;; This function uses a non-reentrant model
  5406 ;;
  5407                           
  5408     0F5A                     ___wmul:	
  5409                           ;psect for function ___wmul
  5410                           
  5411     0F5A                     l1641:	
  5412                           ;incstack = 0
  5413                           ; Regs used in ___wmul: [wreg+status,2+status,0]
  5414                           
  5415     0F5A  01F4               	clrf	___wmul@product
  5416     0F5B  01F5               	clrf	___wmul@product+1
  5417     0F5C                     l1643:
  5418     0F5C  1C70               	btfss	___wmul@multiplier,0
  5419     0F5D  2F5F               	goto	u1071
  5420     0F5E  2F60               	goto	u1070
  5421     0F5F                     u1071:
  5422     0F5F  2F64               	goto	l398
  5423     0F60                     u1070:
  5424     0F60                     l1645:
  5425     0F60  0872               	movf	___wmul@multiplicand,w
  5426     0F61  07F4               	addwf	___wmul@product,f
  5427     0F62  0873               	movf	___wmul@multiplicand+1,w
  5428     0F63  3DF5               	addwfc	___wmul@product+1,f
  5429     0F64                     l398:
  5430     0F64  3001               	movlw	1
  5431     0F65                     u1085:
  5432     0F65  35F2               	lslf	___wmul@multiplicand,f
  5433     0F66  0DF3               	rlf	___wmul@multiplicand+1,f
  5434     0F67  0B89               	decfsz	9,f
  5435     0F68  2F65               	goto	u1085
  5436     0F69                     l1647:
  5437     0F69  3001               	movlw	1
  5438     0F6A                     u1095:
  5439     0F6A  36F1               	lsrf	___wmul@multiplier+1,f
  5440     0F6B  0CF0               	rrf	___wmul@multiplier,f
  5441     0F6C  0B89               	decfsz	9,f
  5442     0F6D  2F6A               	goto	u1095
  5443     0F6E                     l1649:
  5444     0F6E  0870               	movf	___wmul@multiplier,w
  5445     0F6F  0471               	iorwf	___wmul@multiplier+1,w
  5446     0F70  1D03               	btfss	3,2
  5447     0F71  2F73               	goto	u1101
  5448     0F72  2F74               	goto	u1100
  5449     0F73                     u1101:
  5450     0F73  2F5C               	goto	l1643
  5451     0F74                     u1100:
  5452     0F74                     l1651:
  5453     0F74  0875               	movf	___wmul@product+1,w
  5454     0F75  00F1               	movwf	?___wmul+1
  5455     0F76  0874               	movf	___wmul@product,w
  5456     0F77  00F0               	movwf	?___wmul
  5457     0F78                     l400:
  5458     0F78  0008               	return
  5459     0F79                     __end_of___wmul:
  5460                           
  5461                           	psect	text16
  5462     00BF                     __ptext16:	
  5463 ;; *************** function ___awdiv *****************
  5464 ;; Defined at:
  5465 ;;		line 5 in file "C:\Program Files\Microchip\xc8\v2.41\pic\sources\c90\common\awdiv.c"
  5466 ;; Parameters:    Size  Location     Type
  5467 ;;  divisor         2    0[COMMON] int 
  5468 ;;  dividend        2    2[COMMON] int 
  5469 ;; Auto vars:     Size  Location     Type
  5470 ;;  quotient        2    7[COMMON] int 
  5471 ;;  sign            1    6[COMMON] unsigned char 
  5472 ;;  counter         1    5[COMMON] unsigned char 
  5473 ;; Return value:  Size  Location     Type
  5474 ;;                  2    0[COMMON] int 
  5475 ;; Registers used:
  5476 ;;		wreg, status,2, status,0
  5477 ;; Tracked objects:
  5478 ;;		On entry : 0/0
  5479 ;;		On exit  : 0/0
  5480 ;;		Unchanged: 0/0
  5481 ;; Data sizes:     COMMON   BANK0   BANK1   BANK2   BANK3   BANK4   BANK5   BANK6   BANK7   BANK8   BANK9  BANK10  BANK1
      +1  BANK12  BANK13  BANK14  BANK15  BANK16  BANK17  BANK18  BANK19  BANK20  BANK21  BANK22  BANK23  BANK24  BANK25
  5482 ;;      Params:         4       0       0       0       0       0       0       0       0       0       0       0       
      +0       0       0       0       0       0       0       0       0       0       0       0       0       0       0
  5483 ;;      Locals:         4       0       0       0       0       0       0       0       0       0       0       0       
      +0       0       0       0       0       0       0       0       0       0       0       0       0       0       0
  5484 ;;      Temps:          1       0       0       0       0       0       0       0       0       0       0       0       
      +0       0       0       0       0       0       0       0       0       0       0       0       0       0       0
  5485 ;;      Totals:         9       0       0       0       0       0       0       0       0       0       0       0       
      +0       0       0       0       0       0       0       0       0       0       0       0       0       0       0
  5486 ;;Total ram usage:        9 bytes
  5487 ;; Hardware stack levels used: 1
  5488 ;; This function calls:
  5489 ;;		Nothing
  5490 ;; This function is called by:
  5491 ;;		_main
  5492 ;; This function uses a non-reentrant model
  5493 ;;
  5494                           
  5495     00BF                     ___awdiv:	
  5496                           ;psect for function ___awdiv
  5497                           
  5498     00BF                     l1815:	
  5499                           ;incstack = 0
  5500                           ; Regs used in ___awdiv: [wreg+status,2+status,0]
  5501                           
  5502     00BF  01F6               	clrf	___awdiv@sign
  5503     00C0                     l1817:
  5504     00C0  1FF1               	btfss	___awdiv@divisor+1,7
  5505     00C1  28C3               	goto	u1321
  5506     00C2  28C4               	goto	u1320
  5507     00C3                     u1321:
  5508     00C3  28CB               	goto	l1823
  5509     00C4                     u1320:
  5510     00C4                     l1819:
  5511     00C4  09F0               	comf	___awdiv@divisor,f
  5512     00C5  09F1               	comf	___awdiv@divisor+1,f
  5513     00C6  0AF0               	incf	___awdiv@divisor,f
  5514     00C7  1903               	skipnz
  5515     00C8  0AF1               	incf	___awdiv@divisor+1,f
  5516     00C9                     l1821:
  5517     00C9  01F6               	clrf	___awdiv@sign
  5518     00CA  0AF6               	incf	___awdiv@sign,f
  5519     00CB                     l1823:
  5520     00CB  1FF3               	btfss	___awdiv@dividend+1,7
  5521     00CC  28CE               	goto	u1331
  5522     00CD  28CF               	goto	u1330
  5523     00CE                     u1331:
  5524     00CE  28D8               	goto	l1829
  5525     00CF                     u1330:
  5526     00CF                     l1825:
  5527     00CF  09F2               	comf	___awdiv@dividend,f
  5528     00D0  09F3               	comf	___awdiv@dividend+1,f
  5529     00D1  0AF2               	incf	___awdiv@dividend,f
  5530     00D2  1903               	skipnz
  5531     00D3  0AF3               	incf	___awdiv@dividend+1,f
  5532     00D4                     l1827:
  5533     00D4  3001               	movlw	1
  5534     00D5  00F4               	movwf	??___awdiv
  5535     00D6  0874               	movf	??___awdiv,w
  5536     00D7  06F6               	xorwf	___awdiv@sign,f
  5537     00D8                     l1829:
  5538     00D8  01F7               	clrf	___awdiv@quotient
  5539     00D9  01F8               	clrf	___awdiv@quotient+1
  5540     00DA                     l1831:
  5541     00DA  0870               	movf	___awdiv@divisor,w
  5542     00DB  0471               	iorwf	___awdiv@divisor+1,w
  5543     00DC  1903               	btfsc	3,2
  5544     00DD  28DF               	goto	u1341
  5545     00DE  28E0               	goto	u1340
  5546     00DF                     u1341:
  5547     00DF  290F               	goto	l1851
  5548     00E0                     u1340:
  5549     00E0                     l1833:
  5550     00E0  01F5               	clrf	___awdiv@counter
  5551     00E1  0AF5               	incf	___awdiv@counter,f
  5552     00E2  28EC               	goto	l1839
  5553     00E3                     l1835:
  5554     00E3  3001               	movlw	1
  5555     00E4                     u1355:
  5556     00E4  35F0               	lslf	___awdiv@divisor,f
  5557     00E5  0DF1               	rlf	___awdiv@divisor+1,f
  5558     00E6  0B89               	decfsz	9,f
  5559     00E7  28E4               	goto	u1355
  5560     00E8                     l1837:
  5561     00E8  3001               	movlw	1
  5562     00E9  00F4               	movwf	??___awdiv
  5563     00EA  0874               	movf	??___awdiv,w
  5564     00EB  07F5               	addwf	___awdiv@counter,f
  5565     00EC                     l1839:
  5566     00EC  1FF1               	btfss	___awdiv@divisor+1,7
  5567     00ED  28EF               	goto	u1361
  5568     00EE  28F0               	goto	u1360
  5569     00EF                     u1361:
  5570     00EF  28E3               	goto	l1835
  5571     00F0                     u1360:
  5572     00F0                     l1841:
  5573     00F0  3001               	movlw	1
  5574     00F1                     u1375:
  5575     00F1  35F7               	lslf	___awdiv@quotient,f
  5576     00F2  0DF8               	rlf	___awdiv@quotient+1,f
  5577     00F3  0B89               	decfsz	9,f
  5578     00F4  28F1               	goto	u1375
  5579     00F5  0871               	movf	___awdiv@divisor+1,w
  5580     00F6  0273               	subwf	___awdiv@dividend+1,w
  5581     00F7  1D03               	skipz
  5582     00F8  28FB               	goto	u1385
  5583     00F9  0870               	movf	___awdiv@divisor,w
  5584     00FA  0272               	subwf	___awdiv@dividend,w
  5585     00FB                     u1385:
  5586     00FB  1C03               	skipc
  5587     00FC  28FE               	goto	u1381
  5588     00FD  28FF               	goto	u1380
  5589     00FE                     u1381:
  5590     00FE  2904               	goto	l1847
  5591     00FF                     u1380:
  5592     00FF                     l1843:
  5593     00FF  0870               	movf	___awdiv@divisor,w
  5594     0100  02F2               	subwf	___awdiv@dividend,f
  5595     0101  0871               	movf	___awdiv@divisor+1,w
  5596     0102  3BF3               	subwfb	___awdiv@dividend+1,f
  5597     0103                     l1845:
  5598     0103  1477               	bsf	___awdiv@quotient,0
  5599     0104                     l1847:
  5600     0104  3001               	movlw	1
  5601     0105                     u1395:
  5602     0105  36F1               	lsrf	___awdiv@divisor+1,f
  5603     0106  0CF0               	rrf	___awdiv@divisor,f
  5604     0107  0B89               	decfsz	9,f
  5605     0108  2905               	goto	u1395
  5606     0109                     l1849:
  5607     0109  3001               	movlw	1
  5608     010A  02F5               	subwf	___awdiv@counter,f
  5609     010B  1D03               	btfss	3,2
  5610     010C  290E               	goto	u1401
  5611     010D  290F               	goto	u1400
  5612     010E                     u1401:
  5613     010E  28F0               	goto	l1841
  5614     010F                     u1400:
  5615     010F                     l1851:
  5616     010F  0876               	movf	___awdiv@sign,w
  5617     0110  1903               	btfsc	3,2
  5618     0111  2913               	goto	u1411
  5619     0112  2914               	goto	u1410
  5620     0113                     u1411:
  5621     0113  2919               	goto	l1855
  5622     0114                     u1410:
  5623     0114                     l1853:
  5624     0114  09F7               	comf	___awdiv@quotient,f
  5625     0115  09F8               	comf	___awdiv@quotient+1,f
  5626     0116  0AF7               	incf	___awdiv@quotient,f
  5627     0117  1903               	skipnz
  5628     0118  0AF8               	incf	___awdiv@quotient+1,f
  5629     0119                     l1855:
  5630     0119  0878               	movf	___awdiv@quotient+1,w
  5631     011A  00F1               	movwf	?___awdiv+1
  5632     011B  0877               	movf	___awdiv@quotient,w
  5633     011C  00F0               	movwf	?___awdiv
  5634     011D                     l551:
  5635     011D  0008               	return
  5636     011E                     __end_of___awdiv:
  5637     007E                     btemp	set	126	;btemp
  5638     007E                     wtemp0	set	126
  5639                           
  5640                           	psect	idloc
  5641                           
  5642                           ;Config register IDLOC0 @ 0x8000
  5643                           ;	unspecified, using default values
  5644     8000                     	org	32768
  5645     8000  3FFF               	dw	16383
  5646                           
  5647                           ;Config register IDLOC1 @ 0x8001
  5648                           ;	unspecified, using default values
  5649     8001                     	org	32769
  5650     8001  3FFF               	dw	16383
  5651                           
  5652                           ;Config register IDLOC2 @ 0x8002
  5653                           ;	unspecified, using default values
  5654     8002                     	org	32770
  5655     8002  3FFF               	dw	16383
  5656                           
  5657                           ;Config register IDLOC3 @ 0x8003
  5658                           ;	unspecified, using default values
  5659     8003                     	org	32771
  5660     8003  3FFF               	dw	16383
  5661                           
  5662                           	psect	config
  5663                           
  5664                           ;Config register CONFIG1 @ 0x8007
  5665                           ;	Oscillator Selection
  5666                           ;	FOSC = INTOSC, INTOSC oscillator: I/O function on CLKIN pin
  5667                           ;	Watchdog Timer Enable
  5668                           ;	WDTE = OFF, WDT disabled
  5669                           ;	Power-up Timer Enable
  5670                           ;	PWRTE = OFF, PWRT disabled
  5671                           ;	MCLR Pin Function Select
  5672                           ;	MCLRE = ON, MCLR/VPP pin function is MCLR
  5673                           ;	Flash Program Memory Code Protection
  5674                           ;	CP = OFF, Program memory code protection is disabled
  5675                           ;	Data Memory Code Protection
  5676                           ;	CPD = OFF, Data memory code protection is disabled
  5677                           ;	Brown-out Reset Enable
  5678                           ;	BOREN = ON, Brown-out Reset enabled
  5679                           ;	Clock Out Enable
  5680                           ;	CLKOUTEN = 0x1, unprogrammed default
  5681                           ;	Internal/External Switchover
  5682                           ;	IESO = 0x1, unprogrammed default
  5683                           ;	Fail-Safe Clock Monitor Enable
  5684                           ;	FCMEN = 0x1, unprogrammed default
  5685     8007                     	org	32775
  5686     8007  3FE4               	dw	16356
  5687                           
  5688                           ;Config register CONFIG2 @ 0x8008
  5689                           ;	Flash Memory Self-Write Protection
  5690                           ;	WRT = 0x3, unprogrammed default
  5691                           ;	Voltage Regulator Capacitor Enable bit
  5692                           ;	VCAPEN = 0x1, unprogrammed default
  5693                           ;	PLL Enable
  5694                           ;	PLLEN = 0x1, unprogrammed default
  5695                           ;	Stack Overflow/Underflow Reset Enable
  5696                           ;	STVREN = 0x1, unprogrammed default
  5697                           ;	Brown-out Reset Voltage Selection
  5698                           ;	BORV = 0x1, unprogrammed default
  5699                           ;	Low Power Brown-Out Reset Enable Bit
  5700                           ;	LPBOR = 0x1, unprogrammed default
  5701                           ;	In-Circuit Debugger Mode
  5702                           ;	DEBUG = 0x1, unprogrammed default
  5703                           ;	Low-Voltage Programming Enable
  5704                           ;	LVP = OFF, High-voltage on MCLR/VPP must be used for programming
  5705     8008                     	org	32776
  5706     8008  1FFF               	dw	8191

Data Sizes:
    Strings     142
    Constant    0
    Data        0
    BSS         1
    Persistent  32
    Stack       0

Auto Spaces:
    Space          Size  Autos    Used
    COMMON           14     14      14
    BANK0            80     68      69
    BANK1            80      0       0
    BANK2            80      0       0
    BANK3            80      0       0
    BANK4            80      0       0
    BANK5            80      0       0
    BANK6            80      0       0
    BANK7            80      0       0
    BANK8            80      0       0
    BANK9            80      0       0
    BANK10           80      0       0
    BANK11           80      0       0
    BANK12           80      0       0
    BANK13           80      0       0
    BANK14           80      0       0
    BANK15           80      0       0
    BANK16           80      0       0
    BANK17           80      0       0
    BANK18           80      0       0
    BANK19           80      0       0
    BANK20           80      0       0
    BANK21           80      0       0
    BANK22           80      0       0
    BANK23           80      0       0
    BANK24           80      0       0
    BANK25           32      0       0

Pointer List with Targets:

    strspn@s2	PTR const unsigned char  size(2) Largest target is 2
		 -> STR_35(CODE[2]), STR_33(CODE[2]), STR_29(CODE[2]), STR_26(CODE[2]), 
		 -> STR_25(CODE[2]), STR_24(CODE[2]), STR_23(CODE[2]), STR_22(CODE[2]), 
		 -> STR_20(CODE[2]), STR_19(CODE[2]), STR_18(CODE[2]), STR_16(CODE[2]), 
		 -> STR_15(CODE[2]), STR_14(CODE[2]), STR_13(CODE[2]), STR_12(CODE[2]), 

    strspn@s1	PTR const unsigned char  size(1) Largest target is 40
		 -> NULL(NULL[0]), main@tmp(BANK0[40]), 

    strchr@ptr	PTR const unsigned char  size(2) Largest target is 2
		 -> STR_35(CODE[2]), STR_33(CODE[2]), STR_29(CODE[2]), STR_26(CODE[2]), 
		 -> STR_25(CODE[2]), STR_24(CODE[2]), STR_23(CODE[2]), STR_22(CODE[2]), 
		 -> STR_20(CODE[2]), STR_19(CODE[2]), STR_18(CODE[2]), STR_16(CODE[2]), 
		 -> STR_15(CODE[2]), STR_14(CODE[2]), STR_13(CODE[2]), STR_12(CODE[2]), 

    sp__strchr	PTR unsigned char  size(2) Largest target is 2
		 -> STR_35(CODE[2]), STR_33(CODE[2]), STR_29(CODE[2]), STR_26(CODE[2]), 
		 -> STR_25(CODE[2]), STR_24(CODE[2]), STR_23(CODE[2]), STR_22(CODE[2]), 
		 -> STR_20(CODE[2]), STR_19(CODE[2]), STR_18(CODE[2]), STR_16(CODE[2]), 
		 -> STR_15(CODE[2]), STR_14(CODE[2]), STR_13(CODE[2]), NULL(NULL[0]), 
		 -> STR_12(CODE[2]), 

    strcspn@s2	PTR const unsigned char  size(2) Largest target is 2
		 -> STR_35(CODE[2]), STR_33(CODE[2]), STR_29(CODE[2]), STR_26(CODE[2]), 
		 -> STR_25(CODE[2]), STR_24(CODE[2]), STR_23(CODE[2]), STR_22(CODE[2]), 
		 -> STR_20(CODE[2]), STR_19(CODE[2]), STR_18(CODE[2]), STR_16(CODE[2]), 
		 -> STR_15(CODE[2]), STR_14(CODE[2]), STR_13(CODE[2]), STR_12(CODE[2]), 

    strcspn@s1	PTR const unsigned char  size(1) Largest target is 40
		 -> NULL(NULL[0]), main@tmp(BANK0[40]), 

    strtok@s2	PTR const unsigned char  size(2) Largest target is 2
		 -> STR_35(CODE[2]), STR_33(CODE[2]), STR_29(CODE[2]), STR_26(CODE[2]), 
		 -> STR_25(CODE[2]), STR_24(CODE[2]), STR_23(CODE[2]), STR_22(CODE[2]), 
		 -> STR_20(CODE[2]), STR_19(CODE[2]), STR_18(CODE[2]), STR_16(CODE[2]), 
		 -> STR_15(CODE[2]), STR_14(CODE[2]), STR_13(CODE[2]), STR_12(CODE[2]), 

    strtok@sp	PTR unsigned char  size(1) Largest target is 40
		 -> NULL(NULL[0]), main@tmp(BANK0[40]), 

    strtok@s1	PTR unsigned char  size(1) Largest target is 40
		 -> NULL(NULL[0]), main@tmp(BANK0[40]), 

    strcmp@s2	PTR const unsigned char  size(2) Largest target is 4
		 -> STR_11(CODE[4]), STR_10(CODE[4]), STR_9(CODE[4]), STR_8(CODE[4]), 
		 -> STR_7(CODE[4]), STR_6(CODE[4]), STR_5(CODE[4]), STR_4(CODE[4]), 
		 -> STR_3(CODE[4]), STR_2(CODE[4]), STR_1(CODE[4]), 

    strcmp@s1	PTR const unsigned char  size(1) Largest target is 4
		 -> main@rcmd(BANK0[4]), 

    cgets@s	PTR unsigned char  size(1) Largest target is 40
		 -> main@tmp(BANK0[40]), 

    cgets@s1	PTR unsigned char  size(1) Largest target is 40
		 -> main@tmp(BANK0[40]), 

    sp__cgets	PTR unsigned char  size(1) Largest target is 40
		 -> main@tmp(BANK0[40]), 

    gets@s	PTR unsigned char  size(1) Largest target is 40
		 -> main@tmp(BANK0[40]), 

    atoi@s	PTR const unsigned char  size(1) Largest target is 40
		 -> NULL(NULL[0]), main@tmp(BANK0[40]), 

    printf@f	PTR const unsigned char  size(2) Largest target is 14
		 -> STR_38(CODE[14]), STR_37(CODE[10]), STR_36(CODE[8]), STR_34(CODE[8]), 
		 -> STR_32(CODE[8]), STR_31(CODE[8]), STR_30(CODE[8]), STR_28(CODE[8]), 
		 -> STR_27(CODE[8]), STR_21(CODE[8]), STR_17(CODE[8]), 

    printf@ap	PTR void [1] size(1) Largest target is 2
		 -> ?_printf(COMMON[2]), 

    sp__strtok	PTR unsigned char  size(1) Largest target is 40
		 -> NULL(NULL[0]), main@tmp(BANK0[40]), 

    main@ptr	PTR unsigned char  size(1) Largest target is 40
		 -> NULL(NULL[0]), main@tmp(BANK0[40]), 

    sp__gets	PTR unsigned char  size(1) Largest target is 40
		 -> main@tmp(BANK0[40]), 


Critical Paths under _main in COMMON

    _strtok->_strcspn
    _strtok->_strspn
    _strspn->_strchr
    _strcspn->_strchr
    _printf->_putch
    _gets->_cgets
    _cgets->_getche
    _getche->_putch
    _atoi->___wmul

Critical Paths under _main in BANK0

    _main->_strtok

Critical Paths under _main in BANK1

    None.

Critical Paths under _main in BANK2

    None.

Critical Paths under _main in BANK3

    None.

Critical Paths under _main in BANK4

    None.

Critical Paths under _main in BANK5

    None.

Critical Paths under _main in BANK6

    None.

Critical Paths under _main in BANK7

    None.

Critical Paths under _main in BANK8

    None.

Critical Paths under _main in BANK9

    None.

Critical Paths under _main in BANK10

    None.

Critical Paths under _main in BANK11

    None.

Critical Paths under _main in BANK12

    None.

Critical Paths under _main in BANK13

    None.

Critical Paths under _main in BANK14

    None.

Critical Paths under _main in BANK15

    None.

Critical Paths under _main in BANK16

    None.

Critical Paths under _main in BANK17

    None.

Critical Paths under _main in BANK18

    None.

Critical Paths under _main in BANK19

    None.

Critical Paths under _main in BANK20

    None.

Critical Paths under _main in BANK21

    None.

Critical Paths under _main in BANK22

    None.

Critical Paths under _main in BANK23

    None.

Critical Paths under _main in BANK24

    None.

Critical Paths under _main in BANK25

    None.

Call Graph Tables:

 ---------------------------------------------------------------------------------
 (Depth) Function   	        Calls       Base Space   Used Autos Params    Refs
 ---------------------------------------------------------------------------------
 (0) _main                                                69    69      0   10484
                                              5 BANK0     63    63      0
                            ___awdiv
                             ___wmul
                               _atoi
                               _gets
                           _initUART
                             _printf
                             _strcmp
                             _strtok
 ---------------------------------------------------------------------------------
 (1) _strtok                                               5     3      2    3128
                                              0 BANK0      5     3      2
                            _strcspn
                             _strspn
 ---------------------------------------------------------------------------------
 (2) _strspn                                               7     5      2     592
                                              7 COMMON     7     5      2
                             _strchr
 ---------------------------------------------------------------------------------
 (2) _strcspn                                              7     5      2     592
                                              7 COMMON     7     5      2
                             _strchr
 ---------------------------------------------------------------------------------
 (3) _strchr                                               7     3      4     392
                                              0 COMMON     7     3      4
 ---------------------------------------------------------------------------------
 (1) _strcmp                                               5     3      2    1290
                                              0 COMMON     5     3      2
 ---------------------------------------------------------------------------------
 (1) _printf                                              18    16      2     904
                                              1 COMMON     6     4      2
                              _putch
 ---------------------------------------------------------------------------------
 (1) _initUART                                             0     0      0       0
 ---------------------------------------------------------------------------------
 (1) _gets                                                 1     1      0     380
                                             10 COMMON     1     1      0
                              _cgets
 ---------------------------------------------------------------------------------
 (2) _cgets                                                8     6      2     325
                                              2 COMMON     8     6      2
                             _getche
                              _putch
 ---------------------------------------------------------------------------------
 (3) _getche                                               1     1      0      67
                                              1 COMMON     1     1      0
                              _getch
                              _putch
 ---------------------------------------------------------------------------------
 (2) _putch                                                1     1      0      22
                                              0 COMMON     1     1      0
 ---------------------------------------------------------------------------------
 (4) _getch                                                0     0      0       0
 ---------------------------------------------------------------------------------
 (1) _atoi                                                10     8      2    1042
                                              6 COMMON     6     4      2
                                              0 BANK0      4     4      0
                             ___wmul
                            _isdigit
 ---------------------------------------------------------------------------------
 (2) _isdigit                                              2     2      0      68
                                              0 COMMON     2     2      0
 ---------------------------------------------------------------------------------
 (2) ___wmul                                               6     2      4     548
                                              0 COMMON     6     2      4
 ---------------------------------------------------------------------------------
 (1) ___awdiv                                              9     5      4     452
                                              0 COMMON     9     5      4
 ---------------------------------------------------------------------------------
 Estimated maximum stack depth 4
 ---------------------------------------------------------------------------------

 Call Graph Graphs:

 _main (ROOT)
   ___awdiv
   ___wmul
   _atoi
     ___wmul
     _isdigit
   _gets
     _cgets
       _getche
         _getch
         _putch
       _putch
   _initUART
   _printf
     _putch
   _strcmp
   _strtok
     _strcspn
       _strchr
     _strspn
       _strchr

 Address spaces:
Name               Size   Autos  Total    Cost      Usage
BIGRAM             7F0      0       0       0        0.0%
EEDATA             100      0       0       0        0.0%
NULL                 0      0       0       0        0.0%
CODE                 0      0       0       0        0.0%
BITCOMMON            E      0       0       1        0.0%
BITSFR0              0      0       0       1        0.0%
SFR0                 0      0       0       1        0.0%
COMMON               E      E       E       2      100.0%
BITSFR1              0      0       0       2        0.0%
SFR1                 0      0       0       2        0.0%
BITSFR2              0      0       0       3        0.0%
SFR2                 0      0       0       3        0.0%
STACK                0      0       0       3        0.0%
BITBANK0            50      0       0       4        0.0%
BITSFR3              0      0       0       4        0.0%
SFR3                 0      0       0       4        0.0%
BANK0               50     44      45       5       86.2%
BITSFR4              0      0       0       5        0.0%
SFR4                 0      0       0       5        0.0%
BITBANK1            50      0       0       6        0.0%
BITSFR5              0      0       0       6        0.0%
SFR5                 0      0       0       6        0.0%
BANK1               50      0       0       7        0.0%
BITSFR6              0      0       0       7        0.0%
SFR6                 0      0       0       7        0.0%
BITBANK2            50      0       0       8        0.0%
BITSFR7              0      0       0       8        0.0%
SFR7                 0      0       0       8        0.0%
BANK2               50      0       0       9        0.0%
BITSFR8              0      0       0       9        0.0%
SFR8                 0      0       0       9        0.0%
BITBANK3            50      0       0      10        0.0%
BITSFR9              0      0       0      10        0.0%
SFR9                 0      0       0      10        0.0%
BANK3               50      0       0      11        0.0%
BITSFR10             0      0       0      11        0.0%
SFR10                0      0       0      11        0.0%
BITBANK4            50      0       0      12        0.0%
BITSFR11             0      0       0      12        0.0%
SFR11                0      0       0      12        0.0%
BANK4               50      0       0      13        0.0%
BITSFR12             0      0       0      13        0.0%
SFR12                0      0       0      13        0.0%
BITSFR13             0      0       0      14        0.0%
SFR13                0      0       0      14        0.0%
ABS                  0      0      53      14        0.0%
BITBANK5            50      0       0      15        0.0%
BITSFR14             0      0       0      15        0.0%
SFR14                0      0       0      15        0.0%
BANK5               50      0       0      16        0.0%
BITSFR15             0      0       0      16        0.0%
SFR15                0      0       0      16        0.0%
BITBANK6            50      0       0      17        0.0%
BITSFR16             0      0       0      17        0.0%
SFR16                0      0       0      17        0.0%
BANK6               50      0       0      18        0.0%
BITSFR17             0      0       0      18        0.0%
SFR17                0      0       0      18        0.0%
BITBANK7            50      0       0      19        0.0%
BITSFR18             0      0       0      19        0.0%
SFR18                0      0       0      19        0.0%
BANK7               50      0       0      20        0.0%
BITSFR19             0      0       0      20        0.0%
SFR19                0      0       0      20        0.0%
BITBANK8            50      0       0      21        0.0%
BITSFR20             0      0       0      21        0.0%
SFR20                0      0       0      21        0.0%
BANK8               50      0       0      22        0.0%
BITSFR21             0      0       0      22        0.0%
SFR21                0      0       0      22        0.0%
BITBANK9            50      0       0      23        0.0%
BITSFR22             0      0       0      23        0.0%
SFR22                0      0       0      23        0.0%
BANK9               50      0       0      24        0.0%
BITSFR23             0      0       0      24        0.0%
SFR23                0      0       0      24        0.0%
BITBANK10           50      0       0      25        0.0%
BITSFR24             0      0       0      25        0.0%
SFR24                0      0       0      25        0.0%
BANK10              50      0       0      26        0.0%
BITSFR25             0      0       0      26        0.0%
SFR25                0      0       0      26        0.0%
BITBANK11           50      0       0      27        0.0%
BITSFR26             0      0       0      27        0.0%
SFR26                0      0       0      27        0.0%
BITSFR27             0      0       0      28        0.0%
SFR27                0      0       0      28        0.0%
DATA                 0      0      53      28        0.0%
BANK11              50      0       0      29        0.0%
BITSFR28             0      0       0      29        0.0%
SFR28                0      0       0      29        0.0%
BITBANK12           50      0       0      30        0.0%
BITSFR29             0      0       0      30        0.0%
SFR29                0      0       0      30        0.0%
BANK12              50      0       0      31        0.0%
BITSFR30             0      0       0      31        0.0%
SFR30                0      0       0      31        0.0%
BITBANK13           50      0       0      32        0.0%
BITSFR31             0      0       0      32        0.0%
SFR31                0      0       0      32        0.0%
BANK13              50      0       0      33        0.0%
BITBANK14           50      0       0      34        0.0%
BANK14              50      0       0      35        0.0%
BITBANK15           50      0       0      36        0.0%
BANK15              50      0       0      37        0.0%
BITBANK16           50      0       0      38        0.0%
BANK16              50      0       0      39        0.0%
BITBANK17           50      0       0      40        0.0%
BANK17              50      0       0      41        0.0%
BITBANK18           50      0       0      42        0.0%
BANK18              50      0       0      43        0.0%
BITBANK19           50      0       0      44        0.0%
BANK19              50      0       0      45        0.0%
BITBANK20           50      0       0      46        0.0%
BANK20              50      0       0      47        0.0%
BITBANK21           50      0       0      48        0.0%
BANK21              50      0       0      49        0.0%
BITBANK22           50      0       0      50        0.0%
BANK22              50      0       0      51        0.0%
BITBANK23           50      0       0      52        0.0%
BANK23              50      0       0      53        0.0%
BITBANK24           50      0       0      54        0.0%
BANK24              50      0       0      55        0.0%
BITBANK25           20      0       0      56        0.0%
BANK25              20      0       0      57        0.0%


Microchip Technology PIC Macro Assembler V2.41 build 20230208172133 
Symbol Table                                                                                   Sat Dec 02 16:06:51 2023

                     l43 01DB                       l44 01E9                       l45 01E2  
                     l80 032C                       l64 02BB                       l90 0386  
                     l74 0345                       l75 030E                       l84 039F  
                     l76 0319                       l85 0368                       l77 0313  
                     l86 0373                       l78 0327                       l87 036D  
                     l79 0332                       l88 0381                       l89 038C  
           ___awdiv@sign 0076      ___wmul@multiplicand 0072                      l100 048B  
                    l101 0454                      l110 049D                      l102 045F  
                    l111 04A8                      l103 0459                      l120 04F7  
                    l112 04A2                      l104 046D                      l121 0502  
                    l113 04B6                      l105 0478                      l130 054B  
                    l122 04FC                      l114 04C1                      l106 0472  
                    l131 0545                      l123 0510                      l115 04BB  
                    l140 059F                      l132 0559                      l124 051B  
                    l141 0599                      l133 0564                      l125 0515  
                    l109 04D4                      l150 0600                      l142 05AD  
                    l134 055E                      l223 0F0D                      l143 05B8  
                    l119 052E                      l400 0F78                      l232 0EFE  
                    l160 064D                      l152 060B                      l144 05B2  
                    l128 0577                      l161 0658                      l153 0605  
                    l145 05C6                      l129 0540                      l226 0F0F  
                    l162 0652                      l154 0619                      l138 05D0  
                    l235 0F05                      l171 06A7                      l163 0666  
                    l155 0624                      l139 0594                      l180 06F4  
                    l172 06A1                      l164 0671                      l156 061E  
                    l229 0F17                      l181 06EE                      l173 06B5  
                    l165 066B                      l157 0632                      l238 0F21  
                    l190 0744                      l182 0702                      l174 06C0  
                    l191 073E                      l183 070D                      l175 06BA  
                    l159 0684                      l192 0752                      l184 0707  
                    l176 06CE                      l193 075D                      l169 069C  
                    l194 0757                      l178 0720                      l179 06E9  
                    l188 0770                      l189 0739                      l551 011D  
                    l394 0F3B                      l398 0F64                      l910 0067  
                    l923 0FCF                      l861 019B                      l926 0F3C  
                    l928 0F59                      l866 0009                      l891 001B  
                    l939 0FFF                      l884 00BE                      l899 0F9F  
                    _RA0 0060                      _RA1 0061                      _RB0 0068  
                    _RB3 006B                      _RB4 006C                      _RB5 006D  
                    _RB6 006E                      wreg 0009                     l2001 0383  
                   l2011 03D3                     l2003 0387                     l2101 05E6  
                   l2021 03FB                     l2013 03D8                     l2005 039A  
                   l2103 05F0                     l2031 0450                     l2023 0403  
                   l2015 03E1                     l2007 03AD                     l2201 07C6  
                   l2113 0602                     l2105 05F5                     l2041 0486  
                   l2033 0456                     l2025 0435                     l2017 03F1  
                   l2009 03B5                     l2203 07CE                     l2131 0668  
                   l2123 0638                     l2115 0606                     l2107 05FE  
                   l2051 04BC                     l2043 0499                     l2035 045A  
                   l2027 043A                     l2019 03F7                     l2133 066C  
                   l2125 0649                     l2117 061B                     l2061 04FD  
                   l2053 04CF                     l2045 049F                     l2037 046F  
                   l2029 0443                     l2151 06BB                     l2135 067F  
                   l2127 064F                     l2119 061F                     l2071 0542  
                   l2063 0512                     l2047 04A3                     l2039 0473  
                   l2055 04E3                     l2207 07D6                     l2161 06EF  
                   l2145 069E                     l2137 0692                     l2129 0653  
                   l2073 0546                     l2065 0516                     l2057 04F4  
                   l2081 0585                     l2049 04B8                     l2171 0736  
                   l2163 0704                     l2155 06D4                     l2147 06A2  
                   l2139 069A                     l2091 05AF                     l2083 058D  
                   l2075 055B                     l2067 0529                     l2059 04F9  
                   l1613 0F0F                     l2229 00B0                     l1701 0FD1  
                   l2181 076B                     l2173 073B                     l2165 0708  
                   l2157 06E5                     l2149 06B7                     l2093 05B3  
                   l2085 0591                     l2077 055F                     l2069 053C  
                   l1615 0F14                     l1623 0F18                     l1631 0F3C  
                   l1703 0FD4                     l2191 079E                     l2183 077E  
                   l2175 073F                     l2167 071B                     l2159 06EB  
                   l2087 0596                     l2079 0572                     l1641 0F5A  
                   l1801 018B                     l1617 0EFE                     l1625 0F1C  
                   l1633 0F46                     l1721 0FCB                     l1713 0FA1  
                   l1705 0FDC                     l2193 07A6                     l2185 0786  
                   l2177 0754                     l2169 072E                     l2097 05CC  
                   l2089 059A                     l1651 0F74                     l1643 0F5C  
                   l1619 0F03                     l1627 0F20                     l1811 0F25  
                   l1731 0F7A                     l1635 0F47                     l1715 0FA4  
                   l1707 0FE4                     l2195 07B0                     l2187 0790  
                   l2179 0758                     l2099 05DE                     l1821 00C9  
                   l1645 0F60                     l1661 0018                     l1805 0197  
                   l1725 0F06                     l1813 0F29                     l1733 0F7B  
                   l1637 0F57                     l1717 0FAC                     l1709 0FFB  
                   l2197 07B5                     l2189 0795                     l1901 01CB  
                   l1831 00DA                     l1823 00CB                     l1815 00BF  
                   l1647 0F69                     l1663 001A                     l1655 000B  
                   l1727 0005                     l1735 0F83                     l1719 0FB4  
                   l1743 001E                     l2199 07BE                     l1911 01D8  
                   l1903 01CD                     l1841 00F0                     l1833 00E0  
                   l1825 00CF                     l1817 00C0                     l1649 0F6E  
                   l1657 000C                     l1681 008C                     l1673 0073  
                   l1809 0F22                     l1737 0F92                     l1761 0044  
                   l1753 002C                     l1745 0023                     l1921 01F1  
                   l1913 01DF                     l1905 01CF                     l1843 00FF  
                   l1835 00E3                     l1851 010F                     l1827 00D4  
                   l1819 00C4                     l1659 0012                     l1691 009E  
                   l1683 0093                     l1675 007B                     l1667 0069  
                   l1739 0F9A                     l1771 0066                     l1763 0054  
                   l1755 0039                     l1747 0025                     l1931 0207  
                   l1923 01F3                     l1915 01E6                     l1907 01D0  
                   l1853 0114                     l1845 0103                     l1837 00E8  
                   l1829 00D8                     l1781 012E                     l1685 0097  
                   l1677 007E                     l1669 006C                     l1765 005C  
                   l1757 0041                     l1749 002A                     l1941 0239  
                   l1933 0215                     l1925 01F5                     l1909 01D4  
                   l1917 01EA                     l1861 01A1                     l1855 0119  
                   l1847 0104                     l1839 00EC                     l1791 0155  
                   l1783 0137                     l1775 0120                     l1679 008A  
                   l1695 00A2                     l1767 0060                     l1951 0261  
                   l1943 023D                     l1935 0219                     l1927 01F6  
                   l1919 01EE                     l1871 01A6                     l1863 01A3  
                   l1849 0109                     l1793 015A                     l1785 013A  
                   l1777 0121                     l1689 0099                     l1769 0065  
                   l1961 0293                     l1953 026F                     l1945 024B  
                   l1937 0227                     l1929 0204                     l1881 01BB  
                   l1873 01AB                     l1865 01A6                     l1787 0143  
                   l1779 0125                     l1963 0297                     l1955 0273  
                   l1947 024F                     l1939 022B                     l1971 02BB  
                   l1891 01C2                     l1883 01BC                     l1875 01AF  
                   l1867 01A6                     l1859 019C                     l1797 017A  
                   l1789 014C                     l1981 030A                     l1973 02C7  
                   l1965 02A5                     l1957 0281                     l1949 025D  
                   l1893 01C4                     l1885 01BD                     l1877 01B3  
                   l1869 01A6                     l1799 0185                     l1991 0340  
                   l1983 0310                     l1975 02EF                     l1967 02A9  
                   l1959 0285                     l1895 01C6                     l1887 01BE  
                   l1879 01B7                     l1985 0314                     l1993 0354  
                   l1977 02F4                     l1969 02B7                     l1897 01C8  
                   l1889 01BF                     l1995 0365                     l1987 0329  
                   l1979 02FD                     l1899 01C9                     l1997 036A  
                   l1989 032D                     l1999 036E                     STR_1 1084  
                   STR_2 1060                     STR_3 1064                     STR_4 1074  
                   STR_5 1078                     STR_6 1068                     STR_7 1080  
                   STR_8 1088                     STR_9 106C                     u1100 0F74  
                   u1101 0F73                     u1110 0012                     u1030 0F14  
                   u1111 0011                     u1031 0F13                     u1120 0018  
                   u1040 0F03                     u1200 0F9A                     u2000 0752  
                   u1121 0017                     u1041 0F02                     u1201 0F99  
                   u2001 0751                     u1130 0072                     u1050 0F46  
                   u1210 0023                     u2010 076B                     u1131 0071  
                   u1051 0F45                     u1211 0022                     u2011 076A  
                   u1300 018B                     u1140 0092                     u1060 0F57  
                   u1220 002A                     u2020 077E                     u1301 018A  
                   u1141 0091                     u1061 0F56                     u1221 0029  
                   u2021 077D                     u2005 074E                     u1070 0F60  
                   u1310 0F3B                     u1150 0FE4                     u1230 0041  
                   u2030 0795                     u1071 0F5F                     u1311 0F3A  
                   u1151 0FE3                     u1231 0040                     u2031 0794  
                   u2015 0767                     u1400 010F                     u1320 00C4  
                   u1160 0FFB                     u1240 005C                     u2040 07B5  
                   u1401 010E                     u1321 00C3                     u1161 0FFA  
                   u1241 005B                     u2041 07B4                     u2025 077A  
                   u1410 0114                     u1330 00CF                     u1250 012E  
                   u1170 0FB4                     u1411 0113                     u1331 00CE  
                   u1251 012D                     u1171 0FB3                     u1340 00E0  
                   u1260 0137                     u1180 0FCB                     u1500 024B  
                   u1420 01D4                     u1341 00DF                     u1085 0F65  
                   u1261 0136                     u1181 0FCA                     u1501 024A  
                   u1421 01D3                     u1270 0143                     u1190 0F92  
                   u1510 025D                     u1430 01D8                     u1095 0F6A  
                   u1271 0142                     u1191 0F91                     u1511 025C  
                   u1431 01D7                     u1360 00F0                     u1280 0155  
                   u1600 0340                     u1520 026F                     u1440 01DF  
                   u1361 00EF                     u1281 0154                     u1601 033F  
                   u1521 026E                     u1441 01DE                     u1290 0185  
                   u1610 0353                     u1530 0281                     u1450 01E6  
                   u1355 00E4                     u1291 0184                     u1611 0352  
                   u1531 0280                     u1451 01E5                     u1380 00FF  
                   u1700 0486                     u1620 0381                     u1540 0293  
                   u1460 0204                     u1381 00FE                     u1701 0485  
                   u1621 0380                     u1605 033C                     u1541 0292  
                   u1461 0203                     u1710 0499                     u1630 039A  
                   u1550 02A5                     u1470 0215                     u1375 00F1  
                   u1711 0498                     u1631 0399                     u1615 034F  
                   u1551 02A4                     u1471 0214                     u1800 0585  
                   u1720 04B6                     u1640 03AD                     u1560 02B7  
                   u1480 0227                     u1385 00FB                     u1801 0584  
                   u1721 04B5                     u1705 0482                     u1641 03AC  
                   u1625 037D                     u1561 02B6                     u1481 0226  
                   u1810 05AD                     u1730 04CF                     u1650 03D8  
                   u1570 02F4                     u1490 0239                     u1395 0105  
                   u1811 05AC                     u1731 04CE                     u1715 0495  
                   u1651 03D7                     u1635 0396                     u1571 02F3  
                   u1491 0238                     u1900 0666                     u1820 05C6  
                   u1740 04E2                     u1660 03F7                     u1580 030A  
                   u1901 0665                     u1821 05C5                     u1805 0581  
                   u1741 04E1                     u1725 04B2                     u1661 03F6  
                   u1645 03A9                     u1581 0309                     u1910 067F  
                   u1830 05CB                     u1750 0510                     u1670 043A  
                   u1590 0327                     u1911 067E                     u1831 05CA  
                   u1815 05A9                     u1751 050F                     u1735 04CB  
                   u1671 0439                     u1591 0326                     u1920 0692  
                   u1840 05DE                     u1760 0529                     u1680 0450  
                   u1921 0691                     u1905 0662                     u1841 05DD  
                   u1825 05C2                     u1761 0528                     u1745 04DE  
                   u1681 044F                     u1585 0306                     u1930 06B5  
                   u1850 05F5                     u1770 053C                     u1690 046D  
                   u1931 06B4                     u1915 067B                     u1851 05F4  
                   u1771 053B                     u1755 050C                     u1691 046C  
                   u1595 0323                     u1940 06CE                     u1860 0619  
                   u1780 0559                     u1941 06CD                     u1925 068E  
                   u1861 0618                     u1845 05DA                     u1781 0558  
                   u1765 0525                     u1685 044C                     u1950 06D3  
                   u1870 0632                     u1790 0572                     u1951 06D2  
                   u1935 06B1                     u1871 0631                     u1791 0571  
                   u1775 0538                     u1695 0469                     u1960 06E5  
                   u1880 0637                     u1961 06E4                     u1945 06CA  
                   u1881 0636                     u1865 0615                     u1785 0555  
                   u1970 0702                     u1890 0649                     u1971 0701  
                   u1891 0648                     u1875 062E                     u1795 056E  
                   u1980 071B                     u1981 071A                     u1965 06E1  
                   u1990 072E                     u1991 072D                     u1975 06FE  
                   u1895 0645                     u1985 0717                     u1995 072A  
                   _RCIF 008D                     _TXIF 008C                     _atoi 011E  
                   _gets 0004                     _main 019C                     fsr0h 0005  
                   fsr1h 0007                     indf0 0000                     fsr0l 0004  
            main@set_spd 0050                     indf1 0001                     fsr1l 0006  
                   btemp 007E                     start 0002                    ?_atoi 0076  
                  ?_gets 0070                    ?_main 0070          __end_of___awdiv 011E  
                  STR_10 107C                    STR_11 1070                    STR_20 108C  
                  STR_12 108C                    STR_13 108C                    STR_21 1018  
                  STR_22 108C                    STR_14 108C                    STR_30 1048  
                  STR_23 108C                    STR_15 108C                    STR_31 1028  
                  STR_24 108C                    STR_16 108C                    STR_32 1038  
                  STR_33 108C                    STR_25 108C                    STR_17 1058  
                  STR_26 108C                    STR_18 108C                    STR_34 1030  
                  STR_35 108C                    STR_19 108C                    STR_27 1020  
                  STR_36 1050                    STR_28 1040                    STR_29 108C  
                  STR_37 100E                    STR_38 1000          ___awdiv@divisor 0070  
        ___awdiv@counter 0075                    _RCREG 0199                    _RCSTA 019D  
                  _SPBRG 019B                    _PORTA 000C                    _PORTB 000D  
                  _TRISA 008C                    _TRISB 008D                    _TXREG 019A  
                  _TXSTA 019E                    _cgets 0068                    _getch 0EFE  
        __end_of_isdigit 001C                    atoi@a 0021                    atoi@s 0023  
                  _putch 0F0E                    gets@s 007A                    main@j 0062  
                  main@k 005E                    status 0003                    wtemp0 007E  
        __end_of_strcspn 0FD0          __initialization 07FB             __end_of_atoi 019C  
           __end_of_gets 000A             __end_of_main 07FB                   ??_atoi 0078  
                 ??_gets 007A                   ??_main 0025                   ?_cgets 0072  
                 ?_getch 0070         ___awdiv@dividend 0072                   ?_putch 0070  
                 ___wmul 0F5A                ??___awdiv 0074         __end_of_initUART 0F0E  
                 _getche 0F18                   cgets@c 0076                   cgets@s 0078  
       ___awdiv@quotient 0077                   _printf 0F22                   _strchr 0F3C  
                 _strcmp 0F79                   _strtok 001C                   _strspn 0FD0  
              ??_isdigit 0070                ??_strcspn 0079  __end_of__initialization 07FD  
         __pcstackCOMMON 0070            __end_of_cgets 00BF            __end_of_getch 0F06  
          __end_of_putch 0F18                  ??_cgets 0074                  ??_getch 0070  
                ??_putch 0070               __pbssBANK0 0064               __pmaintext 019C  
                ?___wmul 0070                  ?_getche 0070                  ?_printf 0071  
                ?_strchr 0070                  ?_strcmp 0070                  ?_strtok 0020  
                ?_strspn 0077                ?_initUART 0070                  ___awdiv 00BF  
                __ptext1 001C                  __ptext2 0FD0                  __ptext3 0FA0  
                __ptext4 0F3C                  __ptext5 0F79                  __ptext6 0F22  
                __ptext7 0F06                  __ptext8 0004                  __ptext9 0068  
                _isdigit 000A                  cgets@s1 0079                  getche@c 0071  
                main@cmd 0056                  main@npd 0052                  main@nsp 0054  
                main@ptr 005D                  main@tmp 0026                  _strcspn 0FA0  
   end_of_initialization 07FD               ??_initUART 0070                  printf@c 0076  
                printf@f 0071                  strcmp@r 0073                  strspn@i 007B  
             main@mx_spd 004E           __end_of___wmul 0F79           __end_of_getche 0F22  
         __end_of_printf 0F3C           __end_of_strchr 0F5A           __end_of_strcmp 0FA0  
         __end_of_strtok 0068           __end_of_strspn 1000      start_initialization 07FB  
               ??___wmul 0074                 ??_getche 0071                 ??_printf 0073  
               ??_strchr 0074                 ??_strcmp 0072                 ??_strtok 0022  
               ??_strspn 0079                ___latbits 0003            __pcstackBANK0 0020  
               ?___awdiv 0070                 ?_isdigit 0070                 ?_strcspn 0077  
         ___wmul@product 0074        ___wmul@multiplier 0070                main@intvl 0060  
            _isdigit$667 0070                 __ptext10 0F18                 __ptext11 0F0E  
               __ptext12 0EFE                 __ptext13 011E                 __ptext14 000A  
               __ptext15 0F5A                 __ptext16 00BF                 _initUART 0F06  
               atoi@sign 0020                 main@dist 005B                 main@rcmd 0057  
              putch@byte 0070           __pstringtext10 1050           __pstringtext11 1058  
         __pstringtext20 1080           __pstringtext12 1060           __pstringtext21 1084  
         __pstringtext13 1064           __pstringtext22 1088           __pstringtext14 1068  
         __pstringtext23 108C           __pstringtext15 106C           __pstringtext24 0000  
         __pstringtext16 1070           __pstringtext17 1074           __pstringtext18 1078  
         __pstringtext19 107C                 isdigit@c 0071                strchr@chr 0072  
              strchr@ptr 0070                strcspn@s1 007D                strcspn@s2 0077  
               printf@ap 0075            __pstringtext1 1000            __pstringtext2 100E  
          __pstringtext3 1018            __pstringtext4 1020            __pstringtext5 1028  
          __pstringtext6 1030            __pstringtext7 1038            __pstringtext8 1040  
          __pstringtext9 1048                 strcmp@s1 0074                 strcmp@s2 0070  
               strcspn@i 007B                 strtok@s1 0024                 strtok@s2 0020  
               strspn@s1 007D                 strspn@s2 0077                 strtok@sp 0064  
